(dp0
(S'ZEB1'
p1
S'FOXA1'
p2
S'increases'
p3
tp4
(lp5
s(S'FOXJ1'
p6
S'GATA6'
p7
S'increases'
p8
tp9
(lp10
s(S'TFAP4'
p11
S'FOXD3'
p12
S'increases'
p13
tp14
(lp15
s(S'TBP'
p16
S'MEIS1'
p17
S'increases'
p18
tp19
(lp20
s(S'GCM1'
p21
S'GATA6'
p22
S'increases'
p23
tp24
(lp25
s(S'T-DHT'
p26
S'SRC'
p27
S'adds_modification'
p28
tp29
(lp30
s(S'MAZ'
p31
S'GABPB2'
p32
S'increases'
p33
tp34
(lp35
s(S'HMGA1'
p36
S'EN1'
p37
S'increases'
p38
tp39
(lp40
s(S'CYP26A1'
p41
S'NRAS'
p42
S'increases'
p43
tp44
(lp45
s(S'CUX1'
p46
S'MEIS1'
p47
S'increases'
p48
tp49
(lp50
s(S'REPIN1'
p51
S'BACH1'
p52
S'increases'
p53
tp54
(lp55
s(S'TFDP1'
p56
S'HOXA9'
p57
S'increases'
p58
tp59
(lp60
s(S'NFE2L1'
p61
S'CYP26A1'
p62
S'increases'
p63
tp64
(lp65
s(S'MAZ'
p66
S'GATA1'
p67
S'increases'
p68
tp69
(lp70
s(S'TCF12'
p71
S'GABPB2'
p72
S'increases'
p73
tp74
(lp75
s(S'ETS2'
p76
S'FOXO3'
p77
S'increases'
p78
tp79
(lp80
s(S'hsa-let-7c-5p'
p81
S'NRAS'
p82
S'decreases'
p83
tp84
(lp85
s(S'SPI1'
p86
S'CYP26A1'
p87
S'increases'
p88
tp89
(lp90
s(S'RAC1/GTP'
p91
S'MKK4'
p92
S'adds_modification'
p93
tp94
(lp95
s(S'Quercetin'
p96
S'KRAS MRNA'
p97
S'decreases'
p98
tp99
(lp100
s(S'INSULIN RECEPTOR/INSULIN/SHC'
p101
S'GRB2'
p102
S'binds'
p103
tp104
(lp105
s(S'TAp63a (tetramer)'
p106
S'PKC DELTA'
p107
S'increases'
p108
tp109
(lp110
s(S'FOXO1'
p111
S'POU2F1'
p112
S'increases'
p113
tp114
(lp115
s(S'FOXL1'
p116
S'EN1'
p117
S'increases'
p118
tp119
(lp120
s(S'TBP'
p121
S'CYP26A1'
p122
S'increases'
p123
tp124
(lp125
s(S'Heptachlor'
p126
S'HRAS MRNA'
p127
S'decreases'
p128
tp129
(lp130
s(S'PCBP1'
p131
S'CYP26A1'
p132
S'increases'
p133
tp134
(lp135
s(S'ZBTB18'
p136
S'CYP26A1'
p137
S'increases'
p138
tp139
(lp140
s(S'GATA2'
p141
S'CYP26A1'
p142
S'increases'
p143
tp144
(lp145
s(S'Cadmium'
p146
S'KRAS MRNA'
p147
S'increases'
p148
tp149
(lp150
s(S'HNF1A'
p151
S'POU2F1'
p152
S'increases'
p153
tp154
(lp155
s(S'ABT-100'
p156
S'HRAS PROTEIN'
p157
S'inhibits_modification'
p158
tp159
(lp160
s(S'ELF1'
p161
S'CYP26A1'
p162
S'increases'
p163
tp164
(lp165
s(S'LEF1'
p166
S'KRAS'
p167
S'increases'
p168
tp169
(lp170
s(S'NKX2-1'
p171
S'FOXD3'
p172
S'increases'
p173
tp174
(lp175
s(S'PI-3-4-5-P3'
p176
S'BTK-ITK'
p177
S'translocates'
p178
tp179
(lp180
s(S'POU6F1'
p181
S'HOXA9'
p182
S'increases'
p183
tp184
(lp185
s(S'Myb'
p186
S'MYB'
p187
S'increases'
p188
tp189
(lp190
s(S'PAX5'
p191
S'CYP26A1'
p192
S'increases'
p193
tp194
(lp195
s(S'FOXO4'
p196
S'FOXD3'
p197
S'increases'
p198
tp199
(lp200
s(S'CYP26A1'
p201
S'FOXO4'
p202
S'increases'
p203
tp204
(lp205
s(S'cell adhesion'
p206
S'HRAS/GDP'
p207
S'increases_activity'
p208
tp209
(lp210
s(S'IRF7'
p211
S'CYP26A1'
p212
S'increases'
p213
tp214
(lp215
s(S'7,8-Dihydro-7,8-dihydroxybenzo(a)pyrene 9,10-oxide'
p216
S'KRAS PROTEIN'
p217
S'increases'
p218
tp219
(lp220
s(S'PITX2'
p221
S'POU2F1'
p222
S'increases'
p223
tp224
(lp225
s(S'E2F1'
p226
S'CYP26A1'
p227
S'increases'
p228
tp229
(lp230
s(S'ATF1'
p231
S'CYP26A1'
p232
S'increases'
p233
tp234
(lp235
s(S'PI3K'
p236
S'PKC DELTA'
p237
S'adds_modification'
p238
tp239
(lp240
s(S'SOX5'
p241
S'HOXA9'
p242
S'increases'
p243
tp244
(lp245
s(S'FOXO4'
p246
S'POU2F1'
p247
S'increases'
p248
tp249
(lp250
s(S'FOXO4'
p251
S'GATA6'
p252
S'increases'
p253
tp254
(lp255
s(S'LEF1'
p256
S'FOXF2'
p257
S'increases'
p258
tp259
(lp260
s(S'Insulin Receptor/Insuli/IRS1/GRB2/SHC/Sos'
p261
S'HRAS/GDP'
p262
S'increases_activity'
p263
tp264
(lp265
s(S'TLX2'
p266
S'RUNX1'
p267
S'increases'
p268
tp269
(lp270
s(S'ALX4'
p271
S'JUN'
p272
S'increases'
p273
tp274
(lp275
s(S'RHOA/GTP'
p276
S'RHOGDI'
p277
S'binds'
p278
tp279
(lp280
s(S'GCM1'
p281
S'CYP26A1'
p282
S'increases'
p283
tp284
(lp285
s(S'RB1'
p286
S'ONECUT1'
p287
S'increases'
p288
tp289
(lp290
s(S'NHLH1'
p291
S'CYP26A1'
p292
S'increases'
p293
tp294
(lp295
s(S'NR3C1'
p296
S'BACH1'
p297
S'increases'
p298
tp299
(lp300
s(S'HNF4A'
p301
S'CYP26A1'
p302
S'increases'
p303
tp304
(lp305
s(S'YY1'
p306
S'FOXO3'
p307
S'increases'
p308
tp309
(lp310
s(S'GRB2:SOS1'
p311
S'P-EGFR MUTANTS DIMER'
p312
S'binds'
p313
tp314
(lp315
s(S'P-Y349,350-SHC1:P-ERBB4'
p316
S'GRB2:SOS1'
p317
S'binds'
p318
tp319
(lp320
s(S'FOXN1'
p321
S'ONECUT1'
p322
S'increases'
p323
tp324
(lp325
s(S'TFAP4'
p326
S'MYC'
p327
S'increases'
p328
tp329
(lp330
s(S'MYC'
p331
S'EN1'
p332
S'increases'
p333
tp334
(lp335
s(S'Antigen/IgE/Fc epsilon R1/LYN/SYK'
p336
S'SHC/GRB2/SOS1'
p337
S'increases_activity'
p338
tp339
(lp340
s(S'14-3-3 BETA, ZETA'
p341
S'GARNL4'
p342
S'binds'
p343
tp344
(lp345
s(S'SMAD1'
p346
S'EN1'
p347
S'increases'
p348
tp349
(lp350
s(S'Raf-1'
p351
S'MEK1-2'
p352
S'adds_modification'
p353
tp354
(lp355
s(S'POU2F1'
p356
S'FOXO3'
p357
S'increases'
p358
tp359
(lp360
s(S'NGF (dimer)/TRKA'
p361
S'RASGRF1'
p362
S'adds_modification'
p363
tp364
(lp365
s(S'TCF4'
p366
S'CYP26A1'
p367
S'increases'
p368
tp369
(lp370
s(S'STAT5B'
p371
S'TLX2'
p372
S'increases'
p373
tp374
(lp375
s(S'CYP26A1'
p376
S'SRF'
p377
S'increases'
p378
tp379
(lp380
s(S'STAT1'
p381
S'NRAS'
p382
S'increases'
p383
tp384
(lp385
s(S'TFDP1'
p386
S'GATA1'
p387
S'increases'
p388
tp389
(lp390
s(S'PI3K'
p391
S'ALPHA6/BETA4 INTEGRIN/LAMININ'
p392
S'binds'
p393
tp394
(lp395
s(S'FOXF2'
p396
S'NRAS'
p397
S'increases'
p398
tp399
(lp400
s(S'CUX1'
p401
S'POU2F1'
p402
S'increases'
p403
tp404
(lp405
s(S'ETS2'
p406
S'STAT4'
p407
S'increases'
p408
tp409
(lp410
s(S'EN1'
p411
S'CYP26A1'
p412
S'increases'
p413
tp414
(lp415
s(S'COMPLEX (RAS/GTP)'
p416
S'RAF'
p417
S'binds'
p418
tp419
(lp420
s(S'LEF1'
p421
S'EN1'
p422
S'increases'
p423
tp424
(lp425
s(S'FOXL1'
p426
S'NRAS'
p427
S'increases'
p428
tp429
(lp430
s(S'ELF2'
p431
S'CYP26A1'
p432
S'increases'
p433
tp434
(lp435
s(S'Src Family Kinases-active'
p436
S'EGF/EGFR'
p437
S'adds_modification'
p438
tp439
(lp440
s(S'RUNX1'
p441
S'POU2F1'
p442
S'increases'
p443
tp444
(lp445
s(S'RHOA/GTP'
p446
S'CITRON-N'
p447
S'increases_activity'
p448
tp449
(lp450
s(S'PAX4'
p451
S'SRF'
p452
S'increases'
p453
tp454
(lp455
s(S'Vitamin E'
p456
S'HRAS MRNA'
p457
S'increases'
p458
tp459
(lp460
s(S'CDX2'
p461
S'FOXD3'
p462
S'increases'
p463
tp464
(lp465
s(S'Plant Extracts'
p466
S'KEAP1 PROTEIN'
p467
S'decreases'
p468
tp469
(lp470
s(S'PAX4'
p471
S'CBFA2T3'
p472
S'increases'
p473
tp474
(lp475
s(S'FOXD1'
p476
S'CYP26A1'
p477
S'increases'
p478
tp479
(lp480
s(S'Antigen/IgE/Fc epsilon R1/LYN/SYK'
p481
S'VAV1'
p482
S'adds_modification'
p483
tp484
(lp485
s(S'PCBP1'
p486
S'MEIS1'
p487
S'increases'
p488
tp489
(lp490
s(S'FOXI1'
p491
S'FOXD3'
p492
S'increases'
p493
tp494
(lp495
s(S'GATA4'
p496
S'MEIS1'
p497
S'increases'
p498
tp499
(lp500
s(S'STAT5B'
p501
S'CEBPG'
p502
S'increases'
p503
tp504
(lp505
s(S'TFDP2'
p506
S'MAZ'
p507
S'increases'
p508
tp509
(lp510
s(S'PI3K'
p511
S'SHP2'
p512
S'binds'
p513
tp514
(lp515
s(S'SPI1'
p516
S'ONECUT1'
p517
S'increases'
p518
tp519
(lp520
s(S'STAT6'
p521
S'EN1'
p522
S'increases'
p523
tp524
(lp525
s(S'TLX2'
p526
S'CYP26A1'
p527
S'increases'
p528
tp529
(lp530
s(S'RAF1'
p531
S'MEK1-2'
p532
S'increases_activity'
p533
tp534
(lp535
s(S'STAT5A'
p536
S'IRF1'
p537
S'increases'
p538
tp539
(lp540
s(S'2-amino-1-methyl-6-phenylimidazo(4,5-b)pyridine'
p541
S'HRAS MRNA'
p542
S'increases'
p543
tp544
(lp545
s(S'MAZ'
p546
S'POU2F1'
p547
S'increases'
p548
tp549
(lp550
s(S'MAZ'
p551
S'SRF'
p552
S'increases'
p553
tp554
(lp555
s(S'GATA1'
p556
S'JUN'
p557
S'increases'
p558
tp559
(lp560
s(S'FOXA1'
p561
S'NRAS'
p562
S'increases'
p563
tp564
(lp565
s(S'STAT1'
p566
S'EN1'
p567
S'increases'
p568
tp569
(lp570
s(S'GTF2A2'
p571
S'MAX'
p572
S'increases'
p573
tp574
(lp575
s(S'LMO2'
p576
S'EN1'
p577
S'increases'
p578
tp579
(lp580
s(S'MYOD1'
p581
S'LEF1'
p582
S'increases'
p583
tp584
(lp585
s(S'ATF3'
p586
S'JUN'
p587
S'increases'
p588
tp589
(lp590
s(S'GRB2:SOS1'
p591
S'ACTIVATED FGFR:P-SHC1'
p592
S'binds'
p593
tp594
(lp595
s(S'MAFG'
p596
S'BACH1'
p597
S'increases'
p598
tp599
(lp600
s(S'POU3F2'
p601
S'POU2F1'
p602
S'increases'
p603
tp604
(lp605
s(S'K 7174'
p606
S'KRAS MRNA'
p607
S'increases'
p608
tp609
(lp610
s(S'POU1F1'
p611
S'RUNX1'
p612
S'increases'
p613
tp614
(lp615
s(S'HRAS protein'
p616
S'CCND1 MRNA'
p617
S'increases'
p618
tp619
(lp620
s(S'YY1'
p621
S'EN1'
p622
S'increases'
p623
tp624
(lp625
s(S'resveratrol'
p626
S'HRAS MRNA'
p627
S'increases'
p628
tp629
(lp630
s(S'NKX2-1'
p631
S'HOXA9'
p632
S'increases'
p633
tp634
(lp635
s(S'HSF1'
p636
S'CYP26A1'
p637
S'increases'
p638
tp639
(lp640
s(S'MYC'
p641
S'HOXA9'
p642
S'increases'
p643
tp644
(lp645
s(S'Raf'
p646
S'MEK'
p647
S'adds_modification'
p648
tp649
(lp650
S'This multikinase inhibitor showed an OS benefit via its antiangiogenic and antiproliferative effects on C- and B-Raf serine/threonine kinases (comprising the Raf/MEKL/ERK pathway), vascular endothelial growth factor receptor (VEGFR) and platelet-derived growth factor receptor (PDGFR) tyrosine kinases, and Flt-4 and c-Kit ['
p651
aS'The Ras/Raf/MEK/ERK pathway is one of the most important pathways in the control of cell proliferations.'
p652
aS'In addition, represented by a thinner arrow in this model, UTD2 can moderately inhibit the Raf-MEK-ERK pathway.'
p653
as(S'TFDP1'
p654
S'MAZ'
p655
S'increases'
p656
tp657
(lp658
s(S'SPRED1'
p659
S'HRAS'
p660
S'binds'
p661
tp662
(lp663
s(S'MYCN'
p664
S'CYP26A1'
p665
S'increases'
p666
tp667
(lp668
s(S'AHR'
p669
S'FOXD3'
p670
S'increases'
p671
tp672
(lp673
s(S'SF1'
p674
S'CYP26A1'
p675
S'increases'
p676
tp677
(lp678
s(S'MEIS1'
p679
S'ETS1'
p680
S'increases'
p681
tp682
(lp683
s(S'Copper Sulfate'
p684
S'HRAS MRNA'
p685
S'decreases'
p686
tp687
(lp688
s(S'MAZ'
p689
S'MYC'
p690
S'increases'
p691
tp692
(lp693
s(S'E4F1'
p694
S'HOXA9'
p695
S'increases'
p696
tp697
(lp698
s(S'GATA1'
p699
S'GATA6'
p700
S'increases'
p701
tp702
(lp703
s(S'RUNX2'
p704
S'POU2F1'
p705
S'increases'
p706
tp707
(lp708
s(S'CYP26A1'
p709
S'GATA6'
p710
S'increases'
p711
tp712
(lp713
s(S'PAX4'
p714
S'GATA1'
p715
S'increases'
p716
tp717
(lp718
s(S'ELF2'
p719
S'STAT5A'
p720
S'increases'
p721
tp722
(lp723
s(S'CART1'
p724
S'NRAS'
p725
S'increases'
p726
tp727
(lp728
s(S'IGF-1R heterotetramer/IGF1/GRB2/Sos/Shc'
p729
S'HRAS/GDP'
p730
S'increases_activity'
p731
tp732
(lp733
s(S'RB1'
p734
S'CYP26A1'
p735
S'increases'
p736
tp737
(lp738
s(S'CEBPG'
p739
S'HOXA9'
p740
S'increases'
p741
tp742
(lp743
s(S'GRB2/SOS1/SHC'
p744
S'IGF-1R HETEROTETRAMER/IGF1'
p745
S'binds'
p746
tp747
(lp748
s(S'PRRX2'
p749
S'CYP26A1'
p750
S'increases'
p751
tp752
(lp753
s(S'TEAD1'
p754
S'CYP26A1'
p755
S'increases'
p756
tp757
(lp758
s(S'STAT5A'
p759
S'FOXA1'
p760
S'increases'
p761
tp762
(lp763
s(S'ATF2'
p764
S'FOXD3'
p765
S'increases'
p766
tp767
(lp768
s(S'REPIN1'
p769
S'FOXO4'
p770
S'increases'
p771
tp772
(lp773
s(S'FOXF2'
p774
S'ETS1'
p775
S'increases'
p776
tp777
(lp778
s(S'ETV7'
p779
S'MEIS1'
p780
S'increases'
p781
tp782
(lp783
s(S'RUNX2'
p784
S'RUNX1'
p785
S'increases'
p786
tp787
(lp788
s(S'OR5I1'
p789
S'GATA1'
p790
S'increases'
p791
tp792
(lp793
s(S'MSX1'
p794
S'EN1'
p795
S'increases'
p796
tp797
(lp798
s(S'GTF3A'
p799
S'IRF1'
p800
S'increases'
p801
tp802
(lp803
s(S'POU2F1'
p804
S'SRF'
p805
S'increases'
p806
tp807
(lp808
s(S'PLC-GAMMA'
p809
S'COMPLEX (GADS/SLP-76)'
p810
S'binds'
p811
tp812
(lp813
s(S'STAT4'
p814
S'STAT5A'
p815
S'increases'
p816
tp817
(lp818
s(S'JUN'
p819
S'BACH1'
p820
S'increases'
p821
tp822
(lp823
s(S'POU1F1'
p824
S'HOXA9'
p825
S'increases'
p826
tp827
(lp828
s(S'docetaxel'
p829
S'HRAS PROTEIN'
p830
S'increases'
p831
tp832
(lp833
s(S'MAX'
p834
S'LEF1'
p835
S'increases'
p836
tp837
(lp838
s(S'FOXA1'
p839
S'CYP26A1'
p840
S'increases'
p841
tp842
(lp843
s(S'GATA4'
p844
S'FOXD3'
p845
S'increases'
p846
tp847
(lp848
s(S'ZBTB18'
p849
S'RUNX1'
p850
S'increases'
p851
tp852
(lp853
s(S'ATF3'
p854
S'RUNX1'
p855
S'increases'
p856
tp857
(lp858
s(S'NKX2-1'
p859
S'CYP26A1'
p860
S'increases'
p861
tp862
(lp863
s(S'NR3C1'
p864
S'FOXA1'
p865
S'increases'
p866
tp867
(lp868
s(S'RAS family/GTP'
p869
S'RIN1'
p870
S'increases_activity'
p871
tp872
(lp873
s(S'COMPLEX (RAS/GTP/ RAF)'
p874
S'MEK'
p875
S'binds'
p876
tp877
(lp878
s(S'CDC5L'
p879
S'NRAS'
p880
S'increases'
p881
tp882
(lp883
s(S'Vitamin E'
p884
S'NRAS MRNA'
p885
S'decreases'
p886
tp887
(lp888
s(S'NF1'
p889
S'LEF1'
p890
S'increases'
p891
tp892
(lp893
s(S'ETS1'
p894
S'EN1'
p895
S'increases'
p896
tp897
(lp898
s(S'CRAF'
p899
S'YWHAB'
p900
S'binds'
p901
tp902
(lp903
s(S'CEBPD'
p904
S'JUN'
p905
S'increases'
p906
tp907
(lp908
s(S'MAX'
p909
S'RUNX2'
p910
S'increases'
p911
tp912
(lp913
s(S'CEBPA'
p914
S'MECOM'
p915
S'increases'
p916
tp917
(lp918
s(S'PAX2'
p919
S'GATA1'
p920
S'increases'
p921
tp922
(lp923
s(S'CYP26A1'
p924
S'TLX2'
p925
S'increases'
p926
tp927
(lp928
s(S'GFI1'
p929
S'ETS1'
p930
S'increases'
p931
tp932
(lp933
s(S'14-3-3:P-S259,Y340,Y341,S621-RAF1:RAS:GTP'
p934
S'MEK'
p935
S'binds'
p936
tp937
(lp938
s(S'P-S,T-MEK2'
p939
S'ERK2'
p940
S'binds'
p941
tp942
(lp943
s(S'HRAS/GTP'
p944
S'RIN2'
p945
S'increases_activity'
p946
tp947
(lp948
s(S'Ras-GTP'
p949
S'P42/P44MAPKS'
p950
S'adds_modification'
p951
tp952
(lp953
s(S'SRF'
p954
S'CYP26A1'
p955
S'increases'
p956
tp957
(lp958
s(S'FOXL1'
p959
S'RUNX2'
p960
S'increases'
p961
tp962
(lp963
s(S'EGR4'
p964
S'LEF1'
p965
S'increases'
p966
tp967
(lp968
s(S'P-IRS1,2'
p969
S'GRB2:SOS1'
p970
S'binds'
p971
tp972
(lp973
s(S'VEGFR2 (dimer)/VEGFA (dimer)/alphav/beta3 Integrin/Vitronectin'
p974
S'SRC'
p975
S'adds_modification'
p976
tp977
(lp978
s(S'BACH2'
p979
S'BACH1'
p980
S'increases'
p981
tp982
(lp983
s(S'ONECUT1'
p984
S'RUNX1'
p985
S'increases'
p986
tp987
(lp988
s(S'FOXJ2'
p989
S'RUNX2'
p990
S'increases'
p991
tp992
(lp993
s(S'PI-3-4-5-P3'
p994
S'AKT1'
p995
S'translocates'
p996
tp997
(lp998
s(S'TFAP4'
p999
S'BACH1'
p1000
S'increases'
p1001
tp1002
(lp1003
s(S'MEKK1/4'
p1004
S'MKK3/6'
p1005
S'adds_modification'
p1006
tp1007
(lp1008
s(S'VSX1'
p1009
S'MECOM'
p1010
S'increases'
p1011
tp1012
(lp1013
s(S'IRF1'
p1014
S'GATA6'
p1015
S'increases'
p1016
tp1017
(lp1018
s(S'MAX'
p1019
S'HOXA9'
p1020
S'increases'
p1021
tp1022
(lp1023
s(S'RB1'
p1024
S'MAZ'
p1025
S'increases'
p1026
tp1027
(lp1028
s(S'GATA1'
p1029
S'EN1'
p1030
S'increases'
p1031
tp1032
(lp1033
s(S'HIF1A'
p1034
S'SRF'
p1035
S'increases'
p1036
tp1037
(lp1038
s(S'IRF8'
p1039
S'CYP26A1'
p1040
S'increases'
p1041
tp1042
(lp1043
s(S'MTF1'
p1044
S'CYP26A1'
p1045
S'increases'
p1046
tp1047
(lp1048
s(S'PI-3-4-5-P3'
p1049
S'GAB1'
p1050
S'translocates'
p1051
tp1052
(lp1053
s(S'PI-3-4-5-P3'
p1054
S'AKT1'
p1055
S'adds_modification'
p1056
tp1057
(lp1058
s(S'RXRA'
p1059
S'HOXA9'
p1060
S'increases'
p1061
tp1062
(lp1063
s(S'AKT1'
p1064
S'RAF1'
p1065
S'binds'
p1066
tp1067
(lp1068
s(S'HSF2'
p1069
S'JUN'
p1070
S'increases'
p1071
tp1072
(lp1073
s(S'PAX2'
p1074
S'CYP26A1'
p1075
S'increases'
p1076
tp1077
(lp1078
s(S'ETV7'
p1079
S'CYP26A1'
p1080
S'increases'
p1081
tp1082
(lp1083
s(S'FOXO3'
p1084
S'NRAS'
p1085
S'increases'
p1086
tp1087
(lp1088
s(S'TP53'
p1089
S'REPIN1'
p1090
S'increases'
p1091
tp1092
(lp1093
s(S'STAT6'
p1094
S'CYP26A1'
p1095
S'increases'
p1096
tp1097
(lp1098
s(S'JUN'
p1099
S'NRAS'
p1100
S'increases'
p1101
tp1102
(lp1103
s(S'MYCN'
p1104
S'NRAS'
p1105
S'increases'
p1106
tp1107
(lp1108
s(S'STAT3'
p1109
S'YY1'
p1110
S'increases'
p1111
tp1112
(lp1113
s(S'Methyl Methanesulfonate'
p1114
S'HRAS MRNA'
p1115
S'increases'
p1116
tp1117
(lp1118
s(S'RHOA/GTP'
p1119
S'PKN'
p1120
S'increases_activity'
p1121
tp1122
(lp1123
s(S'NHLH1'
p1124
S'FOXJ2'
p1125
S'increases'
p1126
tp1127
(lp1128
s(S'RAS family/GTP'
p1129
S'BRAF'
p1130
S'adds_modification'
p1131
tp1132
(lp1133
s(S'RELA'
p1134
S'FOXJ2'
p1135
S'increases'
p1136
tp1137
(lp1138
s(S'TCF3'
p1139
S'RUNX1'
p1140
S'increases'
p1141
tp1142
(lp1143
s(S'FOXF2'
p1144
S'FOXO4'
p1145
S'increases'
p1146
tp1147
(lp1148
s(S'ATF4'
p1149
S'FOXD3'
p1150
S'increases'
p1151
tp1152
(lp1153
s(S'HAND1'
p1154
S'MECOM'
p1155
S'increases'
p1156
tp1157
(lp1158
s(S'RHOA/GTP'
p1159
S'P27KIP1'
p1160
S'adds_modification'
p1161
tp1162
(lp1163
s(S'SRF'
p1164
S'NRAS'
p1165
S'increases'
p1166
tp1167
(lp1168
s(S'ESRRA'
p1169
S'POU3F2'
p1170
S'increases'
p1171
tp1172
(lp1173
s(S'BRAF'
p1174
S'MEK1'
p1175
S'adds_modification'
p1176
tp1177
(lp1178
s(S'Cadmium Chloride'
p1179
S'KRAS PROTEIN'
p1180
S'increases'
p1181
tp1182
(lp1183
s(S'PRRX2'
p1184
S'MEIS1'
p1185
S'increases'
p1186
tp1187
(lp1188
s(S'MYC'
p1189
S'NRAS'
p1190
S'increases'
p1191
tp1192
(lp1193
s(S'MAZ'
p1194
S'KRAS'
p1195
S'increases'
p1196
tp1197
(lp1198
s(S'Rho Family GTPase-active'
p1199
S'PI3K'
p1200
S'increases_activity'
p1201
tp1202
(lp1203
s(S'STAT2'
p1204
S'CYP26A1'
p1205
S'increases'
p1206
tp1207
(lp1208
s(S'hsa-let-7a-5p'
p1209
S'KRAS'
p1210
S'decreases'
p1211
tp1212
(lp1213
s(S'POU3F2'
p1214
S'NRAS'
p1215
S'increases'
p1216
tp1217
(lp1218
s(S'SRF'
p1219
S'FOXO4'
p1220
S'increases'
p1221
tp1222
(lp1223
s(S'S1P1/Sphingosine-1-phosphate/PDGF-BB/PDGFRB (dimer)'
p1224
S'SRC FAMILY KINASES'
p1225
S'increases_activity'
p1226
tp1227
(lp1228
s(S'MYC/Max'
p1229
S'ERBB2'
p1230
S'decreases'
p1231
tp1232
(lp1233
s(S'SREBF1'
p1234
S'CBFA2T3'
p1235
S'increases'
p1236
tp1237
(lp1238
s(S'PI3K'
p1239
S'GELSOLIN/PI-3-4-5-P3'
p1240
S'binds'
p1241
tp1242
(lp1243
s(S'NHLH1'
p1244
S'EN1'
p1245
S'increases'
p1246
tp1247
(lp1248
s(S'LMO2'
p1249
S'GATA6'
p1250
S'increases'
p1251
tp1252
(lp1253
s(S'POU1F1'
p1254
S'FOXD3'
p1255
S'increases'
p1256
tp1257
(lp1258
s(S'hsa-miR-148b-3p'
p1259
S'NRAS'
p1260
S'decreases'
p1261
tp1262
(lp1263
s(S'Quercetin'
p1264
S'KRAS PROTEIN'
p1265
S'decreases'
p1266
tp1267
(lp1268
s(S'PAK2'
p1269
S'MEKK1'
p1270
S'adds_modification'
p1271
tp1272
(lp1273
s(S'LMO2'
p1274
S'MAZ'
p1275
S'increases'
p1276
tp1277
(lp1278
s(S'FOXO1'
p1279
S'POU3F2'
p1280
S'increases'
p1281
tp1282
(lp1283
s(S'NKX2-1'
p1284
S'MAZ'
p1285
S'increases'
p1286
tp1287
(lp1288
s(S'GRB2/SOS1'
p1289
S'PDGF-BB/PDGFRB (DIMER)/P52 SHC'
p1290
S'binds'
p1291
tp1292
(lp1293
s(S'PI3K'
p1294
S'CRK/P130 CAS/PAXILLIN'
p1295
S'increases_activity'
p1296
tp1297
(lp1298
s(S'ATF1'
p1299
S'FOXD3'
p1300
S'increases'
p1301
tp1302
(lp1303
s(S'GATA1'
p1304
S'SRF'
p1305
S'increases'
p1306
tp1307
(lp1308
s(S'TFAP2C'
p1309
S'CYP26A1'
p1310
S'increases'
p1311
tp1312
(lp1313
s(S'AHR'
p1314
S'MEIS1'
p1315
S'increases'
p1316
tp1317
(lp1318
s(S'ETS2'
p1319
S'CYP26A1'
p1320
S'increases'
p1321
tp1322
(lp1323
s(S'Estradiol'
p1324
S'NRAS MRNA'
p1325
S'increases'
p1326
tp1327
(lp1328
s(S'E2F1'
p1329
S'HOXA9'
p1330
S'increases'
p1331
tp1332
(lp1333
s(S'PDGF-BB/PDGFRB (DIMER)'
p1334
S'RASGAP'
p1335
S'binds'
p1336
tp1337
(lp1338
s(S'E2F1'
p1339
S'GABPB2'
p1340
S'increases'
p1341
tp1342
(lp1343
s(S'FOXJ1'
p1344
S'POU3F2'
p1345
S'increases'
p1346
tp1347
(lp1348
s(S'VSX1'
p1349
S'CYP26A1'
p1350
S'increases'
p1351
tp1352
(lp1353
s(S'SPI1'
p1354
S'CDC5L'
p1355
S'increases'
p1356
tp1357
(lp1358
s(S'Gi family'
p1359
S'HRAS/GDP'
p1360
S'increases_activity'
p1361
tp1362
(lp1363
s(S'TCF3'
p1364
S'CYP26A1'
p1365
S'increases'
p1366
tp1367
(lp1368
s(S'IGF-1R HETEROTETRAMER/IGF1/IRS1'
p1369
S'GRB2/SOS1'
p1370
S'binds'
p1371
tp1372
(lp1373
s(S'RAS family/GTP'
p1374
S'RALGDS'
p1375
S'translocates'
p1376
tp1377
(lp1378
s(S'PI3K'
p1379
S'RAC1/GDP'
p1380
S'increases_activity'
p1381
tp1382
(lp1383
s(S'Ca2+'
p1384
S'PKC'
p1385
S'increases_activity'
p1386
tp1387
(lp1388
s(S'ZIC1'
p1389
S'CYP26A1'
p1390
S'increases'
p1391
tp1392
(lp1393
s(S'IRF7'
p1394
S'TLX2'
p1395
S'increases'
p1396
tp1397
(lp1398
s(S'SHC/SHIP'
p1399
S'HRAS/GDP'
p1400
S'decreases_activity'
p1401
tp1402
(lp1403
s(S'hsa-let-7a-5p'
p1404
S'HRAS'
p1405
S'decreases'
p1406
tp1407
(lp1408
s(S'GATA4'
p1409
S'MAZ'
p1410
S'increases'
p1411
tp1412
(lp1413
s(S'EN1'
p1414
S'NRAS'
p1415
S'increases'
p1416
tp1417
(lp1418
s(S'PI3K'
p1419
S'BAM32'
p1420
S'adds_modification'
p1421
tp1422
(lp1423
s(S'GABPB1'
p1424
S'CYP26A1'
p1425
S'increases'
p1426
tp1427
(lp1428
s(S'Trifluoroethanol'
p1429
S'HRAS'
p1430
S'increases_activity'
p1431
tp1432
(lp1433
s(S'SOX5'
p1434
S'CYP26A1'
p1435
S'increases'
p1436
tp1437
(lp1438
s(S'GRB2/SOS1'
p1439
S'HGF(DIMER)/MET(DIMER)/P52 SHC'
p1440
S'binds'
p1441
tp1442
(lp1443
s(S'TCF12'
p1444
S'EN1'
p1445
S'increases'
p1446
tp1447
(lp1448
s(S'SOX9'
p1449
S'MEIS1'
p1450
S'increases'
p1451
tp1452
(lp1453
s(S'RB1'
p1454
S'MYC'
p1455
S'increases'
p1456
tp1457
(lp1458
s(S'RXRA'
p1459
S'FOXA1'
p1460
S'increases'
p1461
tp1462
(lp1463
s(S'decitabine'
p1464
S'HRAS MRNA'
p1465
S'decreases'
p1466
tp1467
(lp1468
s(S'VSX1'
p1469
S'EN1'
p1470
S'increases'
p1471
tp1472
(lp1473
s(S'FOXL1'
p1474
S'CYP26A1'
p1475
S'increases'
p1476
tp1477
(lp1478
s(S'PAX2'
p1479
S'RUNX1'
p1480
S'increases'
p1481
tp1482
(lp1483
s(S'MEKK1/4'
p1484
S'MKK4/7'
p1485
S'adds_modification'
p1486
tp1487
(lp1488
s(S'HOXA9'
p1489
S'CYP26A1'
p1490
S'increases'
p1491
tp1492
(lp1493
s(S'TRKC'
p1494
S'NT3 (DIMER)'
p1495
S'binds'
p1496
tp1497
(lp1498
s(S'PTF1A'
p1499
S'REPIN1'
p1500
S'increases'
p1501
tp1502
(lp1503
s(S'TGIF'
p1504
S'CYP26A1'
p1505
S'increases'
p1506
tp1507
(lp1508
s(S'MYOD1'
p1509
S'MYC'
p1510
S'increases'
p1511
tp1512
(lp1513
s(S'PKCT'
p1514
S'KRAS ISO2'
p1515
S'adds_modification'
p1516
tp1517
(lp1518
s(S'RAS family/GTP'
p1519
S'BRAF'
p1520
S'increases_activity'
p1521
tp1522
(lp1523
s(S'SPZ1'
p1524
S'CYP26A1'
p1525
S'increases'
p1526
tp1527
(lp1528
s(S'HRAS/GTP'
p1529
S'GALECTIN-1'
p1530
S'binds'
p1531
tp1532
(lp1533
s(S'DBP'
p1534
S'FOXD3'
p1535
S'increases'
p1536
tp1537
(lp1538
s(S'E2F1'
p1539
S'POU2F1'
p1540
S'increases'
p1541
tp1542
(lp1543
s(S'MEIS1'
p1544
S'CYP26A1'
p1545
S'increases'
p1546
tp1547
(lp1548
s(S'YY1'
p1549
S'NRAS'
p1550
S'increases'
p1551
tp1552
(lp1553
s(S'RAS:RAF'
p1554
S'YWHAB'
p1555
S'binds'
p1556
tp1557
(lp1558
s(S'NFE2L2'
p1559
S'CYP26A1'
p1560
S'increases'
p1561
tp1562
(lp1563
s(S'FARNESYL'
p1564
S'KRAS'
p1565
S'increases_activity'
p1566
tp1567
(lp1568
s(S'MTF1'
p1569
S'MECOM'
p1570
S'increases'
p1571
tp1572
(lp1573
s(S'TLX2'
p1574
S'FOXD3'
p1575
S'increases'
p1576
tp1577
(lp1578
s(S'Insulin Receptor/Insulin/SHC/GRB2/Sos1'
p1579
S'HRAS/GDP'
p1580
S'increases_activity'
p1581
tp1582
(lp1583
s(S'MYC'
p1584
S'ELK1'
p1585
S'increases'
p1586
tp1587
(lp1588
s(S'ONECUT1'
p1589
S'POU2F1'
p1590
S'increases'
p1591
tp1592
(lp1593
s(S'Paraquat'
p1594
S'HRAS MRNA'
p1595
S'translocates'
p1596
tp1597
(lp1598
s(S'GRB2/SOS1'
p1599
S'PDGF-BB/PDGFRB (DIMER)/SHP2'
p1600
S'binds'
p1601
tp1602
(lp1603
s(S'ONECUT1'
p1604
S'CYP26A1'
p1605
S'increases'
p1606
tp1607
(lp1608
s(S'MYC'
p1609
S'FOXO3'
p1610
S'increases'
p1611
tp1612
(lp1613
s(S'PAX3'
p1614
S'ELK1'
p1615
S'increases'
p1616
tp1617
(lp1618
s(S'DOK-R'
p1619
S'RASGAP'
p1620
S'binds'
p1621
tp1622
(lp1623
s(S'HOXA4'
p1624
S'HOXA9'
p1625
S'increases'
p1626
tp1627
(lp1628
s(S'MAX'
p1629
S'POU3F2'
p1630
S'increases'
p1631
tp1632
(lp1633
s(S'Estradiol'
p1634
S'KRAS MRNA'
p1635
S'decreases'
p1636
tp1637
(lp1638
s(S'KRAS ISOFORM 4B/GTP'
p1639
S'CAM/CA2+'
p1640
S'binds'
p1641
tp1642
(lp1643
s(S'MAZ'
p1644
S'FOXO4'
p1645
S'increases'
p1646
tp1647
(lp1648
s(S'hsa-miR-181a-5p'
p1649
S'KRAS'
p1650
S'decreases'
p1651
tp1652
(lp1653
s(S'GATA1'
p1654
S'CYP26A1'
p1655
S'increases'
p1656
tp1657
(lp1658
s(S'PGR'
p1659
S'ETS1'
p1660
S'increases'
p1661
tp1662
(lp1663
s(S'GATA1'
p1664
S'POU2F1'
p1665
S'increases'
p1666
tp1667
(lp1668
s(S'BRAF'
p1669
S'MEK1-2'
p1670
S'increases_activity'
p1671
tp1672
(lp1673
s(S'LEF1'
p1674
S'GABPB2'
p1675
S'increases'
p1676
tp1677
(lp1678
s(S'CYP26A1'
p1679
S'MYC'
p1680
S'increases'
p1681
tp1682
(lp1683
s(S'STAT1'
p1684
S'IRF1'
p1685
S'increases'
p1686
tp1687
(lp1688
s(S'SMAD1'
p1689
S'RUNX2'
p1690
S'increases'
p1691
tp1692
(lp1693
s(S'ZEB1'
p1694
S'TLX2'
p1695
S'increases'
p1696
tp1697
(lp1698
s(S'STAT5B'
p1699
S'IRF1'
p1700
S'increases'
p1701
tp1702
(lp1703
s(S'POU6F1'
p1704
S'CYP26A1'
p1705
S'increases'
p1706
tp1707
(lp1708
s(S'Vincristine'
p1709
S'HRAS MRNA'
p1710
S'increases'
p1711
tp1712
(lp1713
s(S'DAG'
p1714
S'RASGRP1'
p1715
S'adds_modification'
p1716
tp1717
(lp1718
s(S'PI3K'
p1719
S'PDK1'
p1720
S'increases_activity'
p1721
tp1722
(lp1723
S'The catalytic PI3K isoforms can be regulated by receptor tyrosine kinases and/or G protein-coupled receptors and activate AKT, serum/glucocorticoid regulated kinase (SGK), phosphoinositide-dependent kinase 1 (PDK1), mammalian target of rapamycin (mTOR), and several other pathways that control a variety of cellular processes including proliferation, growth, apoptosis, migration, and metabolism'
p1724
as(S'ETS2'
p1725
S'PAX4'
p1726
S'increases'
p1727
tp1728
(lp1729
s(S'NR3C1'
p1730
S'ONECUT1'
p1731
S'increases'
p1732
tp1733
(lp1734
s(S'CUX1'
p1735
S'CYP26A1'
p1736
S'increases'
p1737
tp1738
(lp1739
s(S'ZEB1'
p1740
S'GATA1'
p1741
S'increases'
p1742
tp1743
(lp1744
s(S'NRF1'
p1745
S'POU2F1'
p1746
S'increases'
p1747
tp1748
(lp1749
s(S'FOXJ2'
p1750
S'MECOM'
p1751
S'increases'
p1752
tp1753
(lp1754
s(S'MAZ'
p1755
S'MYCN'
p1756
S'increases'
p1757
tp1758
(lp1759
s(S'Hydrogen Peroxide'
p1760
S'HRAS MRNA'
p1761
S'increases'
p1762
tp1763
(lp1764
s(S'RASA1'
p1765
S'P-EPHBS:EFNBS'
p1766
S'binds'
p1767
tp1768
(lp1769
s(S'SPI1'
p1770
S'CEBPG'
p1771
S'increases'
p1772
tp1773
(lp1774
s(S'EGR1'
p1775
S'LEF1'
p1776
S'increases'
p1777
tp1778
(lp1779
s(S'RET51/GFRALPHA1/GDNF'
p1780
S'P62DOK'
p1781
S'binds'
p1782
tp1783
(lp1784
s(S'TFDP2'
p1785
S'CYP26A1'
p1786
S'increases'
p1787
tp1788
(lp1789
s(S'matrine'
p1790
S'NRAS MRNA'
p1791
S'increases'
p1792
tp1793
(lp1794
s(S'Isotretinoin'
p1795
S'KRAS MRNA'
p1796
S'decreases'
p1797
tp1798
(lp1799
s(S'PITX2'
p1800
S'FOXF2'
p1801
S'increases'
p1802
tp1803
(lp1804
s(S'MYOD1'
p1805
S'POU2F1'
p1806
S'increases'
p1807
tp1808
(lp1809
s(S'sodium arsenite'
p1810
S'KRAS PROTEIN'
p1811
S'increases'
p1812
tp1813
(lp1814
s(S'TCF4'
p1815
S'CBFA2T3'
p1816
S'increases'
p1817
tp1818
(lp1819
s(S'CYP26A1'
p1820
S'FOXA1'
p1821
S'increases'
p1822
tp1823
(lp1824
s(S'TP53'
p1825
S'CYP26A1'
p1826
S'increases'
p1827
tp1828
(lp1829
s(S'ATF3'
p1830
S'FOXD3'
p1831
S'increases'
p1832
tp1833
(lp1834
s(S'POU2F1'
p1835
S'NRAS'
p1836
S'increases'
p1837
tp1838
(lp1839
s(S'NRF1'
p1840
S'GABPB2'
p1841
S'increases'
p1842
tp1843
(lp1844
s(S'PAX4'
p1845
S'TLX2'
p1846
S'increases'
p1847
tp1848
(lp1849
s(S'PITX2'
p1850
S'FOXA1'
p1851
S'increases'
p1852
tp1853
(lp1854
s(S'GTF3A'
p1855
S'POU2F1'
p1856
S'increases'
p1857
tp1858
(lp1859
s(S'HLF'
p1860
S'FOXO3'
p1861
S'increases'
p1862
tp1863
(lp1864
s(S'PAX4'
p1865
S'FOXO4'
p1866
S'increases'
p1867
tp1868
(lp1869
s(S'CEBPA'
p1870
S'FOXD3'
p1871
S'increases'
p1872
tp1873
(lp1874
s(S'NFE2'
p1875
S'CYP26A1'
p1876
S'increases'
p1877
tp1878
(lp1879
s(S'MYB'
p1880
S'GABPB2'
p1881
S'increases'
p1882
tp1883
(lp1884
s(S'MYC'
p1885
S'CEBPA'
p1886
S'increases'
p1887
tp1888
(lp1889
s(S'ELK1'
p1890
S'EN1'
p1891
S'increases'
p1892
tp1893
(lp1894
s(S'E2F1'
p1895
S'CDC5L'
p1896
S'increases'
p1897
tp1898
(lp1899
s(S'YWHAZ (DIMER)'
p1900
S'RAF1'
p1901
S'binds'
p1902
tp1903
(lp1904
s(S'ATF6'
p1905
S'CYP26A1'
p1906
S'increases'
p1907
tp1908
(lp1909
s(S'sodium arsenite'
p1910
S'HRAS MRNA'
p1911
S'increases'
p1912
tp1913
(lp1914
s(S'EGR3'
p1915
S'CYP26A1'
p1916
S'increases'
p1917
tp1918
(lp1919
s(S'lead acetate'
p1920
S'HRAS PROTEIN'
p1921
S'increases_activity'
p1922
tp1923
(lp1924
s(S'REPIN1'
p1925
S'MYC'
p1926
S'increases'
p1927
tp1928
(lp1929
s(S'CEBPA'
p1930
S'NRAS'
p1931
S'increases'
p1932
tp1933
(lp1934
s(S'Quercetin'
p1935
S'NRAS MRNA'
p1936
S'decreases'
p1937
tp1938
(lp1939
s(S'14-3-3 E'
p1940
S'TERT'
p1941
S'binds'
p1942
tp1943
(lp1944
s(S'Antigen/IgE/Fc epsilon R1/LYN/SYK'
p1945
S'BTK'
p1946
S'adds_modification'
p1947
tp1948
(lp1949
s(S'HSF2'
p1950
S'CBFA2T3'
p1951
S'increases'
p1952
tp1953
(lp1954
s(S'Fluorouracil'
p1955
S'HRAS MRNA'
p1956
S'increases'
p1957
tp1958
(lp1959
s(S'STAT4'
p1960
S'MECOM'
p1961
S'increases'
p1962
tp1963
(lp1964
s(S'ETS2'
p1965
S'ETS1'
p1966
S'increases'
p1967
tp1968
(lp1969
s(S'CEBPG'
p1970
S'CYP26A1'
p1971
S'increases'
p1972
tp1973
(lp1974
s(S'Complex (PDGF receptor A/PDGF receptor B)'
p1975
S'NCK'
p1976
S'adds_modification'
p1977
tp1978
(lp1979
s(S'Fog1'
p1980
S'MYB'
p1981
S'decreases'
p1982
tp1983
(lp1984
s(S'CREB1'
p1985
S'FOXD3'
p1986
S'increases'
p1987
tp1988
(lp1989
s(S'Numb'
p1990
S'NICS'
p1991
S'translocates'
p1992
tp1993
(lp1994
s(S'STAT6'
p1995
S'STAT5A'
p1996
S'increases'
p1997
tp1998
(lp1999
s(S'RAF1/14-3-3'
p2000
S'BRAF/14-3-3'
p2001
S'binds'
p2002
tp2003
(lp2004
s(S'B-cell antigen/BCR complex/LYN/SYK/BLNK'
p2005
S'SHC/GRB2/SOS1'
p2006
S'increases_activity'
p2007
tp2008
(lp2009
s(S'IRF2'
p2010
S'CYP26A1'
p2011
S'increases'
p2012
tp2013
(lp2014
s(S'GATA6'
p2015
S'CYP26A1'
p2016
S'increases'
p2017
tp2018
(lp2019
s(S'HMGA1'
p2020
S'CYP26A1'
p2021
S'increases'
p2022
tp2023
(lp2024
s(S'MTF1'
p2025
S'FOXO4'
p2026
S'increases'
p2027
tp2028
(lp2029
s(S'STAT1'
p2030
S'GABPB2'
p2031
S'increases'
p2032
tp2033
(lp2034
s(S'manumycin'
p2035
S'HRAS PROTEIN'
p2036
S'decreases'
p2037
tp2038
(lp2039
s(S'STAT5A'
p2040
S'ETS1'
p2041
S'increases'
p2042
tp2043
(lp2044
s(S'SPI1'
p2045
S'CBFA2T3'
p2046
S'increases'
p2047
tp2048
(lp2049
s(S'GMCSF/GMR ALPHA/CSF2RB/JAK2 (DODECAMER)/SHC'
p2050
S'GRB2/SOS1'
p2051
S'binds'
p2052
tp2053
(lp2054
s(S'7,8-Dihydro-7,8-dihydroxybenzo(a)pyrene 9,10-oxide'
p2055
S'NRAS PROTEIN'
p2056
S'increases'
p2057
tp2058
(lp2059
s(S'CDC5L'
p2060
S'CYP26A1'
p2061
S'increases'
p2062
tp2063
(lp2064
s(S'PAX4'
p2065
S'POU3F2'
p2066
S'increases'
p2067
tp2068
(lp2069
s(S'SPRED2'
p2070
S'HRAS'
p2071
S'binds'
p2072
tp2073
(lp2074
s(S'PITX2'
p2075
S'FOXO4'
p2076
S'increases'
p2077
tp2078
(lp2079
s(S'FOXD3'
p2080
S'CYP26A1'
p2081
S'increases'
p2082
tp2083
(lp2084
s(S'NFIL3'
p2085
S'FOXO3'
p2086
S'increases'
p2087
tp2088
(lp2089
s(S'MTF1'
p2090
S'POU2F1'
p2091
S'increases'
p2092
tp2093
(lp2094
s(S'TFCP2'
p2095
S'BACH1'
p2096
S'increases'
p2097
tp2098
(lp2099
s(S'NF1'
p2100
S'MECOM'
p2101
S'increases'
p2102
tp2103
(lp2104
s(S'FOXO3'
p2105
S'FOXD3'
p2106
S'increases'
p2107
tp2108
(lp2109
s(S'STAT5A'
p2110
S'TLX2'
p2111
S'increases'
p2112
tp2113
(lp2114
s(S'RIN1'
p2115
S'HRAS/GTP'
p2116
S'adds_modification'
p2117
tp2118
(lp2119
s(S'STAT5A'
p2120
S'CEBPG'
p2121
S'increases'
p2122
tp2123
(lp2124
s(S'DAG'
p2125
S'PKC'
p2126
S'increases_activity'
p2127
tp2128
(lp2129
s(S'HNF4A'
p2130
S'FOXA1'
p2131
S'increases'
p2132
tp2133
(lp2134
s(S'LEF1'
p2135
S'MAZ'
p2136
S'increases'
p2137
tp2138
(lp2139
s(S'hsa-miR-124-3p'
p2140
S'NRAS'
p2141
S'decreases'
p2142
tp2143
(lp2144
s(S'RAF1'
p2145
S'14-3-3 E'
p2146
S'binds'
p2147
tp2148
(lp2149
s(S'GATA1'
p2150
S'MYB'
p2151
S'decreases'
p2152
tp2153
(lp2154
s(S'LMO2'
p2155
S'GATA1'
p2156
S'increases'
p2157
tp2158
(lp2159
s(S'HRAS/GTP'
p2160
S'RAF1'
p2161
S'increases_activity'
p2162
tp2163
(lp2164
s(S'MYCN'
p2165
S'RUNX2'
p2166
S'increases'
p2167
tp2168
(lp2169
s(S'STAT5B'
p2170
S'CYP26A1'
p2171
S'increases'
p2172
tp2173
(lp2174
s(S'ZIC2'
p2175
S'MYCN'
p2176
S'increases'
p2177
tp2178
(lp2179
s(S'FOXL1'
p2180
S'FOXD3'
p2181
S'increases'
p2182
tp2183
(lp2184
s(S'ZBTB18'
p2185
S'CBFA2T3'
p2186
S'increases'
p2187
tp2188
(lp2189
s(S'HSF1'
p2190
S'IRF1'
p2191
S'increases'
p2192
tp2193
(lp2194
s(S'SPZ1'
p2195
S'MAZ'
p2196
S'increases'
p2197
tp2198
(lp2199
s(S'SRY'
p2200
S'CYP26A1'
p2201
S'increases'
p2202
tp2203
(lp2204
s(S'FOXO4'
p2205
S'HOXA9'
p2206
S'increases'
p2207
tp2208
(lp2209
s(S'IGF-1R heterotetramer/IGF1/IRS1/GRB2/Sos'
p2210
S'HRAS/GDP'
p2211
S'increases_activity'
p2212
tp2213
(lp2214
s(S'hsa-miR-615-3p'
p2215
S'HRAS'
p2216
S'decreases'
p2217
tp2218
(lp2219
s(S'ESRRA'
p2220
S'FOXD3'
p2221
S'increases'
p2222
tp2223
(lp2224
s(S'ELK1'
p2225
S'CYP26A1'
p2226
S'increases'
p2227
tp2228
(lp2229
s(S'Hexane-1,6-Diol'
p2230
S'HRAS'
p2231
S'increases_activity'
p2232
tp2233
(lp2234
s(S'MAZ'
p2235
S'NRAS'
p2236
S'increases'
p2237
tp2238
(lp2239
s(S'MIF'
p2240
S'CYP26A1'
p2241
S'increases'
p2242
tp2243
(lp2244
s(S'AHR'
p2245
S'POU2F1'
p2246
S'increases'
p2247
tp2248
(lp2249
s(S'SMAD3'
p2250
S'CYP26A1'
p2251
S'increases'
p2252
tp2253
(lp2254
s(S'PI-3-4-5-P3'
p2255
S'GELSOLIN'
p2256
S'binds'
p2257
tp2258
(lp2259
s(S'ADP'
p2260
S'P-S724-IRE1 DIMER'
p2261
S'binds'
p2262
tp2263
(lp2264
s(S'testosterone enanthate'
p2265
S'KRAS MRNA'
p2266
S'increases'
p2267
tp2268
(lp2269
s(S'CYP26A1'
p2270
S'ONECUT1'
p2271
S'increases'
p2272
tp2273
(lp2274
s(S'Valproic Acid'
p2275
S'NRAS MRNA'
p2276
S'decreases'
p2277
tp2278
(lp2279
s(S'GTF2A2'
p2280
S'CYP26A1'
p2281
S'increases'
p2282
tp2283
(lp2284
s(S'CEBPA'
p2285
S'FOXO3'
p2286
S'increases'
p2287
tp2288
(lp2289
s(S'GATA3'
p2290
S'POU2F1'
p2291
S'increases'
p2292
tp2293
(lp2294
s(S'PI3K'
p2295
S'RAC1B/GDP'
p2296
S'increases_activity'
p2297
tp2298
(lp2299
s(S'CDC25C'
p2300
S'YWHAB'
p2301
S'binds'
p2302
tp2303
(lp2304
s(S'RAC1/GTP'
p2305
S'PAK1/BETAPIX/PKL/NCK1-2'
p2306
S'increases_activity'
p2307
tp2308
(lp2309
s(S'SMAD1'
p2310
S'CYP26A1'
p2311
S'increases'
p2312
tp2313
(lp2314
s(S'PI3K'
p2315
S'FAK'
p2316
S'adds_modification'
p2317
tp2318
(lp2319
s(S'NRF1'
p2320
S'MAX'
p2321
S'increases'
p2322
tp2323
(lp2324
s(S'FOXI1'
p2325
S'RUNX2'
p2326
S'increases'
p2327
tp2328
(lp2329
s(S'7,8-Dihydro-7,8-dihydroxybenzo(a)pyrene 9,10-oxide'
p2330
S'HRAS MRNA'
p2331
S'increases'
p2332
tp2333
(lp2334
s(S'ETS1'
p2335
S'CBFA2T3'
p2336
S'increases'
p2337
tp2338
(lp2339
s(S'hsa-miR-98-5p'
p2340
S'NRAS'
p2341
S'decreases'
p2342
tp2343
(lp2344
s(S'PHOSPHORYLATED BRF1 (SER92, SER203):MRNA COMPLEX'
p2345
S'YWHAB'
p2346
S'binds'
p2347
tp2348
(lp2349
s(S'LMO2'
p2350
S'CYP26A1'
p2351
S'increases'
p2352
tp2353
(lp2354
s(S'SOS1'
p2355
S'GRB2:PFAK BOUND TO NCAM1:PFYN'
p2356
S'binds'
p2357
tp2358
(lp2359
s(S'GTF3A'
p2360
S'GATA6'
p2361
S'increases'
p2362
tp2363
(lp2364
s(S'ZIC2'
p2365
S'CYP26A1'
p2366
S'increases'
p2367
tp2368
(lp2369
s(S'PAX2'
p2370
S'POU3F2'
p2371
S'increases'
p2372
tp2373
(lp2374
s(S'CEBPD'
p2375
S'FOXO3'
p2376
S'increases'
p2377
tp2378
(lp2379
s(S'NF1'
p2380
S'CYP26A1'
p2381
S'increases'
p2382
tp2383
(lp2384
s(S'BRAF'
p2385
S'MEK2'
p2386
S'adds_modification'
p2387
tp2388
(lp2389
s(S'TFAP4'
p2390
S'RUNX1'
p2391
S'increases'
p2392
tp2393
(lp2394
s(S'FAK'
p2395
S'SOS'
p2396
S'binds'
p2397
tp2398
(lp2399
s(S'EGR1'
p2400
S'RUNX1'
p2401
S'increases'
p2402
tp2403
(lp2404
s(S'TCF4'
p2405
S'FOXO4'
p2406
S'increases'
p2407
tp2408
(lp2409
s(S'MAZ'
p2410
S'CBFA2T3'
p2411
S'increases'
p2412
tp2413
(lp2414
s(S'MEIS1'
p2415
S'HRAS'
p2416
S'increases'
p2417
tp2418
(lp2419
s(S'RELA'
p2420
S'CYP26A1'
p2421
S'increases'
p2422
tp2423
(lp2424
s(S'hsa-miR-877-3p'
p2425
S'NRAS'
p2426
S'decreases'
p2427
tp2428
(lp2429
s(S'MYC'
p2430
S'LEF1'
p2431
S'increases'
p2432
tp2433
(lp2434
s(S'FOXO4'
p2435
S'RUNX1'
p2436
S'increases'
p2437
tp2438
(lp2439
s(S'LEF1'
p2440
S'RUNX1'
p2441
S'increases'
p2442
tp2443
(lp2444
s(S'TFDP2'
p2445
S'GATA1'
p2446
S'increases'
p2447
tp2448
(lp2449
s(S'AHR'
p2450
S'CYP26A1'
p2451
S'increases'
p2452
tp2453
(lp2454
s(S'4-Nitroquinoline-1-oxide'
p2455
S'PTGS2 MRNA'
p2456
S'increases'
p2457
tp2458
(lp2459
s(S'TGIF'
p2460
S'FOXO3'
p2461
S'increases'
p2462
tp2463
(lp2464
s(S'FOXF2'
p2465
S'CEBPA'
p2466
S'increases'
p2467
tp2468
(lp2469
s(S'NFE2L1'
p2470
S'POU2F1'
p2471
S'increases'
p2472
tp2473
(lp2474
s(S'LHX3'
p2475
S'CYP26A1'
p2476
S'increases'
p2477
tp2478
(lp2479
s(S'HMGA1'
p2480
S'MEIS1'
p2481
S'increases'
p2482
tp2483
(lp2484
s(S'POU2F1'
p2485
S'CYP26A1'
p2486
S'increases'
p2487
tp2488
(lp2489
s(S'PRRX2'
p2490
S'HOXA9'
p2491
S'increases'
p2492
tp2493
(lp2494
s(S'ETS2'
p2495
S'CEBPG'
p2496
S'increases'
p2497
tp2498
(lp2499
s(S'hsa-miR-193b-3p'
p2500
S'KRAS'
p2501
S'decreases'
p2502
tp2503
(lp2504
s(S'RREB1'
p2505
S'RUNX1'
p2506
S'increases'
p2507
tp2508
(lp2509
s(S'IL2/IL2R BETA/GAMMA/JAK1/FYN/JAK3'
p2510
S'PI3K'
p2511
S'binds'
p2512
tp2513
(lp2514
s(S'ELK1'
p2515
S'MEIS1'
p2516
S'increases'
p2517
tp2518
(lp2519
s(S'CYP26A1'
p2520
S'HOXA9'
p2521
S'increases'
p2522
tp2523
(lp2524
s(S'SPZ1'
p2525
S'HOXA9'
p2526
S'increases'
p2527
tp2528
(lp2529
s(S'ERK1'
p2530
S'P-S218,222-MEK1'
p2531
S'binds'
p2532
tp2533
(lp2534
s(S'NHLH1'
p2535
S'MYC'
p2536
S'increases'
p2537
tp2538
(lp2539
s(S'Daunorubicin'
p2540
S'NRAS MRNA'
p2541
S'increases'
p2542
tp2543
(lp2544
s(S'HNF1A'
p2545
S'FOXA1'
p2546
S'increases'
p2547
tp2548
(lp2549
s(S'MYC'
p2550
S'ONECUT1'
p2551
S'increases'
p2552
tp2553
(lp2554
s(S'Vanadates'
p2555
S'HRAS PROTEIN'
p2556
S'increases'
p2557
tp2558
(lp2559
s(S'Purine nucleotide'
p2560
S'H+'
p2561
S'translocates'
p2562
tp2563
(lp2564
s(S'NFE2'
p2565
S'BACH1'
p2566
S'increases'
p2567
tp2568
(lp2569
s(S'EGR4'
p2570
S'CYP26A1'
p2571
S'increases'
p2572
tp2573
(lp2574
s(S'NRF1'
p2575
S'ONECUT1'
p2576
S'increases'
p2577
tp2578
(lp2579
s(S'GFI1'
p2580
S'HOXA9'
p2581
S'increases'
p2582
tp2583
(lp2584
s(S'NR1H4'
p2585
S'FOXD3'
p2586
S'increases'
p2587
tp2588
(lp2589
s(S'STAT6'
p2590
S'FOXA1'
p2591
S'increases'
p2592
tp2593
(lp2594
s(S'INSULIN RECEPTOR/INSULI/IRS1/GRB2/SHC'
p2595
S'SOS1'
p2596
S'binds'
p2597
tp2598
(lp2599
s(S'Tetrachlorodibenzodioxin'
p2600
S'KRAS MRNA'
p2601
S'increases'
p2602
tp2603
(lp2604
s(S'TCF3'
p2605
S'MYC'
p2606
S'increases'
p2607
tp2608
(lp2609
s(S'BACH1'
p2610
S'EN1'
p2611
S'increases'
p2612
tp2613
(lp2614
s(S'RFX1'
p2615
S'CYP26A1'
p2616
S'increases'
p2617
tp2618
(lp2619
s(S'ZEB1'
p2620
S'FOXD3'
p2621
S'increases'
p2622
tp2623
(lp2624
s(S'IRF7'
p2625
S'EN1'
p2626
S'increases'
p2627
tp2628
(lp2629
s(S'GAB2/GRB2/SOS1'
p2630
S'IL2/IL2R ALPHA/BETA/GAMMA/JAK1/LCK/JAK3/SHC'
p2631
S'binds'
p2632
tp2633
(lp2634
s(S'GATA3'
p2635
S'FOXA1'
p2636
S'increases'
p2637
tp2638
(lp2639
s(S'TFAP4'
p2640
S'CYP26A1'
p2641
S'increases'
p2642
tp2643
(lp2644
s(S'FOXF2'
p2645
S'MECOM'
p2646
S'increases'
p2647
tp2648
(lp2649
s(S'NF1'
p2650
S'POU2F1'
p2651
S'increases'
p2652
tp2653
(lp2654
s(S'IRF1'
p2655
S'FOXA1'
p2656
S'increases'
p2657
tp2658
(lp2659
s(S'Rho Family GTPase-active'
p2660
S'PIP5K1A'
p2661
S'increases_activity'
p2662
tp2663
(lp2664
s(S'POU6F1'
p2665
S'EN1'
p2666
S'increases'
p2667
tp2668
(lp2669
s(S'TCF4'
p2670
S'LEF1'
p2671
S'increases'
p2672
tp2673
(lp2674
s(S'MAZ'
p2675
S'FOXO3'
p2676
S'increases'
p2677
tp2678
(lp2679
s(S'POU3F2'
p2680
S'MECOM'
p2681
S'increases'
p2682
tp2683
(lp2684
s(S'GTF3A'
p2685
S'CYP26A1'
p2686
S'increases'
p2687
tp2688
(lp2689
s(S'PI-3-4-5-P3'
p2690
S'AKT2'
p2691
S'adds_modification'
p2692
tp2693
(lp2694
s(S'VSX1'
p2695
S'POU2F1'
p2696
S'increases'
p2697
tp2698
(lp2699
s(S'PHOSPHORYLATED TTP:MRNA COMPLEX'
p2700
S'YWHAB'
p2701
S'binds'
p2702
tp2703
(lp2704
s(S'MEIS1'
p2705
S'MYC'
p2706
S'increases'
p2707
tp2708
(lp2709
s(S'Complex (PDGF receptor A/PDGF receptor B)'
p2710
S'RASGAP'
p2711
S'adds_modification'
p2712
tp2713
(lp2714
s(S'RORA'
p2715
S'CYP26A1'
p2716
S'increases'
p2717
tp2718
(lp2719
s(S'ATF4'
p2720
S'CDC5L'
p2721
S'increases'
p2722
tp2723
(lp2724
s(S'SHC/RasGAP'
p2725
S'RAS FAMILY/GTP'
p2726
S'increases_activity'
p2727
tp2728
(lp2729
s(S'NKX2-1'
p2730
S'MYC'
p2731
S'increases'
p2732
tp2733
(lp2734
s(S'NF1'
p2735
S'SRF'
p2736
S'increases'
p2737
tp2738
(lp2739
s(S'STAT4'
p2740
S'NRAS'
p2741
S'increases'
p2742
tp2743
(lp2744
s(S'POU6F1'
p2745
S'MEIS1'
p2746
S'increases'
p2747
tp2748
(lp2749
s(S'P-KIT COMPLEX'
p2750
S'GRB2:SOS1'
p2751
S'binds'
p2752
tp2753
(lp2754
s(S'MYCN'
p2755
S'MAX'
p2756
S'increases'
p2757
tp2758
(lp2759
s(S'STAT5A'
p2760
S'CYP26A1'
p2761
S'increases'
p2762
tp2763
(lp2764
s(S'GATA3'
p2765
S'EN1'
p2766
S'increases'
p2767
tp2768
(lp2769
s(S'E4F1'
p2770
S'FOXD3'
p2771
S'increases'
p2772
tp2773
(lp2774
s(S'MYB'
p2775
S'ONECUT1'
p2776
S'increases'
p2777
tp2778
(lp2779
s(S'Cadmium Chloride'
p2780
S'NRAS PROTEIN'
p2781
S'increases'
p2782
tp2783
(lp2784
s(S'Deoxycholic Acid'
p2785
S'HRAS PROTEIN'
p2786
S'increases_activity'
p2787
tp2788
(lp2789
s(S'HLF'
p2790
S'CYP26A1'
p2791
S'increases'
p2792
tp2793
(lp2794
s(S'GMCSF/GMR ALPHA/CSF2RB/JAK2 (DIMER)'
p2795
S'YWHAZ'
p2796
S'binds'
p2797
tp2798
(lp2799
s(S'HNF1A'
p2800
S'FOXF2'
p2801
S'increases'
p2802
tp2803
(lp2804
s(S'FOXF2'
p2805
S'GATA6'
p2806
S'increases'
p2807
tp2808
(lp2809
s(S'Arsenic'
p2810
S'GSS PROTEIN'
p2811
S'increases'
p2812
tp2813
(lp2814
s(S'COMPLEX (SOS/GRB2)'
p2815
S'FGFR1-4'
p2816
S'binds'
p2817
tp2818
(lp2819
s(S'MYOD1'
p2820
S'NRAS'
p2821
S'increases'
p2822
tp2823
(lp2824
s(S'MECOM'
p2825
S'CYP26A1'
p2826
S'increases'
p2827
tp2828
(lp2829
s(S'PBX1'
p2830
S'CYP26A1'
p2831
S'increases'
p2832
tp2833
(lp2834
s(S'MAZ'
p2835
S'MEIS1'
p2836
S'increases'
p2837
tp2838
(lp2839
s(S'PAX4'
p2840
S'ELK1'
p2841
S'increases'
p2842
tp2843
(lp2844
s(S'ESRRA'
p2845
S'MECOM'
p2846
S'increases'
p2847
tp2848
(lp2849
s(S'CEBPD'
p2850
S'TLX2'
p2851
S'increases'
p2852
tp2853
(lp2854
s(S'CRX'
p2855
S'FOXA1'
p2856
S'increases'
p2857
tp2858
(lp2859
s(S'GABPB1'
p2860
S'NRAS'
p2861
S'increases'
p2862
tp2863
(lp2864
s(S'CRX'
p2865
S'MEIS1'
p2866
S'increases'
p2867
tp2868
(lp2869
s(S'pirinixic acid/PPARA protein'
p2870
S'KRAS MRNA'
p2871
S'increases'
p2872
tp2873
(lp2874
s(S'BACH2'
p2875
S'FOXA1'
p2876
S'increases'
p2877
tp2878
(lp2879
s(S'JUN'
p2880
S'MECOM'
p2881
S'increases'
p2882
tp2883
(lp2884
s(S'7,8-Dihydro-7,8-dihydroxybenzo(a)pyrene 9,10-oxide'
p2885
S'KRAS MRNA'
p2886
S'decreases'
p2887
tp2888
(lp2889
s(S'SRY'
p2890
S'FOXO4'
p2891
S'increases'
p2892
tp2893
(lp2894
s(S'PI3K'
p2895
S'AKT1'
p2896
S'adds_modification'
p2897
tp2898
(lp2899
s(S'GATA3'
p2900
S'CYP26A1'
p2901
S'increases'
p2902
tp2903
(lp2904
s(S'RAS:GTP'
p2905
S'P-EPHBS:EFNBS:RASA1'
p2906
S'binds'
p2907
tp2908
(lp2909
s(S'STAT5A'
p2910
S'MECOM'
p2911
S'increases'
p2912
tp2913
(lp2914
s(S'RAS family/GTP'
p2915
S'RAF1'
p2916
S'increases_activity'
p2917
tp2918
(lp2919
s(S'RHOA/GTP'
p2920
S'PLD1-2'
p2921
S'increases_activity'
p2922
tp2923
(lp2924
s(S'FOXJ2'
p2925
S'CYP26A1'
p2926
S'increases'
p2927
tp2928
(lp2929
s(S'LEF1'
p2930
S'MECOM'
p2931
S'increases'
p2932
tp2933
(lp2934
s(S'GABPB2'
p2935
S'CDC5L'
p2936
S'increases'
p2937
tp2938
(lp2939
s(S'ESRRA'
p2940
S'CYP26A1'
p2941
S'increases'
p2942
tp2943
(lp2944
s(S'PI-3-4-5-P3'
p2945
S'WAVE2/NAP1/SRA1/ABI1/HSPC300'
p2946
S'translocates'
p2947
tp2948
(lp2949
s(S'CUX1'
p2950
S'MECOM'
p2951
S'increases'
p2952
tp2953
(lp2954
s(S'MAX'
p2955
S'CYP26A1'
p2956
S'increases'
p2957
tp2958
(lp2959
s(S'RXRB'
p2960
S'FOXD3'
p2961
S'increases'
p2962
tp2963
(lp2964
s(S'IRF1'
p2965
S'NRAS'
p2966
S'increases'
p2967
tp2968
(lp2969
s(S'MECOM'
p2970
S'MAX'
p2971
S'increases'
p2972
tp2973
(lp2974
s(S'PAX6'
p2975
S'CYP26A1'
p2976
S'increases'
p2977
tp2978
(lp2979
s(S'GRB2/SOS1'
p2980
S'EGFR/EGFR/EGF/EGF/P46 SHC'
p2981
S'binds'
p2982
tp2983
(lp2984
s(S'POU6F1'
p2985
S'POU2F1'
p2986
S'increases'
p2987
tp2988
(lp2989
s(S'RUNX1'
p2990
S'MYOD1'
p2991
S'increases'
p2992
tp2993
(lp2994
s(S'COMPLEX (GRB2/SOS)'
p2995
S'EGFR'
p2996
S'binds'
p2997
tp2998
(lp2999
s(S'MAZ'
p3000
S'MECOM'
p3001
S'increases'
p3002
tp3003
(lp3004
s(S'REPIN1'
p3005
S'EN1'
p3006
S'increases'
p3007
tp3008
(lp3009
s(S'RAS family/GTP'
p3010
S'RAF1'
p3011
S'adds_modification'
p3012
tp3013
(lp3014
s(S'E4F1'
p3015
S'CYP26A1'
p3016
S'increases'
p3017
tp3018
(lp3019
s(S'Rac'
p3020
S'MEKK1-5'
p3021
S'adds_modification'
p3022
tp3023
(lp3024
s(S'HAND1'
p3025
S'CYP26A1'
p3026
S'increases'
p3027
tp3028
(lp3029
s(S'Quercetin'
p3030
S'NRAS PROTEIN'
p3031
S'decreases'
p3032
tp3033
(lp3034
s(S'HRAS:GTP'
p3035
S'CRAF'
p3036
S'binds'
p3037
tp3038
(lp3039
s(S'REPIN1'
p3040
S'FOXA1'
p3041
S'increases'
p3042
tp3043
(lp3044
s(S'hsa-miR-155-5p'
p3045
S'KRAS'
p3046
S'decreases'
p3047
tp3048
(lp3049
s(S'PAX4'
p3050
S'EN1'
p3051
S'increases'
p3052
tp3053
(lp3054
s(S'FOXN1'
p3055
S'JUN'
p3056
S'increases'
p3057
tp3058
(lp3059
s(S'TFCP2'
p3060
S'GATA1'
p3061
S'increases'
p3062
tp3063
(lp3064
s(S'SHC'
p3065
S'GRAP2'
p3066
S'binds'
p3067
tp3068
(lp3069
s(S'CEBPG'
p3070
S'NRAS'
p3071
S'increases'
p3072
tp3073
(lp3074
s(S'FOXN1'
p3075
S'FOXO4'
p3076
S'increases'
p3077
tp3078
(lp3079
s(S'IL2/IL2R ALPHA/BETA/GAMMA/JAK1/LCK/JAK3/IRS1-2'
p3080
S'PI3K'
p3081
S'binds'
p3082
tp3083
(lp3084
s(S'POU1F1'
p3085
S'EN1'
p3086
S'increases'
p3087
tp3088
(lp3089
s(S'FOXJ1'
p3090
S'POU2F1'
p3091
S'increases'
p3092
tp3093
(lp3094
s(S'YY1'
p3095
S'POU2F1'
p3096
S'increases'
p3097
tp3098
(lp3099
s(S'7,8-Dihydro-7,8-dihydroxybenzo(a)pyrene 9,10-oxide'
p3100
S'NRAS MRNA'
p3101
S'increases'
p3102
tp3103
(lp3104
s(S'EGF/EGFR'
p3105
S'HRAS/GDP'
p3106
S'increases_activity'
p3107
tp3108
(lp3109
s(S'TFAP4'
p3110
S'GABPB2'
p3111
S'increases'
p3112
tp3113
(lp3114
s(S'TFAP2A'
p3115
S'POU3F2'
p3116
S'increases'
p3117
tp3118
(lp3119
s(S'TCF12'
p3120
S'CBFA2T3'
p3121
S'increases'
p3122
tp3123
(lp3124
s(S'STAT3'
p3125
S'IRF1'
p3126
S'increases'
p3127
tp3128
(lp3129
s(S'MYOD1'
p3130
S'GATA1'
p3131
S'increases'
p3132
tp3133
(lp3134
s(S'REPIN1'
p3135
S'HRAS'
p3136
S'increases'
p3137
tp3138
(lp3139
s(S'PAX4'
p3140
S'MAX'
p3141
S'increases'
p3142
tp3143
(lp3144
s(S'PAX2'
p3145
S'FOXA1'
p3146
S'increases'
p3147
tp3148
(lp3149
s(S'Lipopolysaccharides'
p3150
S'HRAS PROTEIN'
p3151
S'increases_activity'
p3152
tp3153
(lp3154
s(S'7,8-Dihydro-7,8-dihydroxybenzo(a)pyrene 9,10-oxide'
p3155
S'KRAS MRNA'
p3156
S'increases'
p3157
tp3158
(lp3159
s(S'REPIN1'
p3160
S'GATA1'
p3161
S'increases'
p3162
tp3163
(lp3164
s(S'Formaldehyde'
p3165
S'HRAS MRNA'
p3166
S'increases'
p3167
tp3168
(lp3169
s(S'ESRRA'
p3170
S'STAT5A'
p3171
S'increases'
p3172
tp3173
(lp3174
s(S'farnesylthiosalicylic acid'
p3175
S'HRAS PROTEIN'
p3176
S'decreases'
p3177
tp3178
(lp3179
s(S'JUN'
p3180
S'RUNX1'
p3181
S'increases'
p3182
tp3183
(lp3184
s(S'FOXD3'
p3185
S'RUNX1'
p3186
S'increases'
p3187
tp3188
(lp3189
s(S'SOX9'
p3190
S'CYP26A1'
p3191
S'increases'
p3192
tp3193
(lp3194
s(S'hexabromocyclododecane'
p3195
S'HRAS MRNA'
p3196
S'increases'
p3197
tp3198
(lp3199
s(S'RUNX2'
p3200
S'KRAS'
p3201
S'increases'
p3202
tp3203
(lp3204
s(S'PGR'
p3205
S'CYP26A1'
p3206
S'increases'
p3207
tp3208
(lp3209
s(S'CYP26A1'
p3210
S'MAZ'
p3211
S'increases'
p3212
tp3213
(lp3214
s(S'RAC1/GTP'
p3215
S'AKT1'
p3216
S'adds_modification'
p3217
tp3218
(lp3219
s(S'FOXO3'
p3220
S'CYP26A1'
p3221
S'increases'
p3222
tp3223
(lp3224
s(S'MAX'
p3225
S'SRF'
p3226
S'increases'
p3227
tp3228
(lp3229
s(S'RUNX2'
p3230
S'NRAS'
p3231
S'increases'
p3232
tp3233
(lp3234
s(S'HSF2'
p3235
S'CYP26A1'
p3236
S'increases'
p3237
tp3238
(lp3239
s(S'IL2/IL2R ALPHA/BETA/GAMMA/JAK1/LCK/JAK3/SHC/GRB2/SOS1/GAB2/SHP2'
p3240
S'PI3K'
p3241
S'binds'
p3242
tp3243
(lp3244
s(S'SPI1'
p3245
S'STAT5A'
p3246
S'increases'
p3247
tp3248
(lp3249
s(S'ZHX2'
p3250
S'MYC'
p3251
S'increases'
p3252
tp3253
(lp3254
s(S'RAF1-BRAF'
p3255
S'MEK1-2'
p3256
S'increases_activity'
p3257
tp3258
(lp3259
s(S'SHC'
p3260
S'GRB2'
p3261
S'binds'
p3262
tp3263
(lp3264
s(S'RB1'
p3265
S'GATA1'
p3266
S'increases'
p3267
tp3268
(lp3269
s(S'TCF3'
p3270
S'FOXJ2'
p3271
S'increases'
p3272
tp3273
(lp3274
s(S'FOXJ2'
p3275
S'NRAS'
p3276
S'increases'
p3277
tp3278
(lp3279
s(S'REPIN1'
p3280
S'LEF1'
p3281
S'increases'
p3282
tp3283
(lp3284
s(S'Aflatoxin B1'
p3285
S'HRAS MRNA'
p3286
S'increases'
p3287
tp3288
(lp3289
s(S'PAX4'
p3290
S'MEIS1'
p3291
S'increases'
p3292
tp3293
(lp3294
s(S'FOXF2'
p3295
S'FOXD3'
p3296
S'increases'
p3297
tp3298
(lp3299
s(S'CBFA2T3'
p3300
S'RUNX1'
p3301
S'increases'
p3302
tp3303
(lp3304
s(S'FOXC1'
p3305
S'HOXA9'
p3306
S'increases'
p3307
tp3308
(lp3309
s(S'DBP'
p3310
S'CYP26A1'
p3311
S'increases'
p3312
tp3313
(lp3314
s(S'TGIF'
p3315
S'EN1'
p3316
S'increases'
p3317
tp3318
(lp3319
s(S'PI-3-4-5-P3'
p3320
S'P62DOK'
p3321
S'adds_modification'
p3322
tp3323
(lp3324
s(S'JUN'
p3325
S'TLX2'
p3326
S'increases'
p3327
tp3328
(lp3329
s(S'Benzo(a)pyrene'
p3330
S'HRAS MRNA'
p3331
S'increases'
p3332
tp3333
(lp3334
s(S'STAT4'
p3335
S'CYP26A1'
p3336
S'increases'
p3337
tp3338
(lp3339
s(S'EGFR/EGFR/EGF/EGF'
p3340
S'SRC'
p3341
S'adds_modification'
p3342
tp3343
(lp3344
s(S'FOXQ1'
p3345
S'FOXD3'
p3346
S'increases'
p3347
tp3348
(lp3349
s(S'FOXJ1'
p3350
S'NRAS'
p3351
S'increases'
p3352
tp3353
(lp3354
s(S'TCF3'
p3355
S'POU2F1'
p3356
S'increases'
p3357
tp3358
(lp3359
s(S'MYB'
p3360
S'CYP26A1'
p3361
S'increases'
p3362
tp3363
(lp3364
s(S'GATA4'
p3365
S'CYP26A1'
p3366
S'increases'
p3367
tp3368
(lp3369
s(S'ELK1'
p3370
S'STAT4'
p3371
S'increases'
p3372
tp3373
(lp3374
s(S'CYP26A1'
p3375
S'LEF1'
p3376
S'increases'
p3377
tp3378
(lp3379
s(S"Guanosine-5'-Diphosphate"
p3380
S'HRAS'
p3381
S'increases_activity'
p3382
tp3383
(lp3384
s(S'ETV4'
p3385
S'CYP26A1'
p3386
S'increases'
p3387
tp3388
(lp3389
s(S'EPHRIN B/EPHB2'
p3390
S'RASGAP'
p3391
S'binds'
p3392
tp3393
(lp3394
s(S'ESR1'
p3395
S'FOXF2'
p3396
S'increases'
p3397
tp3398
(lp3399
s(S'CDC5L'
p3400
S'FOXA1'
p3401
S'increases'
p3402
tp3403
(lp3404
s(S'MAZ'
p3405
S'HOXA9'
p3406
S'increases'
p3407
tp3408
(lp3409
s(S'HIF1A'
p3410
S'MAX'
p3411
S'increases'
p3412
tp3413
(lp3414
s(S'FOXN1'
p3415
S'HOXA9'
p3416
S'increases'
p3417
tp3418
(lp3419
s(S'LEF1'
p3420
S'BACH1'
p3421
S'increases'
p3422
tp3423
(lp3424
s(S'PDX1'
p3425
S'FOXO3'
p3426
S'increases'
p3427
tp3428
(lp3429
s(S'CBFA2T3'
p3430
S'CYP26A1'
p3431
S'increases'
p3432
tp3433
(lp3434
s(S'Rabex5'
p3435
S'HRAS/GTP'
p3436
S'adds_modification'
p3437
tp3438
(lp3439
s(S'CBFA2T3'
p3440
S'RUNX2'
p3441
S'increases'
p3442
tp3443
(lp3444
s(S'PI-3-4-5-P3'
p3445
S'ARAP3'
p3446
S'translocates'
p3447
tp3448
(lp3449
s(S'CART1'
p3450
S'CYP26A1'
p3451
S'increases'
p3452
tp3453
(lp3454
s(S'Arsenic'
p3455
S'NRAS MRNA'
p3456
S'increases'
p3457
tp3458
(lp3459
s(S'NRF1'
p3460
S'CDC5L'
p3461
S'increases'
p3462
tp3463
(lp3464
s(S'Quercetin'
p3465
S'HRAS PROTEIN'
p3466
S'decreases'
p3467
tp3468
(lp3469
s(S"N,N'-DIMETHYL-N-(ACETYL)-N'-(7-NITROBENZ-2-OXA-1,3-DIAZOL-4-YL)ETHYLENEDIAMINE"
p3470
S'HRAS'
p3471
S'increases_activity'
p3472
tp3473
(lp3474
s(S'TFDP1'
p3475
S'FOXD3'
p3476
S'increases'
p3477
tp3478
(lp3479
s(S'AR'
p3480
S'TLX2'
p3481
S'increases'
p3482
tp3483
(lp3484
s(S'hsa-miR-181c-5p'
p3485
S'KRAS'
p3486
S'decreases'
p3487
tp3488
(lp3489
s(S'SMAD3'
p3490
S'CBFA2T3'
p3491
S'increases'
p3492
tp3493
(lp3494
s(S'HOXA9'
p3495
S'NRAS'
p3496
S'increases'
p3497
tp3498
(lp3499
s(S'PITX2'
p3500
S'CYP26A1'
p3501
S'increases'
p3502
tp3503
(lp3504
s(S'ATF3'
p3505
S'CYP26A1'
p3506
S'increases'
p3507
tp3508
(lp3509
s(S'E2F1'
p3510
S'MAZ'
p3511
S'increases'
p3512
tp3513
(lp3514
s(S'Ethyl Methanesulfonate'
p3515
S'HRAS MRNA'
p3516
S'increases'
p3517
tp3518
(lp3519
s(S'LMO2'
p3520
S'FOXA1'
p3521
S'increases'
p3522
tp3523
(lp3524
s(S'FOXC1'
p3525
S'POU2F1'
p3526
S'increases'
p3527
tp3528
(lp3529
s(S'DDIT3'
p3530
S'CYP26A1'
p3531
S'increases'
p3532
tp3533
(lp3534
s(S'PAX8'
p3535
S'CYP26A1'
p3536
S'increases'
p3537
tp3538
(lp3539
s(S'LHX3'
p3540
S'EN1'
p3541
S'increases'
p3542
tp3543
(lp3544
s(S'KAT2B'
p3545
S'CYP26A1'
p3546
S'increases'
p3547
tp3548
(lp3549
s(S'P100'
p3550
S'MYB'
p3551
S'binds'
p3552
tp3553
(lp3554
s(S'SOX9'
p3555
S'FOXA1'
p3556
S'increases'
p3557
tp3558
(lp3559
s(S'HIF1A'
p3560
S'EN1'
p3561
S'increases'
p3562
tp3563
(lp3564
s(S'REPIN1'
p3565
S'RUNX1'
p3566
S'increases'
p3567
tp3568
(lp3569
s(S'MYOD1'
p3570
S'BACH1'
p3571
S'increases'
p3572
tp3573
(lp3574
s(S'EBF2'
p3575
S'REPIN1'
p3576
S'increases'
p3577
tp3578
(lp3579
s(S'bisphenol A'
p3580
S'HRAS MRNA'
p3581
S'increases'
p3582
tp3583
(lp3584
s(S'E2F1'
p3585
S'EN1'
p3586
S'increases'
p3587
tp3588
(lp3589
s(S'MYC/Max/MIZ-1'
p3590
S'GALECTIN-1'
p3591
S'decreases'
p3592
tp3593
(lp3594
s(S'PI-3-4-5-P3'
p3595
S'WAVE2/NAP1/SRA1/ABI1/HSPC300'
p3596
S'adds_modification'
p3597
tp3598
(lp3599
s(S'FOXF2'
p3600
S'FOXO3'
p3601
S'increases'
p3602
tp3603
(lp3604
s(S'REPIN1'
p3605
S'STAT5A'
p3606
S'increases'
p3607
tp3608
(lp3609
s(S'RUNX1'
p3610
S'NRAS'
p3611
S'increases'
p3612
tp3613
(lp3614
s(S'benzo(a)pyrene 7,8-dihydrodiol'
p3615
S'HRAS MRNA'
p3616
S'increases'
p3617
tp3618
(lp3619
s(S'RAC1/GTP'
p3620
S'PAK1 (DIMER)'
p3621
S'adds_modification'
p3622
tp3623
(lp3624
s(S'PAX4'
p3625
S'POU2F1'
p3626
S'increases'
p3627
tp3628
(lp3629
s(S'MYOD1'
p3630
S'CBFA2T3'
p3631
S'increases'
p3632
tp3633
(lp3634
s(S'STAT5A'
p3635
S'RUNX2'
p3636
S'increases'
p3637
tp3638
(lp3639
s(S'EBF2'
p3640
S'FOXJ2'
p3641
S'increases'
p3642
tp3643
(lp3644
s(S'Estradiol'
p3645
S'KRAS MRNA'
p3646
S'increases'
p3647
tp3648
(lp3649
s(S'RXRB'
p3650
S'CYP26A1'
p3651
S'increases'
p3652
tp3653
(lp3654
s(S'bisphenol A'
p3655
S'KRAS MRNA'
p3656
S'decreases'
p3657
tp3658
(lp3659
s(S'COMPLEX (GRB2/SOS)'
p3660
S'FGFR1-4'
p3661
S'binds'
p3662
tp3663
(lp3664
s(S'POU2F1'
p3665
S'RUNX1'
p3666
S'increases'
p3667
tp3668
(lp3669
s(S'TCF3'
p3670
S'TLX2'
p3671
S'increases'
p3672
tp3673
(lp3674
s(S'SPZ1'
p3675
S'POU2F1'
p3676
S'increases'
p3677
tp3678
(lp3679
s(S'TFAP4'
p3680
S'FOXO4'
p3681
S'increases'
p3682
tp3683
(lp3684
s(S'OR5I1'
p3685
S'MECOM'
p3686
S'increases'
p3687
tp3688
(lp3689
s(S'Rho Family GTPase-active'
p3690
S'JNK1'
p3691
S'adds_modification'
p3692
tp3693
(lp3694
s(S'TFDP1'
p3695
S'POU2F1'
p3696
S'increases'
p3697
tp3698
(lp3699
s(S'AHR'
p3700
S'MAX'
p3701
S'increases'
p3702
tp3703
(lp3704
s(S'BACH1'
p3705
S'CYP26A1'
p3706
S'increases'
p3707
tp3708
(lp3709
s(S'ZBTB14'
p3710
S'MAZ'
p3711
S'increases'
p3712
tp3713
(lp3714
s(S'TCF3'
p3715
S'FOXO4'
p3716
S'increases'
p3717
tp3718
(lp3719
s(S'MASTERMIND'
p3720
S'NICS'
p3721
S'binds'
p3722
tp3723
(lp3724
s(S'BPTF'
p3725
S'FOXO4'
p3726
S'increases'
p3727
tp3728
(lp3729
s(S'MYOD1'
p3730
S'RUNX1'
p3731
S'increases'
p3732
tp3733
(lp3734
s(S'JUN'
p3735
S'CYP26A1'
p3736
S'increases'
p3737
tp3738
(lp3739
s(S'BPTF'
p3740
S'CYP26A1'
p3741
S'increases'
p3742
tp3743
(lp3744
s(S'POU3F1'
p3745
S'CYP26A1'
p3746
S'increases'
p3747
tp3748
(lp3749
s(S'NRF1'
p3750
S'CYP26A1'
p3751
S'increases'
p3752
tp3753
(lp3754
s(S'TFAP2C'
p3755
S'POU3F2'
p3756
S'increases'
p3757
tp3758
(lp3759
s(S'NFAT1-C-4-INACTIVE2'
p3760
S'YWHAQ'
p3761
S'binds'
p3762
tp3763
(lp3764
s(S'STAT6'
p3765
S'ONECUT1'
p3766
S'increases'
p3767
tp3768
(lp3769
s(S'RUNX1'
p3770
S'RUNX2'
p3771
S'increases'
p3772
tp3773
(lp3774
s(S'ZIC3'
p3775
S'MYCN'
p3776
S'increases'
p3777
tp3778
(lp3779
s(S'CYP26A1'
p3780
S'MAX'
p3781
S'increases'
p3782
tp3783
(lp3784
s(S'ETS2'
p3785
S'FOXO4'
p3786
S'increases'
p3787
tp3788
(lp3789
s(S'GATA6'
p3790
S'FOXA1'
p3791
S'increases'
p3792
tp3793
(lp3794
s(S'Doxorubicin'
p3795
S'HRAS MRNA'
p3796
S'increases'
p3797
tp3798
(lp3799
s(S'PPARA'
p3800
S'HOXA9'
p3801
S'increases'
p3802
tp3803
(lp3804
s(S'REPIN1'
p3805
S'GABPB2'
p3806
S'increases'
p3807
tp3808
(lp3809
s(S'FOXN1'
p3810
S'FOXA1'
p3811
S'increases'
p3812
tp3813
(lp3814
s(S'Dronabinol'
p3815
S'KRAS MRNA'
p3816
S'increases'
p3817
tp3818
(lp3819
s(S'FOXO1'
p3820
S'RUNX1'
p3821
S'increases'
p3822
tp3823
(lp3824
s(S'SMAD4'
p3825
S'HOXA9'
p3826
S'increases'
p3827
tp3828
(lp3829
s(S'PAX4'
p3830
S'JUN'
p3831
S'increases'
p3832
tp3833
(lp3834
s(S'Raf-1'
p3835
S'MEK'
p3836
S'adds_modification'
p3837
tp3838
(lp3839
s(S'PIM1'
p3840
S'MYC/MAX'
p3841
S'binds'
p3842
tp3843
(lp3844
s(S'YY1'
p3845
S'MECOM'
p3846
S'increases'
p3847
tp3848
(lp3849
s(S'NRF1'
p3850
S'MAZ'
p3851
S'increases'
p3852
tp3853
(lp3854
s(S'GATA1'
p3855
S'MECOM'
p3856
S'increases'
p3857
tp3858
(lp3859
s(S'PDGF/PDGFRA'
p3860
S'SHC/GRB2/SOS1'
p3861
S'increases_activity'
p3862
tp3863
(lp3864
s(S'GRB2/SOS1'
p3865
S'FAK'
p3866
S'binds'
p3867
tp3868
(lp3869
s(S'HNF4A'
p3870
S'HOXA9'
p3871
S'increases'
p3872
tp3873
(lp3874
s(S'FOXA2'
p3875
S'CYP26A1'
p3876
S'increases'
p3877
tp3878
(lp3879
s(S'FOXI1'
p3880
S'CYP26A1'
p3881
S'increases'
p3882
tp3883
(lp3884
s(S'GRB2 BOUND TO TIE2'
p3885
S'SOS1'
p3886
S'binds'
p3887
tp3888
(lp3889
s(S'PHOSPHORYLATED BRF1 (SER54, SER92, SER203):MRNA COMPLEX'
p3890
S'YWHAB'
p3891
S'binds'
p3892
tp3893
(lp3894
s(S'COMPLEX (GRB2/SOS)'
p3895
S'GAB'
p3896
S'binds'
p3897
tp3898
(lp3899
s(S'NFE2'
p3900
S'TLX2'
p3901
S'increases'
p3902
tp3903
(lp3904
s(S'MAX'
p3905
S'FOXF2'
p3906
S'increases'
p3907
tp3908
(lp3909
s(S'GRB2:SOS1'
p3910
S'ACTIVATED FGFR:P-FRS2'
p3911
S'binds'
p3912
tp3913
(lp3914
s(S'FOXO4'
p3915
S'MECOM'
p3916
S'increases'
p3917
tp3918
(lp3919
s(S'TCF3'
p3920
S'LEF1'
p3921
S'increases'
p3922
tp3923
(lp3924
s(S'ZIC1'
p3925
S'LEF1'
p3926
S'increases'
p3927
tp3928
(lp3929
s(S'NFIL3'
p3930
S'CYP26A1'
p3931
S'increases'
p3932
tp3933
(lp3934
s(S'RAF1'
p3935
S'MEK1'
p3936
S'increases_activity'
p3937
tp3938
(lp3939
s(S'AR'
p3940
S'FOXA1'
p3941
S'increases'
p3942
tp3943
(lp3944
s(S'POU2F1'
p3945
S'POU3F2'
p3946
S'increases'
p3947
tp3948
(lp3949
s(S'PCBP1'
p3950
S'MAZ'
p3951
S'increases'
p3952
tp3953
(lp3954
s(S'LEF1'
p3955
S'HOXA9'
p3956
S'increases'
p3957
tp3958
(lp3959
s(S'NR6A1'
p3960
S'CYP26A1'
p3961
S'increases'
p3962
tp3963
(lp3964
s(S'PI3K'
p3965
S'BTK'
p3966
S'translocates'
p3967
tp3968
(lp3969
s(S'AHR'
p3970
S'RUNX1'
p3971
S'increases'
p3972
tp3973
(lp3974
s(S'NR1H4'
p3975
S'CYP26A1'
p3976
S'increases'
p3977
tp3978
(lp3979
s(S'NR2F2'
p3980
S'CYP26A1'
p3981
S'increases'
p3982
tp3983
(lp3984
s(S'GNB1/GNG2'
p3985
S'PI3K'
p3986
S'binds'
p3987
tp3988
(lp3989
s(S'RHOA/GTP'
p3990
S'PKN2'
p3991
S'increases_activity'
p3992
tp3993
(lp3994
s(S'MAZ'
p3995
S'LEF1'
p3996
S'increases'
p3997
tp3998
(lp3999
s(S'RFX1'
p4000
S'MECOM'
p4001
S'increases'
p4002
tp4003
(lp4004
s(S'RUNX1'
p4005
S'HOXA9'
p4006
S'increases'
p4007
tp4008
(lp4009
s(S'FOXL1'
p4010
S'POU2F1'
p4011
S'increases'
p4012
tp4013
(lp4014
s(S'GRB2:SOS1'
p4015
S'PHOSPHORYLATED ERBB2:EGFR HETERODIMERS'
p4016
S'binds'
p4017
tp4018
(lp4019
s(S'TFAP4'
p4020
S'MYCN'
p4021
S'increases'
p4022
tp4023
(lp4024
s(S'E2F1'
p4025
S'GATA1'
p4026
S'increases'
p4027
tp4028
(lp4029
s(S'PTF1A'
p4030
S'GATA6'
p4031
S'increases'
p4032
tp4033
(lp4034
s(S'REL'
p4035
S'CYP26A1'
p4036
S'increases'
p4037
tp4038
(lp4039
s(S'MTF1'
p4040
S'JUN'
p4041
S'increases'
p4042
tp4043
(lp4044
s(S'ZEB1'
p4045
S'REPIN1'
p4046
S'increases'
p4047
tp4048
(lp4049
s(S'IRF8'
p4050
S'GATA6'
p4051
S'increases'
p4052
tp4053
(lp4054
s(S'P-Y349,350-SHC1:PHOSPHORYLATED ERBB2 HETERODIMERS'
p4055
S'GRB2:SOS1'
p4056
S'binds'
p4057
tp4058
(lp4059
s(S'BACH2'
p4060
S'EN1'
p4061
S'increases'
p4062
tp4063
(lp4064
s(S'GFI1'
p4065
S'MEIS1'
p4066
S'increases'
p4067
tp4068
(lp4069
s(S'FOXN1'
p4070
S'LEF1'
p4071
S'increases'
p4072
tp4073
(lp4074
s(S'CYP26A1'
p4075
S'JUN'
p4076
S'increases'
p4077
tp4078
(lp4079
s(S'TCF3'
p4080
S'ONECUT1'
p4081
S'increases'
p4082
tp4083
(lp4084
s(S'FOXF2'
p4085
S'POU2F1'
p4086
S'increases'
p4087
tp4088
(lp4089
s(S'MAZ'
p4090
S'MAX'
p4091
S'increases'
p4092
tp4093
(lp4094
s(S'FOXN1'
p4095
S'CYP26A1'
p4096
S'increases'
p4097
tp4098
(lp4099
s(S'HNF1A'
p4100
S'FOXD3'
p4101
S'increases'
p4102
tp4103
(lp4104
s(S'EGR2'
p4105
S'RUNX1'
p4106
S'increases'
p4107
tp4108
(lp4109
s(S'MYC'
p4110
S'RUNX2'
p4111
S'increases'
p4112
tp4113
(lp4114
s(S'TFAP2A'
p4115
S'IRF1'
p4116
S'increases'
p4117
tp4118
(lp4119
s(S'FOXO4'
p4120
S'YY1'
p4121
S'increases'
p4122
tp4123
(lp4124
s(S'VEGFR2 (dimer)/VEGFA (dimer)'
p4125
S'SRC'
p4126
S'adds_modification'
p4127
tp4128
(lp4129
s(S'resveratrol'
p4130
S'KRAS MRNA'
p4131
S'decreases'
p4132
tp4133
(lp4134
s(S'FOXO4'
p4135
S'CYP26A1'
p4136
S'increases'
p4137
tp4138
(lp4139
s(S'STAT3'
p4140
S'FOXO4'
p4141
S'increases'
p4142
tp4143
(lp4144
s(S'GRB2/SOS1'
p4145
S'FRS2 FAMILY/SHP2'
p4146
S'binds'
p4147
tp4148
(lp4149
s(S'LEF1'
p4150
S'CYP26A1'
p4151
S'increases'
p4152
tp4153
(lp4154
s(S'GTF2A2'
p4155
S'SRF'
p4156
S'increases'
p4157
tp4158
(lp4159
s(S'PPARA'
p4160
S'STAT5A'
p4161
S'increases'
p4162
tp4163
(lp4164
s(S'hsa-miR-143-3p'
p4165
S'KRAS'
p4166
S'decreases'
p4167
tp4168
(lp4169
s(S'GFI1'
p4170
S'CYP26A1'
p4171
S'increases'
p4172
tp4173
(lp4174
s(S'RAC1/GTP'
p4175
S'MKK4-MKK7'
p4176
S'increases_activity'
p4177
tp4178
(lp4179
s(S'REPIN1'
p4180
S'ETS1'
p4181
S'increases'
p4182
tp4183
(lp4184
s(S'ZIC1'
p4185
S'GATA6'
p4186
S'increases'
p4187
tp4188
(lp4189
s(S'INTERLEUKIN RECEPTOR COMPLEXES WITH ACTIVATED SHC1'
p4190
S'GRB2:SOS1'
p4191
S'binds'
p4192
tp4193
(lp4194
s(S'Selenium'
p4195
S'HRAS MRNA'
p4196
S'increases'
p4197
tp4198
(lp4199
s(S'HOXA4'
p4200
S'CYP26A1'
p4201
S'increases'
p4202
tp4203
(lp4204
s(S'NKX2-1'
p4205
S'POU2F1'
p4206
S'increases'
p4207
tp4208
(lp4209
s(S'VSX1'
p4210
S'MAX'
p4211
S'increases'
p4212
tp4213
(lp4214
s(S'FOXD1'
p4215
S'FOXD3'
p4216
S'increases'
p4217
tp4218
(lp4219
s(S'MAX'
p4220
S'NRAS'
p4221
S'increases'
p4222
tp4223
(lp4224
s(S'HOXA9'
p4225
S'TCF3'
p4226
S'increases'
p4227
tp4228
(lp4229
s(S'IRF1'
p4230
S'CYP26A1'
p4231
S'increases'
p4232
tp4233
(lp4234
s(S'HRAS'
p4235
S'RAF1'
p4236
S'adds_modification'
p4237
tp4238
(lp4239
s(S'CUX1'
p4240
S'HOXA9'
p4241
S'increases'
p4242
tp4243
(lp4244
s(S'ZHX2'
p4245
S'FOXA1'
p4246
S'increases'
p4247
tp4248
(lp4249
s(S'TFDP1'
p4250
S'MYC'
p4251
S'increases'
p4252
tp4253
(lp4254
s(S'RAC1/GTP'
p4255
S'PAK1'
p4256
S'increases_activity'
p4257
tp4258
(lp4259
s(S'AHR'
p4260
S'MAZ'
p4261
S'increases'
p4262
tp4263
(lp4264
s(S'BRAF/14-3-3'
p4265
S'KSR/14-3-3 /MEK1-2'
p4266
S'increases_activity'
p4267
tp4268
(lp4269
s(S'PPARA'
p4270
S'CYP26A1'
p4271
S'increases'
p4272
tp4273
(lp4274
s(S'REPIN1'
p4275
S'SRF'
p4276
S'increases'
p4277
tp4278
(lp4279
s(S'PAX5'
p4280
S'SRF'
p4281
S'increases'
p4282
tp4283
(lp4284
s(S'PAX4'
p4285
S'FOXJ2'
p4286
S'increases'
p4287
tp4288
(lp4289
s(S'REPIN1'
p4290
S'MYCN'
p4291
S'increases'
p4292
tp4293
(lp4294
s(S'RALA/GTP'
p4295
S'SRC'
p4296
S'adds_modification'
p4297
tp4298
(lp4299
s(S'FOXO4'
p4300
S'ETS1'
p4301
S'increases'
p4302
tp4303
(lp4304
s(S'TFDP1'
p4305
S'CDC5L'
p4306
S'increases'
p4307
tp4308
(lp4309
s(S'TFDP1'
p4310
S'CYP26A1'
p4311
S'increases'
p4312
tp4313
(lp4314
s(S'GATA6'
p4315
S'RUNX2'
p4316
S'increases'
p4317
tp4318
(lp4319
s(S'FOXM1'
p4320
S'CYP26A1'
p4321
S'increases'
p4322
tp4323
(lp4324
s(S'sodium arsenite'
p4325
S'HRAS PROTEIN'
p4326
S'increases'
p4327
tp4328
(lp4329
s(S'STAT5A'
p4330
S'RUNX1'
p4331
S'increases'
p4332
tp4333
(lp4334
s(S'CEBPA'
p4335
S'EN1'
p4336
S'increases'
p4337
tp4338
(lp4339
s(S'MSX1'
p4340
S'POU2F1'
p4341
S'increases'
p4342
tp4343
(lp4344
s(S'NHLH1'
p4345
S'CBFA2T3'
p4346
S'increases'
p4347
tp4348
(lp4349
s(S'Parathion'
p4350
S'HRAS PROTEIN'
p4351
S'increases'
p4352
tp4353
(lp4354
s(S'SMAD4'
p4355
S'CYP26A1'
p4356
S'increases'
p4357
tp4358
(lp4359
s(S'E2F1'
p4360
S'MYC'
p4361
S'increases'
p4362
tp4363
(lp4364
s(S'CYP26A1'
p4365
S'FOXO3'
p4366
S'increases'
p4367
tp4368
(lp4369
s(S'TCF3'
p4370
S'CBFA2T3'
p4371
S'increases'
p4372
tp4373
(lp4374
s(S'ZHX2'
p4375
S'FOXF2'
p4376
S'increases'
p4377
tp4378
(lp4379
s(S'POU2F1'
p4380
S'MECOM'
p4381
S'increases'
p4382
tp4383
(lp4384
s(S'CYP26A1'
p4385
S'POU2F1'
p4386
S'increases'
p4387
tp4388
(lp4389
s(S'MYOD1'
p4390
S'CYP26A1'
p4391
S'increases'
p4392
tp4393
(lp4394
s(S'RAF'
p4395
S'COMPLEX (RAS/GTP)'
p4396
S'binds'
p4397
tp4398
(lp4399
s(S'RET51/GFRalpha1/GDNF/DOK1'
p4400
S'HRAS/GDP'
p4401
S'increases_activity'
p4402
tp4403
(lp4404
s(S'MAFG'
p4405
S'CYP26A1'
p4406
S'increases'
p4407
tp4408
(lp4409
s(S'CRX'
p4410
S'CYP26A1'
p4411
S'increases'
p4412
tp4413
(lp4414
s(S'hsa-miR-126-3p'
p4415
S'KRAS'
p4416
S'decreases'
p4417
tp4418
(lp4419
s(S'EBF2'
p4420
S'CYP26A1'
p4421
S'increases'
p4422
tp4423
(lp4424
s(S'RUNX1'
p4425
S'CYP26A1'
p4426
S'increases'
p4427
tp4428
(lp4429
s(S'HOXA5'
p4430
S'FOXA1'
p4431
S'increases'
p4432
tp4433
(lp4434
s(S'benzo(a)pyrene-3,6-quinone'
p4435
S'HRAS MRNA'
p4436
S'increases'
p4437
tp4438
(lp4439
s(S'K 7174'
p4440
S'HRAS MRNA'
p4441
S'decreases'
p4442
tp4443
(lp4444
s(S'LEF1'
p4445
S'NRAS'
p4446
S'increases'
p4447
tp4448
(lp4449
s(S'SPI1'
p4450
S'FOXA1'
p4451
S'increases'
p4452
tp4453
(lp4454
s(S'hsa-let-7b-5p'
p4455
S'NRAS'
p4456
S'decreases'
p4457
tp4458
(lp4459
s(S'CEBPA'
p4460
S'JUN'
p4461
S'increases'
p4462
tp4463
(lp4464
s(S'GABPB2'
p4465
S'CYP26A1'
p4466
S'increases'
p4467
tp4468
(lp4469
s(S'PI-3-4-5-P3'
p4470
S'MTOR'
p4471
S'increases_activity'
p4472
tp4473
(lp4474
s(S'GRB2:SOS1'
p4475
S'EGF:P-6Y-EGFR'
p4476
S'binds'
p4477
tp4478
(lp4479
s(S'HNF1A'
p4480
S'CYP26A1'
p4481
S'increases'
p4482
tp4483
(lp4484
s(S'HIF1A'
p4485
S'FOXO4'
p4486
S'increases'
p4487
tp4488
(lp4489
s(S'FOXJ1'
p4490
S'HOXA9'
p4491
S'increases'
p4492
tp4493
(lp4494
s(S'hsa-miR-96-5p'
p4495
S'KRAS'
p4496
S'decreases'
p4497
tp4498
(lp4499
s(S'SRC'
p4500
S'SYNDECAN-2/RASGAP'
p4501
S'binds'
p4502
tp4503
(lp4504
s(S'FOXA1'
p4505
S'MEIS1'
p4506
S'increases'
p4507
tp4508
(lp4509
s(S'LEF1'
p4510
S'MEIS1'
p4511
S'increases'
p4512
tp4513
(lp4514
s(S'PAX3'
p4515
S'CYP26A1'
p4516
S'increases'
p4517
tp4518
(lp4519
s(S'PAX4'
p4520
S'HOXA9'
p4521
S'increases'
p4522
tp4523
(lp4524
s(S'hsa-miR-18a-3p'
p4525
S'KRAS'
p4526
S'decreases'
p4527
tp4528
(lp4529
s(S'FOXF2'
p4530
S'EN1'
p4531
S'increases'
p4532
tp4533
(lp4534
s(S'Pyk2'
p4535
S'SRC FAMILY KINASES'
p4536
S'increases_activity'
p4537
tp4538
(lp4539
s(S'TP53'
p4540
S'HOXA9'
p4541
S'increases'
p4542
tp4543
(lp4544
s(S'Genistein'
p4545
S'KRAS MRNA'
p4546
S'decreases'
p4547
tp4548
(lp4549
s(S'POU1F1'
p4550
S'CYP26A1'
p4551
S'increases'
p4552
tp4553
(lp4554
s(S'manumycin'
p4555
S'KRAS PROTEIN'
p4556
S'decreases_activity'
p4557
tp4558
(lp4559
s(S'Ginkgo biloba extract 761'
p4560
S'GCLC PROTEIN'
p4561
S'increases'
p4562
tp4563
(lp4564
s(S'GATA1'
p4565
S'NRAS'
p4566
S'increases'
p4567
tp4568
(lp4569
s(S'CBFA2T3'
p4570
S'FOXF2'
p4571
S'increases'
p4572
tp4573
(lp4574
s(S'PCBP1'
p4575
S'ELK1'
p4576
S'increases'
p4577
tp4578
(lp4579
s(S'MYC'
p4580
S'FOXF2'
p4581
S'increases'
p4582
tp4583
(lp4584
s(S'hsa-mir-622'
p4585
S'KRAS'
p4586
S'decreases'
p4587
tp4588
(lp4589
s(S'TCF3'
p4590
S'MAZ'
p4591
S'increases'
p4592
tp4593
(lp4594
s(S'STAT2'
p4595
S'MEIS1'
p4596
S'increases'
p4597
tp4598
(lp4599
s(S'CYP26A1'
p4600
S'YY1'
p4601
S'increases'
p4602
tp4603
(lp4604
s(S'CYP26A1'
p4605
S'EN1'
p4606
S'increases'
p4607
tp4608
(lp4609
s(S'GRB2/SOS1'
p4610
S'SHC'
p4611
S'binds'
p4612
tp4613
(lp4614
s(S'BAD'
p4615
S'YWHAZ'
p4616
S'binds'
p4617
tp4618
(lp4619
s(S'SPI1'
p4620
S'MAX'
p4621
S'increases'
p4622
tp4623
(lp4624
s(S'PI-3-4-5-P3'
p4625
S'CENTA1'
p4626
S'translocates'
p4627
tp4628
(lp4629
s(S'XBP1'
p4630
S'CYP26A1'
p4631
S'increases'
p4632
tp4633
(lp4634
s(S'PAX4'
p4635
S'NRAS'
p4636
S'increases'
p4637
tp4638
(lp4639
s(S'PI3K'
p4640
S'EPHRIN A1/EPHA2'
p4641
S'binds'
p4642
tp4643
(lp4644
s(S'POU1F1'
p4645
S'MEIS1'
p4646
S'increases'
p4647
tp4648
(lp4649
s(S'NR3C1'
p4650
S'ETS1'
p4651
S'increases'
p4652
tp4653
(lp4654
s(S'MAZ'
p4655
S'POU3F2'
p4656
S'increases'
p4657
tp4658
(lp4659
s(S'Estradiol'
p4660
S'HRAS MRNA'
p4661
S'increases'
p4662
tp4663
(lp4664
s(S'Aflatoxin B1'
p4665
S'HRAS PROTEIN'
p4666
S'increases'
p4667
tp4668
(lp4669
s(S'ETV7'
p4670
S'STAT4'
p4671
S'increases'
p4672
tp4673
(lp4674
s(S'PBX1'
p4675
S'LEF1'
p4676
S'increases'
p4677
tp4678
(lp4679
s(S'CEBPB'
p4680
S'CYP26A1'
p4681
S'increases'
p4682
tp4683
(lp4684
s(S'MAZ'
p4685
S'JUN'
p4686
S'increases'
p4687
tp4688
(lp4689
s(S'FOXF2'
p4690
S'MYC'
p4691
S'increases'
p4692
tp4693
(lp4694
s(S'FOXJ2'
p4695
S'HOXA9'
p4696
S'increases'
p4697
tp4698
(lp4699
s(S'Capsaicin'
p4700
S'HRAS MRNA'
p4701
S'increases'
p4702
tp4703
(lp4704
s(S'POU3F1'
p4705
S'GATA6'
p4706
S'increases'
p4707
tp4708
(lp4709
s(S'EIF2A'
p4710
S'14-3-3 E'
p4711
S'binds'
p4712
tp4713
(lp4714
s(S'RAS family/GTP'
p4715
S'RAF1-BRAF'
p4716
S'increases_activity'
p4717
tp4718
(lp4719
s(S'GATA6'
p4720
S'GATA1'
p4721
S'increases'
p4722
tp4723
(lp4724
s(S'RASA1'
p4725
S'PHOSPHO PDGF BETA RECEPTOR: PDGF CHAIN B HOMODIMER'
p4726
S'binds'
p4727
tp4728
(lp4729
s(S'CART1'
p4730
S'POU2F1'
p4731
S'increases'
p4732
tp4733
(lp4734
s(S'ZIC3'
p4735
S'POU2F1'
p4736
S'increases'
p4737
tp4738
(lp4739
s(S'TCF4'
p4740
S'FOXA1'
p4741
S'increases'
p4742
tp4743
(lp4744
s(S'PKC theta'
p4745
S'RASGRP1'
p4746
S'adds_modification'
p4747
tp4748
(lp4749
s(S'PTF1A'
p4750
S'STAT5A'
p4751
S'increases'
p4752
tp4753
(lp4754
s(S'SPI1'
p4755
S'FOXO4'
p4756
S'increases'
p4757
tp4758
(lp4759
s(S'HNF1A'
p4760
S'GATA6'
p4761
S'increases'
p4762
tp4763
(lp4764
s(S'FOXJ1'
p4765
S'RUNX1'
p4766
S'increases'
p4767
tp4768
(lp4769
s(S'STAT2'
p4770
S'GATA6'
p4771
S'increases'
p4772
tp4773
(lp4774
s(S'RAS FAMILY/GTP'
p4775
S'PI3K'
p4776
S'binds'
p4777
tp4778
(lp4779
s(S'PAX4'
p4780
S'IRF1'
p4781
S'increases'
p4782
tp4783
(lp4784
s(S'PAX3'
p4785
S'HOXA9'
p4786
S'increases'
p4787
tp4788
(lp4789
s(S'MYB'
p4790
S'MAZ'
p4791
S'increases'
p4792
tp4793
(lp4794
s(S"Guanosine-5'-Triphosphate"
p4795
S'HRAS'
p4796
S'increases_activity'
p4797
tp4798
(lp4799
s(S'alpha9/beta1 Integrin/Tenascin C'
p4800
S'SRC'
p4801
S'adds_modification'
p4802
tp4803
(lp4804
s(S'RAF1'
p4805
S'MEK1'
p4806
S'adds_modification'
p4807
tp4808
(lp4809
s(S'JUN'
p4810
S'FOXA1'
p4811
S'increases'
p4812
tp4813
(lp4814
s(S'NFE2L2'
p4815
S'BACH1'
p4816
S'increases'
p4817
tp4818
(lp4819
s(S'CUX1'
p4820
S'FOXD3'
p4821
S'increases'
p4822
tp4823
(lp4824
s(S'JUN'
p4825
S'EN1'
p4826
S'increases'
p4827
tp4828
(lp4829
s(S'ESR1'
p4830
S'CYP26A1'
p4831
S'increases'
p4832
tp4833
(lp4834
s(S'ESRRA'
p4835
S'FOXA1'
p4836
S'increases'
p4837
tp4838
(lp4839
s(S'POU2F1'
p4840
S'MEIS1'
p4841
S'increases'
p4842
tp4843
(lp4844
s(S'TFCP2'
p4845
S'FOXA1'
p4846
S'increases'
p4847
tp4848
(lp4849
s(S'PI-3-4-5-P3'
p4850
S'PDK1'
p4851
S'increases_activity'
p4852
tp4853
(lp4854
s(S'TCF3'
p4855
S'FOXA1'
p4856
S'increases'
p4857
tp4858
(lp4859
s(S'STAT3'
p4860
S'CYP26A1'
p4861
S'increases'
p4862
tp4863
(lp4864
s(S'CYP26A1'
p4865
S'POU3F2'
p4866
S'increases'
p4867
tp4868
(lp4869
s(S'Curcumin'
p4870
S'KRAS MRNA'
p4871
S'decreases'
p4872
tp4873
(lp4874
s(S'STAT1'
p4875
S'CYP26A1'
p4876
S'increases'
p4877
tp4878
(lp4879
s(S'GFI1'
p4880
S'POU2F1'
p4881
S'increases'
p4882
tp4883
(lp4884
s(S'ZIC1'
p4885
S'POU2F1'
p4886
S'increases'
p4887
tp4888
(lp4889
s(S'PI-3-4-5-P3'
p4890
S'AKT3'
p4891
S'adds_modification'
p4892
tp4893
(lp4894
s(S'BACH1'
p4895
S'NRAS'
p4896
S'increases'
p4897
tp4898
(lp4899
s(S'SCF/KIT'
p4900
S'SHC/GRB2/SOS1'
p4901
S'increases_activity'
p4902
tp4903
(lp4904
s(S'CDX2'
p4905
S'CYP26A1'
p4906
S'increases'
p4907
tp4908
(lp4909
s(S'RET51/GFRalpha1/GDNF/DOK/RasGAP/NCK'
p4910
S'HRAS/GDP'
p4911
S'decreases_activity'
p4912
tp4913
(lp4914
s(S'BETAPIX'
p4915
S'RAC1/GTP'
p4916
S'binds'
p4917
tp4918
(lp4919
s(S'RHOA/GTP'
p4920
S'CITRON'
p4921
S'increases_activity'
p4922
tp4923
(lp4924
s(S'P-SHC1:GRB2:SOS'
p4925
S'P-5Y-LAT-2'
p4926
S'binds'
p4927
tp4928
(lp4929
s(S'PAX4'
p4930
S'CYP26A1'
p4931
S'increases'
p4932
tp4933
(lp4934
s(S'TCF3'
p4935
S'KRAS'
p4936
S'increases'
p4937
tp4938
(lp4939
s(S'GRB2:SOS1'
p4940
S'PHOSPHORYLATED ERBB2:ERBB4 HETERODIMERS'
p4941
S'binds'
p4942
tp4943
(lp4944
s(S'CDX2'
p4945
S'MEIS1'
p4946
S'increases'
p4947
tp4948
(lp4949
s(S'SP3'
p4950
S'RUNX1'
p4951
S'increases'
p4952
tp4953
(lp4954
s(S'REST'
p4955
S'CYP26A1'
p4956
S'increases'
p4957
tp4958
(lp4959
s(S'PTF1A'
p4960
S'CYP26A1'
p4961
S'increases'
p4962
tp4963
(lp4964
s(S'PI-3-4-5-P3'
p4965
S'PI3K/GAB1'
p4966
S'translocates'
p4967
tp4968
(lp4969
s(S'LMO2'
p4970
S'FOXO4'
p4971
S'increases'
p4972
tp4973
(lp4974
s(S'STAT4'
p4975
S'ETS1'
p4976
S'increases'
p4977
tp4978
(lp4979
s(S'GTF2A2'
p4980
S'HOXA9'
p4981
S'increases'
p4982
tp4983
(lp4984
s(S'FOXF2'
p4985
S'POU3F2'
p4986
S'increases'
p4987
tp4988
(lp4989
s(S'GATA1'
p4990
S'GABPB2'
p4991
S'increases'
p4992
tp4993
(lp4994
s(S'Polychlorinated Biphenyls'
p4995
S'KRAS MRNA'
p4996
S'decreases'
p4997
tp4998
(lp4999
s(S'GRB2/SOS1'
p5000
S'EGF/EGFR DIMER/SHC'
p5001
S'binds'
p5002
tp5003
(lp5004
s(S'CYP26A1'
p5005
S'FOXF2'
p5006
S'increases'
p5007
tp5008
(lp5009
s(S'EGR1'
p5010
S'CYP26A1'
p5011
S'increases'
p5012
tp5013
(lp5014
s(S'MAX'
p5015
S'FOXO3'
p5016
S'increases'
p5017
tp5018
(lp5019
s(S'T-DHT/AR/PELP1'
p5020
S'SRC'
p5021
S'binds'
p5022
tp5023
(lp5024
s(S'CUX1'
p5025
S'FOXF2'
p5026
S'increases'
p5027
tp5028
(lp5029
s(S'CEBPD'
p5030
S'CYP26A1'
p5031
S'increases'
p5032
tp5033
(lp5034
s(S'CBFA2T3'
p5035
S'NRAS'
p5036
S'increases'
p5037
tp5038
(lp5039
s(S'Cisplatin'
p5040
S'HRAS MRNA'
p5041
S'translocates'
p5042
tp5043
(lp5044
s(S'BAD/BCL-X(L)'
p5045
S'YWHAZ'
p5046
S'binds'
p5047
tp5048
(lp5049
s(S'GATA1'
p5050
S'FOXA1'
p5051
S'increases'
p5052
tp5053
(lp5054
s(S'RREB1'
p5055
S'CYP26A1'
p5056
S'increases'
p5057
tp5058
(lp5059
s(S'STAT4'
p5060
S'RUNX2'
p5061
S'increases'
p5062
tp5063
(lp5064
s(S'FOXD3'
p5065
S'NRAS'
p5066
S'increases'
p5067
tp5068
(lp5069
s(S'NDEL1'
p5070
S'14-3-3 E'
p5071
S'binds'
p5072
tp5073
(lp5074
s(S'CYP26A1'
p5075
S'REPIN1'
p5076
S'increases'
p5077
tp5078
(lp5079
s(S'MAF'
p5080
S'CDC5L'
p5081
S'increases'
p5082
tp5083
(lp5084
s(S'CYP26A1'
p5085
S'ELK1'
p5086
S'increases'
p5087
tp5088
(lp5089
s(S'MYC'
p5090
S'FOXD3'
p5091
S'increases'
p5092
tp5093
(lp5094
s(S'MAX'
p5095
S'FOXD3'
p5096
S'increases'
p5097
tp5098
(lp5099
s(S'POU1F1'
p5100
S'GATA6'
p5101
S'increases'
p5102
tp5103
(lp5104
s(S'POU2F1'
p5105
S'STAT4'
p5106
S'increases'
p5107
tp5108
(lp5109
s(S'GTF3A'
p5110
S'FOXO3'
p5111
S'increases'
p5112
tp5113
(lp5114
s(S'MYB'
p5115
S'FOXF2'
p5116
S'increases'
p5117
tp5118
(lp5119
s(S'ZIC3'
p5120
S'CYP26A1'
p5121
S'increases'
p5122
tp5123
(lp5124
s(S'POU2F1'
p5125
S'EN1'
p5126
S'increases'
p5127
tp5128
(lp5129
s(S'JUN'
p5130
S'STAT1'
p5131
S'increases'
p5132
tp5133
(lp5134
s(S'TEF'
p5135
S'CYP26A1'
p5136
S'increases'
p5137
tp5138
(lp5139
s(S'MAF'
p5140
S'CYP26A1'
p5141
S'increases'
p5142
tp5143
(lp5144
s(S'PAX4'
p5145
S'GATA6'
p5146
S'increases'
p5147
tp5148
(lp5149
s(S'ZIC2'
p5150
S'GATA6'
p5151
S'increases'
p5152
tp5153
(lp5154
s(S'hsa-miR-181d-5p'
p5155
S'HRAS'
p5156
S'decreases'
p5157
tp5158
(lp5159
s(S'BACH2'
p5160
S'CYP26A1'
p5161
S'increases'
p5162
tp5163
(lp5164
s(S'TCF12'
p5165
S'CYP26A1'
p5166
S'increases'
p5167
tp5168
(lp5169
s(S'GATA1'
p5170
S'FOXO4'
p5171
S'increases'
p5172
tp5173
(lp5174
s(S'RFX1'
p5175
S'FOXD3'
p5176
S'increases'
p5177
tp5178
(lp5179
s(S'FOXJ1'
p5180
S'CYP26A1'
p5181
S'increases'
p5182
tp5183
(lp5184
s(S'GTF2A2'
p5185
S'POU2F1'
p5186
S'increases'
p5187
tp5188
(lp5189
s(S'YY1'
p5190
S'SRF'
p5191
S'increases'
p5192
tp5193
(lp5194
s(S'AHR'
p5195
S'REPIN1'
p5196
S'increases'
p5197
tp5198
(lp5199
s(S'MAZ'
p5200
S'CYP26A1'
p5201
S'increases'
p5202
tp5203
(lp5204
s(S'Quercetin'
p5205
S'HRAS MRNA'
p5206
S'increases'
p5207
tp5208
(lp5209
s(S'ELK1'
p5210
S'NRAS'
p5211
S'increases'
p5212
tp5213
(lp5214
s(S'HIF1A'
p5215
S'ONECUT1'
p5216
S'increases'
p5217
tp5218
(lp5219
s(S'FOXF2'
p5220
S'CYP26A1'
p5221
S'increases'
p5222
tp5223
(lp5224
s(S'SOX9'
p5225
S'ETS1'
p5226
S'increases'
p5227
tp5228
(lp5229
s(S'HSF1'
p5230
S'JUN'
p5231
S'increases'
p5232
tp5233
(lp5234
s(S'CEBPA'
p5235
S'CYP26A1'
p5236
S'increases'
p5237
tp5238
(lp5239
s(S'NR1H4'
p5240
S'MEIS1'
p5241
S'increases'
p5242
tp5243
(lp5244
s(S'SMAD1'
p5245
S'GATA1'
p5246
S'increases'
p5247
tp5248
(lp5249
s(S'Quercetin'
p5250
S'HRAS MRNA'
p5251
S'decreases'
p5252
tp5253
(lp5254
s(S'Glycyrrhetinic Acid'
p5255
S'HRAS PROTEIN'
p5256
S'decreases'
p5257
tp5258
(lp5259
s(S'HOXA4'
p5260
S'POU2F1'
p5261
S'increases'
p5262
tp5263
(lp5264
s(S'FOXQ1'
p5265
S'CYP26A1'
p5266
S'increases'
p5267
tp5268
(lp5269
s(S'FOXI1'
p5270
S'CEBPA'
p5271
S'increases'
p5272
tp5273
(lp5274
s(S'GTF3A'
p5275
S'MYCN'
p5276
S'increases'
p5277
tp5278
(lp5279
s(S'LMO2'
p5280
S'IRF1'
p5281
S'increases'
p5282
tp5283
(lp5284
s(S'FOXO1'
p5285
S'CYP26A1'
p5286
S'increases'
p5287
tp5288
(lp5289
s(S'Copper Sulfate'
p5290
S'NRAS MRNA'
p5291
S'increases'
p5292
tp5293
(lp5294
s(S'TFAP2A'
p5295
S'CYP26A1'
p5296
S'increases'
p5297
tp5298
(lp5299
s(S'FOXJ1'
p5300
S'EN1'
p5301
S'increases'
p5302
tp5303
(lp5304
s(S'MEIS1'
p5305
S'RUNX1'
p5306
S'increases'
p5307
tp5308
(lp5309
s(S'MAZ'
p5310
S'FOXA1'
p5311
S'increases'
p5312
tp5313
(lp5314
s(S'ETS1'
p5315
S'FOXO4'
p5316
S'increases'
p5317
tp5318
(lp5319
s(S'ZBTB14'
p5320
S'FOXD3'
p5321
S'increases'
p5322
tp5323
(lp5324
s(S'FOXC1'
p5325
S'LEF1'
p5326
S'increases'
p5327
tp5328
(lp5329
s(S'IRF1'
p5330
S'EN1'
p5331
S'increases'
p5332
tp5333
(lp5334
s(S'NR3C1'
p5335
S'CYP26A1'
p5336
S'increases'
p5337
tp5338
(lp5339
s(S'VSX1'
p5340
S'BACH1'
p5341
S'increases'
p5342
tp5343
(lp5344
s(S'CYP26A1'
p5345
S'ETS1'
p5346
S'increases'
p5347
tp5348
(lp5349
s(S'CEBPA'
p5350
S'MEIS1'
p5351
S'increases'
p5352
tp5353
(lp5354
s(S'ELF1'
p5355
S'FOXO4'
p5356
S'increases'
p5357
tp5358
(lp5359
s(S'RXRA'
p5360
S'CYP26A1'
p5361
S'increases'
p5362
tp5363
(lp5364
s(S'CREB1'
p5365
S'CYP26A1'
p5366
S'increases'
p5367
tp5368
(lp5369
s(S'IRF7'
p5370
S'GATA6'
p5371
S'increases'
p5372
tp5373
(lp5374
s(S'ZEB1'
p5375
S'CYP26A1'
p5376
S'increases'
p5377
tp5378
(lp5379
s(S'AR'
p5380
S'CYP26A1'
p5381
S'increases'
p5382
tp5383
(lp5384
s(S'TFDP2'
p5385
S'MYC'
p5386
S'increases'
p5387
tp5388
(lp5389
s(S'hsa-mir-217'
p5390
S'KRAS'
p5391
S'decreases'
p5392
tp5393
(lp5394
s(S'MEK'
p5395
S'ERK'
p5396
S'adds_modification'
p5397
tp5398
(lp5399
g651
aS'Moreover, the ERK1/2 upstream kinase MEK1/2 inhibitor U0126 ['
p5400
aS'The activation of ERK was antagonized with a specific inhibitor of MAP kinase/ERK kinase kinase (MEKK), PD98059 (Calbiochem, San Diego, CA, USA), and the specific p38 MAP kinase inhibitor was SB203580 (Calbiochem).'
p5401
aS"This study attempted to elucidate the signal transduction pathway of adipocyte-derived stem cells (ASCs) by using a demethylating agent, 5-aza-2'-deoxycytidine (ADC), to analyze the survivin, MEK/ERK, c-Myc and p53 gene expression."
p5402
aS'Western blotting analysis was performed for p53, survivin, unphosphorylated and phosphorylated (p)-MEK, and p-ERK.'
p5403
aS'The overexpression of p-MEK/ERK, p53, and c-Myc increased the survivin protein expression of the demethylated ASCs.'
p5404
aS"These results suggest that demethylation could alter the expression of survivin, and p53, c-Myc and the MAPK (MEK/ERK) pathway might play a role in survivin's regulation in ASCs."
p5405
aS'The primary antibodies against c-Myc, p53 and survivin were purchased from Dako (Amsterdam, Netherlands), ERK and MEK were purchased from Genzyme (San Francisco, CA, USA).'
p5406
aS'The levels of p-MEK and p-ERK were increased time-dependently, however these levels at 72 hr were decreased to lower than that of before treatment.'
p5407
aS'The levels of phosphorylated-MEK and -ERK were increased time-dependently, however the levels 72 hr after ADC treatment were decreased to lower than that before treatment.'
p5408
aS'In this study, ADC treatment significantly increased (P < 0.05) the expressions of MEK, ERK, c-Myc, p53 and survivin, as is evident from the immunoblotting and the corresponding densitometry data.'
p5409
aS'In conclusion, the overexpression of p-MEK and ERK, p53, and c-Myc increased the survivin protein expression of the demethylated ASCs.'
p5410
aS'This study presents evidence that the expression of multiple gene pathways controls this response, including the MEK, ERK, c-Myc and p53 genes.'
p5411
aS'Protein expression analysis of p-MEK, p-ERK, c-Myc, p53, and survivin in control and ADC-treated ASC as assess by immunoblotting and by their respective densitometry data.'
p5412
aS'The comparison of each protein level at 24, 48, 72 hr after and before ADC treatment is as follows: P-p-MEK = 0.08, P-p-ERK = 0.001, P-c-Myc = 0.003, P-p53 = 0.004, P-survivin = 0.031, P-p-MEK-survivin = 0.075, P-p-ERK-survivin = 0.010, P-c-Myc-survivin = 0.003, P-p53-survivin = 0.117.'
p5413
aS'Finally, we further examined the specific ability of p-ERK blockade in the NAcc on the inhibition of the expression of locomotor sensitization to cocaine by using another MEK inhibitor, U0126. '
p5414
ag652
ag653
aS'PD98059 is a specific inhibitor of mitogen activated protein kinase/extracellular signal-regulated kinase 1 (MEK-1), which is responsible for ERK1/2 activation.'
p5415
as(S'ZBTB18'
p5416
S'ONECUT1'
p5417
S'increases'
p5418
tp5419
(lp5420
s(S'TGIF'
p5421
S'MAX'
p5422
S'increases'
p5423
tp5424
(lp5425
s(S'ETS1'
p5426
S'NRAS'
p5427
S'increases'
p5428
tp5429
(lp5430
s(S'KLF12'
p5431
S'GATA1'
p5432
S'increases'
p5433
tp5434
(lp5435
s(S'HRAS/GTP'
p5436
S'PAK2'
p5437
S'increases_activity'
p5438
tp5439
(lp5440
s(S'CYP26A1'
p5441
S'FOXD3'
p5442
S'increases'
p5443
tp5444
(lp5445
s(S'LMO2'
p5446
S'RUNX1'
p5447
S'increases'
p5448
tp5449
(lp5450
s(S'MLK3'
p5451
S'MKK3/6'
p5452
S'adds_modification'
p5453
tp5454
(lp5455
s(S'TAK'
p5456
S'MKK3/6'
p5457
S'adds_modification'
p5458
tp5459
(lp5460
s(S'GRB2:SOS1'
p5461
S'HB-EGF:P-6Y-EGFR DIMER'
p5462
S'binds'
p5463
tp5464
(lp5465
s(S'FOXO4'
p5466
S'NRAS'
p5467
S'increases'
p5468
tp5469
(lp5470
s(S'MECOM'
p5471
S'NRAS'
p5472
S'increases'
p5473
tp5474
(lp5475
s(S'KLF12'
p5476
S'CYP26A1'
p5477
S'increases'
p5478
tp5479
(lp5480
s(S'RAS family/GTP/PI3K'
p5481
S'TRPV1'
p5482
S'adds_modification'
p5483
tp5484
(lp5485
s(S'hsa-let-7a-5p'
p5486
S'NRAS'
p5487
S'decreases'
p5488
tp5489
(lp5490
s(S'NF1'
p5491
S'HOXA9'
p5492
S'increases'
p5493
tp5494
(lp5495
s(S'REPIN1'
p5496
S'FOXD3'
p5497
S'increases'
p5498
tp5499
(lp5500
s(S'CYP26A1'
p5501
S'FOXJ2'
p5502
S'increases'
p5503
tp5504
(lp5505
s(S'FOXO4'
p5506
S'MEIS1'
p5507
S'increases'
p5508
tp5509
(lp5510
s(S'EBF2'
p5511
S'MECOM'
p5512
S'increases'
p5513
tp5514
(lp5515
s(S'ETS1'
p5516
S'FOXO3'
p5517
S'increases'
p5518
tp5519
(lp5520
s(S'SP3'
p5521
S'CYP26A1'
p5522
S'increases'
p5523
tp5524
(lp5525
s(S'LNXp80'
p5526
S'NUMB'
p5527
S'decreases'
p5528
tp5529
(lp5530
s(S'RUNX2'
p5531
S'CYP26A1'
p5532
S'increases'
p5533
tp5534
(lp5535
s(S'AHR'
p5536
S'FOXO3'
p5537
S'increases'
p5538
tp5539
(lp5540
s(S'VSX1'
p5541
S'FOXF2'
p5542
S'increases'
p5543
tp5544
(lp5545
s(S'BPTF'
p5546
S'RUNX1'
p5547
S'increases'
p5548
tp5549
(lp5550
s(S'7,8-Dihydro-7,8-dihydroxybenzo(a)pyrene 9,10-oxide'
p5551
S'HRAS PROTEIN'
p5552
S'increases'
p5553
tp5554
(lp5555
s(S'TCF3'
p5556
S'POU3F2'
p5557
S'increases'
p5558
tp5559
(lp5560
s(S'TCF3'
p5561
S'IRF1'
p5562
S'increases'
p5563
tp5564
(lp5565
s(S'SREBF1'
p5566
S'EN1'
p5567
S'increases'
p5568
tp5569
(lp5570
s(S'FOXO4'
p5571
S'RUNX2'
p5572
S'increases'
p5573
tp5574
(lp5575
s(S'hsa-miR-181a-5p'
p5576
S'HRAS'
p5577
S'decreases'
p5578
tp5579
(lp5580
s(S'Myb'
p5581
S'NRAS'
p5582
S'decreases'
p5583
tp5584
(lp5585
s(S'HSPA8'
p5586
S'ADP'
p5587
S'binds'
p5588
tp5589
(lp5590
s(S'SOCS3'
p5591
S'RASGAP'
p5592
S'binds'
p5593
tp5594
(lp5595
s(S'ONECUT1'
p5596
S'NRAS'
p5597
S'increases'
p5598
tp5599
(lp5600
s(S'PITX2'
p5601
S'EN1'
p5602
S'increases'
p5603
tp5604
(lp5605
s(S'HGF(dimer)/MET(dimer)'
p5606
S'SRC'
p5607
S'adds_modification'
p5608
tp5609
(lp5610
s(S'2-amino-1-methyl-6-phenylimidazo(4,5-b)pyridine'
p5611
S'HRAS PROTEIN'
p5612
S'increases'
p5613
tp5614
(lp5615
s(S'GFI1'
p5616
S'POU3F2'
p5617
S'increases'
p5618
tp5619
(lp5620
s(S'FARNESYL DIPHOSPHATE'
p5621
S'KRAS'
p5622
S'increases_activity'
p5623
tp5624
(lp5625
s(S'IL2/IL2R BETA/GAMMA/JAK1/LCK/JAK3'
p5626
S'PI3K'
p5627
S'binds'
p5628
tp5629
(lp5630
s(S'GTF3A'
p5631
S'MECOM'
p5632
S'increases'
p5633
tp5634
(lp5635
s(S'EGR2'
p5636
S'CYP26A1'
p5637
S'increases'
p5638
tp5639
(lp5640
s(S'RUNX1'
p5641
S'FOXF2'
p5642
S'increases'
p5643
tp5644
(lp5645
s(S'IL3/IL3RA/CSF2RB (DODECAMER)'
p5646
S'YWHAZ'
p5647
S'binds'
p5648
tp5649
(lp5650
s(S'RAF1'
p5651
S'BRAF'
p5652
S'binds'
p5653
tp5654
(lp5655
s(S'MYC'
p5656
S'CYP26A1'
p5657
S'increases'
p5658
tp5659
(lp5660
s(S'UBP1'
p5661
S'CYP26A1'
p5662
S'increases'
p5663
tp5664
(lp5665
s(S'MTF1'
p5666
S'REPIN1'
p5667
S'increases'
p5668
tp5669
(lp5670
s(S'HNF1A'
p5671
S'RUNX1'
p5672
S'increases'
p5673
tp5674
(lp5675
s(S'NHLH1'
p5676
S'FOXA1'
p5677
S'increases'
p5678
tp5679
(lp5680
s(S'HLF'
p5681
S'FOXA1'
p5682
S'increases'
p5683
tp5684
(lp5685
s(S'MEIS1'
p5686
S'GATA6'
p5687
S'increases'
p5688
tp5689
(lp5690
s(S'PDGF-BB/PDGFRB (DIMER)/SHP2'
p5691
S'GRB2/SOS1'
p5692
S'binds'
p5693
tp5694
(lp5695
s(S'ZBTB14'
p5696
S'EN1'
p5697
S'increases'
p5698
tp5699
(lp5700
s(S'alpha6/beta4 Integrin'
p5701
S'HRAS/GDP'
p5702
S'increases_activity'
p5703
tp5704
(lp5705
s(S'ErbB2'
p5706
S'HRAS/GDP'
p5707
S'increases_activity'
p5708
tp5709
(lp5710
s(S'MEIS1'
p5711
S'FOXO3'
p5712
S'increases'
p5713
tp5714
(lp5715
s(S'RELA'
p5716
S'IRF1'
p5717
S'increases'
p5718
tp5719
(lp5720
s(S'MYCN'
p5721
S'FOXO3'
p5722
S'increases'
p5723
tp5724
(lp5725
s(S'RHOA/GTP'
p5726
S'DIA'
p5727
S'increases_activity'
p5728
tp5729
(lp5730
s(S'Fluorouracil'
p5731
S'KRAS PROTEIN'
p5732
S'decreases'
p5733
tp5734
(lp5735
s(S'ATF2'
p5736
S'CYP26A1'
p5737
S'increases'
p5738
tp5739
(lp5740
s(S'GNAI2/GTP'
p5741
S'SRC FAMILY KINASES'
p5742
S'increases_activity'
p5743
tp5744
(lp5745
s(S'HAND1'
p5746
S'POU2F1'
p5747
S'increases'
p5748
tp5749
(lp5750
s(S'PI5K Type 1 family'
p5751
S'PI-4-P'
p5752
S'translocates'
p5753
tp5754
(lp5755
s(S'HSF1'
p5756
S'CBFA2T3'
p5757
S'increases'
p5758
tp5759
(lp5760
s(S'BACH1'
p5761
S'FOXA1'
p5762
S'increases'
p5763
tp5764
(lp5765
s(S'PI-3-4-5-P3'
p5766
S'SGK1'
p5767
S'adds_modification'
p5768
tp5769
(lp5770
s(S'hsa-miR-20a-5p'
p5771
S'NRAS'
p5772
S'decreases'
p5773
tp5774
(lp5775
s(S'CYP26A1'
p5776
S'MECOM'
p5777
S'increases'
p5778
tp5779
(lp5780
s(S'FOXF2'
p5781
S'RUNX1'
p5782
S'increases'
p5783
tp5784
(lp5785
s(S'EGR2'
p5786
S'SRF'
p5787
S'increases'
p5788
tp5789
(lp5790
s(S'LEF1'
p5791
S'FOXD3'
p5792
S'increases'
p5793
tp5794
(lp5795
s(S'TFAP2C'
p5796
S'MECOM'
p5797
S'increases'
p5798
tp5799
(lp5800
s(S'SHC'
p5801
S'GRB2/SOS1'
p5802
S'binds'
p5803
tp5804
(lp5805
s(S'CA2+'
p5806
S'CAM'
p5807
S'binds'
p5808
tp5809
(lp5810
s(S'MYC'
p5811
S'POU3F2'
p5812
S'increases'
p5813
tp5814
(lp5815
s(S'PAX8'
p5816
S'HOXA9'
p5817
S'increases'
p5818
tp5819
(lp5820
s(S'TFDP2'
p5821
S'CDC5L'
p5822
S'increases'
p5823
tp5824
(lp5825
s(S'RAF1/14-3-3'
p5826
S'KSR/14-3-3 /MEK1-2'
p5827
S'increases_activity'
p5828
tp5829
(lp5830
s(S'DDIT3'
p5831
S'MEIS1'
p5832
S'increases'
p5833
tp5834
(lp5835
s(S'GNB1/GNG2'
p5836
S'HRAS/GDP'
p5837
S'increases_activity'
p5838
tp5839
(lp5840
s(S'ACTIVATED FGFR MUTANTS:P-FRS2ALPHA'
p5841
S'GRB2:SOS1'
p5842
S'binds'
p5843
tp5844
(lp5845
s(S'HIF1A'
p5846
S'CYP26A1'
p5847
S'increases'
p5848
tp5849
(lp5850
s(S'RAF1-BRAF'
p5851
S'ERK1-2'
p5852
S'increases_activity'
p5853
tp5854
(lp5855
s(S'SMAD4'
p5856
S'CBFA2T3'
p5857
S'increases'
p5858
tp5859
(lp5860
s(S'resveratrol'
p5861
S'HRAS PROTEIN'
p5862
S'increases'
p5863
tp5864
(lp5865
s(S'Malathion'
p5866
S'HRAS MRNA'
p5867
S'increases'
p5868
tp5869
(lp5870
s(S'NRF1'
p5871
S'FOXO4'
p5872
S'increases'
p5873
tp5874
(lp5875
s(S'CREB1'
p5876
S'JUN'
p5877
S'increases'
p5878
tp5879
(lp5880
s(S'CDC5L'
p5881
S'HOXA9'
p5882
S'increases'
p5883
tp5884
(lp5885
s(S'CDX2'
p5886
S'HOXA9'
p5887
S'increases'
p5888
tp5889
(lp5890
s(S'HMGA1'
p5891
S'POU2F1'
p5892
S'increases'
p5893
tp5894
(lp5895
s(S'Coumestrol'
p5896
S'KRAS MRNA'
p5897
S'decreases'
p5898
tp5899
(lp5900
s(S'LEF1'
p5901
S'FOXO3'
p5902
S'increases'
p5903
tp5904
(lp5905
s(S'CYP26A1'
p5906
S'MEIS1'
p5907
S'increases'
p5908
tp5909
(lp5910
s(S'GTF2A2'
p5911
S'MEIS1'
p5912
S'increases'
p5913
tp5914
(lp5915
s(S'REPIN1'
p5916
S'CBFA2T3'
p5917
S'increases'
p5918
tp5919
(lp5920
s(S'hsa-miR-143-3p'
p5921
S'HRAS'
p5922
S'decreases'
p5923
tp5924
(lp5925
s(S'[(3,7,11-TRIMETHYL-DODECA-2,6,10-TRIENYLOXYCARBAMOYL)-METHYL]-PHOSPHONIC ACID'
p5926
S'KRAS'
p5927
S'increases_activity'
p5928
tp5929
(lp5930
s(S'TFDP1'
p5931
S'ONECUT1'
p5932
S'increases'
p5933
tp5934
(lp5935
s(S'YY1'
p5936
S'CYP26A1'
p5937
S'increases'
p5938
tp5939
(lp5940
s(S'PITX2'
p5941
S'RUNX1'
p5942
S'increases'
p5943
tp5944
(lp5945
s(S'STAT5A'
p5946
S'NRAS'
p5947
S'increases'
p5948
tp5949
(lp5950
s(S'Valproic Acid'
p5951
S'HRAS MRNA'
p5952
S'increases'
p5953
tp5954
(lp5955
s(S'Malathion'
p5956
S'HRAS PROTEIN'
p5957
S'increases'
p5958
tp5959
(lp5960
s(S'TFAP4'
p5961
S'CBFA2T3'
p5962
S'increases'
p5963
tp5964
(lp5965
s(S'TFAP4'
p5966
S'EN1'
p5967
S'increases'
p5968
tp5969
(lp5970
s(S'POU3F2'
p5971
S'CYP26A1'
p5972
S'increases'
p5973
tp5974
(lp5975
s(S'PAX3'
p5976
S'FOXD3'
p5977
S'increases'
p5978
tp5979
(lp5980
s(S'FOXA2'
p5981
S'RUNX2'
p5982
S'increases'
p5983
tp5984
(lp5985
s(S'MAX'
p5986
S'BACH1'
p5987
S'increases'
p5988
tp5989
(lp5990
s(S'PDX1'
p5991
S'CYP26A1'
p5992
S'increases'
p5993
tp5994
(lp5995
s(S'EPO/EPOR (dimer)/JAK2'
p5996
S'SHC/GRB2/SOS1'
p5997
S'increases_activity'
p5998
tp5999
(lp6000
s(S'E2F1'
p6001
S'MEIS1'
p6002
S'increases'
p6003
tp6004
(lp6005
s(S'FOXF2'
p6006
S'MEIS1'
p6007
S'increases'
p6008
tp6009
(lp6010
s(S'SPZ1'
p6011
S'FOXJ2'
p6012
S'increases'
p6013
tp6014
(lp6015
s(S'SRY'
p6016
S'NRAS'
p6017
S'increases'
p6018
tp6019
(lp6020
s(S'REPIN1'
p6021
S'CYP26A1'
p6022
S'increases'
p6023
tp6024
(lp6025
s(S'VEGFR3/VEGFC-D'
p6026
S'PKC'
p6027
S'increases_activity'
p6028
tp6029
(lp6030
s(S'MEIS1'
p6031
S'EN1'
p6032
S'increases'
p6033
tp6034
(lp6035
s(S'FOXJ1'
p6036
S'FOXD3'
p6037
S'increases'
p6038
tp6039
(lp6040
s(S'SPZ1'
p6041
S'FOXO4'
p6042
S'increases'
p6043
tp6044
(lp6045
s(S'RHOA/GTP'
p6046
S'ROCK1-ROCK2'
p6047
S'increases_activity'
p6048
tp6049
(lp6050
s(S'HMGA1'
p6051
S'ONECUT1'
p6052
S'increases'
p6053
tp6054
(lp6055
s(S'uPA/uPAR/alphav/beta3 Integrin/Vitronectin'
p6056
S'SRC'
p6057
S'adds_modification'
p6058
tp6059
(lp6060
s(S'ETS1'
p6061
S'CYP26A1'
p6062
S'increases'
p6063
tp6064
(lp6065
s(S'ESRRA'
p6066
S'TLX2'
p6067
S'increases'
p6068
tp6069
(lp6070
s(S'ROCK2'
p6071
S'RHO FAMILY GTPASE-ACTIVE'
p6072
S'binds'
p6073
tp6074
(lp6075
s(S'ATF4'
p6076
S'CYP26A1'
p6077
S'increases'
p6078
tp6079
(lp6080
s(S'OR5I1'
p6081
S'CYP26A1'
p6082
S'increases'
p6083
tp6084
(lp6085
s(S'PITX2'
p6086
S'GATA1'
p6087
S'increases'
p6088
tp6089
(lp6090
s(S'AHR'
p6091
S'ONECUT1'
p6092
S'increases'
p6093
tp6094
(lp6095
s(S'PTF1A'
p6096
S'MECOM'
p6097
S'increases'
p6098
tp6099
(lp6100
s(S'arsenic trioxide'
p6101
S'HRAS MRNA'
p6102
S'increases'
p6103
tp6104
(lp6105
s(S'TCF3'
p6106
S'REPIN1'
p6107
S'increases'
p6108
tp6109
(lp6110
s(S'STAT6'
p6111
S'FOXO3'
p6112
S'increases'
p6113
tp6114
(lp6115
s(S'POU1F1'
p6116
S'POU2F1'
p6117
S'increases'
p6118
tp6119
(lp6120
s(S'RHOA/GTP'
p6121
S'ROCK'
p6122
S'increases_activity'
p6123
tp6124
(lp6125
s(S'PITPNA'
p6126
S'PI-4-5-P2'
p6127
S'translocates'
p6128
tp6129
(lp6130
s(S'MDM-2'
p6131
S'P14/19 ARF'
p6132
S'binds'
p6133
tp6134
(lp6135
s(S'TEAD1'
p6136
S'FOXO3'
p6137
S'increases'
p6138
tp6139
(lp6140
s(S'MYC'
p6141
S'MAX'
p6142
S'increases'
p6143
tp6144
(lp6145
s(S'GRB2:SOS1'
p6146
S'EGF:PHOSPHO-EGFR:PHOSPHO-SHC'
p6147
S'binds'
p6148
tp6149
(lp6150
s(S'NF1'
p6151
S'RUNX1'
p6152
S'increases'
p6153
tp6154
(lp6155
s(S'ZEB1'
p6156
S'GATA6'
p6157
S'increases'
p6158
tp6159
(lp6160
s(S'TBP'
p6161
S'EN1'
p6162
S'increases'
p6163
tp6164
(lp6165
s(S'FOXA1'
p6166
S'FOXD3'
p6167
S'increases'
p6168
tp6169
(lp6170
s(S'CART1'
p6171
S'EN1'
p6172
S'increases'
p6173
tp6174
(lp6175
s(S'MAX'
p6176
S'CEBPA'
p6177
S'increases'
p6178
tp6179
(lp6180
s(S'GATA6'
p6181
S'NRAS'
p6182
S'increases'
p6183
tp6184
(lp6185
s(S'PTF1A'
p6186
S'FOXO3'
p6187
S'increases'
p6188
tp6189
(lp6190
s(S'LEF1'
p6191
S'FOXA1'
p6192
S'increases'
p6193
tp6194
(lp6195
s(S'hsa-let-7g-5p'
p6196
S'KRAS'
p6197
S'decreases'
p6198
tp6199
(lp6200
s(S'ZBTB14'
p6201
S'CYP26A1'
p6202
S'increases'
p6203
tp6204
(lp6205
s(S'POU1F1'
p6206
S'FOXO4'
p6207
S'increases'
p6208
tp6209
(lp6210
s(S'PI3K'
p6211
S'PI-4-5-P2'
p6212
S'translocates'
p6213
tp6214
(lp6215
s(S'GABPB2'
p6216
S'NRAS'
p6217
S'increases'
p6218
tp6219
(lp6220
s(S'ELK1'
p6221
S'LEF1'
p6222
S'increases'
p6223
tp6224
(lp6225
s(S'Estrogens'
p6226
S'HRAS MRNA'
p6227
S'increases'
p6228
tp6229
(lp6230
s(S'CYP26A1'
p6231
S'CEBPA'
p6232
S'increases'
p6233
tp6234
(lp6235
s(S'SPI1'
p6236
S'POU2F1'
p6237
S'increases'
p6238
tp6239
(lp6240
s(S'PPARG'
p6241
S'CYP26A1'
p6242
S'increases'
p6243
tp6244
(lp6245
s(S'Asbestos, Serpentine'
p6246
S'HRAS PROTEIN'
p6247
S'increases'
p6248
tp6249
(lp6250
s(S'RET51/GFRALPHA1/GDNF/DOK1'
p6251
S'RASGAP'
p6252
S'binds'
p6253
tp6254
(lp6255
s(S'FOXO1'
p6256
S'GATA6'
p6257
S'increases'
p6258
tp6259
(lp6260
s(S'Cadmium'
p6261
S'KRAS PROTEIN'
p6262
S'increases'
p6263
tp6264
(lp6265
s(S'MAX'
p6266
S'EN1'
p6267
S'increases'
p6268
tp6269
(lp6270
s(S'TLX2'
p6271
S'NRAS'
p6272
S'increases'
p6273
tp6274
(lp6275
s(S'SREBF1'
p6276
S'CYP26A1'
p6277
S'increases'
p6278
tp6279
(lp6280
s(S'SMAD3'
p6281
S'MEIS1'
p6282
S'increases'
p6283
tp6284
(lp6285
s(S'Acetaminophen'
p6286
S'NRAS MRNA'
p6287
S'decreases'
p6288
tp6289
(lp6290
s(S'LEF1'
p6291
S'ETS1'
p6292
S'increases'
p6293
tp6294
(lp6295
s(S'SRF'
p6296
S'MEIS1'
p6297
S'increases'
p6298
tp6299
(lp6300
s(S'BRAF'
p6301
S'MKK3-MKK6'
p6302
S'increases_activity'
p6303
tp6304
(lp6305
s(S'HRAS/GTP'
p6306
S'RAF1'
p6307
S'adds_modification'
p6308
tp6309
(lp6310
s(S'MSX1'
p6311
S'CYP26A1'
p6312
S'increases'
p6313
tp6314
(lp6315
s(S'GATA4'
p6316
S'ETS1'
p6317
S'increases'
p6318
tp6319
(lp6320
s(S'E4F1'
p6321
S'FOXA1'
p6322
S'increases'
p6323
tp6324
(lp6325
s(S'FOXD1'
p6326
S'LEF1'
p6327
S'increases'
p6328
tp6329
(lp6330
s(S'CUX1'
p6331
S'MAX'
p6332
S'increases'
p6333
tp6334
(lp6335
s(S'CYP26A1'
p6336
S'CBFA2T3'
p6337
S'increases'
p6338
tp6339
(lp6340
s(S'CAM/CA2+'
p6341
S'KRAS ISOFORM 4B/GTP'
p6342
S'binds'
p6343
tp6344
(lp6345
s(S'MYOG'
p6346
S'STAT5A'
p6347
S'increases'
p6348
tp6349
(lp6350
s(S'MYOD1'
p6351
S'STAT5A'
p6352
S'increases'
p6353
tp6354
(lp6355
s(S'HNF1A'
p6356
S'POU3F2'
p6357
S'increases'
p6358
tp6359
(lp6360
s(S'EPH'
p6361
S'EPHR'
p6362
S'binds'
p6363
tp6364
(lp6365
s(S'PDGF:PHOSPHO-PDGF RECEPTOR DIMER'
p6366
S'GRB2:SOS1'
p6367
S'binds'
p6368
tp6369
(lp6370
s(S'HRAS/GTP'
p6371
S'PI3K'
p6372
S'increases_activity'
p6373
tp6374
(lp6375
s(S'RUNX1'
p6376
S'TLX2'
p6377
S'increases'
p6378
tp6379
(lp6380
s(S'MYOG'
p6381
S'CYP26A1'
p6382
S'increases'
p6383
tp6384
(lp6385
s(S'PAX2'
p6386
S'EN1'
p6387
S'increases'
p6388
tp6389
(lp6390
s(S'TFCP2'
p6391
S'CYP26A1'
p6392
S'increases'
p6393
tp6394
(lp6395
s(S'hsa-miR-145-5p'
p6396
S'NRAS'
p6397
S'decreases'
p6398
tp6399
(lp6400
s(S'KAT2B'
p6401
S'GATA1'
p6402
S'increases'
p6403
tp6404
(lp6405
s(S'P-EGFR MUTANTS:P-Y349,350-SHC1'
p6406
S'GRB2:SOS1'
p6407
S'binds'
p6408
tp6409
(lp6410
s(S'E2F1'
p6411
S'MECOM'
p6412
S'increases'
p6413
tp6414
(lp6415
s(S'GNB1/GNG2'
p6416
S'SRC'
p6417
S'adds_modification'
p6418
tp6419
(lp6420
s(S'ZBTB14'
p6421
S'MAX'
p6422
S'increases'
p6423
tp6424
(lp6425
s(S'RALGDS'
p6426
S'P21 RAS:GTP'
p6427
S'binds'
p6428
tp6429
(lp6430
s(S'RHOA/GTP'
p6431
S'ROCK2'
p6432
S'increases_activity'
p6433
tp6434
(lp6435
s(S'NR1H3'
p6436
S'FOXD3'
p6437
S'increases'
p6438
tp6439
(lp6440
s(S'TFAP4'
p6441
S'GATA1'
p6442
S'increases'
p6443
tp6444
(lp6445
s(S'FOXA1'
p6446
S'GATA6'
p6447
S'increases'
p6448
tp6449
(lp6450
s(S'GRB2:SOS1'
p6451
S'P-SHC'
p6452
S'binds'
p6453
tp6454
(lp6455
s(S'E2F1'
p6456
S'FOXO3'
p6457
S'increases'
p6458
tp6459
(lp6460
s.