(dp0
(S'ZEB1'
p1
S'FOXA1'
p2
S'increases'
p3
tp4
(lp5
s(S'FOXJ1'
p6
S'GATA6'
p7
S'increases'
p8
tp9
(lp10
s(S'TFAP4'
p11
S'FOXD3'
p12
S'increases'
p13
tp14
(lp15
s(S'TBP'
p16
S'MEIS1'
p17
S'increases'
p18
tp19
(lp20
s(S'GCM1'
p21
S'GATA6'
p22
S'increases'
p23
tp24
(lp25
s(S'T-DHT'
p26
S'SRC'
p27
S'adds_modification'
p28
tp29
(lp30
s(S'MAZ'
p31
S'GABPB2'
p32
S'increases'
p33
tp34
(lp35
s(S'HMGA1'
p36
S'EN1'
p37
S'increases'
p38
tp39
(lp40
s(S'CYP26A1'
p41
S'NRAS'
p42
S'increases'
p43
tp44
(lp45
s(S'CUX1'
p46
S'MEIS1'
p47
S'increases'
p48
tp49
(lp50
s(S'REPIN1'
p51
S'BACH1'
p52
S'increases'
p53
tp54
(lp55
s(S'TFDP1'
p56
S'HOXA9'
p57
S'increases'
p58
tp59
(lp60
s(S'NFE2L1'
p61
S'CYP26A1'
p62
S'increases'
p63
tp64
(lp65
s(S'MAZ'
p66
S'GATA1'
p67
S'increases'
p68
tp69
(lp70
s(S'TCF12'
p71
S'GABPB2'
p72
S'increases'
p73
tp74
(lp75
s(S'ETS2'
p76
S'FOXO3'
p77
S'increases'
p78
tp79
(lp80
s(S'hsa-let-7c-5p'
p81
S'NRAS'
p82
S'decreases'
p83
tp84
(lp85
s(S'SPI1'
p86
S'CYP26A1'
p87
S'increases'
p88
tp89
(lp90
s(S'RAC1/GTP'
p91
S'MKK4'
p92
S'adds_modification'
p93
tp94
(lp95
s(S'Quercetin'
p96
S'KRAS MRNA'
p97
S'decreases'
p98
tp99
(lp100
s(S'INSULIN RECEPTOR/INSULIN/SHC'
p101
S'GRB2'
p102
S'binds'
p103
tp104
(lp105
s(S'TAp63a (tetramer)'
p106
S'PKC DELTA'
p107
S'increases'
p108
tp109
(lp110
s(S'FOXO1'
p111
S'POU2F1'
p112
S'increases'
p113
tp114
(lp115
s(S'FOXL1'
p116
S'EN1'
p117
S'increases'
p118
tp119
(lp120
s(S'TBP'
p121
S'CYP26A1'
p122
S'increases'
p123
tp124
(lp125
s(S'Heptachlor'
p126
S'HRAS MRNA'
p127
S'decreases'
p128
tp129
(lp130
s(S'PCBP1'
p131
S'CYP26A1'
p132
S'increases'
p133
tp134
(lp135
s(S'ZBTB18'
p136
S'CYP26A1'
p137
S'increases'
p138
tp139
(lp140
s(S'GATA2'
p141
S'CYP26A1'
p142
S'increases'
p143
tp144
(lp145
s(S'Cadmium'
p146
S'KRAS MRNA'
p147
S'increases'
p148
tp149
(lp150
s(S'HNF1A'
p151
S'POU2F1'
p152
S'increases'
p153
tp154
(lp155
s(S'ABT-100'
p156
S'HRAS PROTEIN'
p157
S'inhibits_modification'
p158
tp159
(lp160
s(S'ELF1'
p161
S'CYP26A1'
p162
S'increases'
p163
tp164
(lp165
s(S'LEF1'
p166
S'KRAS'
p167
S'increases'
p168
tp169
(lp170
s(S'NKX2-1'
p171
S'FOXD3'
p172
S'increases'
p173
tp174
(lp175
s(S'PI-3-4-5-P3'
p176
S'BTK-ITK'
p177
S'translocates'
p178
tp179
(lp180
s(S'POU6F1'
p181
S'HOXA9'
p182
S'increases'
p183
tp184
(lp185
s(S'Myb'
p186
S'MYB'
p187
S'increases'
p188
tp189
(lp190
S'A similar situation was observed with Myb genes; many members were expressed, but only Myb-like DNA-binding protein (MZ00044429, MZ00018761), and GAMYB-binding protein (MZ00024498) were up-regulated in inoculated S. Of the ethylene responsive factors, ERF3 (MZ00018574, MZ00026596) was up-regulated in inoculated R. ERF (MZ00016032), ethylene-responsive factor-like protein 1(MZ00019568, MZ00030445), and ERF3 (MZ00018574) were up-regulated in inoculated S.'
p191
as(S'PAX5'
p192
S'CYP26A1'
p193
S'increases'
p194
tp195
(lp196
s(S'FOXO4'
p197
S'FOXD3'
p198
S'increases'
p199
tp200
(lp201
s(S'CYP26A1'
p202
S'FOXO4'
p203
S'increases'
p204
tp205
(lp206
s(S'cell adhesion'
p207
S'HRAS/GDP'
p208
S'increases_activity'
p209
tp210
(lp211
s(S'IRF7'
p212
S'CYP26A1'
p213
S'increases'
p214
tp215
(lp216
s(S'7,8-Dihydro-7,8-dihydroxybenzo(a)pyrene 9,10-oxide'
p217
S'KRAS PROTEIN'
p218
S'increases'
p219
tp220
(lp221
s(S'PITX2'
p222
S'POU2F1'
p223
S'increases'
p224
tp225
(lp226
s(S'E2F1'
p227
S'CYP26A1'
p228
S'increases'
p229
tp230
(lp231
s(S'ATF1'
p232
S'CYP26A1'
p233
S'increases'
p234
tp235
(lp236
s(S'PI3K'
p237
S'PKC DELTA'
p238
S'adds_modification'
p239
tp240
(lp241
s(S'SOX5'
p242
S'HOXA9'
p243
S'increases'
p244
tp245
(lp246
s(S'FOXO4'
p247
S'POU2F1'
p248
S'increases'
p249
tp250
(lp251
s(S'FOXO4'
p252
S'GATA6'
p253
S'increases'
p254
tp255
(lp256
s(S'LEF1'
p257
S'FOXF2'
p258
S'increases'
p259
tp260
(lp261
s(S'Insulin Receptor/Insuli/IRS1/GRB2/SHC/Sos'
p262
S'HRAS/GDP'
p263
S'increases_activity'
p264
tp265
(lp266
s(S'TLX2'
p267
S'RUNX1'
p268
S'increases'
p269
tp270
(lp271
s(S'ALX4'
p272
S'JUN'
p273
S'increases'
p274
tp275
(lp276
s(S'RHOA/GTP'
p277
S'RHOGDI'
p278
S'binds'
p279
tp280
(lp281
s(S'GCM1'
p282
S'CYP26A1'
p283
S'increases'
p284
tp285
(lp286
s(S'RB1'
p287
S'ONECUT1'
p288
S'increases'
p289
tp290
(lp291
s(S'NHLH1'
p292
S'CYP26A1'
p293
S'increases'
p294
tp295
(lp296
s(S'NR3C1'
p297
S'BACH1'
p298
S'increases'
p299
tp300
(lp301
s(S'HNF4A'
p302
S'CYP26A1'
p303
S'increases'
p304
tp305
(lp306
s(S'YY1'
p307
S'FOXO3'
p308
S'increases'
p309
tp310
(lp311
s(S'GRB2:SOS1'
p312
S'P-EGFR MUTANTS DIMER'
p313
S'binds'
p314
tp315
(lp316
s(S'P-Y349,350-SHC1:P-ERBB4'
p317
S'GRB2:SOS1'
p318
S'binds'
p319
tp320
(lp321
s(S'FOXN1'
p322
S'ONECUT1'
p323
S'increases'
p324
tp325
(lp326
s(S'TFAP4'
p327
S'MYC'
p328
S'increases'
p329
tp330
(lp331
s(S'MYC'
p332
S'EN1'
p333
S'increases'
p334
tp335
(lp336
s(S'Antigen/IgE/Fc epsilon R1/LYN/SYK'
p337
S'SHC/GRB2/SOS1'
p338
S'increases_activity'
p339
tp340
(lp341
s(S'14-3-3 BETA, ZETA'
p342
S'GARNL4'
p343
S'binds'
p344
tp345
(lp346
s(S'SMAD1'
p347
S'EN1'
p348
S'increases'
p349
tp350
(lp351
s(S'Raf-1'
p352
S'MEK1-2'
p353
S'adds_modification'
p354
tp355
(lp356
s(S'POU2F1'
p357
S'FOXO3'
p358
S'increases'
p359
tp360
(lp361
s(S'NGF (dimer)/TRKA'
p362
S'RASGRF1'
p363
S'adds_modification'
p364
tp365
(lp366
s(S'TCF4'
p367
S'CYP26A1'
p368
S'increases'
p369
tp370
(lp371
s(S'STAT5B'
p372
S'TLX2'
p373
S'increases'
p374
tp375
(lp376
s(S'CYP26A1'
p377
S'SRF'
p378
S'increases'
p379
tp380
(lp381
s(S'STAT1'
p382
S'NRAS'
p383
S'increases'
p384
tp385
(lp386
s(S'TFDP1'
p387
S'GATA1'
p388
S'increases'
p389
tp390
(lp391
s(S'PI3K'
p392
S'ALPHA6/BETA4 INTEGRIN/LAMININ'
p393
S'binds'
p394
tp395
(lp396
s(S'FOXF2'
p397
S'NRAS'
p398
S'increases'
p399
tp400
(lp401
s(S'CUX1'
p402
S'POU2F1'
p403
S'increases'
p404
tp405
(lp406
s(S'ETS2'
p407
S'STAT4'
p408
S'increases'
p409
tp410
(lp411
s(S'EN1'
p412
S'CYP26A1'
p413
S'increases'
p414
tp415
(lp416
s(S'COMPLEX (RAS/GTP)'
p417
S'RAF'
p418
S'binds'
p419
tp420
(lp421
s(S'LEF1'
p422
S'EN1'
p423
S'increases'
p424
tp425
(lp426
s(S'FOXL1'
p427
S'NRAS'
p428
S'increases'
p429
tp430
(lp431
s(S'ELF2'
p432
S'CYP26A1'
p433
S'increases'
p434
tp435
(lp436
s(S'Src Family Kinases-active'
p437
S'EGF/EGFR'
p438
S'adds_modification'
p439
tp440
(lp441
s(S'RUNX1'
p442
S'POU2F1'
p443
S'increases'
p444
tp445
(lp446
s(S'RHOA/GTP'
p447
S'CITRON-N'
p448
S'increases_activity'
p449
tp450
(lp451
s(S'PAX4'
p452
S'SRF'
p453
S'increases'
p454
tp455
(lp456
s(S'Vitamin E'
p457
S'HRAS MRNA'
p458
S'increases'
p459
tp460
(lp461
s(S'CDX2'
p462
S'FOXD3'
p463
S'increases'
p464
tp465
(lp466
s(S'Plant Extracts'
p467
S'KEAP1 PROTEIN'
p468
S'decreases'
p469
tp470
(lp471
s(S'PAX4'
p472
S'CBFA2T3'
p473
S'increases'
p474
tp475
(lp476
s(S'FOXD1'
p477
S'CYP26A1'
p478
S'increases'
p479
tp480
(lp481
s(S'Antigen/IgE/Fc epsilon R1/LYN/SYK'
p482
S'VAV1'
p483
S'adds_modification'
p484
tp485
(lp486
s(S'PCBP1'
p487
S'MEIS1'
p488
S'increases'
p489
tp490
(lp491
s(S'FOXI1'
p492
S'FOXD3'
p493
S'increases'
p494
tp495
(lp496
s(S'GATA4'
p497
S'MEIS1'
p498
S'increases'
p499
tp500
(lp501
s(S'STAT5B'
p502
S'CEBPG'
p503
S'increases'
p504
tp505
(lp506
s(S'TFDP2'
p507
S'MAZ'
p508
S'increases'
p509
tp510
(lp511
s(S'PI3K'
p512
S'SHP2'
p513
S'binds'
p514
tp515
(lp516
s(S'SPI1'
p517
S'ONECUT1'
p518
S'increases'
p519
tp520
(lp521
s(S'STAT6'
p522
S'EN1'
p523
S'increases'
p524
tp525
(lp526
s(S'TLX2'
p527
S'CYP26A1'
p528
S'increases'
p529
tp530
(lp531
s(S'RAF1'
p532
S'MEK1-2'
p533
S'increases_activity'
p534
tp535
(lp536
s(S'STAT5A'
p537
S'IRF1'
p538
S'increases'
p539
tp540
(lp541
s(S'2-amino-1-methyl-6-phenylimidazo(4,5-b)pyridine'
p542
S'HRAS MRNA'
p543
S'increases'
p544
tp545
(lp546
s(S'MAZ'
p547
S'POU2F1'
p548
S'increases'
p549
tp550
(lp551
s(S'MAZ'
p552
S'SRF'
p553
S'increases'
p554
tp555
(lp556
s(S'GATA1'
p557
S'JUN'
p558
S'increases'
p559
tp560
(lp561
s(S'FOXA1'
p562
S'NRAS'
p563
S'increases'
p564
tp565
(lp566
s(S'STAT1'
p567
S'EN1'
p568
S'increases'
p569
tp570
(lp571
s(S'GTF2A2'
p572
S'MAX'
p573
S'increases'
p574
tp575
(lp576
s(S'LMO2'
p577
S'EN1'
p578
S'increases'
p579
tp580
(lp581
s(S'MYOD1'
p582
S'LEF1'
p583
S'increases'
p584
tp585
(lp586
s(S'ATF3'
p587
S'JUN'
p588
S'increases'
p589
tp590
(lp591
s(S'GRB2:SOS1'
p592
S'ACTIVATED FGFR:P-SHC1'
p593
S'binds'
p594
tp595
(lp596
s(S'MAFG'
p597
S'BACH1'
p598
S'increases'
p599
tp600
(lp601
s(S'POU3F2'
p602
S'POU2F1'
p603
S'increases'
p604
tp605
(lp606
s(S'K 7174'
p607
S'KRAS MRNA'
p608
S'increases'
p609
tp610
(lp611
s(S'POU1F1'
p612
S'RUNX1'
p613
S'increases'
p614
tp615
(lp616
s(S'HRAS protein'
p617
S'CCND1 MRNA'
p618
S'increases'
p619
tp620
(lp621
s(S'YY1'
p622
S'EN1'
p623
S'increases'
p624
tp625
(lp626
s(S'resveratrol'
p627
S'HRAS MRNA'
p628
S'increases'
p629
tp630
(lp631
s(S'NKX2-1'
p632
S'HOXA9'
p633
S'increases'
p634
tp635
(lp636
s(S'HSF1'
p637
S'CYP26A1'
p638
S'increases'
p639
tp640
(lp641
s(S'MYC'
p642
S'HOXA9'
p643
S'increases'
p644
tp645
(lp646
s(S'Raf'
p647
S'MEK'
p648
S'adds_modification'
p649
tp650
(lp651
S'Effects of Ras, Raf, MEK1/2 and MAPK inhibition on potentiation of nerve growth factor (NGF)-induced neurite outgrowth by aripiprazole.'
p652
aS'< Ras-Raf-MEK-ERK pathway>'
p653
aS'FKN stimulates angiogenesis by activating the Raf-1/MEK/ERK and PI3K/Akt/eNOS/NO signal pathways via the G protein-coupled receptor CX3CR1 ['
p654
aS'(1) The expression amount of p42.3 in G1 and M phase was higher than that in S and G2 phase; (2) The space coordinate systems of different structural domains of p42.3 protein were established in Matlab7.0 software; (3) The optimal pathway of p42.3 gene in protein regulatory network in gastric cancer is Ras protein, Raf-1 protein, MEK, MAPK kinase, MAPK, tubulin, spindle protein, centromere protein and tumor.'
p655
aS'In addition, RTK transduction also activates downstream Raf/MEK/ERK signaling cascades.'
p656
aS'The RTK-related pathways, including the Ras-Raf-MEK-ERK cascades and phosphatidylinositol 3-kinase (PI3K)-Akt pathway, are also regulated by miRNAs.'
p657
aS"GTP-bound Ras recruits Raf kinases and activates the latter's serine/threonine kinase function to phosphorylate MEK and induce the phosphorylation of ERK effector kinases "
p658
aS'In the case of the ERK1/2 pathway, amplification occurs at the Raf-MEK step, because MEK1 is much more abundant than Raf.'
p659
aS'The data concerning Raf and MEK downstream signaling and the discussion whether raf inhibition is reasonable or not is very contradictory and is still in the focus of preclinical investigation.'
p660
aS'Several further inhibitors of Raf and MEK are under preclinical assessment in GEP-NENs however with not very promising results to date (refer to '
p661
aS'Another example is the crosstalk between B-Raf/C-Raf and Ras/MEK/ERK-pathway.'
p662
aS'Ras activates the downstream Ras/Raf/MEK/ERK pathway, inducing many biological activities involved in tumorigenesis.'
p663
aS'Ras regulates multiple signaling pathways of which the best understood is the Ras/Raf/mitogen-activated extracellular protein kinase (MEK)/extracellular signal-regulated kinase (ERK) pathway.'
p664
aS'These kinases are members of the Raf/MEK/ERK intracellular signaling cascade, a downstream effector of Ras, which in turn can be activated by upstream receptor TK stimulation ('
p665
aS'Multiple downstream intracellular signaling pathways such as Ras/Raf/MEK/ERK may as a result be activated, resulting in proliferation, angiogenesis and metastasis.'
p666
aS'Sorafenib inhibited activation of the Raf/MEK/ERK pathway in a number of cell lines in Western blot assays and pERK immunoassays ('
p667
aS'As mentioned before, the Ras-Raf-MEK-ERK pathway and its interaction with the PI3K-AKT-mTOR pathway is associated with sporadic MTC.'
p668
aS'In contrast, in L929 cells OTA and LPS increased the level of pRaf Ser259, which suppresses MEK 1/2 Ser217/221 ('
p669
aS'This is similar to observed for cells bearing the V600E mutation in B-Raf, a serine/threonine kinase immediately upstream of MEK1/2 in the of the ERK MAPK cascade.'
p670
as(S'TFDP1'
p671
S'MAZ'
p672
S'increases'
p673
tp674
(lp675
s(S'SPRED1'
p676
S'HRAS'
p677
S'binds'
p678
tp679
(lp680
s(S'MYCN'
p681
S'CYP26A1'
p682
S'increases'
p683
tp684
(lp685
s(S'AHR'
p686
S'FOXD3'
p687
S'increases'
p688
tp689
(lp690
s(S'SF1'
p691
S'CYP26A1'
p692
S'increases'
p693
tp694
(lp695
s(S'MEIS1'
p696
S'ETS1'
p697
S'increases'
p698
tp699
(lp700
s(S'Copper Sulfate'
p701
S'HRAS MRNA'
p702
S'decreases'
p703
tp704
(lp705
s(S'MAZ'
p706
S'MYC'
p707
S'increases'
p708
tp709
(lp710
s(S'E4F1'
p711
S'HOXA9'
p712
S'increases'
p713
tp714
(lp715
s(S'GATA1'
p716
S'GATA6'
p717
S'increases'
p718
tp719
(lp720
s(S'RUNX2'
p721
S'POU2F1'
p722
S'increases'
p723
tp724
(lp725
s(S'CYP26A1'
p726
S'GATA6'
p727
S'increases'
p728
tp729
(lp730
s(S'PAX4'
p731
S'GATA1'
p732
S'increases'
p733
tp734
(lp735
s(S'ELF2'
p736
S'STAT5A'
p737
S'increases'
p738
tp739
(lp740
s(S'CART1'
p741
S'NRAS'
p742
S'increases'
p743
tp744
(lp745
s(S'IGF-1R heterotetramer/IGF1/GRB2/Sos/Shc'
p746
S'HRAS/GDP'
p747
S'increases_activity'
p748
tp749
(lp750
s(S'RB1'
p751
S'CYP26A1'
p752
S'increases'
p753
tp754
(lp755
s(S'CEBPG'
p756
S'HOXA9'
p757
S'increases'
p758
tp759
(lp760
s(S'GRB2/SOS1/SHC'
p761
S'IGF-1R HETEROTETRAMER/IGF1'
p762
S'binds'
p763
tp764
(lp765
s(S'PRRX2'
p766
S'CYP26A1'
p767
S'increases'
p768
tp769
(lp770
s(S'TEAD1'
p771
S'CYP26A1'
p772
S'increases'
p773
tp774
(lp775
s(S'STAT5A'
p776
S'FOXA1'
p777
S'increases'
p778
tp779
(lp780
s(S'ATF2'
p781
S'FOXD3'
p782
S'increases'
p783
tp784
(lp785
s(S'REPIN1'
p786
S'FOXO4'
p787
S'increases'
p788
tp789
(lp790
s(S'FOXF2'
p791
S'ETS1'
p792
S'increases'
p793
tp794
(lp795
s(S'ETV7'
p796
S'MEIS1'
p797
S'increases'
p798
tp799
(lp800
s(S'RUNX2'
p801
S'RUNX1'
p802
S'increases'
p803
tp804
(lp805
s(S'OR5I1'
p806
S'GATA1'
p807
S'increases'
p808
tp809
(lp810
s(S'MSX1'
p811
S'EN1'
p812
S'increases'
p813
tp814
(lp815
s(S'GTF3A'
p816
S'IRF1'
p817
S'increases'
p818
tp819
(lp820
s(S'POU2F1'
p821
S'SRF'
p822
S'increases'
p823
tp824
(lp825
s(S'PLC-GAMMA'
p826
S'COMPLEX (GADS/SLP-76)'
p827
S'binds'
p828
tp829
(lp830
s(S'STAT4'
p831
S'STAT5A'
p832
S'increases'
p833
tp834
(lp835
s(S'JUN'
p836
S'BACH1'
p837
S'increases'
p838
tp839
(lp840
s(S'POU1F1'
p841
S'HOXA9'
p842
S'increases'
p843
tp844
(lp845
s(S'docetaxel'
p846
S'HRAS PROTEIN'
p847
S'increases'
p848
tp849
(lp850
s(S'MAX'
p851
S'LEF1'
p852
S'increases'
p853
tp854
(lp855
s(S'FOXA1'
p856
S'CYP26A1'
p857
S'increases'
p858
tp859
(lp860
s(S'GATA4'
p861
S'FOXD3'
p862
S'increases'
p863
tp864
(lp865
s(S'ZBTB18'
p866
S'RUNX1'
p867
S'increases'
p868
tp869
(lp870
s(S'ATF3'
p871
S'RUNX1'
p872
S'increases'
p873
tp874
(lp875
s(S'NKX2-1'
p876
S'CYP26A1'
p877
S'increases'
p878
tp879
(lp880
s(S'NR3C1'
p881
S'FOXA1'
p882
S'increases'
p883
tp884
(lp885
s(S'RAS family/GTP'
p886
S'RIN1'
p887
S'increases_activity'
p888
tp889
(lp890
s(S'COMPLEX (RAS/GTP/ RAF)'
p891
S'MEK'
p892
S'binds'
p893
tp894
(lp895
s(S'CDC5L'
p896
S'NRAS'
p897
S'increases'
p898
tp899
(lp900
s(S'Vitamin E'
p901
S'NRAS MRNA'
p902
S'decreases'
p903
tp904
(lp905
s(S'NF1'
p906
S'LEF1'
p907
S'increases'
p908
tp909
(lp910
s(S'ETS1'
p911
S'EN1'
p912
S'increases'
p913
tp914
(lp915
s(S'CRAF'
p916
S'YWHAB'
p917
S'binds'
p918
tp919
(lp920
s(S'CEBPD'
p921
S'JUN'
p922
S'increases'
p923
tp924
(lp925
s(S'MAX'
p926
S'RUNX2'
p927
S'increases'
p928
tp929
(lp930
s(S'CEBPA'
p931
S'MECOM'
p932
S'increases'
p933
tp934
(lp935
s(S'PAX2'
p936
S'GATA1'
p937
S'increases'
p938
tp939
(lp940
s(S'CYP26A1'
p941
S'TLX2'
p942
S'increases'
p943
tp944
(lp945
s(S'GFI1'
p946
S'ETS1'
p947
S'increases'
p948
tp949
(lp950
s(S'14-3-3:P-S259,Y340,Y341,S621-RAF1:RAS:GTP'
p951
S'MEK'
p952
S'binds'
p953
tp954
(lp955
s(S'P-S,T-MEK2'
p956
S'ERK2'
p957
S'binds'
p958
tp959
(lp960
s(S'HRAS/GTP'
p961
S'RIN2'
p962
S'increases_activity'
p963
tp964
(lp965
s(S'Ras-GTP'
p966
S'P42/P44MAPKS'
p967
S'adds_modification'
p968
tp969
(lp970
s(S'SRF'
p971
S'CYP26A1'
p972
S'increases'
p973
tp974
(lp975
s(S'FOXL1'
p976
S'RUNX2'
p977
S'increases'
p978
tp979
(lp980
s(S'EGR4'
p981
S'LEF1'
p982
S'increases'
p983
tp984
(lp985
s(S'P-IRS1,2'
p986
S'GRB2:SOS1'
p987
S'binds'
p988
tp989
(lp990
s(S'VEGFR2 (dimer)/VEGFA (dimer)/alphav/beta3 Integrin/Vitronectin'
p991
S'SRC'
p992
S'adds_modification'
p993
tp994
(lp995
s(S'BACH2'
p996
S'BACH1'
p997
S'increases'
p998
tp999
(lp1000
s(S'ONECUT1'
p1001
S'RUNX1'
p1002
S'increases'
p1003
tp1004
(lp1005
s(S'FOXJ2'
p1006
S'RUNX2'
p1007
S'increases'
p1008
tp1009
(lp1010
s(S'PI-3-4-5-P3'
p1011
S'AKT1'
p1012
S'translocates'
p1013
tp1014
(lp1015
s(S'TFAP4'
p1016
S'BACH1'
p1017
S'increases'
p1018
tp1019
(lp1020
s(S'MEKK1/4'
p1021
S'MKK3/6'
p1022
S'adds_modification'
p1023
tp1024
(lp1025
s(S'VSX1'
p1026
S'MECOM'
p1027
S'increases'
p1028
tp1029
(lp1030
s(S'IRF1'
p1031
S'GATA6'
p1032
S'increases'
p1033
tp1034
(lp1035
s(S'MAX'
p1036
S'HOXA9'
p1037
S'increases'
p1038
tp1039
(lp1040
s(S'RB1'
p1041
S'MAZ'
p1042
S'increases'
p1043
tp1044
(lp1045
s(S'GATA1'
p1046
S'EN1'
p1047
S'increases'
p1048
tp1049
(lp1050
s(S'HIF1A'
p1051
S'SRF'
p1052
S'increases'
p1053
tp1054
(lp1055
s(S'IRF8'
p1056
S'CYP26A1'
p1057
S'increases'
p1058
tp1059
(lp1060
s(S'MTF1'
p1061
S'CYP26A1'
p1062
S'increases'
p1063
tp1064
(lp1065
s(S'PI-3-4-5-P3'
p1066
S'GAB1'
p1067
S'translocates'
p1068
tp1069
(lp1070
s(S'PI-3-4-5-P3'
p1071
S'AKT1'
p1072
S'adds_modification'
p1073
tp1074
(lp1075
s(S'RXRA'
p1076
S'HOXA9'
p1077
S'increases'
p1078
tp1079
(lp1080
s(S'AKT1'
p1081
S'RAF1'
p1082
S'binds'
p1083
tp1084
(lp1085
s(S'HSF2'
p1086
S'JUN'
p1087
S'increases'
p1088
tp1089
(lp1090
s(S'PAX2'
p1091
S'CYP26A1'
p1092
S'increases'
p1093
tp1094
(lp1095
s(S'ETV7'
p1096
S'CYP26A1'
p1097
S'increases'
p1098
tp1099
(lp1100
s(S'FOXO3'
p1101
S'NRAS'
p1102
S'increases'
p1103
tp1104
(lp1105
s(S'TP53'
p1106
S'REPIN1'
p1107
S'increases'
p1108
tp1109
(lp1110
s(S'STAT6'
p1111
S'CYP26A1'
p1112
S'increases'
p1113
tp1114
(lp1115
s(S'JUN'
p1116
S'NRAS'
p1117
S'increases'
p1118
tp1119
(lp1120
s(S'MYCN'
p1121
S'NRAS'
p1122
S'increases'
p1123
tp1124
(lp1125
s(S'STAT3'
p1126
S'YY1'
p1127
S'increases'
p1128
tp1129
(lp1130
s(S'Methyl Methanesulfonate'
p1131
S'HRAS MRNA'
p1132
S'increases'
p1133
tp1134
(lp1135
s(S'RHOA/GTP'
p1136
S'PKN'
p1137
S'increases_activity'
p1138
tp1139
(lp1140
s(S'NHLH1'
p1141
S'FOXJ2'
p1142
S'increases'
p1143
tp1144
(lp1145
s(S'RAS family/GTP'
p1146
S'BRAF'
p1147
S'adds_modification'
p1148
tp1149
(lp1150
s(S'RELA'
p1151
S'FOXJ2'
p1152
S'increases'
p1153
tp1154
(lp1155
s(S'TCF3'
p1156
S'RUNX1'
p1157
S'increases'
p1158
tp1159
(lp1160
s(S'FOXF2'
p1161
S'FOXO4'
p1162
S'increases'
p1163
tp1164
(lp1165
s(S'ATF4'
p1166
S'FOXD3'
p1167
S'increases'
p1168
tp1169
(lp1170
s(S'HAND1'
p1171
S'MECOM'
p1172
S'increases'
p1173
tp1174
(lp1175
s(S'RHOA/GTP'
p1176
S'P27KIP1'
p1177
S'adds_modification'
p1178
tp1179
(lp1180
s(S'SRF'
p1181
S'NRAS'
p1182
S'increases'
p1183
tp1184
(lp1185
s(S'ESRRA'
p1186
S'POU3F2'
p1187
S'increases'
p1188
tp1189
(lp1190
s(S'BRAF'
p1191
S'MEK1'
p1192
S'adds_modification'
p1193
tp1194
(lp1195
s(S'Cadmium Chloride'
p1196
S'KRAS PROTEIN'
p1197
S'increases'
p1198
tp1199
(lp1200
s(S'PRRX2'
p1201
S'MEIS1'
p1202
S'increases'
p1203
tp1204
(lp1205
s(S'MYC'
p1206
S'NRAS'
p1207
S'increases'
p1208
tp1209
(lp1210
S'Complex karyotypic abnormalities in MYC, the activation of NRAS and KRAS, mutations in TP53, and inactivation of CDKN2A and CDKN2C are late-onset translocations and gene mutations that promote a higher rate of progression to MM ['
p1211
as(S'MAZ'
p1212
S'KRAS'
p1213
S'increases'
p1214
tp1215
(lp1216
s(S'Rho Family GTPase-active'
p1217
S'PI3K'
p1218
S'increases_activity'
p1219
tp1220
(lp1221
s(S'STAT2'
p1222
S'CYP26A1'
p1223
S'increases'
p1224
tp1225
(lp1226
s(S'hsa-let-7a-5p'
p1227
S'KRAS'
p1228
S'decreases'
p1229
tp1230
(lp1231
s(S'POU3F2'
p1232
S'NRAS'
p1233
S'increases'
p1234
tp1235
(lp1236
s(S'SRF'
p1237
S'FOXO4'
p1238
S'increases'
p1239
tp1240
(lp1241
s(S'S1P1/Sphingosine-1-phosphate/PDGF-BB/PDGFRB (dimer)'
p1242
S'SRC FAMILY KINASES'
p1243
S'increases_activity'
p1244
tp1245
(lp1246
s(S'MYC/Max'
p1247
S'ERBB2'
p1248
S'decreases'
p1249
tp1250
(lp1251
s(S'SREBF1'
p1252
S'CBFA2T3'
p1253
S'increases'
p1254
tp1255
(lp1256
s(S'PI3K'
p1257
S'GELSOLIN/PI-3-4-5-P3'
p1258
S'binds'
p1259
tp1260
(lp1261
s(S'NHLH1'
p1262
S'EN1'
p1263
S'increases'
p1264
tp1265
(lp1266
s(S'LMO2'
p1267
S'GATA6'
p1268
S'increases'
p1269
tp1270
(lp1271
s(S'POU1F1'
p1272
S'FOXD3'
p1273
S'increases'
p1274
tp1275
(lp1276
s(S'hsa-miR-148b-3p'
p1277
S'NRAS'
p1278
S'decreases'
p1279
tp1280
(lp1281
s(S'Quercetin'
p1282
S'KRAS PROTEIN'
p1283
S'decreases'
p1284
tp1285
(lp1286
s(S'PAK2'
p1287
S'MEKK1'
p1288
S'adds_modification'
p1289
tp1290
(lp1291
s(S'LMO2'
p1292
S'MAZ'
p1293
S'increases'
p1294
tp1295
(lp1296
s(S'FOXO1'
p1297
S'POU3F2'
p1298
S'increases'
p1299
tp1300
(lp1301
s(S'NKX2-1'
p1302
S'MAZ'
p1303
S'increases'
p1304
tp1305
(lp1306
s(S'GRB2/SOS1'
p1307
S'PDGF-BB/PDGFRB (DIMER)/P52 SHC'
p1308
S'binds'
p1309
tp1310
(lp1311
s(S'PI3K'
p1312
S'CRK/P130 CAS/PAXILLIN'
p1313
S'increases_activity'
p1314
tp1315
(lp1316
s(S'ATF1'
p1317
S'FOXD3'
p1318
S'increases'
p1319
tp1320
(lp1321
s(S'GATA1'
p1322
S'SRF'
p1323
S'increases'
p1324
tp1325
(lp1326
s(S'TFAP2C'
p1327
S'CYP26A1'
p1328
S'increases'
p1329
tp1330
(lp1331
s(S'AHR'
p1332
S'MEIS1'
p1333
S'increases'
p1334
tp1335
(lp1336
s(S'ETS2'
p1337
S'CYP26A1'
p1338
S'increases'
p1339
tp1340
(lp1341
s(S'Estradiol'
p1342
S'NRAS MRNA'
p1343
S'increases'
p1344
tp1345
(lp1346
s(S'E2F1'
p1347
S'HOXA9'
p1348
S'increases'
p1349
tp1350
(lp1351
s(S'PDGF-BB/PDGFRB (DIMER)'
p1352
S'RASGAP'
p1353
S'binds'
p1354
tp1355
(lp1356
s(S'E2F1'
p1357
S'GABPB2'
p1358
S'increases'
p1359
tp1360
(lp1361
s(S'FOXJ1'
p1362
S'POU3F2'
p1363
S'increases'
p1364
tp1365
(lp1366
s(S'VSX1'
p1367
S'CYP26A1'
p1368
S'increases'
p1369
tp1370
(lp1371
s(S'SPI1'
p1372
S'CDC5L'
p1373
S'increases'
p1374
tp1375
(lp1376
s(S'Gi family'
p1377
S'HRAS/GDP'
p1378
S'increases_activity'
p1379
tp1380
(lp1381
s(S'TCF3'
p1382
S'CYP26A1'
p1383
S'increases'
p1384
tp1385
(lp1386
s(S'IGF-1R HETEROTETRAMER/IGF1/IRS1'
p1387
S'GRB2/SOS1'
p1388
S'binds'
p1389
tp1390
(lp1391
s(S'RAS family/GTP'
p1392
S'RALGDS'
p1393
S'translocates'
p1394
tp1395
(lp1396
s(S'PI3K'
p1397
S'RAC1/GDP'
p1398
S'increases_activity'
p1399
tp1400
(lp1401
s(S'Ca2+'
p1402
S'PKC'
p1403
S'increases_activity'
p1404
tp1405
(lp1406
S'Those second messengers facilitate actin-myosin interactions by increasing intracellular calcium (Ca2+) concentrations through various mechanisms including activation of receptor-operated Ca2+ channels, voltage-gated Ca2+ channels via protein kinase C (PKC), and emptying of intracellular Ca2+ stores.'
p1407
as(S'ZIC1'
p1408
S'CYP26A1'
p1409
S'increases'
p1410
tp1411
(lp1412
s(S'IRF7'
p1413
S'TLX2'
p1414
S'increases'
p1415
tp1416
(lp1417
s(S'SHC/SHIP'
p1418
S'HRAS/GDP'
p1419
S'decreases_activity'
p1420
tp1421
(lp1422
s(S'hsa-let-7a-5p'
p1423
S'HRAS'
p1424
S'decreases'
p1425
tp1426
(lp1427
s(S'GATA4'
p1428
S'MAZ'
p1429
S'increases'
p1430
tp1431
(lp1432
s(S'EN1'
p1433
S'NRAS'
p1434
S'increases'
p1435
tp1436
(lp1437
s(S'PI3K'
p1438
S'BAM32'
p1439
S'adds_modification'
p1440
tp1441
(lp1442
s(S'GABPB1'
p1443
S'CYP26A1'
p1444
S'increases'
p1445
tp1446
(lp1447
s(S'Trifluoroethanol'
p1448
S'HRAS'
p1449
S'increases_activity'
p1450
tp1451
(lp1452
s(S'SOX5'
p1453
S'CYP26A1'
p1454
S'increases'
p1455
tp1456
(lp1457
s(S'GRB2/SOS1'
p1458
S'HGF(DIMER)/MET(DIMER)/P52 SHC'
p1459
S'binds'
p1460
tp1461
(lp1462
s(S'TCF12'
p1463
S'EN1'
p1464
S'increases'
p1465
tp1466
(lp1467
s(S'SOX9'
p1468
S'MEIS1'
p1469
S'increases'
p1470
tp1471
(lp1472
s(S'RB1'
p1473
S'MYC'
p1474
S'increases'
p1475
tp1476
(lp1477
S'Although the enhanced expression of the CCND1 gene alone is held responsible for the development of lymphoma, the additional influence of tumor suppressors like TP53 and RB1 and oncogenes like BCL2, CD4, and MYC play a role in the development of MCL ['
p1478
as(S'RXRA'
p1479
S'FOXA1'
p1480
S'increases'
p1481
tp1482
(lp1483
s(S'decitabine'
p1484
S'HRAS MRNA'
p1485
S'decreases'
p1486
tp1487
(lp1488
s(S'VSX1'
p1489
S'EN1'
p1490
S'increases'
p1491
tp1492
(lp1493
s(S'FOXL1'
p1494
S'CYP26A1'
p1495
S'increases'
p1496
tp1497
(lp1498
s(S'PAX2'
p1499
S'RUNX1'
p1500
S'increases'
p1501
tp1502
(lp1503
s(S'MEKK1/4'
p1504
S'MKK4/7'
p1505
S'adds_modification'
p1506
tp1507
(lp1508
s(S'HOXA9'
p1509
S'CYP26A1'
p1510
S'increases'
p1511
tp1512
(lp1513
s(S'TRKC'
p1514
S'NT3 (DIMER)'
p1515
S'binds'
p1516
tp1517
(lp1518
s(S'PTF1A'
p1519
S'REPIN1'
p1520
S'increases'
p1521
tp1522
(lp1523
s(S'TGIF'
p1524
S'CYP26A1'
p1525
S'increases'
p1526
tp1527
(lp1528
s(S'MYOD1'
p1529
S'MYC'
p1530
S'increases'
p1531
tp1532
(lp1533
s(S'PKCT'
p1534
S'KRAS ISO2'
p1535
S'adds_modification'
p1536
tp1537
(lp1538
s(S'RAS family/GTP'
p1539
S'BRAF'
p1540
S'increases_activity'
p1541
tp1542
(lp1543
s(S'SPZ1'
p1544
S'CYP26A1'
p1545
S'increases'
p1546
tp1547
(lp1548
s(S'HRAS/GTP'
p1549
S'GALECTIN-1'
p1550
S'binds'
p1551
tp1552
(lp1553
s(S'DBP'
p1554
S'FOXD3'
p1555
S'increases'
p1556
tp1557
(lp1558
s(S'E2F1'
p1559
S'POU2F1'
p1560
S'increases'
p1561
tp1562
(lp1563
s(S'MEIS1'
p1564
S'CYP26A1'
p1565
S'increases'
p1566
tp1567
(lp1568
s(S'YY1'
p1569
S'NRAS'
p1570
S'increases'
p1571
tp1572
(lp1573
s(S'RAS:RAF'
p1574
S'YWHAB'
p1575
S'binds'
p1576
tp1577
(lp1578
s(S'NFE2L2'
p1579
S'CYP26A1'
p1580
S'increases'
p1581
tp1582
(lp1583
s(S'FARNESYL'
p1584
S'KRAS'
p1585
S'increases_activity'
p1586
tp1587
(lp1588
s(S'MTF1'
p1589
S'MECOM'
p1590
S'increases'
p1591
tp1592
(lp1593
s(S'TLX2'
p1594
S'FOXD3'
p1595
S'increases'
p1596
tp1597
(lp1598
s(S'Insulin Receptor/Insulin/SHC/GRB2/Sos1'
p1599
S'HRAS/GDP'
p1600
S'increases_activity'
p1601
tp1602
(lp1603
s(S'MYC'
p1604
S'ELK1'
p1605
S'increases'
p1606
tp1607
(lp1608
s(S'ONECUT1'
p1609
S'POU2F1'
p1610
S'increases'
p1611
tp1612
(lp1613
s(S'Paraquat'
p1614
S'HRAS MRNA'
p1615
S'translocates'
p1616
tp1617
(lp1618
s(S'GRB2/SOS1'
p1619
S'PDGF-BB/PDGFRB (DIMER)/SHP2'
p1620
S'binds'
p1621
tp1622
(lp1623
s(S'ONECUT1'
p1624
S'CYP26A1'
p1625
S'increases'
p1626
tp1627
(lp1628
s(S'MYC'
p1629
S'FOXO3'
p1630
S'increases'
p1631
tp1632
(lp1633
s(S'PAX3'
p1634
S'ELK1'
p1635
S'increases'
p1636
tp1637
(lp1638
s(S'DOK-R'
p1639
S'RASGAP'
p1640
S'binds'
p1641
tp1642
(lp1643
s(S'HOXA4'
p1644
S'HOXA9'
p1645
S'increases'
p1646
tp1647
(lp1648
s(S'MAX'
p1649
S'POU3F2'
p1650
S'increases'
p1651
tp1652
(lp1653
s(S'Estradiol'
p1654
S'KRAS MRNA'
p1655
S'decreases'
p1656
tp1657
(lp1658
s(S'KRAS ISOFORM 4B/GTP'
p1659
S'CAM/CA2+'
p1660
S'binds'
p1661
tp1662
(lp1663
s(S'MAZ'
p1664
S'FOXO4'
p1665
S'increases'
p1666
tp1667
(lp1668
s(S'hsa-miR-181a-5p'
p1669
S'KRAS'
p1670
S'decreases'
p1671
tp1672
(lp1673
s(S'GATA1'
p1674
S'CYP26A1'
p1675
S'increases'
p1676
tp1677
(lp1678
s(S'PGR'
p1679
S'ETS1'
p1680
S'increases'
p1681
tp1682
(lp1683
s(S'GATA1'
p1684
S'POU2F1'
p1685
S'increases'
p1686
tp1687
(lp1688
s(S'BRAF'
p1689
S'MEK1-2'
p1690
S'increases_activity'
p1691
tp1692
(lp1693
s(S'LEF1'
p1694
S'GABPB2'
p1695
S'increases'
p1696
tp1697
(lp1698
s(S'CYP26A1'
p1699
S'MYC'
p1700
S'increases'
p1701
tp1702
(lp1703
s(S'STAT1'
p1704
S'IRF1'
p1705
S'increases'
p1706
tp1707
(lp1708
s(S'SMAD1'
p1709
S'RUNX2'
p1710
S'increases'
p1711
tp1712
(lp1713
s(S'ZEB1'
p1714
S'TLX2'
p1715
S'increases'
p1716
tp1717
(lp1718
s(S'STAT5B'
p1719
S'IRF1'
p1720
S'increases'
p1721
tp1722
(lp1723
s(S'POU6F1'
p1724
S'CYP26A1'
p1725
S'increases'
p1726
tp1727
(lp1728
s(S'Vincristine'
p1729
S'HRAS MRNA'
p1730
S'increases'
p1731
tp1732
(lp1733
s(S'DAG'
p1734
S'RASGRP1'
p1735
S'adds_modification'
p1736
tp1737
(lp1738
s(S'PI3K'
p1739
S'PDK1'
p1740
S'increases_activity'
p1741
tp1742
(lp1743
S'CREB, cAMP response element-binding protein; Gab1, GRB2-associated-binding protein 1; MAPK/ERK, mitogen-activated protein kinase/extracellular signal-regulated kinase; MEK, mitogen-activated protein kinase kinase; MTOR, mammalian target of rapamycin; PDK1, pyruvate dehydrogenase lipoamide kinase isozyme 1; PI3K, phosphoinositide 3-kinase; RSK, ribosomal s6 kinase.'
p1744
aS'Drug resistance is a potential challenge that may arise with the use of mTOR inhibitors, and can be mediated by dysregulation of p27, feedback activation of PI3K/Akt by S6K, activation of the ERK, PIM, and PDK1 pathways, alterations in protein synthesis, and increased bcl-2.'
p1745
aS'Upstream positive regulators of mTORC1 include PI3K, PDK1, Akt, mTORC2, RHEB, and nutrients leading to increase translation, cell proliferation, and survival.'
p1746
as(S'ETS2'
p1747
S'PAX4'
p1748
S'increases'
p1749
tp1750
(lp1751
s(S'NR3C1'
p1752
S'ONECUT1'
p1753
S'increases'
p1754
tp1755
(lp1756
s(S'CUX1'
p1757
S'CYP26A1'
p1758
S'increases'
p1759
tp1760
(lp1761
s(S'ZEB1'
p1762
S'GATA1'
p1763
S'increases'
p1764
tp1765
(lp1766
s(S'NRF1'
p1767
S'POU2F1'
p1768
S'increases'
p1769
tp1770
(lp1771
s(S'FOXJ2'
p1772
S'MECOM'
p1773
S'increases'
p1774
tp1775
(lp1776
s(S'MAZ'
p1777
S'MYCN'
p1778
S'increases'
p1779
tp1780
(lp1781
s(S'Hydrogen Peroxide'
p1782
S'HRAS MRNA'
p1783
S'increases'
p1784
tp1785
(lp1786
s(S'RASA1'
p1787
S'P-EPHBS:EFNBS'
p1788
S'binds'
p1789
tp1790
(lp1791
s(S'SPI1'
p1792
S'CEBPG'
p1793
S'increases'
p1794
tp1795
(lp1796
s(S'EGR1'
p1797
S'LEF1'
p1798
S'increases'
p1799
tp1800
(lp1801
s(S'RET51/GFRALPHA1/GDNF'
p1802
S'P62DOK'
p1803
S'binds'
p1804
tp1805
(lp1806
s(S'TFDP2'
p1807
S'CYP26A1'
p1808
S'increases'
p1809
tp1810
(lp1811
s(S'matrine'
p1812
S'NRAS MRNA'
p1813
S'increases'
p1814
tp1815
(lp1816
s(S'Isotretinoin'
p1817
S'KRAS MRNA'
p1818
S'decreases'
p1819
tp1820
(lp1821
s(S'PITX2'
p1822
S'FOXF2'
p1823
S'increases'
p1824
tp1825
(lp1826
s(S'MYOD1'
p1827
S'POU2F1'
p1828
S'increases'
p1829
tp1830
(lp1831
s(S'sodium arsenite'
p1832
S'KRAS PROTEIN'
p1833
S'increases'
p1834
tp1835
(lp1836
s(S'TCF4'
p1837
S'CBFA2T3'
p1838
S'increases'
p1839
tp1840
(lp1841
s(S'CYP26A1'
p1842
S'FOXA1'
p1843
S'increases'
p1844
tp1845
(lp1846
s(S'TP53'
p1847
S'CYP26A1'
p1848
S'increases'
p1849
tp1850
(lp1851
s(S'ATF3'
p1852
S'FOXD3'
p1853
S'increases'
p1854
tp1855
(lp1856
s(S'POU2F1'
p1857
S'NRAS'
p1858
S'increases'
p1859
tp1860
(lp1861
s(S'NRF1'
p1862
S'GABPB2'
p1863
S'increases'
p1864
tp1865
(lp1866
s(S'PAX4'
p1867
S'TLX2'
p1868
S'increases'
p1869
tp1870
(lp1871
s(S'PITX2'
p1872
S'FOXA1'
p1873
S'increases'
p1874
tp1875
(lp1876
s(S'GTF3A'
p1877
S'POU2F1'
p1878
S'increases'
p1879
tp1880
(lp1881
s(S'HLF'
p1882
S'FOXO3'
p1883
S'increases'
p1884
tp1885
(lp1886
s(S'PAX4'
p1887
S'FOXO4'
p1888
S'increases'
p1889
tp1890
(lp1891
s(S'CEBPA'
p1892
S'FOXD3'
p1893
S'increases'
p1894
tp1895
(lp1896
s(S'NFE2'
p1897
S'CYP26A1'
p1898
S'increases'
p1899
tp1900
(lp1901
s(S'MYB'
p1902
S'GABPB2'
p1903
S'increases'
p1904
tp1905
(lp1906
s(S'MYC'
p1907
S'CEBPA'
p1908
S'increases'
p1909
tp1910
(lp1911
s(S'ELK1'
p1912
S'EN1'
p1913
S'increases'
p1914
tp1915
(lp1916
s(S'E2F1'
p1917
S'CDC5L'
p1918
S'increases'
p1919
tp1920
(lp1921
s(S'YWHAZ (DIMER)'
p1922
S'RAF1'
p1923
S'binds'
p1924
tp1925
(lp1926
s(S'ATF6'
p1927
S'CYP26A1'
p1928
S'increases'
p1929
tp1930
(lp1931
s(S'sodium arsenite'
p1932
S'HRAS MRNA'
p1933
S'increases'
p1934
tp1935
(lp1936
s(S'EGR3'
p1937
S'CYP26A1'
p1938
S'increases'
p1939
tp1940
(lp1941
s(S'lead acetate'
p1942
S'HRAS PROTEIN'
p1943
S'increases_activity'
p1944
tp1945
(lp1946
s(S'REPIN1'
p1947
S'MYC'
p1948
S'increases'
p1949
tp1950
(lp1951
s(S'CEBPA'
p1952
S'NRAS'
p1953
S'increases'
p1954
tp1955
(lp1956
s(S'Quercetin'
p1957
S'NRAS MRNA'
p1958
S'decreases'
p1959
tp1960
(lp1961
s(S'14-3-3 E'
p1962
S'TERT'
p1963
S'binds'
p1964
tp1965
(lp1966
s(S'Antigen/IgE/Fc epsilon R1/LYN/SYK'
p1967
S'BTK'
p1968
S'adds_modification'
p1969
tp1970
(lp1971
s(S'HSF2'
p1972
S'CBFA2T3'
p1973
S'increases'
p1974
tp1975
(lp1976
s(S'Fluorouracil'
p1977
S'HRAS MRNA'
p1978
S'increases'
p1979
tp1980
(lp1981
s(S'STAT4'
p1982
S'MECOM'
p1983
S'increases'
p1984
tp1985
(lp1986
s(S'ETS2'
p1987
S'ETS1'
p1988
S'increases'
p1989
tp1990
(lp1991
s(S'CEBPG'
p1992
S'CYP26A1'
p1993
S'increases'
p1994
tp1995
(lp1996
s(S'Complex (PDGF receptor A/PDGF receptor B)'
p1997
S'NCK'
p1998
S'adds_modification'
p1999
tp2000
(lp2001
s(S'Fog1'
p2002
S'MYB'
p2003
S'decreases'
p2004
tp2005
(lp2006
s(S'CREB1'
p2007
S'FOXD3'
p2008
S'increases'
p2009
tp2010
(lp2011
s(S'Numb'
p2012
S'NICS'
p2013
S'translocates'
p2014
tp2015
(lp2016
s(S'STAT6'
p2017
S'STAT5A'
p2018
S'increases'
p2019
tp2020
(lp2021
s(S'RAF1/14-3-3'
p2022
S'BRAF/14-3-3'
p2023
S'binds'
p2024
tp2025
(lp2026
s(S'B-cell antigen/BCR complex/LYN/SYK/BLNK'
p2027
S'SHC/GRB2/SOS1'
p2028
S'increases_activity'
p2029
tp2030
(lp2031
s(S'IRF2'
p2032
S'CYP26A1'
p2033
S'increases'
p2034
tp2035
(lp2036
s(S'GATA6'
p2037
S'CYP26A1'
p2038
S'increases'
p2039
tp2040
(lp2041
s(S'HMGA1'
p2042
S'CYP26A1'
p2043
S'increases'
p2044
tp2045
(lp2046
s(S'MTF1'
p2047
S'FOXO4'
p2048
S'increases'
p2049
tp2050
(lp2051
s(S'STAT1'
p2052
S'GABPB2'
p2053
S'increases'
p2054
tp2055
(lp2056
s(S'manumycin'
p2057
S'HRAS PROTEIN'
p2058
S'decreases'
p2059
tp2060
(lp2061
s(S'STAT5A'
p2062
S'ETS1'
p2063
S'increases'
p2064
tp2065
(lp2066
s(S'SPI1'
p2067
S'CBFA2T3'
p2068
S'increases'
p2069
tp2070
(lp2071
s(S'GMCSF/GMR ALPHA/CSF2RB/JAK2 (DODECAMER)/SHC'
p2072
S'GRB2/SOS1'
p2073
S'binds'
p2074
tp2075
(lp2076
s(S'7,8-Dihydro-7,8-dihydroxybenzo(a)pyrene 9,10-oxide'
p2077
S'NRAS PROTEIN'
p2078
S'increases'
p2079
tp2080
(lp2081
s(S'CDC5L'
p2082
S'CYP26A1'
p2083
S'increases'
p2084
tp2085
(lp2086
s(S'PAX4'
p2087
S'POU3F2'
p2088
S'increases'
p2089
tp2090
(lp2091
s(S'SPRED2'
p2092
S'HRAS'
p2093
S'binds'
p2094
tp2095
(lp2096
s(S'PITX2'
p2097
S'FOXO4'
p2098
S'increases'
p2099
tp2100
(lp2101
s(S'FOXD3'
p2102
S'CYP26A1'
p2103
S'increases'
p2104
tp2105
(lp2106
s(S'NFIL3'
p2107
S'FOXO3'
p2108
S'increases'
p2109
tp2110
(lp2111
s(S'MTF1'
p2112
S'POU2F1'
p2113
S'increases'
p2114
tp2115
(lp2116
s(S'TFCP2'
p2117
S'BACH1'
p2118
S'increases'
p2119
tp2120
(lp2121
s(S'NF1'
p2122
S'MECOM'
p2123
S'increases'
p2124
tp2125
(lp2126
s(S'FOXO3'
p2127
S'FOXD3'
p2128
S'increases'
p2129
tp2130
(lp2131
s(S'STAT5A'
p2132
S'TLX2'
p2133
S'increases'
p2134
tp2135
(lp2136
s(S'RIN1'
p2137
S'HRAS/GTP'
p2138
S'adds_modification'
p2139
tp2140
(lp2141
s(S'STAT5A'
p2142
S'CEBPG'
p2143
S'increases'
p2144
tp2145
(lp2146
s(S'DAG'
p2147
S'PKC'
p2148
S'increases_activity'
p2149
tp2150
(lp2151
S'DAG and IP3 promote the activation of a protein kinase C (PKC).'
p2152
as(S'HNF4A'
p2153
S'FOXA1'
p2154
S'increases'
p2155
tp2156
(lp2157
s(S'LEF1'
p2158
S'MAZ'
p2159
S'increases'
p2160
tp2161
(lp2162
s(S'hsa-miR-124-3p'
p2163
S'NRAS'
p2164
S'decreases'
p2165
tp2166
(lp2167
s(S'RAF1'
p2168
S'14-3-3 E'
p2169
S'binds'
p2170
tp2171
(lp2172
s(S'GATA1'
p2173
S'MYB'
p2174
S'decreases'
p2175
tp2176
(lp2177
s(S'LMO2'
p2178
S'GATA1'
p2179
S'increases'
p2180
tp2181
(lp2182
s(S'HRAS/GTP'
p2183
S'RAF1'
p2184
S'increases_activity'
p2185
tp2186
(lp2187
s(S'MYCN'
p2188
S'RUNX2'
p2189
S'increases'
p2190
tp2191
(lp2192
s(S'STAT5B'
p2193
S'CYP26A1'
p2194
S'increases'
p2195
tp2196
(lp2197
s(S'ZIC2'
p2198
S'MYCN'
p2199
S'increases'
p2200
tp2201
(lp2202
s(S'FOXL1'
p2203
S'FOXD3'
p2204
S'increases'
p2205
tp2206
(lp2207
s(S'ZBTB18'
p2208
S'CBFA2T3'
p2209
S'increases'
p2210
tp2211
(lp2212
s(S'HSF1'
p2213
S'IRF1'
p2214
S'increases'
p2215
tp2216
(lp2217
s(S'SPZ1'
p2218
S'MAZ'
p2219
S'increases'
p2220
tp2221
(lp2222
s(S'SRY'
p2223
S'CYP26A1'
p2224
S'increases'
p2225
tp2226
(lp2227
s(S'FOXO4'
p2228
S'HOXA9'
p2229
S'increases'
p2230
tp2231
(lp2232
s(S'IGF-1R heterotetramer/IGF1/IRS1/GRB2/Sos'
p2233
S'HRAS/GDP'
p2234
S'increases_activity'
p2235
tp2236
(lp2237
s(S'hsa-miR-615-3p'
p2238
S'HRAS'
p2239
S'decreases'
p2240
tp2241
(lp2242
s(S'ESRRA'
p2243
S'FOXD3'
p2244
S'increases'
p2245
tp2246
(lp2247
s(S'ELK1'
p2248
S'CYP26A1'
p2249
S'increases'
p2250
tp2251
(lp2252
s(S'Hexane-1,6-Diol'
p2253
S'HRAS'
p2254
S'increases_activity'
p2255
tp2256
(lp2257
s(S'MAZ'
p2258
S'NRAS'
p2259
S'increases'
p2260
tp2261
(lp2262
s(S'MIF'
p2263
S'CYP26A1'
p2264
S'increases'
p2265
tp2266
(lp2267
s(S'AHR'
p2268
S'POU2F1'
p2269
S'increases'
p2270
tp2271
(lp2272
s(S'SMAD3'
p2273
S'CYP26A1'
p2274
S'increases'
p2275
tp2276
(lp2277
s(S'PI-3-4-5-P3'
p2278
S'GELSOLIN'
p2279
S'binds'
p2280
tp2281
(lp2282
s(S'ADP'
p2283
S'P-S724-IRE1 DIMER'
p2284
S'binds'
p2285
tp2286
(lp2287
s(S'testosterone enanthate'
p2288
S'KRAS MRNA'
p2289
S'increases'
p2290
tp2291
(lp2292
s(S'CYP26A1'
p2293
S'ONECUT1'
p2294
S'increases'
p2295
tp2296
(lp2297
s(S'Valproic Acid'
p2298
S'NRAS MRNA'
p2299
S'decreases'
p2300
tp2301
(lp2302
s(S'GTF2A2'
p2303
S'CYP26A1'
p2304
S'increases'
p2305
tp2306
(lp2307
s(S'CEBPA'
p2308
S'FOXO3'
p2309
S'increases'
p2310
tp2311
(lp2312
s(S'GATA3'
p2313
S'POU2F1'
p2314
S'increases'
p2315
tp2316
(lp2317
s(S'PI3K'
p2318
S'RAC1B/GDP'
p2319
S'increases_activity'
p2320
tp2321
(lp2322
s(S'CDC25C'
p2323
S'YWHAB'
p2324
S'binds'
p2325
tp2326
(lp2327
s(S'RAC1/GTP'
p2328
S'PAK1/BETAPIX/PKL/NCK1-2'
p2329
S'increases_activity'
p2330
tp2331
(lp2332
s(S'SMAD1'
p2333
S'CYP26A1'
p2334
S'increases'
p2335
tp2336
(lp2337
s(S'PI3K'
p2338
S'FAK'
p2339
S'adds_modification'
p2340
tp2341
(lp2342
s(S'NRF1'
p2343
S'MAX'
p2344
S'increases'
p2345
tp2346
(lp2347
s(S'FOXI1'
p2348
S'RUNX2'
p2349
S'increases'
p2350
tp2351
(lp2352
s(S'7,8-Dihydro-7,8-dihydroxybenzo(a)pyrene 9,10-oxide'
p2353
S'HRAS MRNA'
p2354
S'increases'
p2355
tp2356
(lp2357
s(S'ETS1'
p2358
S'CBFA2T3'
p2359
S'increases'
p2360
tp2361
(lp2362
s(S'hsa-miR-98-5p'
p2363
S'NRAS'
p2364
S'decreases'
p2365
tp2366
(lp2367
s(S'PHOSPHORYLATED BRF1 (SER92, SER203):MRNA COMPLEX'
p2368
S'YWHAB'
p2369
S'binds'
p2370
tp2371
(lp2372
s(S'LMO2'
p2373
S'CYP26A1'
p2374
S'increases'
p2375
tp2376
(lp2377
s(S'SOS1'
p2378
S'GRB2:PFAK BOUND TO NCAM1:PFYN'
p2379
S'binds'
p2380
tp2381
(lp2382
s(S'GTF3A'
p2383
S'GATA6'
p2384
S'increases'
p2385
tp2386
(lp2387
s(S'ZIC2'
p2388
S'CYP26A1'
p2389
S'increases'
p2390
tp2391
(lp2392
s(S'PAX2'
p2393
S'POU3F2'
p2394
S'increases'
p2395
tp2396
(lp2397
s(S'CEBPD'
p2398
S'FOXO3'
p2399
S'increases'
p2400
tp2401
(lp2402
s(S'NF1'
p2403
S'CYP26A1'
p2404
S'increases'
p2405
tp2406
(lp2407
s(S'BRAF'
p2408
S'MEK2'
p2409
S'adds_modification'
p2410
tp2411
(lp2412
s(S'TFAP4'
p2413
S'RUNX1'
p2414
S'increases'
p2415
tp2416
(lp2417
s(S'FAK'
p2418
S'SOS'
p2419
S'binds'
p2420
tp2421
(lp2422
s(S'EGR1'
p2423
S'RUNX1'
p2424
S'increases'
p2425
tp2426
(lp2427
s(S'TCF4'
p2428
S'FOXO4'
p2429
S'increases'
p2430
tp2431
(lp2432
s(S'MAZ'
p2433
S'CBFA2T3'
p2434
S'increases'
p2435
tp2436
(lp2437
s(S'MEIS1'
p2438
S'HRAS'
p2439
S'increases'
p2440
tp2441
(lp2442
s(S'RELA'
p2443
S'CYP26A1'
p2444
S'increases'
p2445
tp2446
(lp2447
s(S'hsa-miR-877-3p'
p2448
S'NRAS'
p2449
S'decreases'
p2450
tp2451
(lp2452
s(S'MYC'
p2453
S'LEF1'
p2454
S'increases'
p2455
tp2456
(lp2457
s(S'FOXO4'
p2458
S'RUNX1'
p2459
S'increases'
p2460
tp2461
(lp2462
s(S'LEF1'
p2463
S'RUNX1'
p2464
S'increases'
p2465
tp2466
(lp2467
s(S'TFDP2'
p2468
S'GATA1'
p2469
S'increases'
p2470
tp2471
(lp2472
s(S'AHR'
p2473
S'CYP26A1'
p2474
S'increases'
p2475
tp2476
(lp2477
s(S'4-Nitroquinoline-1-oxide'
p2478
S'PTGS2 MRNA'
p2479
S'increases'
p2480
tp2481
(lp2482
s(S'TGIF'
p2483
S'FOXO3'
p2484
S'increases'
p2485
tp2486
(lp2487
s(S'FOXF2'
p2488
S'CEBPA'
p2489
S'increases'
p2490
tp2491
(lp2492
s(S'NFE2L1'
p2493
S'POU2F1'
p2494
S'increases'
p2495
tp2496
(lp2497
s(S'LHX3'
p2498
S'CYP26A1'
p2499
S'increases'
p2500
tp2501
(lp2502
s(S'HMGA1'
p2503
S'MEIS1'
p2504
S'increases'
p2505
tp2506
(lp2507
s(S'POU2F1'
p2508
S'CYP26A1'
p2509
S'increases'
p2510
tp2511
(lp2512
s(S'PRRX2'
p2513
S'HOXA9'
p2514
S'increases'
p2515
tp2516
(lp2517
s(S'ETS2'
p2518
S'CEBPG'
p2519
S'increases'
p2520
tp2521
(lp2522
s(S'hsa-miR-193b-3p'
p2523
S'KRAS'
p2524
S'decreases'
p2525
tp2526
(lp2527
s(S'RREB1'
p2528
S'RUNX1'
p2529
S'increases'
p2530
tp2531
(lp2532
s(S'IL2/IL2R BETA/GAMMA/JAK1/FYN/JAK3'
p2533
S'PI3K'
p2534
S'binds'
p2535
tp2536
(lp2537
s(S'ELK1'
p2538
S'MEIS1'
p2539
S'increases'
p2540
tp2541
(lp2542
s(S'CYP26A1'
p2543
S'HOXA9'
p2544
S'increases'
p2545
tp2546
(lp2547
s(S'SPZ1'
p2548
S'HOXA9'
p2549
S'increases'
p2550
tp2551
(lp2552
s(S'ERK1'
p2553
S'P-S218,222-MEK1'
p2554
S'binds'
p2555
tp2556
(lp2557
s(S'NHLH1'
p2558
S'MYC'
p2559
S'increases'
p2560
tp2561
(lp2562
s(S'Daunorubicin'
p2563
S'NRAS MRNA'
p2564
S'increases'
p2565
tp2566
(lp2567
s(S'HNF1A'
p2568
S'FOXA1'
p2569
S'increases'
p2570
tp2571
(lp2572
s(S'MYC'
p2573
S'ONECUT1'
p2574
S'increases'
p2575
tp2576
(lp2577
s(S'Vanadates'
p2578
S'HRAS PROTEIN'
p2579
S'increases'
p2580
tp2581
(lp2582
s(S'Purine nucleotide'
p2583
S'H+'
p2584
S'translocates'
p2585
tp2586
(lp2587
s(S'NFE2'
p2588
S'BACH1'
p2589
S'increases'
p2590
tp2591
(lp2592
s(S'EGR4'
p2593
S'CYP26A1'
p2594
S'increases'
p2595
tp2596
(lp2597
s(S'NRF1'
p2598
S'ONECUT1'
p2599
S'increases'
p2600
tp2601
(lp2602
s(S'GFI1'
p2603
S'HOXA9'
p2604
S'increases'
p2605
tp2606
(lp2607
s(S'NR1H4'
p2608
S'FOXD3'
p2609
S'increases'
p2610
tp2611
(lp2612
s(S'STAT6'
p2613
S'FOXA1'
p2614
S'increases'
p2615
tp2616
(lp2617
s(S'INSULIN RECEPTOR/INSULI/IRS1/GRB2/SHC'
p2618
S'SOS1'
p2619
S'binds'
p2620
tp2621
(lp2622
s(S'Tetrachlorodibenzodioxin'
p2623
S'KRAS MRNA'
p2624
S'increases'
p2625
tp2626
(lp2627
s(S'TCF3'
p2628
S'MYC'
p2629
S'increases'
p2630
tp2631
(lp2632
s(S'BACH1'
p2633
S'EN1'
p2634
S'increases'
p2635
tp2636
(lp2637
s(S'RFX1'
p2638
S'CYP26A1'
p2639
S'increases'
p2640
tp2641
(lp2642
s(S'ZEB1'
p2643
S'FOXD3'
p2644
S'increases'
p2645
tp2646
(lp2647
s(S'IRF7'
p2648
S'EN1'
p2649
S'increases'
p2650
tp2651
(lp2652
s(S'GAB2/GRB2/SOS1'
p2653
S'IL2/IL2R ALPHA/BETA/GAMMA/JAK1/LCK/JAK3/SHC'
p2654
S'binds'
p2655
tp2656
(lp2657
s(S'GATA3'
p2658
S'FOXA1'
p2659
S'increases'
p2660
tp2661
(lp2662
s(S'TFAP4'
p2663
S'CYP26A1'
p2664
S'increases'
p2665
tp2666
(lp2667
s(S'FOXF2'
p2668
S'MECOM'
p2669
S'increases'
p2670
tp2671
(lp2672
s(S'NF1'
p2673
S'POU2F1'
p2674
S'increases'
p2675
tp2676
(lp2677
s(S'IRF1'
p2678
S'FOXA1'
p2679
S'increases'
p2680
tp2681
(lp2682
s(S'Rho Family GTPase-active'
p2683
S'PIP5K1A'
p2684
S'increases_activity'
p2685
tp2686
(lp2687
s(S'POU6F1'
p2688
S'EN1'
p2689
S'increases'
p2690
tp2691
(lp2692
s(S'TCF4'
p2693
S'LEF1'
p2694
S'increases'
p2695
tp2696
(lp2697
s(S'MAZ'
p2698
S'FOXO3'
p2699
S'increases'
p2700
tp2701
(lp2702
s(S'POU3F2'
p2703
S'MECOM'
p2704
S'increases'
p2705
tp2706
(lp2707
s(S'GTF3A'
p2708
S'CYP26A1'
p2709
S'increases'
p2710
tp2711
(lp2712
s(S'PI-3-4-5-P3'
p2713
S'AKT2'
p2714
S'adds_modification'
p2715
tp2716
(lp2717
s(S'VSX1'
p2718
S'POU2F1'
p2719
S'increases'
p2720
tp2721
(lp2722
s(S'PHOSPHORYLATED TTP:MRNA COMPLEX'
p2723
S'YWHAB'
p2724
S'binds'
p2725
tp2726
(lp2727
s(S'MEIS1'
p2728
S'MYC'
p2729
S'increases'
p2730
tp2731
(lp2732
s(S'Complex (PDGF receptor A/PDGF receptor B)'
p2733
S'RASGAP'
p2734
S'adds_modification'
p2735
tp2736
(lp2737
s(S'RORA'
p2738
S'CYP26A1'
p2739
S'increases'
p2740
tp2741
(lp2742
s(S'ATF4'
p2743
S'CDC5L'
p2744
S'increases'
p2745
tp2746
(lp2747
s(S'SHC/RasGAP'
p2748
S'RAS FAMILY/GTP'
p2749
S'increases_activity'
p2750
tp2751
(lp2752
s(S'NKX2-1'
p2753
S'MYC'
p2754
S'increases'
p2755
tp2756
(lp2757
s(S'NF1'
p2758
S'SRF'
p2759
S'increases'
p2760
tp2761
(lp2762
s(S'STAT4'
p2763
S'NRAS'
p2764
S'increases'
p2765
tp2766
(lp2767
s(S'POU6F1'
p2768
S'MEIS1'
p2769
S'increases'
p2770
tp2771
(lp2772
s(S'P-KIT COMPLEX'
p2773
S'GRB2:SOS1'
p2774
S'binds'
p2775
tp2776
(lp2777
s(S'MYCN'
p2778
S'MAX'
p2779
S'increases'
p2780
tp2781
(lp2782
s(S'STAT5A'
p2783
S'CYP26A1'
p2784
S'increases'
p2785
tp2786
(lp2787
s(S'GATA3'
p2788
S'EN1'
p2789
S'increases'
p2790
tp2791
(lp2792
s(S'E4F1'
p2793
S'FOXD3'
p2794
S'increases'
p2795
tp2796
(lp2797
s(S'MYB'
p2798
S'ONECUT1'
p2799
S'increases'
p2800
tp2801
(lp2802
s(S'Cadmium Chloride'
p2803
S'NRAS PROTEIN'
p2804
S'increases'
p2805
tp2806
(lp2807
s(S'Deoxycholic Acid'
p2808
S'HRAS PROTEIN'
p2809
S'increases_activity'
p2810
tp2811
(lp2812
s(S'HLF'
p2813
S'CYP26A1'
p2814
S'increases'
p2815
tp2816
(lp2817
s(S'GMCSF/GMR ALPHA/CSF2RB/JAK2 (DIMER)'
p2818
S'YWHAZ'
p2819
S'binds'
p2820
tp2821
(lp2822
s(S'HNF1A'
p2823
S'FOXF2'
p2824
S'increases'
p2825
tp2826
(lp2827
s(S'FOXF2'
p2828
S'GATA6'
p2829
S'increases'
p2830
tp2831
(lp2832
s(S'Arsenic'
p2833
S'GSS PROTEIN'
p2834
S'increases'
p2835
tp2836
(lp2837
s(S'COMPLEX (SOS/GRB2)'
p2838
S'FGFR1-4'
p2839
S'binds'
p2840
tp2841
(lp2842
s(S'MYOD1'
p2843
S'NRAS'
p2844
S'increases'
p2845
tp2846
(lp2847
s(S'MECOM'
p2848
S'CYP26A1'
p2849
S'increases'
p2850
tp2851
(lp2852
s(S'PBX1'
p2853
S'CYP26A1'
p2854
S'increases'
p2855
tp2856
(lp2857
s(S'MAZ'
p2858
S'MEIS1'
p2859
S'increases'
p2860
tp2861
(lp2862
s(S'PAX4'
p2863
S'ELK1'
p2864
S'increases'
p2865
tp2866
(lp2867
s(S'ESRRA'
p2868
S'MECOM'
p2869
S'increases'
p2870
tp2871
(lp2872
s(S'CEBPD'
p2873
S'TLX2'
p2874
S'increases'
p2875
tp2876
(lp2877
s(S'CRX'
p2878
S'FOXA1'
p2879
S'increases'
p2880
tp2881
(lp2882
s(S'GABPB1'
p2883
S'NRAS'
p2884
S'increases'
p2885
tp2886
(lp2887
s(S'CRX'
p2888
S'MEIS1'
p2889
S'increases'
p2890
tp2891
(lp2892
s(S'pirinixic acid/PPARA protein'
p2893
S'KRAS MRNA'
p2894
S'increases'
p2895
tp2896
(lp2897
s(S'BACH2'
p2898
S'FOXA1'
p2899
S'increases'
p2900
tp2901
(lp2902
s(S'JUN'
p2903
S'MECOM'
p2904
S'increases'
p2905
tp2906
(lp2907
s(S'7,8-Dihydro-7,8-dihydroxybenzo(a)pyrene 9,10-oxide'
p2908
S'KRAS MRNA'
p2909
S'decreases'
p2910
tp2911
(lp2912
s(S'SRY'
p2913
S'FOXO4'
p2914
S'increases'
p2915
tp2916
(lp2917
s(S'PI3K'
p2918
S'AKT1'
p2919
S'adds_modification'
p2920
tp2921
(lp2922
S'AKT is mainly activated via the Phosphotidyl Inositol-3 Kinase (PI3K) pathway where PI3K activates PIP2 to PIP3, which in turn will bind to the PH-domain of AKT and alter the conformation of AKT to allow subsequent phosphorylation at a threonine site (Thr308 for AKT1 and Thre 309 for AKT2) and a serine site (Ser473 for AKT1 and Ser474 for AKT2).'
p2923
as(S'GATA3'
p2924
S'CYP26A1'
p2925
S'increases'
p2926
tp2927
(lp2928
s(S'RAS:GTP'
p2929
S'P-EPHBS:EFNBS:RASA1'
p2930
S'binds'
p2931
tp2932
(lp2933
s(S'STAT5A'
p2934
S'MECOM'
p2935
S'increases'
p2936
tp2937
(lp2938
s(S'RAS family/GTP'
p2939
S'RAF1'
p2940
S'increases_activity'
p2941
tp2942
(lp2943
s(S'RHOA/GTP'
p2944
S'PLD1-2'
p2945
S'increases_activity'
p2946
tp2947
(lp2948
s(S'FOXJ2'
p2949
S'CYP26A1'
p2950
S'increases'
p2951
tp2952
(lp2953
s(S'LEF1'
p2954
S'MECOM'
p2955
S'increases'
p2956
tp2957
(lp2958
s(S'GABPB2'
p2959
S'CDC5L'
p2960
S'increases'
p2961
tp2962
(lp2963
s(S'ESRRA'
p2964
S'CYP26A1'
p2965
S'increases'
p2966
tp2967
(lp2968
s(S'PI-3-4-5-P3'
p2969
S'WAVE2/NAP1/SRA1/ABI1/HSPC300'
p2970
S'translocates'
p2971
tp2972
(lp2973
s(S'CUX1'
p2974
S'MECOM'
p2975
S'increases'
p2976
tp2977
(lp2978
s(S'MAX'
p2979
S'CYP26A1'
p2980
S'increases'
p2981
tp2982
(lp2983
s(S'RXRB'
p2984
S'FOXD3'
p2985
S'increases'
p2986
tp2987
(lp2988
s(S'IRF1'
p2989
S'NRAS'
p2990
S'increases'
p2991
tp2992
(lp2993
s(S'MECOM'
p2994
S'MAX'
p2995
S'increases'
p2996
tp2997
(lp2998
s(S'PAX6'
p2999
S'CYP26A1'
p3000
S'increases'
p3001
tp3002
(lp3003
s(S'GRB2/SOS1'
p3004
S'EGFR/EGFR/EGF/EGF/P46 SHC'
p3005
S'binds'
p3006
tp3007
(lp3008
s(S'POU6F1'
p3009
S'POU2F1'
p3010
S'increases'
p3011
tp3012
(lp3013
s(S'RUNX1'
p3014
S'MYOD1'
p3015
S'increases'
p3016
tp3017
(lp3018
s(S'COMPLEX (GRB2/SOS)'
p3019
S'EGFR'
p3020
S'binds'
p3021
tp3022
(lp3023
s(S'MAZ'
p3024
S'MECOM'
p3025
S'increases'
p3026
tp3027
(lp3028
s(S'REPIN1'
p3029
S'EN1'
p3030
S'increases'
p3031
tp3032
(lp3033
s(S'RAS family/GTP'
p3034
S'RAF1'
p3035
S'adds_modification'
p3036
tp3037
(lp3038
s(S'E4F1'
p3039
S'CYP26A1'
p3040
S'increases'
p3041
tp3042
(lp3043
s(S'Rac'
p3044
S'MEKK1-5'
p3045
S'adds_modification'
p3046
tp3047
(lp3048
s(S'HAND1'
p3049
S'CYP26A1'
p3050
S'increases'
p3051
tp3052
(lp3053
s(S'Quercetin'
p3054
S'NRAS PROTEIN'
p3055
S'decreases'
p3056
tp3057
(lp3058
s(S'HRAS:GTP'
p3059
S'CRAF'
p3060
S'binds'
p3061
tp3062
(lp3063
s(S'REPIN1'
p3064
S'FOXA1'
p3065
S'increases'
p3066
tp3067
(lp3068
s(S'hsa-miR-155-5p'
p3069
S'KRAS'
p3070
S'decreases'
p3071
tp3072
(lp3073
s(S'PAX4'
p3074
S'EN1'
p3075
S'increases'
p3076
tp3077
(lp3078
s(S'FOXN1'
p3079
S'JUN'
p3080
S'increases'
p3081
tp3082
(lp3083
s(S'TFCP2'
p3084
S'GATA1'
p3085
S'increases'
p3086
tp3087
(lp3088
s(S'SHC'
p3089
S'GRAP2'
p3090
S'binds'
p3091
tp3092
(lp3093
s(S'CEBPG'
p3094
S'NRAS'
p3095
S'increases'
p3096
tp3097
(lp3098
s(S'FOXN1'
p3099
S'FOXO4'
p3100
S'increases'
p3101
tp3102
(lp3103
s(S'IL2/IL2R ALPHA/BETA/GAMMA/JAK1/LCK/JAK3/IRS1-2'
p3104
S'PI3K'
p3105
S'binds'
p3106
tp3107
(lp3108
s(S'POU1F1'
p3109
S'EN1'
p3110
S'increases'
p3111
tp3112
(lp3113
s(S'FOXJ1'
p3114
S'POU2F1'
p3115
S'increases'
p3116
tp3117
(lp3118
s(S'YY1'
p3119
S'POU2F1'
p3120
S'increases'
p3121
tp3122
(lp3123
s(S'7,8-Dihydro-7,8-dihydroxybenzo(a)pyrene 9,10-oxide'
p3124
S'NRAS MRNA'
p3125
S'increases'
p3126
tp3127
(lp3128
s(S'EGF/EGFR'
p3129
S'HRAS/GDP'
p3130
S'increases_activity'
p3131
tp3132
(lp3133
s(S'TFAP4'
p3134
S'GABPB2'
p3135
S'increases'
p3136
tp3137
(lp3138
s(S'TFAP2A'
p3139
S'POU3F2'
p3140
S'increases'
p3141
tp3142
(lp3143
s(S'TCF12'
p3144
S'CBFA2T3'
p3145
S'increases'
p3146
tp3147
(lp3148
s(S'STAT3'
p3149
S'IRF1'
p3150
S'increases'
p3151
tp3152
(lp3153
s(S'MYOD1'
p3154
S'GATA1'
p3155
S'increases'
p3156
tp3157
(lp3158
s(S'REPIN1'
p3159
S'HRAS'
p3160
S'increases'
p3161
tp3162
(lp3163
s(S'PAX4'
p3164
S'MAX'
p3165
S'increases'
p3166
tp3167
(lp3168
s(S'PAX2'
p3169
S'FOXA1'
p3170
S'increases'
p3171
tp3172
(lp3173
s(S'Lipopolysaccharides'
p3174
S'HRAS PROTEIN'
p3175
S'increases_activity'
p3176
tp3177
(lp3178
s(S'7,8-Dihydro-7,8-dihydroxybenzo(a)pyrene 9,10-oxide'
p3179
S'KRAS MRNA'
p3180
S'increases'
p3181
tp3182
(lp3183
s(S'REPIN1'
p3184
S'GATA1'
p3185
S'increases'
p3186
tp3187
(lp3188
s(S'Formaldehyde'
p3189
S'HRAS MRNA'
p3190
S'increases'
p3191
tp3192
(lp3193
s(S'ESRRA'
p3194
S'STAT5A'
p3195
S'increases'
p3196
tp3197
(lp3198
s(S'farnesylthiosalicylic acid'
p3199
S'HRAS PROTEIN'
p3200
S'decreases'
p3201
tp3202
(lp3203
s(S'JUN'
p3204
S'RUNX1'
p3205
S'increases'
p3206
tp3207
(lp3208
s(S'FOXD3'
p3209
S'RUNX1'
p3210
S'increases'
p3211
tp3212
(lp3213
s(S'SOX9'
p3214
S'CYP26A1'
p3215
S'increases'
p3216
tp3217
(lp3218
s(S'hexabromocyclododecane'
p3219
S'HRAS MRNA'
p3220
S'increases'
p3221
tp3222
(lp3223
s(S'RUNX2'
p3224
S'KRAS'
p3225
S'increases'
p3226
tp3227
(lp3228
s(S'PGR'
p3229
S'CYP26A1'
p3230
S'increases'
p3231
tp3232
(lp3233
s(S'CYP26A1'
p3234
S'MAZ'
p3235
S'increases'
p3236
tp3237
(lp3238
s(S'RAC1/GTP'
p3239
S'AKT1'
p3240
S'adds_modification'
p3241
tp3242
(lp3243
s(S'FOXO3'
p3244
S'CYP26A1'
p3245
S'increases'
p3246
tp3247
(lp3248
s(S'MAX'
p3249
S'SRF'
p3250
S'increases'
p3251
tp3252
(lp3253
s(S'RUNX2'
p3254
S'NRAS'
p3255
S'increases'
p3256
tp3257
(lp3258
s(S'HSF2'
p3259
S'CYP26A1'
p3260
S'increases'
p3261
tp3262
(lp3263
s(S'IL2/IL2R ALPHA/BETA/GAMMA/JAK1/LCK/JAK3/SHC/GRB2/SOS1/GAB2/SHP2'
p3264
S'PI3K'
p3265
S'binds'
p3266
tp3267
(lp3268
s(S'SPI1'
p3269
S'STAT5A'
p3270
S'increases'
p3271
tp3272
(lp3273
s(S'ZHX2'
p3274
S'MYC'
p3275
S'increases'
p3276
tp3277
(lp3278
s(S'RAF1-BRAF'
p3279
S'MEK1-2'
p3280
S'increases_activity'
p3281
tp3282
(lp3283
s(S'SHC'
p3284
S'GRB2'
p3285
S'binds'
p3286
tp3287
(lp3288
s(S'RB1'
p3289
S'GATA1'
p3290
S'increases'
p3291
tp3292
(lp3293
s(S'TCF3'
p3294
S'FOXJ2'
p3295
S'increases'
p3296
tp3297
(lp3298
s(S'FOXJ2'
p3299
S'NRAS'
p3300
S'increases'
p3301
tp3302
(lp3303
s(S'REPIN1'
p3304
S'LEF1'
p3305
S'increases'
p3306
tp3307
(lp3308
s(S'Aflatoxin B1'
p3309
S'HRAS MRNA'
p3310
S'increases'
p3311
tp3312
(lp3313
s(S'PAX4'
p3314
S'MEIS1'
p3315
S'increases'
p3316
tp3317
(lp3318
s(S'FOXF2'
p3319
S'FOXD3'
p3320
S'increases'
p3321
tp3322
(lp3323
s(S'CBFA2T3'
p3324
S'RUNX1'
p3325
S'increases'
p3326
tp3327
(lp3328
s(S'FOXC1'
p3329
S'HOXA9'
p3330
S'increases'
p3331
tp3332
(lp3333
s(S'DBP'
p3334
S'CYP26A1'
p3335
S'increases'
p3336
tp3337
(lp3338
s(S'TGIF'
p3339
S'EN1'
p3340
S'increases'
p3341
tp3342
(lp3343
s(S'PI-3-4-5-P3'
p3344
S'P62DOK'
p3345
S'adds_modification'
p3346
tp3347
(lp3348
s(S'JUN'
p3349
S'TLX2'
p3350
S'increases'
p3351
tp3352
(lp3353
s(S'Benzo(a)pyrene'
p3354
S'HRAS MRNA'
p3355
S'increases'
p3356
tp3357
(lp3358
s(S'STAT4'
p3359
S'CYP26A1'
p3360
S'increases'
p3361
tp3362
(lp3363
s(S'EGFR/EGFR/EGF/EGF'
p3364
S'SRC'
p3365
S'adds_modification'
p3366
tp3367
(lp3368
s(S'FOXQ1'
p3369
S'FOXD3'
p3370
S'increases'
p3371
tp3372
(lp3373
s(S'FOXJ1'
p3374
S'NRAS'
p3375
S'increases'
p3376
tp3377
(lp3378
s(S'TCF3'
p3379
S'POU2F1'
p3380
S'increases'
p3381
tp3382
(lp3383
s(S'MYB'
p3384
S'CYP26A1'
p3385
S'increases'
p3386
tp3387
(lp3388
s(S'GATA4'
p3389
S'CYP26A1'
p3390
S'increases'
p3391
tp3392
(lp3393
s(S'ELK1'
p3394
S'STAT4'
p3395
S'increases'
p3396
tp3397
(lp3398
s(S'CYP26A1'
p3399
S'LEF1'
p3400
S'increases'
p3401
tp3402
(lp3403
s(S"Guanosine-5'-Diphosphate"
p3404
S'HRAS'
p3405
S'increases_activity'
p3406
tp3407
(lp3408
s(S'ETV4'
p3409
S'CYP26A1'
p3410
S'increases'
p3411
tp3412
(lp3413
s(S'EPHRIN B/EPHB2'
p3414
S'RASGAP'
p3415
S'binds'
p3416
tp3417
(lp3418
s(S'ESR1'
p3419
S'FOXF2'
p3420
S'increases'
p3421
tp3422
(lp3423
s(S'CDC5L'
p3424
S'FOXA1'
p3425
S'increases'
p3426
tp3427
(lp3428
s(S'MAZ'
p3429
S'HOXA9'
p3430
S'increases'
p3431
tp3432
(lp3433
s(S'HIF1A'
p3434
S'MAX'
p3435
S'increases'
p3436
tp3437
(lp3438
s(S'FOXN1'
p3439
S'HOXA9'
p3440
S'increases'
p3441
tp3442
(lp3443
s(S'LEF1'
p3444
S'BACH1'
p3445
S'increases'
p3446
tp3447
(lp3448
s(S'PDX1'
p3449
S'FOXO3'
p3450
S'increases'
p3451
tp3452
(lp3453
s(S'CBFA2T3'
p3454
S'CYP26A1'
p3455
S'increases'
p3456
tp3457
(lp3458
s(S'Rabex5'
p3459
S'HRAS/GTP'
p3460
S'adds_modification'
p3461
tp3462
(lp3463
s(S'CBFA2T3'
p3464
S'RUNX2'
p3465
S'increases'
p3466
tp3467
(lp3468
s(S'PI-3-4-5-P3'
p3469
S'ARAP3'
p3470
S'translocates'
p3471
tp3472
(lp3473
s(S'CART1'
p3474
S'CYP26A1'
p3475
S'increases'
p3476
tp3477
(lp3478
s(S'Arsenic'
p3479
S'NRAS MRNA'
p3480
S'increases'
p3481
tp3482
(lp3483
s(S'NRF1'
p3484
S'CDC5L'
p3485
S'increases'
p3486
tp3487
(lp3488
s(S'Quercetin'
p3489
S'HRAS PROTEIN'
p3490
S'decreases'
p3491
tp3492
(lp3493
s(S"N,N'-DIMETHYL-N-(ACETYL)-N'-(7-NITROBENZ-2-OXA-1,3-DIAZOL-4-YL)ETHYLENEDIAMINE"
p3494
S'HRAS'
p3495
S'increases_activity'
p3496
tp3497
(lp3498
s(S'TFDP1'
p3499
S'FOXD3'
p3500
S'increases'
p3501
tp3502
(lp3503
s(S'AR'
p3504
S'TLX2'
p3505
S'increases'
p3506
tp3507
(lp3508
s(S'hsa-miR-181c-5p'
p3509
S'KRAS'
p3510
S'decreases'
p3511
tp3512
(lp3513
s(S'SMAD3'
p3514
S'CBFA2T3'
p3515
S'increases'
p3516
tp3517
(lp3518
s(S'HOXA9'
p3519
S'NRAS'
p3520
S'increases'
p3521
tp3522
(lp3523
s(S'PITX2'
p3524
S'CYP26A1'
p3525
S'increases'
p3526
tp3527
(lp3528
s(S'ATF3'
p3529
S'CYP26A1'
p3530
S'increases'
p3531
tp3532
(lp3533
s(S'E2F1'
p3534
S'MAZ'
p3535
S'increases'
p3536
tp3537
(lp3538
s(S'Ethyl Methanesulfonate'
p3539
S'HRAS MRNA'
p3540
S'increases'
p3541
tp3542
(lp3543
s(S'LMO2'
p3544
S'FOXA1'
p3545
S'increases'
p3546
tp3547
(lp3548
s(S'FOXC1'
p3549
S'POU2F1'
p3550
S'increases'
p3551
tp3552
(lp3553
s(S'DDIT3'
p3554
S'CYP26A1'
p3555
S'increases'
p3556
tp3557
(lp3558
s(S'PAX8'
p3559
S'CYP26A1'
p3560
S'increases'
p3561
tp3562
(lp3563
s(S'LHX3'
p3564
S'EN1'
p3565
S'increases'
p3566
tp3567
(lp3568
s(S'KAT2B'
p3569
S'CYP26A1'
p3570
S'increases'
p3571
tp3572
(lp3573
s(S'P100'
p3574
S'MYB'
p3575
S'binds'
p3576
tp3577
(lp3578
s(S'SOX9'
p3579
S'FOXA1'
p3580
S'increases'
p3581
tp3582
(lp3583
s(S'HIF1A'
p3584
S'EN1'
p3585
S'increases'
p3586
tp3587
(lp3588
s(S'REPIN1'
p3589
S'RUNX1'
p3590
S'increases'
p3591
tp3592
(lp3593
s(S'MYOD1'
p3594
S'BACH1'
p3595
S'increases'
p3596
tp3597
(lp3598
s(S'EBF2'
p3599
S'REPIN1'
p3600
S'increases'
p3601
tp3602
(lp3603
s(S'bisphenol A'
p3604
S'HRAS MRNA'
p3605
S'increases'
p3606
tp3607
(lp3608
s(S'E2F1'
p3609
S'EN1'
p3610
S'increases'
p3611
tp3612
(lp3613
s(S'MYC/Max/MIZ-1'
p3614
S'GALECTIN-1'
p3615
S'decreases'
p3616
tp3617
(lp3618
s(S'PI-3-4-5-P3'
p3619
S'WAVE2/NAP1/SRA1/ABI1/HSPC300'
p3620
S'adds_modification'
p3621
tp3622
(lp3623
s(S'FOXF2'
p3624
S'FOXO3'
p3625
S'increases'
p3626
tp3627
(lp3628
s(S'REPIN1'
p3629
S'STAT5A'
p3630
S'increases'
p3631
tp3632
(lp3633
s(S'RUNX1'
p3634
S'NRAS'
p3635
S'increases'
p3636
tp3637
(lp3638
s(S'benzo(a)pyrene 7,8-dihydrodiol'
p3639
S'HRAS MRNA'
p3640
S'increases'
p3641
tp3642
(lp3643
s(S'RAC1/GTP'
p3644
S'PAK1 (DIMER)'
p3645
S'adds_modification'
p3646
tp3647
(lp3648
s(S'PAX4'
p3649
S'POU2F1'
p3650
S'increases'
p3651
tp3652
(lp3653
s(S'MYOD1'
p3654
S'CBFA2T3'
p3655
S'increases'
p3656
tp3657
(lp3658
s(S'STAT5A'
p3659
S'RUNX2'
p3660
S'increases'
p3661
tp3662
(lp3663
s(S'EBF2'
p3664
S'FOXJ2'
p3665
S'increases'
p3666
tp3667
(lp3668
s(S'Estradiol'
p3669
S'KRAS MRNA'
p3670
S'increases'
p3671
tp3672
(lp3673
s(S'RXRB'
p3674
S'CYP26A1'
p3675
S'increases'
p3676
tp3677
(lp3678
s(S'bisphenol A'
p3679
S'KRAS MRNA'
p3680
S'decreases'
p3681
tp3682
(lp3683
s(S'COMPLEX (GRB2/SOS)'
p3684
S'FGFR1-4'
p3685
S'binds'
p3686
tp3687
(lp3688
s(S'POU2F1'
p3689
S'RUNX1'
p3690
S'increases'
p3691
tp3692
(lp3693
s(S'TCF3'
p3694
S'TLX2'
p3695
S'increases'
p3696
tp3697
(lp3698
s(S'SPZ1'
p3699
S'POU2F1'
p3700
S'increases'
p3701
tp3702
(lp3703
s(S'TFAP4'
p3704
S'FOXO4'
p3705
S'increases'
p3706
tp3707
(lp3708
s(S'OR5I1'
p3709
S'MECOM'
p3710
S'increases'
p3711
tp3712
(lp3713
s(S'Rho Family GTPase-active'
p3714
S'JNK1'
p3715
S'adds_modification'
p3716
tp3717
(lp3718
s(S'TFDP1'
p3719
S'POU2F1'
p3720
S'increases'
p3721
tp3722
(lp3723
s(S'AHR'
p3724
S'MAX'
p3725
S'increases'
p3726
tp3727
(lp3728
s(S'BACH1'
p3729
S'CYP26A1'
p3730
S'increases'
p3731
tp3732
(lp3733
s(S'ZBTB14'
p3734
S'MAZ'
p3735
S'increases'
p3736
tp3737
(lp3738
s(S'TCF3'
p3739
S'FOXO4'
p3740
S'increases'
p3741
tp3742
(lp3743
s(S'MASTERMIND'
p3744
S'NICS'
p3745
S'binds'
p3746
tp3747
(lp3748
s(S'BPTF'
p3749
S'FOXO4'
p3750
S'increases'
p3751
tp3752
(lp3753
s(S'MYOD1'
p3754
S'RUNX1'
p3755
S'increases'
p3756
tp3757
(lp3758
s(S'JUN'
p3759
S'CYP26A1'
p3760
S'increases'
p3761
tp3762
(lp3763
s(S'BPTF'
p3764
S'CYP26A1'
p3765
S'increases'
p3766
tp3767
(lp3768
s(S'POU3F1'
p3769
S'CYP26A1'
p3770
S'increases'
p3771
tp3772
(lp3773
s(S'NRF1'
p3774
S'CYP26A1'
p3775
S'increases'
p3776
tp3777
(lp3778
s(S'TFAP2C'
p3779
S'POU3F2'
p3780
S'increases'
p3781
tp3782
(lp3783
s(S'NFAT1-C-4-INACTIVE2'
p3784
S'YWHAQ'
p3785
S'binds'
p3786
tp3787
(lp3788
s(S'STAT6'
p3789
S'ONECUT1'
p3790
S'increases'
p3791
tp3792
(lp3793
s(S'RUNX1'
p3794
S'RUNX2'
p3795
S'increases'
p3796
tp3797
(lp3798
s(S'ZIC3'
p3799
S'MYCN'
p3800
S'increases'
p3801
tp3802
(lp3803
s(S'CYP26A1'
p3804
S'MAX'
p3805
S'increases'
p3806
tp3807
(lp3808
s(S'ETS2'
p3809
S'FOXO4'
p3810
S'increases'
p3811
tp3812
(lp3813
s(S'GATA6'
p3814
S'FOXA1'
p3815
S'increases'
p3816
tp3817
(lp3818
s(S'Doxorubicin'
p3819
S'HRAS MRNA'
p3820
S'increases'
p3821
tp3822
(lp3823
s(S'PPARA'
p3824
S'HOXA9'
p3825
S'increases'
p3826
tp3827
(lp3828
s(S'REPIN1'
p3829
S'GABPB2'
p3830
S'increases'
p3831
tp3832
(lp3833
s(S'FOXN1'
p3834
S'FOXA1'
p3835
S'increases'
p3836
tp3837
(lp3838
s(S'Dronabinol'
p3839
S'KRAS MRNA'
p3840
S'increases'
p3841
tp3842
(lp3843
s(S'FOXO1'
p3844
S'RUNX1'
p3845
S'increases'
p3846
tp3847
(lp3848
s(S'SMAD4'
p3849
S'HOXA9'
p3850
S'increases'
p3851
tp3852
(lp3853
s(S'PAX4'
p3854
S'JUN'
p3855
S'increases'
p3856
tp3857
(lp3858
s(S'Raf-1'
p3859
S'MEK'
p3860
S'adds_modification'
p3861
tp3862
(lp3863
g654
ag655
as(S'PIM1'
p3864
S'MYC/MAX'
p3865
S'binds'
p3866
tp3867
(lp3868
s(S'YY1'
p3869
S'MECOM'
p3870
S'increases'
p3871
tp3872
(lp3873
s(S'NRF1'
p3874
S'MAZ'
p3875
S'increases'
p3876
tp3877
(lp3878
s(S'GATA1'
p3879
S'MECOM'
p3880
S'increases'
p3881
tp3882
(lp3883
s(S'PDGF/PDGFRA'
p3884
S'SHC/GRB2/SOS1'
p3885
S'increases_activity'
p3886
tp3887
(lp3888
s(S'GRB2/SOS1'
p3889
S'FAK'
p3890
S'binds'
p3891
tp3892
(lp3893
s(S'HNF4A'
p3894
S'HOXA9'
p3895
S'increases'
p3896
tp3897
(lp3898
s(S'FOXA2'
p3899
S'CYP26A1'
p3900
S'increases'
p3901
tp3902
(lp3903
s(S'FOXI1'
p3904
S'CYP26A1'
p3905
S'increases'
p3906
tp3907
(lp3908
s(S'GRB2 BOUND TO TIE2'
p3909
S'SOS1'
p3910
S'binds'
p3911
tp3912
(lp3913
s(S'PHOSPHORYLATED BRF1 (SER54, SER92, SER203):MRNA COMPLEX'
p3914
S'YWHAB'
p3915
S'binds'
p3916
tp3917
(lp3918
s(S'COMPLEX (GRB2/SOS)'
p3919
S'GAB'
p3920
S'binds'
p3921
tp3922
(lp3923
s(S'NFE2'
p3924
S'TLX2'
p3925
S'increases'
p3926
tp3927
(lp3928
s(S'MAX'
p3929
S'FOXF2'
p3930
S'increases'
p3931
tp3932
(lp3933
s(S'GRB2:SOS1'
p3934
S'ACTIVATED FGFR:P-FRS2'
p3935
S'binds'
p3936
tp3937
(lp3938
s(S'FOXO4'
p3939
S'MECOM'
p3940
S'increases'
p3941
tp3942
(lp3943
s(S'TCF3'
p3944
S'LEF1'
p3945
S'increases'
p3946
tp3947
(lp3948
s(S'ZIC1'
p3949
S'LEF1'
p3950
S'increases'
p3951
tp3952
(lp3953
s(S'NFIL3'
p3954
S'CYP26A1'
p3955
S'increases'
p3956
tp3957
(lp3958
s(S'RAF1'
p3959
S'MEK1'
p3960
S'increases_activity'
p3961
tp3962
(lp3963
s(S'AR'
p3964
S'FOXA1'
p3965
S'increases'
p3966
tp3967
(lp3968
s(S'POU2F1'
p3969
S'POU3F2'
p3970
S'increases'
p3971
tp3972
(lp3973
s(S'PCBP1'
p3974
S'MAZ'
p3975
S'increases'
p3976
tp3977
(lp3978
s(S'LEF1'
p3979
S'HOXA9'
p3980
S'increases'
p3981
tp3982
(lp3983
s(S'NR6A1'
p3984
S'CYP26A1'
p3985
S'increases'
p3986
tp3987
(lp3988
s(S'PI3K'
p3989
S'BTK'
p3990
S'translocates'
p3991
tp3992
(lp3993
s(S'AHR'
p3994
S'RUNX1'
p3995
S'increases'
p3996
tp3997
(lp3998
s(S'NR1H4'
p3999
S'CYP26A1'
p4000
S'increases'
p4001
tp4002
(lp4003
s(S'NR2F2'
p4004
S'CYP26A1'
p4005
S'increases'
p4006
tp4007
(lp4008
s(S'GNB1/GNG2'
p4009
S'PI3K'
p4010
S'binds'
p4011
tp4012
(lp4013
s(S'RHOA/GTP'
p4014
S'PKN2'
p4015
S'increases_activity'
p4016
tp4017
(lp4018
s(S'MAZ'
p4019
S'LEF1'
p4020
S'increases'
p4021
tp4022
(lp4023
s(S'RFX1'
p4024
S'MECOM'
p4025
S'increases'
p4026
tp4027
(lp4028
s(S'RUNX1'
p4029
S'HOXA9'
p4030
S'increases'
p4031
tp4032
(lp4033
s(S'FOXL1'
p4034
S'POU2F1'
p4035
S'increases'
p4036
tp4037
(lp4038
s(S'GRB2:SOS1'
p4039
S'PHOSPHORYLATED ERBB2:EGFR HETERODIMERS'
p4040
S'binds'
p4041
tp4042
(lp4043
s(S'TFAP4'
p4044
S'MYCN'
p4045
S'increases'
p4046
tp4047
(lp4048
s(S'E2F1'
p4049
S'GATA1'
p4050
S'increases'
p4051
tp4052
(lp4053
s(S'PTF1A'
p4054
S'GATA6'
p4055
S'increases'
p4056
tp4057
(lp4058
s(S'REL'
p4059
S'CYP26A1'
p4060
S'increases'
p4061
tp4062
(lp4063
s(S'MTF1'
p4064
S'JUN'
p4065
S'increases'
p4066
tp4067
(lp4068
s(S'ZEB1'
p4069
S'REPIN1'
p4070
S'increases'
p4071
tp4072
(lp4073
s(S'IRF8'
p4074
S'GATA6'
p4075
S'increases'
p4076
tp4077
(lp4078
s(S'P-Y349,350-SHC1:PHOSPHORYLATED ERBB2 HETERODIMERS'
p4079
S'GRB2:SOS1'
p4080
S'binds'
p4081
tp4082
(lp4083
s(S'BACH2'
p4084
S'EN1'
p4085
S'increases'
p4086
tp4087
(lp4088
s(S'GFI1'
p4089
S'MEIS1'
p4090
S'increases'
p4091
tp4092
(lp4093
s(S'FOXN1'
p4094
S'LEF1'
p4095
S'increases'
p4096
tp4097
(lp4098
s(S'CYP26A1'
p4099
S'JUN'
p4100
S'increases'
p4101
tp4102
(lp4103
s(S'TCF3'
p4104
S'ONECUT1'
p4105
S'increases'
p4106
tp4107
(lp4108
s(S'FOXF2'
p4109
S'POU2F1'
p4110
S'increases'
p4111
tp4112
(lp4113
s(S'MAZ'
p4114
S'MAX'
p4115
S'increases'
p4116
tp4117
(lp4118
s(S'FOXN1'
p4119
S'CYP26A1'
p4120
S'increases'
p4121
tp4122
(lp4123
s(S'HNF1A'
p4124
S'FOXD3'
p4125
S'increases'
p4126
tp4127
(lp4128
s(S'EGR2'
p4129
S'RUNX1'
p4130
S'increases'
p4131
tp4132
(lp4133
s(S'MYC'
p4134
S'RUNX2'
p4135
S'increases'
p4136
tp4137
(lp4138
s(S'TFAP2A'
p4139
S'IRF1'
p4140
S'increases'
p4141
tp4142
(lp4143
s(S'FOXO4'
p4144
S'YY1'
p4145
S'increases'
p4146
tp4147
(lp4148
s(S'VEGFR2 (dimer)/VEGFA (dimer)'
p4149
S'SRC'
p4150
S'adds_modification'
p4151
tp4152
(lp4153
s(S'resveratrol'
p4154
S'KRAS MRNA'
p4155
S'decreases'
p4156
tp4157
(lp4158
s(S'FOXO4'
p4159
S'CYP26A1'
p4160
S'increases'
p4161
tp4162
(lp4163
s(S'STAT3'
p4164
S'FOXO4'
p4165
S'increases'
p4166
tp4167
(lp4168
s(S'GRB2/SOS1'
p4169
S'FRS2 FAMILY/SHP2'
p4170
S'binds'
p4171
tp4172
(lp4173
s(S'LEF1'
p4174
S'CYP26A1'
p4175
S'increases'
p4176
tp4177
(lp4178
s(S'GTF2A2'
p4179
S'SRF'
p4180
S'increases'
p4181
tp4182
(lp4183
s(S'PPARA'
p4184
S'STAT5A'
p4185
S'increases'
p4186
tp4187
(lp4188
s(S'hsa-miR-143-3p'
p4189
S'KRAS'
p4190
S'decreases'
p4191
tp4192
(lp4193
s(S'GFI1'
p4194
S'CYP26A1'
p4195
S'increases'
p4196
tp4197
(lp4198
s(S'RAC1/GTP'
p4199
S'MKK4-MKK7'
p4200
S'increases_activity'
p4201
tp4202
(lp4203
s(S'REPIN1'
p4204
S'ETS1'
p4205
S'increases'
p4206
tp4207
(lp4208
s(S'ZIC1'
p4209
S'GATA6'
p4210
S'increases'
p4211
tp4212
(lp4213
s(S'INTERLEUKIN RECEPTOR COMPLEXES WITH ACTIVATED SHC1'
p4214
S'GRB2:SOS1'
p4215
S'binds'
p4216
tp4217
(lp4218
s(S'Selenium'
p4219
S'HRAS MRNA'
p4220
S'increases'
p4221
tp4222
(lp4223
s(S'HOXA4'
p4224
S'CYP26A1'
p4225
S'increases'
p4226
tp4227
(lp4228
s(S'NKX2-1'
p4229
S'POU2F1'
p4230
S'increases'
p4231
tp4232
(lp4233
s(S'VSX1'
p4234
S'MAX'
p4235
S'increases'
p4236
tp4237
(lp4238
s(S'FOXD1'
p4239
S'FOXD3'
p4240
S'increases'
p4241
tp4242
(lp4243
s(S'MAX'
p4244
S'NRAS'
p4245
S'increases'
p4246
tp4247
(lp4248
s(S'HOXA9'
p4249
S'TCF3'
p4250
S'increases'
p4251
tp4252
(lp4253
s(S'IRF1'
p4254
S'CYP26A1'
p4255
S'increases'
p4256
tp4257
(lp4258
s(S'HRAS'
p4259
S'RAF1'
p4260
S'adds_modification'
p4261
tp4262
(lp4263
s(S'CUX1'
p4264
S'HOXA9'
p4265
S'increases'
p4266
tp4267
(lp4268
s(S'ZHX2'
p4269
S'FOXA1'
p4270
S'increases'
p4271
tp4272
(lp4273
s(S'TFDP1'
p4274
S'MYC'
p4275
S'increases'
p4276
tp4277
(lp4278
s(S'RAC1/GTP'
p4279
S'PAK1'
p4280
S'increases_activity'
p4281
tp4282
(lp4283
s(S'AHR'
p4284
S'MAZ'
p4285
S'increases'
p4286
tp4287
(lp4288
s(S'BRAF/14-3-3'
p4289
S'KSR/14-3-3 /MEK1-2'
p4290
S'increases_activity'
p4291
tp4292
(lp4293
s(S'PPARA'
p4294
S'CYP26A1'
p4295
S'increases'
p4296
tp4297
(lp4298
s(S'REPIN1'
p4299
S'SRF'
p4300
S'increases'
p4301
tp4302
(lp4303
s(S'PAX5'
p4304
S'SRF'
p4305
S'increases'
p4306
tp4307
(lp4308
s(S'PAX4'
p4309
S'FOXJ2'
p4310
S'increases'
p4311
tp4312
(lp4313
s(S'REPIN1'
p4314
S'MYCN'
p4315
S'increases'
p4316
tp4317
(lp4318
s(S'RALA/GTP'
p4319
S'SRC'
p4320
S'adds_modification'
p4321
tp4322
(lp4323
s(S'FOXO4'
p4324
S'ETS1'
p4325
S'increases'
p4326
tp4327
(lp4328
s(S'TFDP1'
p4329
S'CDC5L'
p4330
S'increases'
p4331
tp4332
(lp4333
s(S'TFDP1'
p4334
S'CYP26A1'
p4335
S'increases'
p4336
tp4337
(lp4338
s(S'GATA6'
p4339
S'RUNX2'
p4340
S'increases'
p4341
tp4342
(lp4343
s(S'FOXM1'
p4344
S'CYP26A1'
p4345
S'increases'
p4346
tp4347
(lp4348
s(S'sodium arsenite'
p4349
S'HRAS PROTEIN'
p4350
S'increases'
p4351
tp4352
(lp4353
s(S'STAT5A'
p4354
S'RUNX1'
p4355
S'increases'
p4356
tp4357
(lp4358
s(S'CEBPA'
p4359
S'EN1'
p4360
S'increases'
p4361
tp4362
(lp4363
s(S'MSX1'
p4364
S'POU2F1'
p4365
S'increases'
p4366
tp4367
(lp4368
s(S'NHLH1'
p4369
S'CBFA2T3'
p4370
S'increases'
p4371
tp4372
(lp4373
s(S'Parathion'
p4374
S'HRAS PROTEIN'
p4375
S'increases'
p4376
tp4377
(lp4378
s(S'SMAD4'
p4379
S'CYP26A1'
p4380
S'increases'
p4381
tp4382
(lp4383
s(S'E2F1'
p4384
S'MYC'
p4385
S'increases'
p4386
tp4387
(lp4388
s(S'CYP26A1'
p4389
S'FOXO3'
p4390
S'increases'
p4391
tp4392
(lp4393
s(S'TCF3'
p4394
S'CBFA2T3'
p4395
S'increases'
p4396
tp4397
(lp4398
s(S'ZHX2'
p4399
S'FOXF2'
p4400
S'increases'
p4401
tp4402
(lp4403
s(S'POU2F1'
p4404
S'MECOM'
p4405
S'increases'
p4406
tp4407
(lp4408
s(S'CYP26A1'
p4409
S'POU2F1'
p4410
S'increases'
p4411
tp4412
(lp4413
s(S'MYOD1'
p4414
S'CYP26A1'
p4415
S'increases'
p4416
tp4417
(lp4418
s(S'RAF'
p4419
S'COMPLEX (RAS/GTP)'
p4420
S'binds'
p4421
tp4422
(lp4423
s(S'RET51/GFRalpha1/GDNF/DOK1'
p4424
S'HRAS/GDP'
p4425
S'increases_activity'
p4426
tp4427
(lp4428
s(S'MAFG'
p4429
S'CYP26A1'
p4430
S'increases'
p4431
tp4432
(lp4433
s(S'CRX'
p4434
S'CYP26A1'
p4435
S'increases'
p4436
tp4437
(lp4438
s(S'hsa-miR-126-3p'
p4439
S'KRAS'
p4440
S'decreases'
p4441
tp4442
(lp4443
s(S'EBF2'
p4444
S'CYP26A1'
p4445
S'increases'
p4446
tp4447
(lp4448
s(S'RUNX1'
p4449
S'CYP26A1'
p4450
S'increases'
p4451
tp4452
(lp4453
s(S'HOXA5'
p4454
S'FOXA1'
p4455
S'increases'
p4456
tp4457
(lp4458
s(S'benzo(a)pyrene-3,6-quinone'
p4459
S'HRAS MRNA'
p4460
S'increases'
p4461
tp4462
(lp4463
s(S'K 7174'
p4464
S'HRAS MRNA'
p4465
S'decreases'
p4466
tp4467
(lp4468
s(S'LEF1'
p4469
S'NRAS'
p4470
S'increases'
p4471
tp4472
(lp4473
s(S'SPI1'
p4474
S'FOXA1'
p4475
S'increases'
p4476
tp4477
(lp4478
s(S'hsa-let-7b-5p'
p4479
S'NRAS'
p4480
S'decreases'
p4481
tp4482
(lp4483
s(S'CEBPA'
p4484
S'JUN'
p4485
S'increases'
p4486
tp4487
(lp4488
s(S'GABPB2'
p4489
S'CYP26A1'
p4490
S'increases'
p4491
tp4492
(lp4493
s(S'PI-3-4-5-P3'
p4494
S'MTOR'
p4495
S'increases_activity'
p4496
tp4497
(lp4498
s(S'GRB2:SOS1'
p4499
S'EGF:P-6Y-EGFR'
p4500
S'binds'
p4501
tp4502
(lp4503
s(S'HNF1A'
p4504
S'CYP26A1'
p4505
S'increases'
p4506
tp4507
(lp4508
s(S'HIF1A'
p4509
S'FOXO4'
p4510
S'increases'
p4511
tp4512
(lp4513
s(S'FOXJ1'
p4514
S'HOXA9'
p4515
S'increases'
p4516
tp4517
(lp4518
s(S'hsa-miR-96-5p'
p4519
S'KRAS'
p4520
S'decreases'
p4521
tp4522
(lp4523
s(S'SRC'
p4524
S'SYNDECAN-2/RASGAP'
p4525
S'binds'
p4526
tp4527
(lp4528
s(S'FOXA1'
p4529
S'MEIS1'
p4530
S'increases'
p4531
tp4532
(lp4533
s(S'LEF1'
p4534
S'MEIS1'
p4535
S'increases'
p4536
tp4537
(lp4538
s(S'PAX3'
p4539
S'CYP26A1'
p4540
S'increases'
p4541
tp4542
(lp4543
s(S'PAX4'
p4544
S'HOXA9'
p4545
S'increases'
p4546
tp4547
(lp4548
s(S'hsa-miR-18a-3p'
p4549
S'KRAS'
p4550
S'decreases'
p4551
tp4552
(lp4553
s(S'FOXF2'
p4554
S'EN1'
p4555
S'increases'
p4556
tp4557
(lp4558
s(S'Pyk2'
p4559
S'SRC FAMILY KINASES'
p4560
S'increases_activity'
p4561
tp4562
(lp4563
s(S'TP53'
p4564
S'HOXA9'
p4565
S'increases'
p4566
tp4567
(lp4568
s(S'Genistein'
p4569
S'KRAS MRNA'
p4570
S'decreases'
p4571
tp4572
(lp4573
s(S'POU1F1'
p4574
S'CYP26A1'
p4575
S'increases'
p4576
tp4577
(lp4578
s(S'manumycin'
p4579
S'KRAS PROTEIN'
p4580
S'decreases_activity'
p4581
tp4582
(lp4583
s(S'Ginkgo biloba extract 761'
p4584
S'GCLC PROTEIN'
p4585
S'increases'
p4586
tp4587
(lp4588
s(S'GATA1'
p4589
S'NRAS'
p4590
S'increases'
p4591
tp4592
(lp4593
s(S'CBFA2T3'
p4594
S'FOXF2'
p4595
S'increases'
p4596
tp4597
(lp4598
s(S'PCBP1'
p4599
S'ELK1'
p4600
S'increases'
p4601
tp4602
(lp4603
s(S'MYC'
p4604
S'FOXF2'
p4605
S'increases'
p4606
tp4607
(lp4608
s(S'hsa-mir-622'
p4609
S'KRAS'
p4610
S'decreases'
p4611
tp4612
(lp4613
s(S'TCF3'
p4614
S'MAZ'
p4615
S'increases'
p4616
tp4617
(lp4618
s(S'STAT2'
p4619
S'MEIS1'
p4620
S'increases'
p4621
tp4622
(lp4623
s(S'CYP26A1'
p4624
S'YY1'
p4625
S'increases'
p4626
tp4627
(lp4628
s(S'CYP26A1'
p4629
S'EN1'
p4630
S'increases'
p4631
tp4632
(lp4633
s(S'GRB2/SOS1'
p4634
S'SHC'
p4635
S'binds'
p4636
tp4637
(lp4638
s(S'BAD'
p4639
S'YWHAZ'
p4640
S'binds'
p4641
tp4642
(lp4643
s(S'SPI1'
p4644
S'MAX'
p4645
S'increases'
p4646
tp4647
(lp4648
s(S'PI-3-4-5-P3'
p4649
S'CENTA1'
p4650
S'translocates'
p4651
tp4652
(lp4653
s(S'XBP1'
p4654
S'CYP26A1'
p4655
S'increases'
p4656
tp4657
(lp4658
s(S'PAX4'
p4659
S'NRAS'
p4660
S'increases'
p4661
tp4662
(lp4663
s(S'PI3K'
p4664
S'EPHRIN A1/EPHA2'
p4665
S'binds'
p4666
tp4667
(lp4668
s(S'POU1F1'
p4669
S'MEIS1'
p4670
S'increases'
p4671
tp4672
(lp4673
s(S'NR3C1'
p4674
S'ETS1'
p4675
S'increases'
p4676
tp4677
(lp4678
s(S'MAZ'
p4679
S'POU3F2'
p4680
S'increases'
p4681
tp4682
(lp4683
s(S'Estradiol'
p4684
S'HRAS MRNA'
p4685
S'increases'
p4686
tp4687
(lp4688
s(S'Aflatoxin B1'
p4689
S'HRAS PROTEIN'
p4690
S'increases'
p4691
tp4692
(lp4693
s(S'ETV7'
p4694
S'STAT4'
p4695
S'increases'
p4696
tp4697
(lp4698
s(S'PBX1'
p4699
S'LEF1'
p4700
S'increases'
p4701
tp4702
(lp4703
s(S'CEBPB'
p4704
S'CYP26A1'
p4705
S'increases'
p4706
tp4707
(lp4708
s(S'MAZ'
p4709
S'JUN'
p4710
S'increases'
p4711
tp4712
(lp4713
s(S'FOXF2'
p4714
S'MYC'
p4715
S'increases'
p4716
tp4717
(lp4718
s(S'FOXJ2'
p4719
S'HOXA9'
p4720
S'increases'
p4721
tp4722
(lp4723
s(S'Capsaicin'
p4724
S'HRAS MRNA'
p4725
S'increases'
p4726
tp4727
(lp4728
s(S'POU3F1'
p4729
S'GATA6'
p4730
S'increases'
p4731
tp4732
(lp4733
s(S'EIF2A'
p4734
S'14-3-3 E'
p4735
S'binds'
p4736
tp4737
(lp4738
s(S'RAS family/GTP'
p4739
S'RAF1-BRAF'
p4740
S'increases_activity'
p4741
tp4742
(lp4743
s(S'GATA6'
p4744
S'GATA1'
p4745
S'increases'
p4746
tp4747
(lp4748
s(S'RASA1'
p4749
S'PHOSPHO PDGF BETA RECEPTOR: PDGF CHAIN B HOMODIMER'
p4750
S'binds'
p4751
tp4752
(lp4753
s(S'CART1'
p4754
S'POU2F1'
p4755
S'increases'
p4756
tp4757
(lp4758
s(S'ZIC3'
p4759
S'POU2F1'
p4760
S'increases'
p4761
tp4762
(lp4763
s(S'TCF4'
p4764
S'FOXA1'
p4765
S'increases'
p4766
tp4767
(lp4768
s(S'PKC theta'
p4769
S'RASGRP1'
p4770
S'adds_modification'
p4771
tp4772
(lp4773
s(S'PTF1A'
p4774
S'STAT5A'
p4775
S'increases'
p4776
tp4777
(lp4778
s(S'SPI1'
p4779
S'FOXO4'
p4780
S'increases'
p4781
tp4782
(lp4783
s(S'HNF1A'
p4784
S'GATA6'
p4785
S'increases'
p4786
tp4787
(lp4788
s(S'FOXJ1'
p4789
S'RUNX1'
p4790
S'increases'
p4791
tp4792
(lp4793
s(S'STAT2'
p4794
S'GATA6'
p4795
S'increases'
p4796
tp4797
(lp4798
s(S'RAS FAMILY/GTP'
p4799
S'PI3K'
p4800
S'binds'
p4801
tp4802
(lp4803
s(S'PAX4'
p4804
S'IRF1'
p4805
S'increases'
p4806
tp4807
(lp4808
s(S'PAX3'
p4809
S'HOXA9'
p4810
S'increases'
p4811
tp4812
(lp4813
s(S'MYB'
p4814
S'MAZ'
p4815
S'increases'
p4816
tp4817
(lp4818
s(S"Guanosine-5'-Triphosphate"
p4819
S'HRAS'
p4820
S'increases_activity'
p4821
tp4822
(lp4823
s(S'alpha9/beta1 Integrin/Tenascin C'
p4824
S'SRC'
p4825
S'adds_modification'
p4826
tp4827
(lp4828
s(S'RAF1'
p4829
S'MEK1'
p4830
S'adds_modification'
p4831
tp4832
(lp4833
s(S'JUN'
p4834
S'FOXA1'
p4835
S'increases'
p4836
tp4837
(lp4838
s(S'NFE2L2'
p4839
S'BACH1'
p4840
S'increases'
p4841
tp4842
(lp4843
s(S'CUX1'
p4844
S'FOXD3'
p4845
S'increases'
p4846
tp4847
(lp4848
s(S'JUN'
p4849
S'EN1'
p4850
S'increases'
p4851
tp4852
(lp4853
s(S'ESR1'
p4854
S'CYP26A1'
p4855
S'increases'
p4856
tp4857
(lp4858
s(S'ESRRA'
p4859
S'FOXA1'
p4860
S'increases'
p4861
tp4862
(lp4863
s(S'POU2F1'
p4864
S'MEIS1'
p4865
S'increases'
p4866
tp4867
(lp4868
s(S'TFCP2'
p4869
S'FOXA1'
p4870
S'increases'
p4871
tp4872
(lp4873
s(S'PI-3-4-5-P3'
p4874
S'PDK1'
p4875
S'increases_activity'
p4876
tp4877
(lp4878
s(S'TCF3'
p4879
S'FOXA1'
p4880
S'increases'
p4881
tp4882
(lp4883
s(S'STAT3'
p4884
S'CYP26A1'
p4885
S'increases'
p4886
tp4887
(lp4888
s(S'CYP26A1'
p4889
S'POU3F2'
p4890
S'increases'
p4891
tp4892
(lp4893
s(S'Curcumin'
p4894
S'KRAS MRNA'
p4895
S'decreases'
p4896
tp4897
(lp4898
s(S'STAT1'
p4899
S'CYP26A1'
p4900
S'increases'
p4901
tp4902
(lp4903
s(S'GFI1'
p4904
S'POU2F1'
p4905
S'increases'
p4906
tp4907
(lp4908
s(S'ZIC1'
p4909
S'POU2F1'
p4910
S'increases'
p4911
tp4912
(lp4913
s(S'PI-3-4-5-P3'
p4914
S'AKT3'
p4915
S'adds_modification'
p4916
tp4917
(lp4918
s(S'BACH1'
p4919
S'NRAS'
p4920
S'increases'
p4921
tp4922
(lp4923
s(S'SCF/KIT'
p4924
S'SHC/GRB2/SOS1'
p4925
S'increases_activity'
p4926
tp4927
(lp4928
s(S'CDX2'
p4929
S'CYP26A1'
p4930
S'increases'
p4931
tp4932
(lp4933
s(S'RET51/GFRalpha1/GDNF/DOK/RasGAP/NCK'
p4934
S'HRAS/GDP'
p4935
S'decreases_activity'
p4936
tp4937
(lp4938
s(S'BETAPIX'
p4939
S'RAC1/GTP'
p4940
S'binds'
p4941
tp4942
(lp4943
s(S'RHOA/GTP'
p4944
S'CITRON'
p4945
S'increases_activity'
p4946
tp4947
(lp4948
s(S'P-SHC1:GRB2:SOS'
p4949
S'P-5Y-LAT-2'
p4950
S'binds'
p4951
tp4952
(lp4953
s(S'PAX4'
p4954
S'CYP26A1'
p4955
S'increases'
p4956
tp4957
(lp4958
s(S'TCF3'
p4959
S'KRAS'
p4960
S'increases'
p4961
tp4962
(lp4963
s(S'GRB2:SOS1'
p4964
S'PHOSPHORYLATED ERBB2:ERBB4 HETERODIMERS'
p4965
S'binds'
p4966
tp4967
(lp4968
s(S'CDX2'
p4969
S'MEIS1'
p4970
S'increases'
p4971
tp4972
(lp4973
s(S'SP3'
p4974
S'RUNX1'
p4975
S'increases'
p4976
tp4977
(lp4978
s(S'REST'
p4979
S'CYP26A1'
p4980
S'increases'
p4981
tp4982
(lp4983
s(S'PTF1A'
p4984
S'CYP26A1'
p4985
S'increases'
p4986
tp4987
(lp4988
s(S'PI-3-4-5-P3'
p4989
S'PI3K/GAB1'
p4990
S'translocates'
p4991
tp4992
(lp4993
s(S'LMO2'
p4994
S'FOXO4'
p4995
S'increases'
p4996
tp4997
(lp4998
s(S'STAT4'
p4999
S'ETS1'
p5000
S'increases'
p5001
tp5002
(lp5003
s(S'GTF2A2'
p5004
S'HOXA9'
p5005
S'increases'
p5006
tp5007
(lp5008
s(S'FOXF2'
p5009
S'POU3F2'
p5010
S'increases'
p5011
tp5012
(lp5013
s(S'GATA1'
p5014
S'GABPB2'
p5015
S'increases'
p5016
tp5017
(lp5018
s(S'Polychlorinated Biphenyls'
p5019
S'KRAS MRNA'
p5020
S'decreases'
p5021
tp5022
(lp5023
s(S'GRB2/SOS1'
p5024
S'EGF/EGFR DIMER/SHC'
p5025
S'binds'
p5026
tp5027
(lp5028
s(S'CYP26A1'
p5029
S'FOXF2'
p5030
S'increases'
p5031
tp5032
(lp5033
s(S'EGR1'
p5034
S'CYP26A1'
p5035
S'increases'
p5036
tp5037
(lp5038
s(S'MAX'
p5039
S'FOXO3'
p5040
S'increases'
p5041
tp5042
(lp5043
s(S'T-DHT/AR/PELP1'
p5044
S'SRC'
p5045
S'binds'
p5046
tp5047
(lp5048
s(S'CUX1'
p5049
S'FOXF2'
p5050
S'increases'
p5051
tp5052
(lp5053
s(S'CEBPD'
p5054
S'CYP26A1'
p5055
S'increases'
p5056
tp5057
(lp5058
s(S'CBFA2T3'
p5059
S'NRAS'
p5060
S'increases'
p5061
tp5062
(lp5063
s(S'Cisplatin'
p5064
S'HRAS MRNA'
p5065
S'translocates'
p5066
tp5067
(lp5068
s(S'BAD/BCL-X(L)'
p5069
S'YWHAZ'
p5070
S'binds'
p5071
tp5072
(lp5073
s(S'GATA1'
p5074
S'FOXA1'
p5075
S'increases'
p5076
tp5077
(lp5078
s(S'RREB1'
p5079
S'CYP26A1'
p5080
S'increases'
p5081
tp5082
(lp5083
s(S'STAT4'
p5084
S'RUNX2'
p5085
S'increases'
p5086
tp5087
(lp5088
s(S'FOXD3'
p5089
S'NRAS'
p5090
S'increases'
p5091
tp5092
(lp5093
s(S'NDEL1'
p5094
S'14-3-3 E'
p5095
S'binds'
p5096
tp5097
(lp5098
s(S'CYP26A1'
p5099
S'REPIN1'
p5100
S'increases'
p5101
tp5102
(lp5103
s(S'MAF'
p5104
S'CDC5L'
p5105
S'increases'
p5106
tp5107
(lp5108
s(S'CYP26A1'
p5109
S'ELK1'
p5110
S'increases'
p5111
tp5112
(lp5113
s(S'MYC'
p5114
S'FOXD3'
p5115
S'increases'
p5116
tp5117
(lp5118
s(S'MAX'
p5119
S'FOXD3'
p5120
S'increases'
p5121
tp5122
(lp5123
s(S'POU1F1'
p5124
S'GATA6'
p5125
S'increases'
p5126
tp5127
(lp5128
s(S'POU2F1'
p5129
S'STAT4'
p5130
S'increases'
p5131
tp5132
(lp5133
s(S'GTF3A'
p5134
S'FOXO3'
p5135
S'increases'
p5136
tp5137
(lp5138
s(S'MYB'
p5139
S'FOXF2'
p5140
S'increases'
p5141
tp5142
(lp5143
s(S'ZIC3'
p5144
S'CYP26A1'
p5145
S'increases'
p5146
tp5147
(lp5148
s(S'POU2F1'
p5149
S'EN1'
p5150
S'increases'
p5151
tp5152
(lp5153
s(S'JUN'
p5154
S'STAT1'
p5155
S'increases'
p5156
tp5157
(lp5158
s(S'TEF'
p5159
S'CYP26A1'
p5160
S'increases'
p5161
tp5162
(lp5163
s(S'MAF'
p5164
S'CYP26A1'
p5165
S'increases'
p5166
tp5167
(lp5168
s(S'PAX4'
p5169
S'GATA6'
p5170
S'increases'
p5171
tp5172
(lp5173
s(S'ZIC2'
p5174
S'GATA6'
p5175
S'increases'
p5176
tp5177
(lp5178
s(S'hsa-miR-181d-5p'
p5179
S'HRAS'
p5180
S'decreases'
p5181
tp5182
(lp5183
s(S'BACH2'
p5184
S'CYP26A1'
p5185
S'increases'
p5186
tp5187
(lp5188
s(S'TCF12'
p5189
S'CYP26A1'
p5190
S'increases'
p5191
tp5192
(lp5193
s(S'GATA1'
p5194
S'FOXO4'
p5195
S'increases'
p5196
tp5197
(lp5198
s(S'RFX1'
p5199
S'FOXD3'
p5200
S'increases'
p5201
tp5202
(lp5203
s(S'FOXJ1'
p5204
S'CYP26A1'
p5205
S'increases'
p5206
tp5207
(lp5208
s(S'GTF2A2'
p5209
S'POU2F1'
p5210
S'increases'
p5211
tp5212
(lp5213
s(S'YY1'
p5214
S'SRF'
p5215
S'increases'
p5216
tp5217
(lp5218
s(S'AHR'
p5219
S'REPIN1'
p5220
S'increases'
p5221
tp5222
(lp5223
s(S'MAZ'
p5224
S'CYP26A1'
p5225
S'increases'
p5226
tp5227
(lp5228
s(S'Quercetin'
p5229
S'HRAS MRNA'
p5230
S'increases'
p5231
tp5232
(lp5233
s(S'ELK1'
p5234
S'NRAS'
p5235
S'increases'
p5236
tp5237
(lp5238
s(S'HIF1A'
p5239
S'ONECUT1'
p5240
S'increases'
p5241
tp5242
(lp5243
s(S'FOXF2'
p5244
S'CYP26A1'
p5245
S'increases'
p5246
tp5247
(lp5248
s(S'SOX9'
p5249
S'ETS1'
p5250
S'increases'
p5251
tp5252
(lp5253
s(S'HSF1'
p5254
S'JUN'
p5255
S'increases'
p5256
tp5257
(lp5258
s(S'CEBPA'
p5259
S'CYP26A1'
p5260
S'increases'
p5261
tp5262
(lp5263
s(S'NR1H4'
p5264
S'MEIS1'
p5265
S'increases'
p5266
tp5267
(lp5268
s(S'SMAD1'
p5269
S'GATA1'
p5270
S'increases'
p5271
tp5272
(lp5273
s(S'Quercetin'
p5274
S'HRAS MRNA'
p5275
S'decreases'
p5276
tp5277
(lp5278
s(S'Glycyrrhetinic Acid'
p5279
S'HRAS PROTEIN'
p5280
S'decreases'
p5281
tp5282
(lp5283
s(S'HOXA4'
p5284
S'POU2F1'
p5285
S'increases'
p5286
tp5287
(lp5288
s(S'FOXQ1'
p5289
S'CYP26A1'
p5290
S'increases'
p5291
tp5292
(lp5293
s(S'FOXI1'
p5294
S'CEBPA'
p5295
S'increases'
p5296
tp5297
(lp5298
s(S'GTF3A'
p5299
S'MYCN'
p5300
S'increases'
p5301
tp5302
(lp5303
s(S'LMO2'
p5304
S'IRF1'
p5305
S'increases'
p5306
tp5307
(lp5308
s(S'FOXO1'
p5309
S'CYP26A1'
p5310
S'increases'
p5311
tp5312
(lp5313
s(S'Copper Sulfate'
p5314
S'NRAS MRNA'
p5315
S'increases'
p5316
tp5317
(lp5318
s(S'TFAP2A'
p5319
S'CYP26A1'
p5320
S'increases'
p5321
tp5322
(lp5323
s(S'FOXJ1'
p5324
S'EN1'
p5325
S'increases'
p5326
tp5327
(lp5328
s(S'MEIS1'
p5329
S'RUNX1'
p5330
S'increases'
p5331
tp5332
(lp5333
s(S'MAZ'
p5334
S'FOXA1'
p5335
S'increases'
p5336
tp5337
(lp5338
s(S'ETS1'
p5339
S'FOXO4'
p5340
S'increases'
p5341
tp5342
(lp5343
s(S'ZBTB14'
p5344
S'FOXD3'
p5345
S'increases'
p5346
tp5347
(lp5348
s(S'FOXC1'
p5349
S'LEF1'
p5350
S'increases'
p5351
tp5352
(lp5353
s(S'IRF1'
p5354
S'EN1'
p5355
S'increases'
p5356
tp5357
(lp5358
s(S'NR3C1'
p5359
S'CYP26A1'
p5360
S'increases'
p5361
tp5362
(lp5363
s(S'VSX1'
p5364
S'BACH1'
p5365
S'increases'
p5366
tp5367
(lp5368
s(S'CYP26A1'
p5369
S'ETS1'
p5370
S'increases'
p5371
tp5372
(lp5373
s(S'CEBPA'
p5374
S'MEIS1'
p5375
S'increases'
p5376
tp5377
(lp5378
s(S'ELF1'
p5379
S'FOXO4'
p5380
S'increases'
p5381
tp5382
(lp5383
s(S'RXRA'
p5384
S'CYP26A1'
p5385
S'increases'
p5386
tp5387
(lp5388
s(S'CREB1'
p5389
S'CYP26A1'
p5390
S'increases'
p5391
tp5392
(lp5393
s(S'IRF7'
p5394
S'GATA6'
p5395
S'increases'
p5396
tp5397
(lp5398
s(S'ZEB1'
p5399
S'CYP26A1'
p5400
S'increases'
p5401
tp5402
(lp5403
s(S'AR'
p5404
S'CYP26A1'
p5405
S'increases'
p5406
tp5407
(lp5408
s(S'TFDP2'
p5409
S'MYC'
p5410
S'increases'
p5411
tp5412
(lp5413
s(S'hsa-mir-217'
p5414
S'KRAS'
p5415
S'decreases'
p5416
tp5417
(lp5418
s(S'MEK'
p5419
S'ERK'
p5420
S'adds_modification'
p5421
tp5422
(lp5423
g1744
ag653
ag654
aS'During retinal regeneration in adult newts, the proto-oncogenes FGF2, FGFR-1/2, MEK1/2, ERK1/2, Hes-1, Notch-1 and Musashi-1, along with retinal transcription factors and stem cell markers such as Pax6 and Chx10, are expressed in RPE-derived cells (Chiba et al. '
p5424
ag656
ag657
ag658
aS'Concomitant conformational changes stimulate their serine/threonine kinase activity, dimerization and trigger sequential phosphorylation and activation of their targets MEK and ERK '
p5425
ag659
aS'Furthermore, studies have demonstrated that also the KSR (kinase suppressor of Ras) scaffold, which maintains the co-localization of RAF, MEK, and ERK during ERK activation, interacts with mTOR, RAPTOR, RICTOR, and the TSC2-activating kinases AMPK and GSK3 '
p5426
ag662
ag663
aS'The downstream pathways activated by ALK include PI3K/Akt, MEK/ERK and the JAK/STAT pathways which lead to cell proliferation and cell survival'
p5427
aS'The downstream signals of EGFR such as phosphorylation of MEK1/2 and ERK1/2 were also inhibited by wogonin or apigenin.'
p5428
aS'EGFR, p-EGFR, p-MEK1/2, and p-ERK1/2 antibodies were purchased from Cell Signaling Technology Inc. (Danvers, MA, USA).'
p5429
aS'Culture medium and 0.5% DMSO did not affect the phosphorylations of EGFR, MEK1/2, and ERK1/2 in NCI-H292 cells.'
p5430
ag664
ag665
ag666
ag667
aS'The raf-1/MEK/ERK pathway has long been recognized for its role in cancer biology.'
p5431
aS'FGFR/MEK/ERK signal-transduction pathways appear to mediate downstream signaling of brachyury in chordomas.'
p5432
ag668
aS'Activation of the ERK pathway was shown to be MEK-dependent since cells pre-treated with the MEK inhibitor U0126 did not activate ERK.'
p5433
ag670
aS'Previous reports indicate that ET impaired cell signaling by reducing the activation of ERK, MEK, and JNK in murine T cells in a cAMP dependent manner ['
p5434
as(S'ZBTB18'
p5435
S'ONECUT1'
p5436
S'increases'
p5437
tp5438
(lp5439
s(S'TGIF'
p5440
S'MAX'
p5441
S'increases'
p5442
tp5443
(lp5444
s(S'ETS1'
p5445
S'NRAS'
p5446
S'increases'
p5447
tp5448
(lp5449
s(S'KLF12'
p5450
S'GATA1'
p5451
S'increases'
p5452
tp5453
(lp5454
s(S'HRAS/GTP'
p5455
S'PAK2'
p5456
S'increases_activity'
p5457
tp5458
(lp5459
s(S'CYP26A1'
p5460
S'FOXD3'
p5461
S'increases'
p5462
tp5463
(lp5464
s(S'LMO2'
p5465
S'RUNX1'
p5466
S'increases'
p5467
tp5468
(lp5469
s(S'MLK3'
p5470
S'MKK3/6'
p5471
S'adds_modification'
p5472
tp5473
(lp5474
s(S'TAK'
p5475
S'MKK3/6'
p5476
S'adds_modification'
p5477
tp5478
(lp5479
s(S'GRB2:SOS1'
p5480
S'HB-EGF:P-6Y-EGFR DIMER'
p5481
S'binds'
p5482
tp5483
(lp5484
s(S'FOXO4'
p5485
S'NRAS'
p5486
S'increases'
p5487
tp5488
(lp5489
s(S'MECOM'
p5490
S'NRAS'
p5491
S'increases'
p5492
tp5493
(lp5494
s(S'KLF12'
p5495
S'CYP26A1'
p5496
S'increases'
p5497
tp5498
(lp5499
s(S'RAS family/GTP/PI3K'
p5500
S'TRPV1'
p5501
S'adds_modification'
p5502
tp5503
(lp5504
s(S'hsa-let-7a-5p'
p5505
S'NRAS'
p5506
S'decreases'
p5507
tp5508
(lp5509
s(S'NF1'
p5510
S'HOXA9'
p5511
S'increases'
p5512
tp5513
(lp5514
s(S'REPIN1'
p5515
S'FOXD3'
p5516
S'increases'
p5517
tp5518
(lp5519
s(S'CYP26A1'
p5520
S'FOXJ2'
p5521
S'increases'
p5522
tp5523
(lp5524
s(S'FOXO4'
p5525
S'MEIS1'
p5526
S'increases'
p5527
tp5528
(lp5529
s(S'EBF2'
p5530
S'MECOM'
p5531
S'increases'
p5532
tp5533
(lp5534
s(S'ETS1'
p5535
S'FOXO3'
p5536
S'increases'
p5537
tp5538
(lp5539
s(S'SP3'
p5540
S'CYP26A1'
p5541
S'increases'
p5542
tp5543
(lp5544
s(S'LNXp80'
p5545
S'NUMB'
p5546
S'decreases'
p5547
tp5548
(lp5549
s(S'RUNX2'
p5550
S'CYP26A1'
p5551
S'increases'
p5552
tp5553
(lp5554
s(S'AHR'
p5555
S'FOXO3'
p5556
S'increases'
p5557
tp5558
(lp5559
s(S'VSX1'
p5560
S'FOXF2'
p5561
S'increases'
p5562
tp5563
(lp5564
s(S'BPTF'
p5565
S'RUNX1'
p5566
S'increases'
p5567
tp5568
(lp5569
s(S'7,8-Dihydro-7,8-dihydroxybenzo(a)pyrene 9,10-oxide'
p5570
S'HRAS PROTEIN'
p5571
S'increases'
p5572
tp5573
(lp5574
s(S'TCF3'
p5575
S'POU3F2'
p5576
S'increases'
p5577
tp5578
(lp5579
s(S'TCF3'
p5580
S'IRF1'
p5581
S'increases'
p5582
tp5583
(lp5584
s(S'SREBF1'
p5585
S'EN1'
p5586
S'increases'
p5587
tp5588
(lp5589
s(S'FOXO4'
p5590
S'RUNX2'
p5591
S'increases'
p5592
tp5593
(lp5594
s(S'hsa-miR-181a-5p'
p5595
S'HRAS'
p5596
S'decreases'
p5597
tp5598
(lp5599
s(S'Myb'
p5600
S'NRAS'
p5601
S'decreases'
p5602
tp5603
(lp5604
s(S'HSPA8'
p5605
S'ADP'
p5606
S'binds'
p5607
tp5608
(lp5609
s(S'SOCS3'
p5610
S'RASGAP'
p5611
S'binds'
p5612
tp5613
(lp5614
s(S'ONECUT1'
p5615
S'NRAS'
p5616
S'increases'
p5617
tp5618
(lp5619
s(S'PITX2'
p5620
S'EN1'
p5621
S'increases'
p5622
tp5623
(lp5624
s(S'HGF(dimer)/MET(dimer)'
p5625
S'SRC'
p5626
S'adds_modification'
p5627
tp5628
(lp5629
s(S'2-amino-1-methyl-6-phenylimidazo(4,5-b)pyridine'
p5630
S'HRAS PROTEIN'
p5631
S'increases'
p5632
tp5633
(lp5634
s(S'GFI1'
p5635
S'POU3F2'
p5636
S'increases'
p5637
tp5638
(lp5639
s(S'FARNESYL DIPHOSPHATE'
p5640
S'KRAS'
p5641
S'increases_activity'
p5642
tp5643
(lp5644
s(S'IL2/IL2R BETA/GAMMA/JAK1/LCK/JAK3'
p5645
S'PI3K'
p5646
S'binds'
p5647
tp5648
(lp5649
s(S'GTF3A'
p5650
S'MECOM'
p5651
S'increases'
p5652
tp5653
(lp5654
s(S'EGR2'
p5655
S'CYP26A1'
p5656
S'increases'
p5657
tp5658
(lp5659
s(S'RUNX1'
p5660
S'FOXF2'
p5661
S'increases'
p5662
tp5663
(lp5664
s(S'IL3/IL3RA/CSF2RB (DODECAMER)'
p5665
S'YWHAZ'
p5666
S'binds'
p5667
tp5668
(lp5669
s(S'RAF1'
p5670
S'BRAF'
p5671
S'binds'
p5672
tp5673
(lp5674
s(S'MYC'
p5675
S'CYP26A1'
p5676
S'increases'
p5677
tp5678
(lp5679
s(S'UBP1'
p5680
S'CYP26A1'
p5681
S'increases'
p5682
tp5683
(lp5684
s(S'MTF1'
p5685
S'REPIN1'
p5686
S'increases'
p5687
tp5688
(lp5689
s(S'HNF1A'
p5690
S'RUNX1'
p5691
S'increases'
p5692
tp5693
(lp5694
s(S'NHLH1'
p5695
S'FOXA1'
p5696
S'increases'
p5697
tp5698
(lp5699
s(S'HLF'
p5700
S'FOXA1'
p5701
S'increases'
p5702
tp5703
(lp5704
s(S'MEIS1'
p5705
S'GATA6'
p5706
S'increases'
p5707
tp5708
(lp5709
s(S'PDGF-BB/PDGFRB (DIMER)/SHP2'
p5710
S'GRB2/SOS1'
p5711
S'binds'
p5712
tp5713
(lp5714
s(S'ZBTB14'
p5715
S'EN1'
p5716
S'increases'
p5717
tp5718
(lp5719
s(S'alpha6/beta4 Integrin'
p5720
S'HRAS/GDP'
p5721
S'increases_activity'
p5722
tp5723
(lp5724
s(S'ErbB2'
p5725
S'HRAS/GDP'
p5726
S'increases_activity'
p5727
tp5728
(lp5729
s(S'MEIS1'
p5730
S'FOXO3'
p5731
S'increases'
p5732
tp5733
(lp5734
s(S'RELA'
p5735
S'IRF1'
p5736
S'increases'
p5737
tp5738
(lp5739
s(S'MYCN'
p5740
S'FOXO3'
p5741
S'increases'
p5742
tp5743
(lp5744
s(S'RHOA/GTP'
p5745
S'DIA'
p5746
S'increases_activity'
p5747
tp5748
(lp5749
s(S'Fluorouracil'
p5750
S'KRAS PROTEIN'
p5751
S'decreases'
p5752
tp5753
(lp5754
s(S'ATF2'
p5755
S'CYP26A1'
p5756
S'increases'
p5757
tp5758
(lp5759
s(S'GNAI2/GTP'
p5760
S'SRC FAMILY KINASES'
p5761
S'increases_activity'
p5762
tp5763
(lp5764
s(S'HAND1'
p5765
S'POU2F1'
p5766
S'increases'
p5767
tp5768
(lp5769
s(S'PI5K Type 1 family'
p5770
S'PI-4-P'
p5771
S'translocates'
p5772
tp5773
(lp5774
s(S'HSF1'
p5775
S'CBFA2T3'
p5776
S'increases'
p5777
tp5778
(lp5779
s(S'BACH1'
p5780
S'FOXA1'
p5781
S'increases'
p5782
tp5783
(lp5784
s(S'PI-3-4-5-P3'
p5785
S'SGK1'
p5786
S'adds_modification'
p5787
tp5788
(lp5789
s(S'hsa-miR-20a-5p'
p5790
S'NRAS'
p5791
S'decreases'
p5792
tp5793
(lp5794
s(S'CYP26A1'
p5795
S'MECOM'
p5796
S'increases'
p5797
tp5798
(lp5799
s(S'FOXF2'
p5800
S'RUNX1'
p5801
S'increases'
p5802
tp5803
(lp5804
s(S'EGR2'
p5805
S'SRF'
p5806
S'increases'
p5807
tp5808
(lp5809
s(S'LEF1'
p5810
S'FOXD3'
p5811
S'increases'
p5812
tp5813
(lp5814
s(S'TFAP2C'
p5815
S'MECOM'
p5816
S'increases'
p5817
tp5818
(lp5819
s(S'SHC'
p5820
S'GRB2/SOS1'
p5821
S'binds'
p5822
tp5823
(lp5824
s(S'CA2+'
p5825
S'CAM'
p5826
S'binds'
p5827
tp5828
(lp5829
s(S'MYC'
p5830
S'POU3F2'
p5831
S'increases'
p5832
tp5833
(lp5834
s(S'PAX8'
p5835
S'HOXA9'
p5836
S'increases'
p5837
tp5838
(lp5839
s(S'TFDP2'
p5840
S'CDC5L'
p5841
S'increases'
p5842
tp5843
(lp5844
s(S'RAF1/14-3-3'
p5845
S'KSR/14-3-3 /MEK1-2'
p5846
S'increases_activity'
p5847
tp5848
(lp5849
s(S'DDIT3'
p5850
S'MEIS1'
p5851
S'increases'
p5852
tp5853
(lp5854
s(S'GNB1/GNG2'
p5855
S'HRAS/GDP'
p5856
S'increases_activity'
p5857
tp5858
(lp5859
s(S'ACTIVATED FGFR MUTANTS:P-FRS2ALPHA'
p5860
S'GRB2:SOS1'
p5861
S'binds'
p5862
tp5863
(lp5864
s(S'HIF1A'
p5865
S'CYP26A1'
p5866
S'increases'
p5867
tp5868
(lp5869
s(S'RAF1-BRAF'
p5870
S'ERK1-2'
p5871
S'increases_activity'
p5872
tp5873
(lp5874
s(S'SMAD4'
p5875
S'CBFA2T3'
p5876
S'increases'
p5877
tp5878
(lp5879
s(S'resveratrol'
p5880
S'HRAS PROTEIN'
p5881
S'increases'
p5882
tp5883
(lp5884
s(S'Malathion'
p5885
S'HRAS MRNA'
p5886
S'increases'
p5887
tp5888
(lp5889
s(S'NRF1'
p5890
S'FOXO4'
p5891
S'increases'
p5892
tp5893
(lp5894
s(S'CREB1'
p5895
S'JUN'
p5896
S'increases'
p5897
tp5898
(lp5899
s(S'CDC5L'
p5900
S'HOXA9'
p5901
S'increases'
p5902
tp5903
(lp5904
s(S'CDX2'
p5905
S'HOXA9'
p5906
S'increases'
p5907
tp5908
(lp5909
s(S'HMGA1'
p5910
S'POU2F1'
p5911
S'increases'
p5912
tp5913
(lp5914
s(S'Coumestrol'
p5915
S'KRAS MRNA'
p5916
S'decreases'
p5917
tp5918
(lp5919
s(S'LEF1'
p5920
S'FOXO3'
p5921
S'increases'
p5922
tp5923
(lp5924
s(S'CYP26A1'
p5925
S'MEIS1'
p5926
S'increases'
p5927
tp5928
(lp5929
s(S'GTF2A2'
p5930
S'MEIS1'
p5931
S'increases'
p5932
tp5933
(lp5934
s(S'REPIN1'
p5935
S'CBFA2T3'
p5936
S'increases'
p5937
tp5938
(lp5939
s(S'hsa-miR-143-3p'
p5940
S'HRAS'
p5941
S'decreases'
p5942
tp5943
(lp5944
s(S'[(3,7,11-TRIMETHYL-DODECA-2,6,10-TRIENYLOXYCARBAMOYL)-METHYL]-PHOSPHONIC ACID'
p5945
S'KRAS'
p5946
S'increases_activity'
p5947
tp5948
(lp5949
s(S'TFDP1'
p5950
S'ONECUT1'
p5951
S'increases'
p5952
tp5953
(lp5954
s(S'YY1'
p5955
S'CYP26A1'
p5956
S'increases'
p5957
tp5958
(lp5959
s(S'PITX2'
p5960
S'RUNX1'
p5961
S'increases'
p5962
tp5963
(lp5964
s(S'STAT5A'
p5965
S'NRAS'
p5966
S'increases'
p5967
tp5968
(lp5969
s(S'Valproic Acid'
p5970
S'HRAS MRNA'
p5971
S'increases'
p5972
tp5973
(lp5974
s(S'Malathion'
p5975
S'HRAS PROTEIN'
p5976
S'increases'
p5977
tp5978
(lp5979
s(S'TFAP4'
p5980
S'CBFA2T3'
p5981
S'increases'
p5982
tp5983
(lp5984
s(S'TFAP4'
p5985
S'EN1'
p5986
S'increases'
p5987
tp5988
(lp5989
s(S'POU3F2'
p5990
S'CYP26A1'
p5991
S'increases'
p5992
tp5993
(lp5994
s(S'PAX3'
p5995
S'FOXD3'
p5996
S'increases'
p5997
tp5998
(lp5999
s(S'FOXA2'
p6000
S'RUNX2'
p6001
S'increases'
p6002
tp6003
(lp6004
s(S'MAX'
p6005
S'BACH1'
p6006
S'increases'
p6007
tp6008
(lp6009
s(S'PDX1'
p6010
S'CYP26A1'
p6011
S'increases'
p6012
tp6013
(lp6014
s(S'EPO/EPOR (dimer)/JAK2'
p6015
S'SHC/GRB2/SOS1'
p6016
S'increases_activity'
p6017
tp6018
(lp6019
s(S'E2F1'
p6020
S'MEIS1'
p6021
S'increases'
p6022
tp6023
(lp6024
s(S'FOXF2'
p6025
S'MEIS1'
p6026
S'increases'
p6027
tp6028
(lp6029
s(S'SPZ1'
p6030
S'FOXJ2'
p6031
S'increases'
p6032
tp6033
(lp6034
s(S'SRY'
p6035
S'NRAS'
p6036
S'increases'
p6037
tp6038
(lp6039
s(S'REPIN1'
p6040
S'CYP26A1'
p6041
S'increases'
p6042
tp6043
(lp6044
s(S'VEGFR3/VEGFC-D'
p6045
S'PKC'
p6046
S'increases_activity'
p6047
tp6048
(lp6049
s(S'MEIS1'
p6050
S'EN1'
p6051
S'increases'
p6052
tp6053
(lp6054
s(S'FOXJ1'
p6055
S'FOXD3'
p6056
S'increases'
p6057
tp6058
(lp6059
s(S'SPZ1'
p6060
S'FOXO4'
p6061
S'increases'
p6062
tp6063
(lp6064
s(S'RHOA/GTP'
p6065
S'ROCK1-ROCK2'
p6066
S'increases_activity'
p6067
tp6068
(lp6069
s(S'HMGA1'
p6070
S'ONECUT1'
p6071
S'increases'
p6072
tp6073
(lp6074
s(S'uPA/uPAR/alphav/beta3 Integrin/Vitronectin'
p6075
S'SRC'
p6076
S'adds_modification'
p6077
tp6078
(lp6079
s(S'ETS1'
p6080
S'CYP26A1'
p6081
S'increases'
p6082
tp6083
(lp6084
s(S'ESRRA'
p6085
S'TLX2'
p6086
S'increases'
p6087
tp6088
(lp6089
s(S'ROCK2'
p6090
S'RHO FAMILY GTPASE-ACTIVE'
p6091
S'binds'
p6092
tp6093
(lp6094
s(S'ATF4'
p6095
S'CYP26A1'
p6096
S'increases'
p6097
tp6098
(lp6099
s(S'OR5I1'
p6100
S'CYP26A1'
p6101
S'increases'
p6102
tp6103
(lp6104
s(S'PITX2'
p6105
S'GATA1'
p6106
S'increases'
p6107
tp6108
(lp6109
s(S'AHR'
p6110
S'ONECUT1'
p6111
S'increases'
p6112
tp6113
(lp6114
s(S'PTF1A'
p6115
S'MECOM'
p6116
S'increases'
p6117
tp6118
(lp6119
s(S'arsenic trioxide'
p6120
S'HRAS MRNA'
p6121
S'increases'
p6122
tp6123
(lp6124
s(S'TCF3'
p6125
S'REPIN1'
p6126
S'increases'
p6127
tp6128
(lp6129
s(S'STAT6'
p6130
S'FOXO3'
p6131
S'increases'
p6132
tp6133
(lp6134
s(S'POU1F1'
p6135
S'POU2F1'
p6136
S'increases'
p6137
tp6138
(lp6139
s(S'RHOA/GTP'
p6140
S'ROCK'
p6141
S'increases_activity'
p6142
tp6143
(lp6144
s(S'PITPNA'
p6145
S'PI-4-5-P2'
p6146
S'translocates'
p6147
tp6148
(lp6149
s(S'MDM-2'
p6150
S'P14/19 ARF'
p6151
S'binds'
p6152
tp6153
(lp6154
s(S'TEAD1'
p6155
S'FOXO3'
p6156
S'increases'
p6157
tp6158
(lp6159
s(S'MYC'
p6160
S'MAX'
p6161
S'increases'
p6162
tp6163
(lp6164
S'Of special biological interest are the MAX (MYC associated factor X) and PML (promyelocytic leukemia) genes, which were found to be up-regulated in both unselected mononuclear cells and CD34+ selected cells in MDS compared to normal bone marrow and which showed a correlation with progression to advanced disease.'
p6165
aS'The protein encoded by the MAX gene is a transcription factor that interacts with the MYC oncoprotein to form homodimers and heterodimers.'
p6166
as(S'GRB2:SOS1'
p6167
S'EGF:PHOSPHO-EGFR:PHOSPHO-SHC'
p6168
S'binds'
p6169
tp6170
(lp6171
s(S'NF1'
p6172
S'RUNX1'
p6173
S'increases'
p6174
tp6175
(lp6176
s(S'ZEB1'
p6177
S'GATA6'
p6178
S'increases'
p6179
tp6180
(lp6181
s(S'TBP'
p6182
S'EN1'
p6183
S'increases'
p6184
tp6185
(lp6186
s(S'FOXA1'
p6187
S'FOXD3'
p6188
S'increases'
p6189
tp6190
(lp6191
s(S'CART1'
p6192
S'EN1'
p6193
S'increases'
p6194
tp6195
(lp6196
s(S'MAX'
p6197
S'CEBPA'
p6198
S'increases'
p6199
tp6200
(lp6201
s(S'GATA6'
p6202
S'NRAS'
p6203
S'increases'
p6204
tp6205
(lp6206
s(S'PTF1A'
p6207
S'FOXO3'
p6208
S'increases'
p6209
tp6210
(lp6211
s(S'LEF1'
p6212
S'FOXA1'
p6213
S'increases'
p6214
tp6215
(lp6216
s(S'hsa-let-7g-5p'
p6217
S'KRAS'
p6218
S'decreases'
p6219
tp6220
(lp6221
s(S'ZBTB14'
p6222
S'CYP26A1'
p6223
S'increases'
p6224
tp6225
(lp6226
s(S'POU1F1'
p6227
S'FOXO4'
p6228
S'increases'
p6229
tp6230
(lp6231
s(S'PI3K'
p6232
S'PI-4-5-P2'
p6233
S'translocates'
p6234
tp6235
(lp6236
s(S'GABPB2'
p6237
S'NRAS'
p6238
S'increases'
p6239
tp6240
(lp6241
s(S'ELK1'
p6242
S'LEF1'
p6243
S'increases'
p6244
tp6245
(lp6246
s(S'Estrogens'
p6247
S'HRAS MRNA'
p6248
S'increases'
p6249
tp6250
(lp6251
s(S'CYP26A1'
p6252
S'CEBPA'
p6253
S'increases'
p6254
tp6255
(lp6256
s(S'SPI1'
p6257
S'POU2F1'
p6258
S'increases'
p6259
tp6260
(lp6261
s(S'PPARG'
p6262
S'CYP26A1'
p6263
S'increases'
p6264
tp6265
(lp6266
s(S'Asbestos, Serpentine'
p6267
S'HRAS PROTEIN'
p6268
S'increases'
p6269
tp6270
(lp6271
s(S'RET51/GFRALPHA1/GDNF/DOK1'
p6272
S'RASGAP'
p6273
S'binds'
p6274
tp6275
(lp6276
s(S'FOXO1'
p6277
S'GATA6'
p6278
S'increases'
p6279
tp6280
(lp6281
s(S'Cadmium'
p6282
S'KRAS PROTEIN'
p6283
S'increases'
p6284
tp6285
(lp6286
s(S'MAX'
p6287
S'EN1'
p6288
S'increases'
p6289
tp6290
(lp6291
s(S'TLX2'
p6292
S'NRAS'
p6293
S'increases'
p6294
tp6295
(lp6296
s(S'SREBF1'
p6297
S'CYP26A1'
p6298
S'increases'
p6299
tp6300
(lp6301
s(S'SMAD3'
p6302
S'MEIS1'
p6303
S'increases'
p6304
tp6305
(lp6306
s(S'Acetaminophen'
p6307
S'NRAS MRNA'
p6308
S'decreases'
p6309
tp6310
(lp6311
s(S'LEF1'
p6312
S'ETS1'
p6313
S'increases'
p6314
tp6315
(lp6316
s(S'SRF'
p6317
S'MEIS1'
p6318
S'increases'
p6319
tp6320
(lp6321
s(S'BRAF'
p6322
S'MKK3-MKK6'
p6323
S'increases_activity'
p6324
tp6325
(lp6326
s(S'HRAS/GTP'
p6327
S'RAF1'
p6328
S'adds_modification'
p6329
tp6330
(lp6331
s(S'MSX1'
p6332
S'CYP26A1'
p6333
S'increases'
p6334
tp6335
(lp6336
s(S'GATA4'
p6337
S'ETS1'
p6338
S'increases'
p6339
tp6340
(lp6341
s(S'E4F1'
p6342
S'FOXA1'
p6343
S'increases'
p6344
tp6345
(lp6346
s(S'FOXD1'
p6347
S'LEF1'
p6348
S'increases'
p6349
tp6350
(lp6351
s(S'CUX1'
p6352
S'MAX'
p6353
S'increases'
p6354
tp6355
(lp6356
s(S'CYP26A1'
p6357
S'CBFA2T3'
p6358
S'increases'
p6359
tp6360
(lp6361
s(S'CAM/CA2+'
p6362
S'KRAS ISOFORM 4B/GTP'
p6363
S'binds'
p6364
tp6365
(lp6366
s(S'MYOG'
p6367
S'STAT5A'
p6368
S'increases'
p6369
tp6370
(lp6371
s(S'MYOD1'
p6372
S'STAT5A'
p6373
S'increases'
p6374
tp6375
(lp6376
s(S'HNF1A'
p6377
S'POU3F2'
p6378
S'increases'
p6379
tp6380
(lp6381
s(S'EPH'
p6382
S'EPHR'
p6383
S'binds'
p6384
tp6385
(lp6386
s(S'PDGF:PHOSPHO-PDGF RECEPTOR DIMER'
p6387
S'GRB2:SOS1'
p6388
S'binds'
p6389
tp6390
(lp6391
s(S'HRAS/GTP'
p6392
S'PI3K'
p6393
S'increases_activity'
p6394
tp6395
(lp6396
s(S'RUNX1'
p6397
S'TLX2'
p6398
S'increases'
p6399
tp6400
(lp6401
s(S'MYOG'
p6402
S'CYP26A1'
p6403
S'increases'
p6404
tp6405
(lp6406
s(S'PAX2'
p6407
S'EN1'
p6408
S'increases'
p6409
tp6410
(lp6411
s(S'TFCP2'
p6412
S'CYP26A1'
p6413
S'increases'
p6414
tp6415
(lp6416
s(S'hsa-miR-145-5p'
p6417
S'NRAS'
p6418
S'decreases'
p6419
tp6420
(lp6421
s(S'KAT2B'
p6422
S'GATA1'
p6423
S'increases'
p6424
tp6425
(lp6426
s(S'P-EGFR MUTANTS:P-Y349,350-SHC1'
p6427
S'GRB2:SOS1'
p6428
S'binds'
p6429
tp6430
(lp6431
s(S'E2F1'
p6432
S'MECOM'
p6433
S'increases'
p6434
tp6435
(lp6436
s(S'GNB1/GNG2'
p6437
S'SRC'
p6438
S'adds_modification'
p6439
tp6440
(lp6441
s(S'ZBTB14'
p6442
S'MAX'
p6443
S'increases'
p6444
tp6445
(lp6446
s(S'RALGDS'
p6447
S'P21 RAS:GTP'
p6448
S'binds'
p6449
tp6450
(lp6451
s(S'RHOA/GTP'
p6452
S'ROCK2'
p6453
S'increases_activity'
p6454
tp6455
(lp6456
s(S'NR1H3'
p6457
S'FOXD3'
p6458
S'increases'
p6459
tp6460
(lp6461
s(S'TFAP4'
p6462
S'GATA1'
p6463
S'increases'
p6464
tp6465
(lp6466
s(S'FOXA1'
p6467
S'GATA6'
p6468
S'increases'
p6469
tp6470
(lp6471
s(S'GRB2:SOS1'
p6472
S'P-SHC'
p6473
S'binds'
p6474
tp6475
(lp6476
s(S'E2F1'
p6477
S'FOXO3'
p6478
S'increases'
p6479
tp6480
(lp6481
s.