(dp0
(S'ZEB1'
p1
S'FOXA1'
p2
S'increases'
p3
tp4
(lp5
s(S'FOXJ1'
p6
S'GATA6'
p7
S'increases'
p8
tp9
(lp10
s(S'TFAP4'
p11
S'FOXD3'
p12
S'increases'
p13
tp14
(lp15
s(S'TBP'
p16
S'MEIS1'
p17
S'increases'
p18
tp19
(lp20
s(S'GCM1'
p21
S'GATA6'
p22
S'increases'
p23
tp24
(lp25
s(S'T-DHT'
p26
S'SRC'
p27
S'adds_modification'
p28
tp29
(lp30
s(S'MAZ'
p31
S'GABPB2'
p32
S'increases'
p33
tp34
(lp35
s(S'HMGA1'
p36
S'EN1'
p37
S'increases'
p38
tp39
(lp40
s(S'CYP26A1'
p41
S'NRAS'
p42
S'increases'
p43
tp44
(lp45
s(S'CUX1'
p46
S'MEIS1'
p47
S'increases'
p48
tp49
(lp50
s(S'REPIN1'
p51
S'BACH1'
p52
S'increases'
p53
tp54
(lp55
s(S'TFDP1'
p56
S'HOXA9'
p57
S'increases'
p58
tp59
(lp60
s(S'NFE2L1'
p61
S'CYP26A1'
p62
S'increases'
p63
tp64
(lp65
s(S'MAZ'
p66
S'GATA1'
p67
S'increases'
p68
tp69
(lp70
s(S'TCF12'
p71
S'GABPB2'
p72
S'increases'
p73
tp74
(lp75
s(S'ETS2'
p76
S'FOXO3'
p77
S'increases'
p78
tp79
(lp80
s(S'hsa-let-7c-5p'
p81
S'NRAS'
p82
S'decreases'
p83
tp84
(lp85
s(S'SPI1'
p86
S'CYP26A1'
p87
S'increases'
p88
tp89
(lp90
s(S'RAC1/GTP'
p91
S'MKK4'
p92
S'adds_modification'
p93
tp94
(lp95
s(S'Quercetin'
p96
S'KRAS MRNA'
p97
S'decreases'
p98
tp99
(lp100
s(S'INSULIN RECEPTOR/INSULIN/SHC'
p101
S'GRB2'
p102
S'binds'
p103
tp104
(lp105
s(S'TAp63a (tetramer)'
p106
S'PKC DELTA'
p107
S'increases'
p108
tp109
(lp110
s(S'FOXO1'
p111
S'POU2F1'
p112
S'increases'
p113
tp114
(lp115
s(S'FOXL1'
p116
S'EN1'
p117
S'increases'
p118
tp119
(lp120
s(S'TBP'
p121
S'CYP26A1'
p122
S'increases'
p123
tp124
(lp125
s(S'Heptachlor'
p126
S'HRAS MRNA'
p127
S'decreases'
p128
tp129
(lp130
s(S'PCBP1'
p131
S'CYP26A1'
p132
S'increases'
p133
tp134
(lp135
s(S'ZBTB18'
p136
S'CYP26A1'
p137
S'increases'
p138
tp139
(lp140
s(S'GATA2'
p141
S'CYP26A1'
p142
S'increases'
p143
tp144
(lp145
s(S'Cadmium'
p146
S'KRAS MRNA'
p147
S'increases'
p148
tp149
(lp150
s(S'HNF1A'
p151
S'POU2F1'
p152
S'increases'
p153
tp154
(lp155
s(S'ABT-100'
p156
S'HRAS PROTEIN'
p157
S'inhibits_modification'
p158
tp159
(lp160
s(S'ELF1'
p161
S'CYP26A1'
p162
S'increases'
p163
tp164
(lp165
s(S'LEF1'
p166
S'KRAS'
p167
S'increases'
p168
tp169
(lp170
s(S'NKX2-1'
p171
S'FOXD3'
p172
S'increases'
p173
tp174
(lp175
s(S'PI-3-4-5-P3'
p176
S'BTK-ITK'
p177
S'translocates'
p178
tp179
(lp180
s(S'POU6F1'
p181
S'HOXA9'
p182
S'increases'
p183
tp184
(lp185
s(S'Myb'
p186
S'MYB'
p187
S'increases'
p188
tp189
(lp190
s(S'PAX5'
p191
S'CYP26A1'
p192
S'increases'
p193
tp194
(lp195
s(S'FOXO4'
p196
S'FOXD3'
p197
S'increases'
p198
tp199
(lp200
s(S'CYP26A1'
p201
S'FOXO4'
p202
S'increases'
p203
tp204
(lp205
s(S'cell adhesion'
p206
S'HRAS/GDP'
p207
S'increases_activity'
p208
tp209
(lp210
s(S'IRF7'
p211
S'CYP26A1'
p212
S'increases'
p213
tp214
(lp215
s(S'7,8-Dihydro-7,8-dihydroxybenzo(a)pyrene 9,10-oxide'
p216
S'KRAS PROTEIN'
p217
S'increases'
p218
tp219
(lp220
s(S'PITX2'
p221
S'POU2F1'
p222
S'increases'
p223
tp224
(lp225
s(S'E2F1'
p226
S'CYP26A1'
p227
S'increases'
p228
tp229
(lp230
s(S'ATF1'
p231
S'CYP26A1'
p232
S'increases'
p233
tp234
(lp235
s(S'PI3K'
p236
S'PKC DELTA'
p237
S'adds_modification'
p238
tp239
(lp240
s(S'SOX5'
p241
S'HOXA9'
p242
S'increases'
p243
tp244
(lp245
s(S'FOXO4'
p246
S'POU2F1'
p247
S'increases'
p248
tp249
(lp250
s(S'FOXO4'
p251
S'GATA6'
p252
S'increases'
p253
tp254
(lp255
s(S'LEF1'
p256
S'FOXF2'
p257
S'increases'
p258
tp259
(lp260
s(S'Insulin Receptor/Insuli/IRS1/GRB2/SHC/Sos'
p261
S'HRAS/GDP'
p262
S'increases_activity'
p263
tp264
(lp265
s(S'TLX2'
p266
S'RUNX1'
p267
S'increases'
p268
tp269
(lp270
s(S'ALX4'
p271
S'JUN'
p272
S'increases'
p273
tp274
(lp275
s(S'RHOA/GTP'
p276
S'RHOGDI'
p277
S'binds'
p278
tp279
(lp280
s(S'GCM1'
p281
S'CYP26A1'
p282
S'increases'
p283
tp284
(lp285
s(S'RB1'
p286
S'ONECUT1'
p287
S'increases'
p288
tp289
(lp290
s(S'NHLH1'
p291
S'CYP26A1'
p292
S'increases'
p293
tp294
(lp295
s(S'NR3C1'
p296
S'BACH1'
p297
S'increases'
p298
tp299
(lp300
s(S'HNF4A'
p301
S'CYP26A1'
p302
S'increases'
p303
tp304
(lp305
s(S'YY1'
p306
S'FOXO3'
p307
S'increases'
p308
tp309
(lp310
s(S'GRB2:SOS1'
p311
S'P-EGFR MUTANTS DIMER'
p312
S'binds'
p313
tp314
(lp315
s(S'P-Y349,350-SHC1:P-ERBB4'
p316
S'GRB2:SOS1'
p317
S'binds'
p318
tp319
(lp320
s(S'FOXN1'
p321
S'ONECUT1'
p322
S'increases'
p323
tp324
(lp325
s(S'TFAP4'
p326
S'MYC'
p327
S'increases'
p328
tp329
(lp330
s(S'MYC'
p331
S'EN1'
p332
S'increases'
p333
tp334
(lp335
s(S'Antigen/IgE/Fc epsilon R1/LYN/SYK'
p336
S'SHC/GRB2/SOS1'
p337
S'increases_activity'
p338
tp339
(lp340
s(S'14-3-3 BETA, ZETA'
p341
S'GARNL4'
p342
S'binds'
p343
tp344
(lp345
s(S'SMAD1'
p346
S'EN1'
p347
S'increases'
p348
tp349
(lp350
s(S'Raf-1'
p351
S'MEK1-2'
p352
S'adds_modification'
p353
tp354
(lp355
s(S'POU2F1'
p356
S'FOXO3'
p357
S'increases'
p358
tp359
(lp360
s(S'NGF (dimer)/TRKA'
p361
S'RASGRF1'
p362
S'adds_modification'
p363
tp364
(lp365
s(S'TCF4'
p366
S'CYP26A1'
p367
S'increases'
p368
tp369
(lp370
s(S'STAT5B'
p371
S'TLX2'
p372
S'increases'
p373
tp374
(lp375
s(S'CYP26A1'
p376
S'SRF'
p377
S'increases'
p378
tp379
(lp380
s(S'STAT1'
p381
S'NRAS'
p382
S'increases'
p383
tp384
(lp385
s(S'TFDP1'
p386
S'GATA1'
p387
S'increases'
p388
tp389
(lp390
s(S'PI3K'
p391
S'ALPHA6/BETA4 INTEGRIN/LAMININ'
p392
S'binds'
p393
tp394
(lp395
s(S'FOXF2'
p396
S'NRAS'
p397
S'increases'
p398
tp399
(lp400
s(S'CUX1'
p401
S'POU2F1'
p402
S'increases'
p403
tp404
(lp405
s(S'ETS2'
p406
S'STAT4'
p407
S'increases'
p408
tp409
(lp410
s(S'EN1'
p411
S'CYP26A1'
p412
S'increases'
p413
tp414
(lp415
s(S'COMPLEX (RAS/GTP)'
p416
S'RAF'
p417
S'binds'
p418
tp419
(lp420
s(S'LEF1'
p421
S'EN1'
p422
S'increases'
p423
tp424
(lp425
s(S'FOXL1'
p426
S'NRAS'
p427
S'increases'
p428
tp429
(lp430
s(S'ELF2'
p431
S'CYP26A1'
p432
S'increases'
p433
tp434
(lp435
s(S'Src Family Kinases-active'
p436
S'EGF/EGFR'
p437
S'adds_modification'
p438
tp439
(lp440
s(S'RUNX1'
p441
S'POU2F1'
p442
S'increases'
p443
tp444
(lp445
s(S'RHOA/GTP'
p446
S'CITRON-N'
p447
S'increases_activity'
p448
tp449
(lp450
s(S'PAX4'
p451
S'SRF'
p452
S'increases'
p453
tp454
(lp455
s(S'Vitamin E'
p456
S'HRAS MRNA'
p457
S'increases'
p458
tp459
(lp460
s(S'CDX2'
p461
S'FOXD3'
p462
S'increases'
p463
tp464
(lp465
s(S'Plant Extracts'
p466
S'KEAP1 PROTEIN'
p467
S'decreases'
p468
tp469
(lp470
s(S'PAX4'
p471
S'CBFA2T3'
p472
S'increases'
p473
tp474
(lp475
s(S'FOXD1'
p476
S'CYP26A1'
p477
S'increases'
p478
tp479
(lp480
s(S'Antigen/IgE/Fc epsilon R1/LYN/SYK'
p481
S'VAV1'
p482
S'adds_modification'
p483
tp484
(lp485
s(S'PCBP1'
p486
S'MEIS1'
p487
S'increases'
p488
tp489
(lp490
s(S'FOXI1'
p491
S'FOXD3'
p492
S'increases'
p493
tp494
(lp495
s(S'GATA4'
p496
S'MEIS1'
p497
S'increases'
p498
tp499
(lp500
s(S'STAT5B'
p501
S'CEBPG'
p502
S'increases'
p503
tp504
(lp505
s(S'TFDP2'
p506
S'MAZ'
p507
S'increases'
p508
tp509
(lp510
s(S'PI3K'
p511
S'SHP2'
p512
S'binds'
p513
tp514
(lp515
s(S'SPI1'
p516
S'ONECUT1'
p517
S'increases'
p518
tp519
(lp520
s(S'STAT6'
p521
S'EN1'
p522
S'increases'
p523
tp524
(lp525
s(S'TLX2'
p526
S'CYP26A1'
p527
S'increases'
p528
tp529
(lp530
s(S'RAF1'
p531
S'MEK1-2'
p532
S'increases_activity'
p533
tp534
(lp535
s(S'STAT5A'
p536
S'IRF1'
p537
S'increases'
p538
tp539
(lp540
s(S'2-amino-1-methyl-6-phenylimidazo(4,5-b)pyridine'
p541
S'HRAS MRNA'
p542
S'increases'
p543
tp544
(lp545
s(S'MAZ'
p546
S'POU2F1'
p547
S'increases'
p548
tp549
(lp550
s(S'MAZ'
p551
S'SRF'
p552
S'increases'
p553
tp554
(lp555
s(S'GATA1'
p556
S'JUN'
p557
S'increases'
p558
tp559
(lp560
s(S'FOXA1'
p561
S'NRAS'
p562
S'increases'
p563
tp564
(lp565
s(S'STAT1'
p566
S'EN1'
p567
S'increases'
p568
tp569
(lp570
s(S'GTF2A2'
p571
S'MAX'
p572
S'increases'
p573
tp574
(lp575
s(S'LMO2'
p576
S'EN1'
p577
S'increases'
p578
tp579
(lp580
s(S'MYOD1'
p581
S'LEF1'
p582
S'increases'
p583
tp584
(lp585
s(S'ATF3'
p586
S'JUN'
p587
S'increases'
p588
tp589
(lp590
s(S'GRB2:SOS1'
p591
S'ACTIVATED FGFR:P-SHC1'
p592
S'binds'
p593
tp594
(lp595
s(S'MAFG'
p596
S'BACH1'
p597
S'increases'
p598
tp599
(lp600
s(S'POU3F2'
p601
S'POU2F1'
p602
S'increases'
p603
tp604
(lp605
s(S'K 7174'
p606
S'KRAS MRNA'
p607
S'increases'
p608
tp609
(lp610
s(S'POU1F1'
p611
S'RUNX1'
p612
S'increases'
p613
tp614
(lp615
s(S'HRAS protein'
p616
S'CCND1 MRNA'
p617
S'increases'
p618
tp619
(lp620
s(S'YY1'
p621
S'EN1'
p622
S'increases'
p623
tp624
(lp625
s(S'resveratrol'
p626
S'HRAS MRNA'
p627
S'increases'
p628
tp629
(lp630
s(S'NKX2-1'
p631
S'HOXA9'
p632
S'increases'
p633
tp634
(lp635
s(S'HSF1'
p636
S'CYP26A1'
p637
S'increases'
p638
tp639
(lp640
s(S'MYC'
p641
S'HOXA9'
p642
S'increases'
p643
tp644
(lp645
s(S'Raf'
p646
S'MEK'
p647
S'adds_modification'
p648
tp649
(lp650
S'All the rice MAPKKKs that were grouped under Raf, ZIK and MEKK subfamilies were further analysed for the presence of specific signatures.'
p651
aS'The Ras/Raf/MEK/ERK signaling cascade is highly conserved and exists in all eukaryotic organisms ('
p652
aS'Raf/MEK/ERK1 pathway controls the increase of cdk2 activity after fertilization and its translocation into male and female nucleus.'
p653
aS'KSRs act as scaffold proteins in the Ras/MAPK cascade and assemble Raf/MEK complexes, thereby facilitating MAPK activation ('
p654
aS'Our findings indicate that modulating CB1 receptor function by selective agonists/inverse agonists can regulate the responsiveness of skeletal muscle toward insulin through its action on two key signaling pathways, namely PI 3-kinase/PKB and the Raf-MEK1/2-ERK1/2 phosphorylation cascade.'
p655
aS'Next we used Matrix ChIP to probe the recruitment of B-Raf, MEK, and ERK and their activated forms at the '
p656
aS'Those patients might be considered for Ras-Raf-MEK-MAPK-targeting therapies on the basis of molecular profiling data.'
p657
aS'A finding that merits further study is the significant prognostic impact of KRAS mutation in endometroid carcinomas, potentially indicating that response to Ras/Raf/MEK/ERK-targeting therapies may differ by histological subtype.'
p658
aS'This association should be validated in future studies comprising larger patient cohorts, as the value of KRAS mutation status as a predictor of response to therapies targeting the Ras/Raf/MEK/ERK-pathway may differ by histological subtype.'
p659
aS'Activated Raf stimulates MAPK/extraceiiular signal-related kinase (ERK) kinase (MEK), which activates ERK1 and ERK2, which in turn, phosphorylate the transcription factors Eikl and CREB.'
p660
aS'Mutational activation of B-Raf causes developmental defects in zebrafish that are identical to those in the activating N-Ras mutants, and pharmacological inhibition of MEK using CI-1040 completely rescues these developmental defects.'
p661
aS'To assess whether the Raf-MEK-ERK pathway is required during liver tumor progression and regression in the current model, western blot analysis was carried out using liver lysates from four groups: control (non-induced double-transgenic fish with normal liver), HL (induced for 2 weeks), HCC (induced for 4 weeks) and regressed (induced for 4 weeks followed by 2 weeks of mifepristone withdrawal) ('
p662
aS'Because Raf is known to activate MEK, we examined the effects of MEK knockdown in adult fly hearts.'
p663
aS'BCL-2, antisense oligonucleotide; BRAF, v-Raf murine sarcoma viral oncogene homolog B1; c-KIT, v-kit Hardy-Zuckerman 4 feline sarcoma viral oncogene homolog; MEK, mitogen-activated protein kinase kinase; mTOR, mechanistic target of rapamycin'
p664
as(S'TFDP1'
p665
S'MAZ'
p666
S'increases'
p667
tp668
(lp669
s(S'SPRED1'
p670
S'HRAS'
p671
S'binds'
p672
tp673
(lp674
s(S'MYCN'
p675
S'CYP26A1'
p676
S'increases'
p677
tp678
(lp679
s(S'AHR'
p680
S'FOXD3'
p681
S'increases'
p682
tp683
(lp684
s(S'SF1'
p685
S'CYP26A1'
p686
S'increases'
p687
tp688
(lp689
s(S'MEIS1'
p690
S'ETS1'
p691
S'increases'
p692
tp693
(lp694
s(S'Copper Sulfate'
p695
S'HRAS MRNA'
p696
S'decreases'
p697
tp698
(lp699
s(S'MAZ'
p700
S'MYC'
p701
S'increases'
p702
tp703
(lp704
s(S'E4F1'
p705
S'HOXA9'
p706
S'increases'
p707
tp708
(lp709
s(S'GATA1'
p710
S'GATA6'
p711
S'increases'
p712
tp713
(lp714
s(S'RUNX2'
p715
S'POU2F1'
p716
S'increases'
p717
tp718
(lp719
s(S'CYP26A1'
p720
S'GATA6'
p721
S'increases'
p722
tp723
(lp724
s(S'PAX4'
p725
S'GATA1'
p726
S'increases'
p727
tp728
(lp729
s(S'ELF2'
p730
S'STAT5A'
p731
S'increases'
p732
tp733
(lp734
s(S'CART1'
p735
S'NRAS'
p736
S'increases'
p737
tp738
(lp739
s(S'IGF-1R heterotetramer/IGF1/GRB2/Sos/Shc'
p740
S'HRAS/GDP'
p741
S'increases_activity'
p742
tp743
(lp744
s(S'RB1'
p745
S'CYP26A1'
p746
S'increases'
p747
tp748
(lp749
s(S'CEBPG'
p750
S'HOXA9'
p751
S'increases'
p752
tp753
(lp754
s(S'GRB2/SOS1/SHC'
p755
S'IGF-1R HETEROTETRAMER/IGF1'
p756
S'binds'
p757
tp758
(lp759
s(S'PRRX2'
p760
S'CYP26A1'
p761
S'increases'
p762
tp763
(lp764
s(S'TEAD1'
p765
S'CYP26A1'
p766
S'increases'
p767
tp768
(lp769
s(S'STAT5A'
p770
S'FOXA1'
p771
S'increases'
p772
tp773
(lp774
s(S'ATF2'
p775
S'FOXD3'
p776
S'increases'
p777
tp778
(lp779
s(S'REPIN1'
p780
S'FOXO4'
p781
S'increases'
p782
tp783
(lp784
s(S'FOXF2'
p785
S'ETS1'
p786
S'increases'
p787
tp788
(lp789
s(S'ETV7'
p790
S'MEIS1'
p791
S'increases'
p792
tp793
(lp794
s(S'RUNX2'
p795
S'RUNX1'
p796
S'increases'
p797
tp798
(lp799
s(S'OR5I1'
p800
S'GATA1'
p801
S'increases'
p802
tp803
(lp804
s(S'MSX1'
p805
S'EN1'
p806
S'increases'
p807
tp808
(lp809
s(S'GTF3A'
p810
S'IRF1'
p811
S'increases'
p812
tp813
(lp814
s(S'POU2F1'
p815
S'SRF'
p816
S'increases'
p817
tp818
(lp819
s(S'PLC-GAMMA'
p820
S'COMPLEX (GADS/SLP-76)'
p821
S'binds'
p822
tp823
(lp824
s(S'STAT4'
p825
S'STAT5A'
p826
S'increases'
p827
tp828
(lp829
S'Like other cytokines, TSLP also uses the JAK-STAT signaling module to transmit signals in cells by inducing phosphorylation of some members in the module, including JAK1, JAK2, STAT1, STAT3, STAT4, STAT5A, STAT5B and STAT6 ('
p830
as(S'JUN'
p831
S'BACH1'
p832
S'increases'
p833
tp834
(lp835
s(S'POU1F1'
p836
S'HOXA9'
p837
S'increases'
p838
tp839
(lp840
s(S'docetaxel'
p841
S'HRAS PROTEIN'
p842
S'increases'
p843
tp844
(lp845
s(S'MAX'
p846
S'LEF1'
p847
S'increases'
p848
tp849
(lp850
s(S'FOXA1'
p851
S'CYP26A1'
p852
S'increases'
p853
tp854
(lp855
s(S'GATA4'
p856
S'FOXD3'
p857
S'increases'
p858
tp859
(lp860
s(S'ZBTB18'
p861
S'RUNX1'
p862
S'increases'
p863
tp864
(lp865
s(S'ATF3'
p866
S'RUNX1'
p867
S'increases'
p868
tp869
(lp870
s(S'NKX2-1'
p871
S'CYP26A1'
p872
S'increases'
p873
tp874
(lp875
s(S'NR3C1'
p876
S'FOXA1'
p877
S'increases'
p878
tp879
(lp880
s(S'RAS family/GTP'
p881
S'RIN1'
p882
S'increases_activity'
p883
tp884
(lp885
s(S'COMPLEX (RAS/GTP/ RAF)'
p886
S'MEK'
p887
S'binds'
p888
tp889
(lp890
s(S'CDC5L'
p891
S'NRAS'
p892
S'increases'
p893
tp894
(lp895
s(S'Vitamin E'
p896
S'NRAS MRNA'
p897
S'decreases'
p898
tp899
(lp900
s(S'NF1'
p901
S'LEF1'
p902
S'increases'
p903
tp904
(lp905
s(S'ETS1'
p906
S'EN1'
p907
S'increases'
p908
tp909
(lp910
s(S'CRAF'
p911
S'YWHAB'
p912
S'binds'
p913
tp914
(lp915
s(S'CEBPD'
p916
S'JUN'
p917
S'increases'
p918
tp919
(lp920
s(S'MAX'
p921
S'RUNX2'
p922
S'increases'
p923
tp924
(lp925
s(S'CEBPA'
p926
S'MECOM'
p927
S'increases'
p928
tp929
(lp930
s(S'PAX2'
p931
S'GATA1'
p932
S'increases'
p933
tp934
(lp935
s(S'CYP26A1'
p936
S'TLX2'
p937
S'increases'
p938
tp939
(lp940
s(S'GFI1'
p941
S'ETS1'
p942
S'increases'
p943
tp944
(lp945
s(S'14-3-3:P-S259,Y340,Y341,S621-RAF1:RAS:GTP'
p946
S'MEK'
p947
S'binds'
p948
tp949
(lp950
s(S'P-S,T-MEK2'
p951
S'ERK2'
p952
S'binds'
p953
tp954
(lp955
s(S'HRAS/GTP'
p956
S'RIN2'
p957
S'increases_activity'
p958
tp959
(lp960
s(S'Ras-GTP'
p961
S'P42/P44MAPKS'
p962
S'adds_modification'
p963
tp964
(lp965
s(S'SRF'
p966
S'CYP26A1'
p967
S'increases'
p968
tp969
(lp970
s(S'FOXL1'
p971
S'RUNX2'
p972
S'increases'
p973
tp974
(lp975
s(S'EGR4'
p976
S'LEF1'
p977
S'increases'
p978
tp979
(lp980
s(S'P-IRS1,2'
p981
S'GRB2:SOS1'
p982
S'binds'
p983
tp984
(lp985
s(S'VEGFR2 (dimer)/VEGFA (dimer)/alphav/beta3 Integrin/Vitronectin'
p986
S'SRC'
p987
S'adds_modification'
p988
tp989
(lp990
s(S'BACH2'
p991
S'BACH1'
p992
S'increases'
p993
tp994
(lp995
s(S'ONECUT1'
p996
S'RUNX1'
p997
S'increases'
p998
tp999
(lp1000
s(S'FOXJ2'
p1001
S'RUNX2'
p1002
S'increases'
p1003
tp1004
(lp1005
s(S'PI-3-4-5-P3'
p1006
S'AKT1'
p1007
S'translocates'
p1008
tp1009
(lp1010
s(S'TFAP4'
p1011
S'BACH1'
p1012
S'increases'
p1013
tp1014
(lp1015
s(S'MEKK1/4'
p1016
S'MKK3/6'
p1017
S'adds_modification'
p1018
tp1019
(lp1020
s(S'VSX1'
p1021
S'MECOM'
p1022
S'increases'
p1023
tp1024
(lp1025
s(S'IRF1'
p1026
S'GATA6'
p1027
S'increases'
p1028
tp1029
(lp1030
s(S'MAX'
p1031
S'HOXA9'
p1032
S'increases'
p1033
tp1034
(lp1035
s(S'RB1'
p1036
S'MAZ'
p1037
S'increases'
p1038
tp1039
(lp1040
s(S'GATA1'
p1041
S'EN1'
p1042
S'increases'
p1043
tp1044
(lp1045
s(S'HIF1A'
p1046
S'SRF'
p1047
S'increases'
p1048
tp1049
(lp1050
s(S'IRF8'
p1051
S'CYP26A1'
p1052
S'increases'
p1053
tp1054
(lp1055
s(S'MTF1'
p1056
S'CYP26A1'
p1057
S'increases'
p1058
tp1059
(lp1060
s(S'PI-3-4-5-P3'
p1061
S'GAB1'
p1062
S'translocates'
p1063
tp1064
(lp1065
s(S'PI-3-4-5-P3'
p1066
S'AKT1'
p1067
S'adds_modification'
p1068
tp1069
(lp1070
s(S'RXRA'
p1071
S'HOXA9'
p1072
S'increases'
p1073
tp1074
(lp1075
s(S'AKT1'
p1076
S'RAF1'
p1077
S'binds'
p1078
tp1079
(lp1080
s(S'HSF2'
p1081
S'JUN'
p1082
S'increases'
p1083
tp1084
(lp1085
s(S'PAX2'
p1086
S'CYP26A1'
p1087
S'increases'
p1088
tp1089
(lp1090
s(S'ETV7'
p1091
S'CYP26A1'
p1092
S'increases'
p1093
tp1094
(lp1095
s(S'FOXO3'
p1096
S'NRAS'
p1097
S'increases'
p1098
tp1099
(lp1100
s(S'TP53'
p1101
S'REPIN1'
p1102
S'increases'
p1103
tp1104
(lp1105
s(S'STAT6'
p1106
S'CYP26A1'
p1107
S'increases'
p1108
tp1109
(lp1110
s(S'JUN'
p1111
S'NRAS'
p1112
S'increases'
p1113
tp1114
(lp1115
s(S'MYCN'
p1116
S'NRAS'
p1117
S'increases'
p1118
tp1119
(lp1120
s(S'STAT3'
p1121
S'YY1'
p1122
S'increases'
p1123
tp1124
(lp1125
s(S'Methyl Methanesulfonate'
p1126
S'HRAS MRNA'
p1127
S'increases'
p1128
tp1129
(lp1130
s(S'RHOA/GTP'
p1131
S'PKN'
p1132
S'increases_activity'
p1133
tp1134
(lp1135
s(S'NHLH1'
p1136
S'FOXJ2'
p1137
S'increases'
p1138
tp1139
(lp1140
s(S'RAS family/GTP'
p1141
S'BRAF'
p1142
S'adds_modification'
p1143
tp1144
(lp1145
s(S'RELA'
p1146
S'FOXJ2'
p1147
S'increases'
p1148
tp1149
(lp1150
s(S'TCF3'
p1151
S'RUNX1'
p1152
S'increases'
p1153
tp1154
(lp1155
s(S'FOXF2'
p1156
S'FOXO4'
p1157
S'increases'
p1158
tp1159
(lp1160
s(S'ATF4'
p1161
S'FOXD3'
p1162
S'increases'
p1163
tp1164
(lp1165
s(S'HAND1'
p1166
S'MECOM'
p1167
S'increases'
p1168
tp1169
(lp1170
s(S'RHOA/GTP'
p1171
S'P27KIP1'
p1172
S'adds_modification'
p1173
tp1174
(lp1175
s(S'SRF'
p1176
S'NRAS'
p1177
S'increases'
p1178
tp1179
(lp1180
s(S'ESRRA'
p1181
S'POU3F2'
p1182
S'increases'
p1183
tp1184
(lp1185
s(S'BRAF'
p1186
S'MEK1'
p1187
S'adds_modification'
p1188
tp1189
(lp1190
S'Cardio-facio-cutaneous (CFC) syndrome is caused by germline mutations in KRAS, BRAF and MEK1/2.'
p1191
aS'carried out a Phase II, open-label, multicentre, randomised, parallel-group trial, comparing the MEK1/2 inhibitor, selumetinib, with temozolomide, and reported no significant difference in PFS between patients with unresectable Stage 3/4 cutaneous melanoma unselected for BRAF/neuroblastoma RAS viral oncogene homologue (NRAS) mutations ['
p1192
as(S'Cadmium Chloride'
p1193
S'KRAS PROTEIN'
p1194
S'increases'
p1195
tp1196
(lp1197
s(S'PRRX2'
p1198
S'MEIS1'
p1199
S'increases'
p1200
tp1201
(lp1202
s(S'MYC'
p1203
S'NRAS'
p1204
S'increases'
p1205
tp1206
(lp1207
s(S'MAZ'
p1208
S'KRAS'
p1209
S'increases'
p1210
tp1211
(lp1212
s(S'Rho Family GTPase-active'
p1213
S'PI3K'
p1214
S'increases_activity'
p1215
tp1216
(lp1217
s(S'STAT2'
p1218
S'CYP26A1'
p1219
S'increases'
p1220
tp1221
(lp1222
s(S'hsa-let-7a-5p'
p1223
S'KRAS'
p1224
S'decreases'
p1225
tp1226
(lp1227
s(S'POU3F2'
p1228
S'NRAS'
p1229
S'increases'
p1230
tp1231
(lp1232
s(S'SRF'
p1233
S'FOXO4'
p1234
S'increases'
p1235
tp1236
(lp1237
s(S'S1P1/Sphingosine-1-phosphate/PDGF-BB/PDGFRB (dimer)'
p1238
S'SRC FAMILY KINASES'
p1239
S'increases_activity'
p1240
tp1241
(lp1242
s(S'MYC/Max'
p1243
S'ERBB2'
p1244
S'decreases'
p1245
tp1246
(lp1247
s(S'SREBF1'
p1248
S'CBFA2T3'
p1249
S'increases'
p1250
tp1251
(lp1252
s(S'PI3K'
p1253
S'GELSOLIN/PI-3-4-5-P3'
p1254
S'binds'
p1255
tp1256
(lp1257
s(S'NHLH1'
p1258
S'EN1'
p1259
S'increases'
p1260
tp1261
(lp1262
s(S'LMO2'
p1263
S'GATA6'
p1264
S'increases'
p1265
tp1266
(lp1267
s(S'POU1F1'
p1268
S'FOXD3'
p1269
S'increases'
p1270
tp1271
(lp1272
s(S'hsa-miR-148b-3p'
p1273
S'NRAS'
p1274
S'decreases'
p1275
tp1276
(lp1277
s(S'Quercetin'
p1278
S'KRAS PROTEIN'
p1279
S'decreases'
p1280
tp1281
(lp1282
s(S'PAK2'
p1283
S'MEKK1'
p1284
S'adds_modification'
p1285
tp1286
(lp1287
s(S'LMO2'
p1288
S'MAZ'
p1289
S'increases'
p1290
tp1291
(lp1292
s(S'FOXO1'
p1293
S'POU3F2'
p1294
S'increases'
p1295
tp1296
(lp1297
s(S'NKX2-1'
p1298
S'MAZ'
p1299
S'increases'
p1300
tp1301
(lp1302
s(S'GRB2/SOS1'
p1303
S'PDGF-BB/PDGFRB (DIMER)/P52 SHC'
p1304
S'binds'
p1305
tp1306
(lp1307
s(S'PI3K'
p1308
S'CRK/P130 CAS/PAXILLIN'
p1309
S'increases_activity'
p1310
tp1311
(lp1312
s(S'ATF1'
p1313
S'FOXD3'
p1314
S'increases'
p1315
tp1316
(lp1317
s(S'GATA1'
p1318
S'SRF'
p1319
S'increases'
p1320
tp1321
(lp1322
s(S'TFAP2C'
p1323
S'CYP26A1'
p1324
S'increases'
p1325
tp1326
(lp1327
s(S'AHR'
p1328
S'MEIS1'
p1329
S'increases'
p1330
tp1331
(lp1332
s(S'ETS2'
p1333
S'CYP26A1'
p1334
S'increases'
p1335
tp1336
(lp1337
s(S'Estradiol'
p1338
S'NRAS MRNA'
p1339
S'increases'
p1340
tp1341
(lp1342
s(S'E2F1'
p1343
S'HOXA9'
p1344
S'increases'
p1345
tp1346
(lp1347
s(S'PDGF-BB/PDGFRB (DIMER)'
p1348
S'RASGAP'
p1349
S'binds'
p1350
tp1351
(lp1352
s(S'E2F1'
p1353
S'GABPB2'
p1354
S'increases'
p1355
tp1356
(lp1357
s(S'FOXJ1'
p1358
S'POU3F2'
p1359
S'increases'
p1360
tp1361
(lp1362
s(S'VSX1'
p1363
S'CYP26A1'
p1364
S'increases'
p1365
tp1366
(lp1367
s(S'SPI1'
p1368
S'CDC5L'
p1369
S'increases'
p1370
tp1371
(lp1372
s(S'Gi family'
p1373
S'HRAS/GDP'
p1374
S'increases_activity'
p1375
tp1376
(lp1377
s(S'TCF3'
p1378
S'CYP26A1'
p1379
S'increases'
p1380
tp1381
(lp1382
s(S'IGF-1R HETEROTETRAMER/IGF1/IRS1'
p1383
S'GRB2/SOS1'
p1384
S'binds'
p1385
tp1386
(lp1387
s(S'RAS family/GTP'
p1388
S'RALGDS'
p1389
S'translocates'
p1390
tp1391
(lp1392
s(S'PI3K'
p1393
S'RAC1/GDP'
p1394
S'increases_activity'
p1395
tp1396
(lp1397
s(S'Ca2+'
p1398
S'PKC'
p1399
S'increases_activity'
p1400
tp1401
(lp1402
S"These pathways include, NF-kappa B, mitogen activated protein kinases (MAPK's), protein kinase C (PKC), Ca2+/Calcineurin/nuclear factor of activated T cells (NFAT) and phosphoinositide-3-kinase (PI3K)."
p1403
as(S'ZIC1'
p1404
S'CYP26A1'
p1405
S'increases'
p1406
tp1407
(lp1408
s(S'IRF7'
p1409
S'TLX2'
p1410
S'increases'
p1411
tp1412
(lp1413
s(S'SHC/SHIP'
p1414
S'HRAS/GDP'
p1415
S'decreases_activity'
p1416
tp1417
(lp1418
s(S'hsa-let-7a-5p'
p1419
S'HRAS'
p1420
S'decreases'
p1421
tp1422
(lp1423
s(S'GATA4'
p1424
S'MAZ'
p1425
S'increases'
p1426
tp1427
(lp1428
s(S'EN1'
p1429
S'NRAS'
p1430
S'increases'
p1431
tp1432
(lp1433
s(S'PI3K'
p1434
S'BAM32'
p1435
S'adds_modification'
p1436
tp1437
(lp1438
s(S'GABPB1'
p1439
S'CYP26A1'
p1440
S'increases'
p1441
tp1442
(lp1443
s(S'Trifluoroethanol'
p1444
S'HRAS'
p1445
S'increases_activity'
p1446
tp1447
(lp1448
s(S'SOX5'
p1449
S'CYP26A1'
p1450
S'increases'
p1451
tp1452
(lp1453
s(S'GRB2/SOS1'
p1454
S'HGF(DIMER)/MET(DIMER)/P52 SHC'
p1455
S'binds'
p1456
tp1457
(lp1458
s(S'TCF12'
p1459
S'EN1'
p1460
S'increases'
p1461
tp1462
(lp1463
s(S'SOX9'
p1464
S'MEIS1'
p1465
S'increases'
p1466
tp1467
(lp1468
s(S'RB1'
p1469
S'MYC'
p1470
S'increases'
p1471
tp1472
(lp1473
s(S'RXRA'
p1474
S'FOXA1'
p1475
S'increases'
p1476
tp1477
(lp1478
s(S'decitabine'
p1479
S'HRAS MRNA'
p1480
S'decreases'
p1481
tp1482
(lp1483
s(S'VSX1'
p1484
S'EN1'
p1485
S'increases'
p1486
tp1487
(lp1488
s(S'FOXL1'
p1489
S'CYP26A1'
p1490
S'increases'
p1491
tp1492
(lp1493
s(S'PAX2'
p1494
S'RUNX1'
p1495
S'increases'
p1496
tp1497
(lp1498
s(S'MEKK1/4'
p1499
S'MKK4/7'
p1500
S'adds_modification'
p1501
tp1502
(lp1503
s(S'HOXA9'
p1504
S'CYP26A1'
p1505
S'increases'
p1506
tp1507
(lp1508
s(S'TRKC'
p1509
S'NT3 (DIMER)'
p1510
S'binds'
p1511
tp1512
(lp1513
s(S'PTF1A'
p1514
S'REPIN1'
p1515
S'increases'
p1516
tp1517
(lp1518
s(S'TGIF'
p1519
S'CYP26A1'
p1520
S'increases'
p1521
tp1522
(lp1523
s(S'MYOD1'
p1524
S'MYC'
p1525
S'increases'
p1526
tp1527
(lp1528
s(S'PKCT'
p1529
S'KRAS ISO2'
p1530
S'adds_modification'
p1531
tp1532
(lp1533
s(S'RAS family/GTP'
p1534
S'BRAF'
p1535
S'increases_activity'
p1536
tp1537
(lp1538
s(S'SPZ1'
p1539
S'CYP26A1'
p1540
S'increases'
p1541
tp1542
(lp1543
s(S'HRAS/GTP'
p1544
S'GALECTIN-1'
p1545
S'binds'
p1546
tp1547
(lp1548
s(S'DBP'
p1549
S'FOXD3'
p1550
S'increases'
p1551
tp1552
(lp1553
s(S'E2F1'
p1554
S'POU2F1'
p1555
S'increases'
p1556
tp1557
(lp1558
s(S'MEIS1'
p1559
S'CYP26A1'
p1560
S'increases'
p1561
tp1562
(lp1563
s(S'YY1'
p1564
S'NRAS'
p1565
S'increases'
p1566
tp1567
(lp1568
s(S'RAS:RAF'
p1569
S'YWHAB'
p1570
S'binds'
p1571
tp1572
(lp1573
s(S'NFE2L2'
p1574
S'CYP26A1'
p1575
S'increases'
p1576
tp1577
(lp1578
s(S'FARNESYL'
p1579
S'KRAS'
p1580
S'increases_activity'
p1581
tp1582
(lp1583
s(S'MTF1'
p1584
S'MECOM'
p1585
S'increases'
p1586
tp1587
(lp1588
s(S'TLX2'
p1589
S'FOXD3'
p1590
S'increases'
p1591
tp1592
(lp1593
s(S'Insulin Receptor/Insulin/SHC/GRB2/Sos1'
p1594
S'HRAS/GDP'
p1595
S'increases_activity'
p1596
tp1597
(lp1598
s(S'MYC'
p1599
S'ELK1'
p1600
S'increases'
p1601
tp1602
(lp1603
s(S'ONECUT1'
p1604
S'POU2F1'
p1605
S'increases'
p1606
tp1607
(lp1608
s(S'Paraquat'
p1609
S'HRAS MRNA'
p1610
S'translocates'
p1611
tp1612
(lp1613
s(S'GRB2/SOS1'
p1614
S'PDGF-BB/PDGFRB (DIMER)/SHP2'
p1615
S'binds'
p1616
tp1617
(lp1618
s(S'ONECUT1'
p1619
S'CYP26A1'
p1620
S'increases'
p1621
tp1622
(lp1623
s(S'MYC'
p1624
S'FOXO3'
p1625
S'increases'
p1626
tp1627
(lp1628
s(S'PAX3'
p1629
S'ELK1'
p1630
S'increases'
p1631
tp1632
(lp1633
s(S'DOK-R'
p1634
S'RASGAP'
p1635
S'binds'
p1636
tp1637
(lp1638
s(S'HOXA4'
p1639
S'HOXA9'
p1640
S'increases'
p1641
tp1642
(lp1643
s(S'MAX'
p1644
S'POU3F2'
p1645
S'increases'
p1646
tp1647
(lp1648
s(S'Estradiol'
p1649
S'KRAS MRNA'
p1650
S'decreases'
p1651
tp1652
(lp1653
s(S'KRAS ISOFORM 4B/GTP'
p1654
S'CAM/CA2+'
p1655
S'binds'
p1656
tp1657
(lp1658
s(S'MAZ'
p1659
S'FOXO4'
p1660
S'increases'
p1661
tp1662
(lp1663
s(S'hsa-miR-181a-5p'
p1664
S'KRAS'
p1665
S'decreases'
p1666
tp1667
(lp1668
s(S'GATA1'
p1669
S'CYP26A1'
p1670
S'increases'
p1671
tp1672
(lp1673
s(S'PGR'
p1674
S'ETS1'
p1675
S'increases'
p1676
tp1677
(lp1678
s(S'GATA1'
p1679
S'POU2F1'
p1680
S'increases'
p1681
tp1682
(lp1683
s(S'BRAF'
p1684
S'MEK1-2'
p1685
S'increases_activity'
p1686
tp1687
(lp1688
s(S'LEF1'
p1689
S'GABPB2'
p1690
S'increases'
p1691
tp1692
(lp1693
s(S'CYP26A1'
p1694
S'MYC'
p1695
S'increases'
p1696
tp1697
(lp1698
s(S'STAT1'
p1699
S'IRF1'
p1700
S'increases'
p1701
tp1702
(lp1703
s(S'SMAD1'
p1704
S'RUNX2'
p1705
S'increases'
p1706
tp1707
(lp1708
s(S'ZEB1'
p1709
S'TLX2'
p1710
S'increases'
p1711
tp1712
(lp1713
s(S'STAT5B'
p1714
S'IRF1'
p1715
S'increases'
p1716
tp1717
(lp1718
s(S'POU6F1'
p1719
S'CYP26A1'
p1720
S'increases'
p1721
tp1722
(lp1723
s(S'Vincristine'
p1724
S'HRAS MRNA'
p1725
S'increases'
p1726
tp1727
(lp1728
s(S'DAG'
p1729
S'RASGRP1'
p1730
S'adds_modification'
p1731
tp1732
(lp1733
s(S'PI3K'
p1734
S'PDK1'
p1735
S'increases_activity'
p1736
tp1737
(lp1738
S'NRAS activates four major signaling pathways: (1) RAF-MEK-ERK, (2) RalGDS, (3) PI3K-AKT/PDK1, and (4) PLC/PKC (see '
p1739
aS'We examined whether mutations in the PI3K signaling pathway components DAF-2/INSR, AGE-1/PI3K or PDK-1/PDK1 could suppress AIY axon truncations in a '
p1740
aS'Crucially, our study suggests that the inhibition of Akt activity by either an Akt, PDK1, PI3K or mTOR inhibitor would be effective in not only delaying onset of tumours driven by '
p1741
as(S'ETS2'
p1742
S'PAX4'
p1743
S'increases'
p1744
tp1745
(lp1746
s(S'NR3C1'
p1747
S'ONECUT1'
p1748
S'increases'
p1749
tp1750
(lp1751
s(S'CUX1'
p1752
S'CYP26A1'
p1753
S'increases'
p1754
tp1755
(lp1756
s(S'ZEB1'
p1757
S'GATA1'
p1758
S'increases'
p1759
tp1760
(lp1761
s(S'NRF1'
p1762
S'POU2F1'
p1763
S'increases'
p1764
tp1765
(lp1766
s(S'FOXJ2'
p1767
S'MECOM'
p1768
S'increases'
p1769
tp1770
(lp1771
s(S'MAZ'
p1772
S'MYCN'
p1773
S'increases'
p1774
tp1775
(lp1776
s(S'Hydrogen Peroxide'
p1777
S'HRAS MRNA'
p1778
S'increases'
p1779
tp1780
(lp1781
s(S'RASA1'
p1782
S'P-EPHBS:EFNBS'
p1783
S'binds'
p1784
tp1785
(lp1786
s(S'SPI1'
p1787
S'CEBPG'
p1788
S'increases'
p1789
tp1790
(lp1791
s(S'EGR1'
p1792
S'LEF1'
p1793
S'increases'
p1794
tp1795
(lp1796
s(S'RET51/GFRALPHA1/GDNF'
p1797
S'P62DOK'
p1798
S'binds'
p1799
tp1800
(lp1801
s(S'TFDP2'
p1802
S'CYP26A1'
p1803
S'increases'
p1804
tp1805
(lp1806
s(S'matrine'
p1807
S'NRAS MRNA'
p1808
S'increases'
p1809
tp1810
(lp1811
s(S'Isotretinoin'
p1812
S'KRAS MRNA'
p1813
S'decreases'
p1814
tp1815
(lp1816
s(S'PITX2'
p1817
S'FOXF2'
p1818
S'increases'
p1819
tp1820
(lp1821
s(S'MYOD1'
p1822
S'POU2F1'
p1823
S'increases'
p1824
tp1825
(lp1826
s(S'sodium arsenite'
p1827
S'KRAS PROTEIN'
p1828
S'increases'
p1829
tp1830
(lp1831
s(S'TCF4'
p1832
S'CBFA2T3'
p1833
S'increases'
p1834
tp1835
(lp1836
s(S'CYP26A1'
p1837
S'FOXA1'
p1838
S'increases'
p1839
tp1840
(lp1841
s(S'TP53'
p1842
S'CYP26A1'
p1843
S'increases'
p1844
tp1845
(lp1846
s(S'ATF3'
p1847
S'FOXD3'
p1848
S'increases'
p1849
tp1850
(lp1851
s(S'POU2F1'
p1852
S'NRAS'
p1853
S'increases'
p1854
tp1855
(lp1856
s(S'NRF1'
p1857
S'GABPB2'
p1858
S'increases'
p1859
tp1860
(lp1861
s(S'PAX4'
p1862
S'TLX2'
p1863
S'increases'
p1864
tp1865
(lp1866
s(S'PITX2'
p1867
S'FOXA1'
p1868
S'increases'
p1869
tp1870
(lp1871
s(S'GTF3A'
p1872
S'POU2F1'
p1873
S'increases'
p1874
tp1875
(lp1876
s(S'HLF'
p1877
S'FOXO3'
p1878
S'increases'
p1879
tp1880
(lp1881
s(S'PAX4'
p1882
S'FOXO4'
p1883
S'increases'
p1884
tp1885
(lp1886
s(S'CEBPA'
p1887
S'FOXD3'
p1888
S'increases'
p1889
tp1890
(lp1891
s(S'NFE2'
p1892
S'CYP26A1'
p1893
S'increases'
p1894
tp1895
(lp1896
s(S'MYB'
p1897
S'GABPB2'
p1898
S'increases'
p1899
tp1900
(lp1901
s(S'MYC'
p1902
S'CEBPA'
p1903
S'increases'
p1904
tp1905
(lp1906
s(S'ELK1'
p1907
S'EN1'
p1908
S'increases'
p1909
tp1910
(lp1911
s(S'E2F1'
p1912
S'CDC5L'
p1913
S'increases'
p1914
tp1915
(lp1916
s(S'YWHAZ (DIMER)'
p1917
S'RAF1'
p1918
S'binds'
p1919
tp1920
(lp1921
s(S'ATF6'
p1922
S'CYP26A1'
p1923
S'increases'
p1924
tp1925
(lp1926
s(S'sodium arsenite'
p1927
S'HRAS MRNA'
p1928
S'increases'
p1929
tp1930
(lp1931
s(S'EGR3'
p1932
S'CYP26A1'
p1933
S'increases'
p1934
tp1935
(lp1936
s(S'lead acetate'
p1937
S'HRAS PROTEIN'
p1938
S'increases_activity'
p1939
tp1940
(lp1941
s(S'REPIN1'
p1942
S'MYC'
p1943
S'increases'
p1944
tp1945
(lp1946
s(S'CEBPA'
p1947
S'NRAS'
p1948
S'increases'
p1949
tp1950
(lp1951
s(S'Quercetin'
p1952
S'NRAS MRNA'
p1953
S'decreases'
p1954
tp1955
(lp1956
s(S'14-3-3 E'
p1957
S'TERT'
p1958
S'binds'
p1959
tp1960
(lp1961
s(S'Antigen/IgE/Fc epsilon R1/LYN/SYK'
p1962
S'BTK'
p1963
S'adds_modification'
p1964
tp1965
(lp1966
s(S'HSF2'
p1967
S'CBFA2T3'
p1968
S'increases'
p1969
tp1970
(lp1971
s(S'Fluorouracil'
p1972
S'HRAS MRNA'
p1973
S'increases'
p1974
tp1975
(lp1976
s(S'STAT4'
p1977
S'MECOM'
p1978
S'increases'
p1979
tp1980
(lp1981
s(S'ETS2'
p1982
S'ETS1'
p1983
S'increases'
p1984
tp1985
(lp1986
s(S'CEBPG'
p1987
S'CYP26A1'
p1988
S'increases'
p1989
tp1990
(lp1991
s(S'Complex (PDGF receptor A/PDGF receptor B)'
p1992
S'NCK'
p1993
S'adds_modification'
p1994
tp1995
(lp1996
s(S'Fog1'
p1997
S'MYB'
p1998
S'decreases'
p1999
tp2000
(lp2001
s(S'CREB1'
p2002
S'FOXD3'
p2003
S'increases'
p2004
tp2005
(lp2006
s(S'Numb'
p2007
S'NICS'
p2008
S'translocates'
p2009
tp2010
(lp2011
s(S'STAT6'
p2012
S'STAT5A'
p2013
S'increases'
p2014
tp2015
(lp2016
g830
as(S'RAF1/14-3-3'
p2017
S'BRAF/14-3-3'
p2018
S'binds'
p2019
tp2020
(lp2021
s(S'B-cell antigen/BCR complex/LYN/SYK/BLNK'
p2022
S'SHC/GRB2/SOS1'
p2023
S'increases_activity'
p2024
tp2025
(lp2026
s(S'IRF2'
p2027
S'CYP26A1'
p2028
S'increases'
p2029
tp2030
(lp2031
s(S'GATA6'
p2032
S'CYP26A1'
p2033
S'increases'
p2034
tp2035
(lp2036
s(S'HMGA1'
p2037
S'CYP26A1'
p2038
S'increases'
p2039
tp2040
(lp2041
s(S'MTF1'
p2042
S'FOXO4'
p2043
S'increases'
p2044
tp2045
(lp2046
s(S'STAT1'
p2047
S'GABPB2'
p2048
S'increases'
p2049
tp2050
(lp2051
s(S'manumycin'
p2052
S'HRAS PROTEIN'
p2053
S'decreases'
p2054
tp2055
(lp2056
s(S'STAT5A'
p2057
S'ETS1'
p2058
S'increases'
p2059
tp2060
(lp2061
s(S'SPI1'
p2062
S'CBFA2T3'
p2063
S'increases'
p2064
tp2065
(lp2066
s(S'GMCSF/GMR ALPHA/CSF2RB/JAK2 (DODECAMER)/SHC'
p2067
S'GRB2/SOS1'
p2068
S'binds'
p2069
tp2070
(lp2071
s(S'7,8-Dihydro-7,8-dihydroxybenzo(a)pyrene 9,10-oxide'
p2072
S'NRAS PROTEIN'
p2073
S'increases'
p2074
tp2075
(lp2076
s(S'CDC5L'
p2077
S'CYP26A1'
p2078
S'increases'
p2079
tp2080
(lp2081
s(S'PAX4'
p2082
S'POU3F2'
p2083
S'increases'
p2084
tp2085
(lp2086
s(S'SPRED2'
p2087
S'HRAS'
p2088
S'binds'
p2089
tp2090
(lp2091
s(S'PITX2'
p2092
S'FOXO4'
p2093
S'increases'
p2094
tp2095
(lp2096
s(S'FOXD3'
p2097
S'CYP26A1'
p2098
S'increases'
p2099
tp2100
(lp2101
s(S'NFIL3'
p2102
S'FOXO3'
p2103
S'increases'
p2104
tp2105
(lp2106
s(S'MTF1'
p2107
S'POU2F1'
p2108
S'increases'
p2109
tp2110
(lp2111
s(S'TFCP2'
p2112
S'BACH1'
p2113
S'increases'
p2114
tp2115
(lp2116
s(S'NF1'
p2117
S'MECOM'
p2118
S'increases'
p2119
tp2120
(lp2121
s(S'FOXO3'
p2122
S'FOXD3'
p2123
S'increases'
p2124
tp2125
(lp2126
s(S'STAT5A'
p2127
S'TLX2'
p2128
S'increases'
p2129
tp2130
(lp2131
s(S'RIN1'
p2132
S'HRAS/GTP'
p2133
S'adds_modification'
p2134
tp2135
(lp2136
s(S'STAT5A'
p2137
S'CEBPG'
p2138
S'increases'
p2139
tp2140
(lp2141
s(S'DAG'
p2142
S'PKC'
p2143
S'increases_activity'
p2144
tp2145
(lp2146
S'High glucose is known to increase de novo synthesis of DAG, which is a potent activator of PKC in many cellular types ('
p2147
aS'As a consequence of the interaction between PKC and membrane-delimited DAG, cPKC and nPKC isoforms generally translocate from a cytosolic to a membrane-associated compartment.'
p2148
aS'The integral link between specific fatty acids, DAG, and PKC activation has been confirmed in studies addressing the effects of DAG kinase (DGK) isoforms, which lower intracellular DAG levels and reverse the activation of PKC, but these have also highlighted the complexity of DAG signaling ('
p2149
aS'cPKCs are activated in the presence of calcium, which binds to the C2 domain, and DAG, which binds to the C1 domains.'
p2150
aS'In contrast, DAG species derived from unsaturated fatty acids favor nPKC activation and inhibition at the level of the insulin receptor (IR), or IRS-1.'
p2151
aS'Increased levels of glyceraldehyde-3-phosphate (GAD-3P) cause activation of PKC isoforms through diacylglycerol (DAG) production and synthesis of advanced glycation end products (AGEs).'
p2152
aS'Diacylglycerol (DAG)-dependent protein kinase C (PKC) isoforms have been implicated in the phosphorylation of IRS1 at Ser'
p2153
aS'The molecular mechanism involves at least in part DAG-mediated PKC activation.'
p2154
aS'In particular, DAG activates protein kinase C (PKC) isoforms, which were shown to phosphorylate serine residues in insulin receptor substrate (IRS)-1/2, thereby inhibiting insulin signal transduction and ultimately increasing hepatic glucose production ('
p2155
aS'By increasing hepatic de novo lipogenesis (DNL), fatty acids, glucose, and fructose increase the DAG pool which, through activation of PKCs, also impairs insulin signaling.'
p2156
aS'Several mechanisms, such as innate immune responses via Toll-like receptor-4, accumulation of diacylglycerols (DAG)/ceramides, and activation of protein kinase C (PKC), are considered to underlie skeletal muscle insulin resistance.'
p2157
aS'This results in increased flux of dihydroxyacetone phosphate (DHAP) to diacylglycerol (DAG), an activator of protein kinase C (PKC), and of triose phosphates to methylglyoxal, the main intracellular AGE precursor.'
p2158
aS'The putative mechanism is that intracellular hyperglycaemia cause increase in diacylglycerol (DAG) levels, activating PKC formation, leading to multiple pathogenetic consequences including altered expression of endothelial nitric oxide synthetase and angiogenic protein vascular endothelial growth factor (VEGF).'
p2159
aS'It is well known that hyperglycaemia leads to elevated levels of DAG, which is a potent activator of PKC.'
p2160
aS'GLUT2, glucose transporter 2; K-ATP, ATP-sensitive potassium channel; TCA, tricarboxylic acid; VDCC, voltage-dependent calcium channels; PLC, phospholipase C; DAG, diacylglycerol; PKC, protein kinase C; IP3, 1,4,5-trisphosphate; PIP2, 4,5-bisphosphate; ER, endoplasmic reticulum; cAMP, cyclic adenosine monophosphate; PKA, protein kinase A; Epac, exchange protein activated by cAMP; AC, adenylate cyclase; GLP-1, glucagon-like peptide-1.'
p2161
aS'Our results suggest that a blunted insulin-mediated suppression of SM lipolysis may promote the accumulation of membrane saturated DAG, aggravating insulin resistance, at least partly mediated by PKC.'
p2162
as(S'HNF4A'
p2163
S'FOXA1'
p2164
S'increases'
p2165
tp2166
(lp2167
s(S'LEF1'
p2168
S'MAZ'
p2169
S'increases'
p2170
tp2171
(lp2172
s(S'hsa-miR-124-3p'
p2173
S'NRAS'
p2174
S'decreases'
p2175
tp2176
(lp2177
s(S'RAF1'
p2178
S'14-3-3 E'
p2179
S'binds'
p2180
tp2181
(lp2182
s(S'GATA1'
p2183
S'MYB'
p2184
S'decreases'
p2185
tp2186
(lp2187
s(S'LMO2'
p2188
S'GATA1'
p2189
S'increases'
p2190
tp2191
(lp2192
s(S'HRAS/GTP'
p2193
S'RAF1'
p2194
S'increases_activity'
p2195
tp2196
(lp2197
s(S'MYCN'
p2198
S'RUNX2'
p2199
S'increases'
p2200
tp2201
(lp2202
s(S'STAT5B'
p2203
S'CYP26A1'
p2204
S'increases'
p2205
tp2206
(lp2207
s(S'ZIC2'
p2208
S'MYCN'
p2209
S'increases'
p2210
tp2211
(lp2212
s(S'FOXL1'
p2213
S'FOXD3'
p2214
S'increases'
p2215
tp2216
(lp2217
s(S'ZBTB18'
p2218
S'CBFA2T3'
p2219
S'increases'
p2220
tp2221
(lp2222
s(S'HSF1'
p2223
S'IRF1'
p2224
S'increases'
p2225
tp2226
(lp2227
s(S'SPZ1'
p2228
S'MAZ'
p2229
S'increases'
p2230
tp2231
(lp2232
s(S'SRY'
p2233
S'CYP26A1'
p2234
S'increases'
p2235
tp2236
(lp2237
s(S'FOXO4'
p2238
S'HOXA9'
p2239
S'increases'
p2240
tp2241
(lp2242
s(S'IGF-1R heterotetramer/IGF1/IRS1/GRB2/Sos'
p2243
S'HRAS/GDP'
p2244
S'increases_activity'
p2245
tp2246
(lp2247
s(S'hsa-miR-615-3p'
p2248
S'HRAS'
p2249
S'decreases'
p2250
tp2251
(lp2252
s(S'ESRRA'
p2253
S'FOXD3'
p2254
S'increases'
p2255
tp2256
(lp2257
s(S'ELK1'
p2258
S'CYP26A1'
p2259
S'increases'
p2260
tp2261
(lp2262
s(S'Hexane-1,6-Diol'
p2263
S'HRAS'
p2264
S'increases_activity'
p2265
tp2266
(lp2267
s(S'MAZ'
p2268
S'NRAS'
p2269
S'increases'
p2270
tp2271
(lp2272
s(S'MIF'
p2273
S'CYP26A1'
p2274
S'increases'
p2275
tp2276
(lp2277
s(S'AHR'
p2278
S'POU2F1'
p2279
S'increases'
p2280
tp2281
(lp2282
s(S'SMAD3'
p2283
S'CYP26A1'
p2284
S'increases'
p2285
tp2286
(lp2287
s(S'PI-3-4-5-P3'
p2288
S'GELSOLIN'
p2289
S'binds'
p2290
tp2291
(lp2292
s(S'ADP'
p2293
S'P-S724-IRE1 DIMER'
p2294
S'binds'
p2295
tp2296
(lp2297
s(S'testosterone enanthate'
p2298
S'KRAS MRNA'
p2299
S'increases'
p2300
tp2301
(lp2302
s(S'CYP26A1'
p2303
S'ONECUT1'
p2304
S'increases'
p2305
tp2306
(lp2307
s(S'Valproic Acid'
p2308
S'NRAS MRNA'
p2309
S'decreases'
p2310
tp2311
(lp2312
s(S'GTF2A2'
p2313
S'CYP26A1'
p2314
S'increases'
p2315
tp2316
(lp2317
s(S'CEBPA'
p2318
S'FOXO3'
p2319
S'increases'
p2320
tp2321
(lp2322
s(S'GATA3'
p2323
S'POU2F1'
p2324
S'increases'
p2325
tp2326
(lp2327
s(S'PI3K'
p2328
S'RAC1B/GDP'
p2329
S'increases_activity'
p2330
tp2331
(lp2332
s(S'CDC25C'
p2333
S'YWHAB'
p2334
S'binds'
p2335
tp2336
(lp2337
s(S'RAC1/GTP'
p2338
S'PAK1/BETAPIX/PKL/NCK1-2'
p2339
S'increases_activity'
p2340
tp2341
(lp2342
s(S'SMAD1'
p2343
S'CYP26A1'
p2344
S'increases'
p2345
tp2346
(lp2347
s(S'PI3K'
p2348
S'FAK'
p2349
S'adds_modification'
p2350
tp2351
(lp2352
s(S'NRF1'
p2353
S'MAX'
p2354
S'increases'
p2355
tp2356
(lp2357
s(S'FOXI1'
p2358
S'RUNX2'
p2359
S'increases'
p2360
tp2361
(lp2362
s(S'7,8-Dihydro-7,8-dihydroxybenzo(a)pyrene 9,10-oxide'
p2363
S'HRAS MRNA'
p2364
S'increases'
p2365
tp2366
(lp2367
s(S'ETS1'
p2368
S'CBFA2T3'
p2369
S'increases'
p2370
tp2371
(lp2372
s(S'hsa-miR-98-5p'
p2373
S'NRAS'
p2374
S'decreases'
p2375
tp2376
(lp2377
s(S'PHOSPHORYLATED BRF1 (SER92, SER203):MRNA COMPLEX'
p2378
S'YWHAB'
p2379
S'binds'
p2380
tp2381
(lp2382
s(S'LMO2'
p2383
S'CYP26A1'
p2384
S'increases'
p2385
tp2386
(lp2387
s(S'SOS1'
p2388
S'GRB2:PFAK BOUND TO NCAM1:PFYN'
p2389
S'binds'
p2390
tp2391
(lp2392
s(S'GTF3A'
p2393
S'GATA6'
p2394
S'increases'
p2395
tp2396
(lp2397
s(S'ZIC2'
p2398
S'CYP26A1'
p2399
S'increases'
p2400
tp2401
(lp2402
s(S'PAX2'
p2403
S'POU3F2'
p2404
S'increases'
p2405
tp2406
(lp2407
s(S'CEBPD'
p2408
S'FOXO3'
p2409
S'increases'
p2410
tp2411
(lp2412
s(S'NF1'
p2413
S'CYP26A1'
p2414
S'increases'
p2415
tp2416
(lp2417
s(S'BRAF'
p2418
S'MEK2'
p2419
S'adds_modification'
p2420
tp2421
(lp2422
s(S'TFAP4'
p2423
S'RUNX1'
p2424
S'increases'
p2425
tp2426
(lp2427
s(S'FAK'
p2428
S'SOS'
p2429
S'binds'
p2430
tp2431
(lp2432
s(S'EGR1'
p2433
S'RUNX1'
p2434
S'increases'
p2435
tp2436
(lp2437
s(S'TCF4'
p2438
S'FOXO4'
p2439
S'increases'
p2440
tp2441
(lp2442
s(S'MAZ'
p2443
S'CBFA2T3'
p2444
S'increases'
p2445
tp2446
(lp2447
s(S'MEIS1'
p2448
S'HRAS'
p2449
S'increases'
p2450
tp2451
(lp2452
s(S'RELA'
p2453
S'CYP26A1'
p2454
S'increases'
p2455
tp2456
(lp2457
s(S'hsa-miR-877-3p'
p2458
S'NRAS'
p2459
S'decreases'
p2460
tp2461
(lp2462
s(S'MYC'
p2463
S'LEF1'
p2464
S'increases'
p2465
tp2466
(lp2467
s(S'FOXO4'
p2468
S'RUNX1'
p2469
S'increases'
p2470
tp2471
(lp2472
s(S'LEF1'
p2473
S'RUNX1'
p2474
S'increases'
p2475
tp2476
(lp2477
s(S'TFDP2'
p2478
S'GATA1'
p2479
S'increases'
p2480
tp2481
(lp2482
s(S'AHR'
p2483
S'CYP26A1'
p2484
S'increases'
p2485
tp2486
(lp2487
s(S'4-Nitroquinoline-1-oxide'
p2488
S'PTGS2 MRNA'
p2489
S'increases'
p2490
tp2491
(lp2492
s(S'TGIF'
p2493
S'FOXO3'
p2494
S'increases'
p2495
tp2496
(lp2497
s(S'FOXF2'
p2498
S'CEBPA'
p2499
S'increases'
p2500
tp2501
(lp2502
s(S'NFE2L1'
p2503
S'POU2F1'
p2504
S'increases'
p2505
tp2506
(lp2507
s(S'LHX3'
p2508
S'CYP26A1'
p2509
S'increases'
p2510
tp2511
(lp2512
s(S'HMGA1'
p2513
S'MEIS1'
p2514
S'increases'
p2515
tp2516
(lp2517
s(S'POU2F1'
p2518
S'CYP26A1'
p2519
S'increases'
p2520
tp2521
(lp2522
s(S'PRRX2'
p2523
S'HOXA9'
p2524
S'increases'
p2525
tp2526
(lp2527
s(S'ETS2'
p2528
S'CEBPG'
p2529
S'increases'
p2530
tp2531
(lp2532
s(S'hsa-miR-193b-3p'
p2533
S'KRAS'
p2534
S'decreases'
p2535
tp2536
(lp2537
s(S'RREB1'
p2538
S'RUNX1'
p2539
S'increases'
p2540
tp2541
(lp2542
s(S'IL2/IL2R BETA/GAMMA/JAK1/FYN/JAK3'
p2543
S'PI3K'
p2544
S'binds'
p2545
tp2546
(lp2547
s(S'ELK1'
p2548
S'MEIS1'
p2549
S'increases'
p2550
tp2551
(lp2552
s(S'CYP26A1'
p2553
S'HOXA9'
p2554
S'increases'
p2555
tp2556
(lp2557
s(S'SPZ1'
p2558
S'HOXA9'
p2559
S'increases'
p2560
tp2561
(lp2562
s(S'ERK1'
p2563
S'P-S218,222-MEK1'
p2564
S'binds'
p2565
tp2566
(lp2567
s(S'NHLH1'
p2568
S'MYC'
p2569
S'increases'
p2570
tp2571
(lp2572
s(S'Daunorubicin'
p2573
S'NRAS MRNA'
p2574
S'increases'
p2575
tp2576
(lp2577
s(S'HNF1A'
p2578
S'FOXA1'
p2579
S'increases'
p2580
tp2581
(lp2582
s(S'MYC'
p2583
S'ONECUT1'
p2584
S'increases'
p2585
tp2586
(lp2587
s(S'Vanadates'
p2588
S'HRAS PROTEIN'
p2589
S'increases'
p2590
tp2591
(lp2592
s(S'Purine nucleotide'
p2593
S'H+'
p2594
S'translocates'
p2595
tp2596
(lp2597
s(S'NFE2'
p2598
S'BACH1'
p2599
S'increases'
p2600
tp2601
(lp2602
s(S'EGR4'
p2603
S'CYP26A1'
p2604
S'increases'
p2605
tp2606
(lp2607
s(S'NRF1'
p2608
S'ONECUT1'
p2609
S'increases'
p2610
tp2611
(lp2612
s(S'GFI1'
p2613
S'HOXA9'
p2614
S'increases'
p2615
tp2616
(lp2617
s(S'NR1H4'
p2618
S'FOXD3'
p2619
S'increases'
p2620
tp2621
(lp2622
s(S'STAT6'
p2623
S'FOXA1'
p2624
S'increases'
p2625
tp2626
(lp2627
s(S'INSULIN RECEPTOR/INSULI/IRS1/GRB2/SHC'
p2628
S'SOS1'
p2629
S'binds'
p2630
tp2631
(lp2632
s(S'Tetrachlorodibenzodioxin'
p2633
S'KRAS MRNA'
p2634
S'increases'
p2635
tp2636
(lp2637
s(S'TCF3'
p2638
S'MYC'
p2639
S'increases'
p2640
tp2641
(lp2642
s(S'BACH1'
p2643
S'EN1'
p2644
S'increases'
p2645
tp2646
(lp2647
s(S'RFX1'
p2648
S'CYP26A1'
p2649
S'increases'
p2650
tp2651
(lp2652
s(S'ZEB1'
p2653
S'FOXD3'
p2654
S'increases'
p2655
tp2656
(lp2657
s(S'IRF7'
p2658
S'EN1'
p2659
S'increases'
p2660
tp2661
(lp2662
s(S'GAB2/GRB2/SOS1'
p2663
S'IL2/IL2R ALPHA/BETA/GAMMA/JAK1/LCK/JAK3/SHC'
p2664
S'binds'
p2665
tp2666
(lp2667
s(S'GATA3'
p2668
S'FOXA1'
p2669
S'increases'
p2670
tp2671
(lp2672
s(S'TFAP4'
p2673
S'CYP26A1'
p2674
S'increases'
p2675
tp2676
(lp2677
s(S'FOXF2'
p2678
S'MECOM'
p2679
S'increases'
p2680
tp2681
(lp2682
s(S'NF1'
p2683
S'POU2F1'
p2684
S'increases'
p2685
tp2686
(lp2687
s(S'IRF1'
p2688
S'FOXA1'
p2689
S'increases'
p2690
tp2691
(lp2692
s(S'Rho Family GTPase-active'
p2693
S'PIP5K1A'
p2694
S'increases_activity'
p2695
tp2696
(lp2697
s(S'POU6F1'
p2698
S'EN1'
p2699
S'increases'
p2700
tp2701
(lp2702
s(S'TCF4'
p2703
S'LEF1'
p2704
S'increases'
p2705
tp2706
(lp2707
s(S'MAZ'
p2708
S'FOXO3'
p2709
S'increases'
p2710
tp2711
(lp2712
s(S'POU3F2'
p2713
S'MECOM'
p2714
S'increases'
p2715
tp2716
(lp2717
s(S'GTF3A'
p2718
S'CYP26A1'
p2719
S'increases'
p2720
tp2721
(lp2722
s(S'PI-3-4-5-P3'
p2723
S'AKT2'
p2724
S'adds_modification'
p2725
tp2726
(lp2727
s(S'VSX1'
p2728
S'POU2F1'
p2729
S'increases'
p2730
tp2731
(lp2732
s(S'PHOSPHORYLATED TTP:MRNA COMPLEX'
p2733
S'YWHAB'
p2734
S'binds'
p2735
tp2736
(lp2737
s(S'MEIS1'
p2738
S'MYC'
p2739
S'increases'
p2740
tp2741
(lp2742
s(S'Complex (PDGF receptor A/PDGF receptor B)'
p2743
S'RASGAP'
p2744
S'adds_modification'
p2745
tp2746
(lp2747
s(S'RORA'
p2748
S'CYP26A1'
p2749
S'increases'
p2750
tp2751
(lp2752
s(S'ATF4'
p2753
S'CDC5L'
p2754
S'increases'
p2755
tp2756
(lp2757
s(S'SHC/RasGAP'
p2758
S'RAS FAMILY/GTP'
p2759
S'increases_activity'
p2760
tp2761
(lp2762
s(S'NKX2-1'
p2763
S'MYC'
p2764
S'increases'
p2765
tp2766
(lp2767
s(S'NF1'
p2768
S'SRF'
p2769
S'increases'
p2770
tp2771
(lp2772
s(S'STAT4'
p2773
S'NRAS'
p2774
S'increases'
p2775
tp2776
(lp2777
s(S'POU6F1'
p2778
S'MEIS1'
p2779
S'increases'
p2780
tp2781
(lp2782
s(S'P-KIT COMPLEX'
p2783
S'GRB2:SOS1'
p2784
S'binds'
p2785
tp2786
(lp2787
s(S'MYCN'
p2788
S'MAX'
p2789
S'increases'
p2790
tp2791
(lp2792
s(S'STAT5A'
p2793
S'CYP26A1'
p2794
S'increases'
p2795
tp2796
(lp2797
s(S'GATA3'
p2798
S'EN1'
p2799
S'increases'
p2800
tp2801
(lp2802
s(S'E4F1'
p2803
S'FOXD3'
p2804
S'increases'
p2805
tp2806
(lp2807
s(S'MYB'
p2808
S'ONECUT1'
p2809
S'increases'
p2810
tp2811
(lp2812
s(S'Cadmium Chloride'
p2813
S'NRAS PROTEIN'
p2814
S'increases'
p2815
tp2816
(lp2817
s(S'Deoxycholic Acid'
p2818
S'HRAS PROTEIN'
p2819
S'increases_activity'
p2820
tp2821
(lp2822
s(S'HLF'
p2823
S'CYP26A1'
p2824
S'increases'
p2825
tp2826
(lp2827
s(S'GMCSF/GMR ALPHA/CSF2RB/JAK2 (DIMER)'
p2828
S'YWHAZ'
p2829
S'binds'
p2830
tp2831
(lp2832
s(S'HNF1A'
p2833
S'FOXF2'
p2834
S'increases'
p2835
tp2836
(lp2837
s(S'FOXF2'
p2838
S'GATA6'
p2839
S'increases'
p2840
tp2841
(lp2842
s(S'Arsenic'
p2843
S'GSS PROTEIN'
p2844
S'increases'
p2845
tp2846
(lp2847
s(S'COMPLEX (SOS/GRB2)'
p2848
S'FGFR1-4'
p2849
S'binds'
p2850
tp2851
(lp2852
s(S'MYOD1'
p2853
S'NRAS'
p2854
S'increases'
p2855
tp2856
(lp2857
s(S'MECOM'
p2858
S'CYP26A1'
p2859
S'increases'
p2860
tp2861
(lp2862
s(S'PBX1'
p2863
S'CYP26A1'
p2864
S'increases'
p2865
tp2866
(lp2867
s(S'MAZ'
p2868
S'MEIS1'
p2869
S'increases'
p2870
tp2871
(lp2872
s(S'PAX4'
p2873
S'ELK1'
p2874
S'increases'
p2875
tp2876
(lp2877
s(S'ESRRA'
p2878
S'MECOM'
p2879
S'increases'
p2880
tp2881
(lp2882
s(S'CEBPD'
p2883
S'TLX2'
p2884
S'increases'
p2885
tp2886
(lp2887
s(S'CRX'
p2888
S'FOXA1'
p2889
S'increases'
p2890
tp2891
(lp2892
s(S'GABPB1'
p2893
S'NRAS'
p2894
S'increases'
p2895
tp2896
(lp2897
s(S'CRX'
p2898
S'MEIS1'
p2899
S'increases'
p2900
tp2901
(lp2902
s(S'pirinixic acid/PPARA protein'
p2903
S'KRAS MRNA'
p2904
S'increases'
p2905
tp2906
(lp2907
s(S'BACH2'
p2908
S'FOXA1'
p2909
S'increases'
p2910
tp2911
(lp2912
s(S'JUN'
p2913
S'MECOM'
p2914
S'increases'
p2915
tp2916
(lp2917
s(S'7,8-Dihydro-7,8-dihydroxybenzo(a)pyrene 9,10-oxide'
p2918
S'KRAS MRNA'
p2919
S'decreases'
p2920
tp2921
(lp2922
s(S'SRY'
p2923
S'FOXO4'
p2924
S'increases'
p2925
tp2926
(lp2927
s(S'PI3K'
p2928
S'AKT1'
p2929
S'adds_modification'
p2930
tp2931
(lp2932
S'A recent paper has shown that activation of the PtdIns3K-AKT1 signaling molecules link receptor tyrosine kinases to mTOR activation (PI3K-AKT-mTOR), which is an important signal that inhibits autophagy.'
p2933
as(S'GATA3'
p2934
S'CYP26A1'
p2935
S'increases'
p2936
tp2937
(lp2938
s(S'RAS:GTP'
p2939
S'P-EPHBS:EFNBS:RASA1'
p2940
S'binds'
p2941
tp2942
(lp2943
s(S'STAT5A'
p2944
S'MECOM'
p2945
S'increases'
p2946
tp2947
(lp2948
s(S'RAS family/GTP'
p2949
S'RAF1'
p2950
S'increases_activity'
p2951
tp2952
(lp2953
s(S'RHOA/GTP'
p2954
S'PLD1-2'
p2955
S'increases_activity'
p2956
tp2957
(lp2958
s(S'FOXJ2'
p2959
S'CYP26A1'
p2960
S'increases'
p2961
tp2962
(lp2963
s(S'LEF1'
p2964
S'MECOM'
p2965
S'increases'
p2966
tp2967
(lp2968
s(S'GABPB2'
p2969
S'CDC5L'
p2970
S'increases'
p2971
tp2972
(lp2973
s(S'ESRRA'
p2974
S'CYP26A1'
p2975
S'increases'
p2976
tp2977
(lp2978
s(S'PI-3-4-5-P3'
p2979
S'WAVE2/NAP1/SRA1/ABI1/HSPC300'
p2980
S'translocates'
p2981
tp2982
(lp2983
s(S'CUX1'
p2984
S'MECOM'
p2985
S'increases'
p2986
tp2987
(lp2988
s(S'MAX'
p2989
S'CYP26A1'
p2990
S'increases'
p2991
tp2992
(lp2993
s(S'RXRB'
p2994
S'FOXD3'
p2995
S'increases'
p2996
tp2997
(lp2998
s(S'IRF1'
p2999
S'NRAS'
p3000
S'increases'
p3001
tp3002
(lp3003
s(S'MECOM'
p3004
S'MAX'
p3005
S'increases'
p3006
tp3007
(lp3008
s(S'PAX6'
p3009
S'CYP26A1'
p3010
S'increases'
p3011
tp3012
(lp3013
s(S'GRB2/SOS1'
p3014
S'EGFR/EGFR/EGF/EGF/P46 SHC'
p3015
S'binds'
p3016
tp3017
(lp3018
s(S'POU6F1'
p3019
S'POU2F1'
p3020
S'increases'
p3021
tp3022
(lp3023
s(S'RUNX1'
p3024
S'MYOD1'
p3025
S'increases'
p3026
tp3027
(lp3028
s(S'COMPLEX (GRB2/SOS)'
p3029
S'EGFR'
p3030
S'binds'
p3031
tp3032
(lp3033
s(S'MAZ'
p3034
S'MECOM'
p3035
S'increases'
p3036
tp3037
(lp3038
s(S'REPIN1'
p3039
S'EN1'
p3040
S'increases'
p3041
tp3042
(lp3043
s(S'RAS family/GTP'
p3044
S'RAF1'
p3045
S'adds_modification'
p3046
tp3047
(lp3048
s(S'E4F1'
p3049
S'CYP26A1'
p3050
S'increases'
p3051
tp3052
(lp3053
s(S'Rac'
p3054
S'MEKK1-5'
p3055
S'adds_modification'
p3056
tp3057
(lp3058
s(S'HAND1'
p3059
S'CYP26A1'
p3060
S'increases'
p3061
tp3062
(lp3063
s(S'Quercetin'
p3064
S'NRAS PROTEIN'
p3065
S'decreases'
p3066
tp3067
(lp3068
s(S'HRAS:GTP'
p3069
S'CRAF'
p3070
S'binds'
p3071
tp3072
(lp3073
s(S'REPIN1'
p3074
S'FOXA1'
p3075
S'increases'
p3076
tp3077
(lp3078
s(S'hsa-miR-155-5p'
p3079
S'KRAS'
p3080
S'decreases'
p3081
tp3082
(lp3083
s(S'PAX4'
p3084
S'EN1'
p3085
S'increases'
p3086
tp3087
(lp3088
s(S'FOXN1'
p3089
S'JUN'
p3090
S'increases'
p3091
tp3092
(lp3093
s(S'TFCP2'
p3094
S'GATA1'
p3095
S'increases'
p3096
tp3097
(lp3098
s(S'SHC'
p3099
S'GRAP2'
p3100
S'binds'
p3101
tp3102
(lp3103
s(S'CEBPG'
p3104
S'NRAS'
p3105
S'increases'
p3106
tp3107
(lp3108
s(S'FOXN1'
p3109
S'FOXO4'
p3110
S'increases'
p3111
tp3112
(lp3113
s(S'IL2/IL2R ALPHA/BETA/GAMMA/JAK1/LCK/JAK3/IRS1-2'
p3114
S'PI3K'
p3115
S'binds'
p3116
tp3117
(lp3118
s(S'POU1F1'
p3119
S'EN1'
p3120
S'increases'
p3121
tp3122
(lp3123
s(S'FOXJ1'
p3124
S'POU2F1'
p3125
S'increases'
p3126
tp3127
(lp3128
s(S'YY1'
p3129
S'POU2F1'
p3130
S'increases'
p3131
tp3132
(lp3133
s(S'7,8-Dihydro-7,8-dihydroxybenzo(a)pyrene 9,10-oxide'
p3134
S'NRAS MRNA'
p3135
S'increases'
p3136
tp3137
(lp3138
s(S'EGF/EGFR'
p3139
S'HRAS/GDP'
p3140
S'increases_activity'
p3141
tp3142
(lp3143
s(S'TFAP4'
p3144
S'GABPB2'
p3145
S'increases'
p3146
tp3147
(lp3148
s(S'TFAP2A'
p3149
S'POU3F2'
p3150
S'increases'
p3151
tp3152
(lp3153
s(S'TCF12'
p3154
S'CBFA2T3'
p3155
S'increases'
p3156
tp3157
(lp3158
s(S'STAT3'
p3159
S'IRF1'
p3160
S'increases'
p3161
tp3162
(lp3163
s(S'MYOD1'
p3164
S'GATA1'
p3165
S'increases'
p3166
tp3167
(lp3168
s(S'REPIN1'
p3169
S'HRAS'
p3170
S'increases'
p3171
tp3172
(lp3173
s(S'PAX4'
p3174
S'MAX'
p3175
S'increases'
p3176
tp3177
(lp3178
s(S'PAX2'
p3179
S'FOXA1'
p3180
S'increases'
p3181
tp3182
(lp3183
s(S'Lipopolysaccharides'
p3184
S'HRAS PROTEIN'
p3185
S'increases_activity'
p3186
tp3187
(lp3188
s(S'7,8-Dihydro-7,8-dihydroxybenzo(a)pyrene 9,10-oxide'
p3189
S'KRAS MRNA'
p3190
S'increases'
p3191
tp3192
(lp3193
s(S'REPIN1'
p3194
S'GATA1'
p3195
S'increases'
p3196
tp3197
(lp3198
s(S'Formaldehyde'
p3199
S'HRAS MRNA'
p3200
S'increases'
p3201
tp3202
(lp3203
s(S'ESRRA'
p3204
S'STAT5A'
p3205
S'increases'
p3206
tp3207
(lp3208
s(S'farnesylthiosalicylic acid'
p3209
S'HRAS PROTEIN'
p3210
S'decreases'
p3211
tp3212
(lp3213
s(S'JUN'
p3214
S'RUNX1'
p3215
S'increases'
p3216
tp3217
(lp3218
s(S'FOXD3'
p3219
S'RUNX1'
p3220
S'increases'
p3221
tp3222
(lp3223
s(S'SOX9'
p3224
S'CYP26A1'
p3225
S'increases'
p3226
tp3227
(lp3228
s(S'hexabromocyclododecane'
p3229
S'HRAS MRNA'
p3230
S'increases'
p3231
tp3232
(lp3233
s(S'RUNX2'
p3234
S'KRAS'
p3235
S'increases'
p3236
tp3237
(lp3238
s(S'PGR'
p3239
S'CYP26A1'
p3240
S'increases'
p3241
tp3242
(lp3243
s(S'CYP26A1'
p3244
S'MAZ'
p3245
S'increases'
p3246
tp3247
(lp3248
s(S'RAC1/GTP'
p3249
S'AKT1'
p3250
S'adds_modification'
p3251
tp3252
(lp3253
s(S'FOXO3'
p3254
S'CYP26A1'
p3255
S'increases'
p3256
tp3257
(lp3258
s(S'MAX'
p3259
S'SRF'
p3260
S'increases'
p3261
tp3262
(lp3263
s(S'RUNX2'
p3264
S'NRAS'
p3265
S'increases'
p3266
tp3267
(lp3268
s(S'HSF2'
p3269
S'CYP26A1'
p3270
S'increases'
p3271
tp3272
(lp3273
s(S'IL2/IL2R ALPHA/BETA/GAMMA/JAK1/LCK/JAK3/SHC/GRB2/SOS1/GAB2/SHP2'
p3274
S'PI3K'
p3275
S'binds'
p3276
tp3277
(lp3278
s(S'SPI1'
p3279
S'STAT5A'
p3280
S'increases'
p3281
tp3282
(lp3283
s(S'ZHX2'
p3284
S'MYC'
p3285
S'increases'
p3286
tp3287
(lp3288
s(S'RAF1-BRAF'
p3289
S'MEK1-2'
p3290
S'increases_activity'
p3291
tp3292
(lp3293
s(S'SHC'
p3294
S'GRB2'
p3295
S'binds'
p3296
tp3297
(lp3298
s(S'RB1'
p3299
S'GATA1'
p3300
S'increases'
p3301
tp3302
(lp3303
s(S'TCF3'
p3304
S'FOXJ2'
p3305
S'increases'
p3306
tp3307
(lp3308
s(S'FOXJ2'
p3309
S'NRAS'
p3310
S'increases'
p3311
tp3312
(lp3313
s(S'REPIN1'
p3314
S'LEF1'
p3315
S'increases'
p3316
tp3317
(lp3318
s(S'Aflatoxin B1'
p3319
S'HRAS MRNA'
p3320
S'increases'
p3321
tp3322
(lp3323
s(S'PAX4'
p3324
S'MEIS1'
p3325
S'increases'
p3326
tp3327
(lp3328
s(S'FOXF2'
p3329
S'FOXD3'
p3330
S'increases'
p3331
tp3332
(lp3333
s(S'CBFA2T3'
p3334
S'RUNX1'
p3335
S'increases'
p3336
tp3337
(lp3338
s(S'FOXC1'
p3339
S'HOXA9'
p3340
S'increases'
p3341
tp3342
(lp3343
s(S'DBP'
p3344
S'CYP26A1'
p3345
S'increases'
p3346
tp3347
(lp3348
s(S'TGIF'
p3349
S'EN1'
p3350
S'increases'
p3351
tp3352
(lp3353
s(S'PI-3-4-5-P3'
p3354
S'P62DOK'
p3355
S'adds_modification'
p3356
tp3357
(lp3358
s(S'JUN'
p3359
S'TLX2'
p3360
S'increases'
p3361
tp3362
(lp3363
s(S'Benzo(a)pyrene'
p3364
S'HRAS MRNA'
p3365
S'increases'
p3366
tp3367
(lp3368
s(S'STAT4'
p3369
S'CYP26A1'
p3370
S'increases'
p3371
tp3372
(lp3373
s(S'EGFR/EGFR/EGF/EGF'
p3374
S'SRC'
p3375
S'adds_modification'
p3376
tp3377
(lp3378
s(S'FOXQ1'
p3379
S'FOXD3'
p3380
S'increases'
p3381
tp3382
(lp3383
s(S'FOXJ1'
p3384
S'NRAS'
p3385
S'increases'
p3386
tp3387
(lp3388
s(S'TCF3'
p3389
S'POU2F1'
p3390
S'increases'
p3391
tp3392
(lp3393
s(S'MYB'
p3394
S'CYP26A1'
p3395
S'increases'
p3396
tp3397
(lp3398
s(S'GATA4'
p3399
S'CYP26A1'
p3400
S'increases'
p3401
tp3402
(lp3403
s(S'ELK1'
p3404
S'STAT4'
p3405
S'increases'
p3406
tp3407
(lp3408
s(S'CYP26A1'
p3409
S'LEF1'
p3410
S'increases'
p3411
tp3412
(lp3413
s(S"Guanosine-5'-Diphosphate"
p3414
S'HRAS'
p3415
S'increases_activity'
p3416
tp3417
(lp3418
s(S'ETV4'
p3419
S'CYP26A1'
p3420
S'increases'
p3421
tp3422
(lp3423
s(S'EPHRIN B/EPHB2'
p3424
S'RASGAP'
p3425
S'binds'
p3426
tp3427
(lp3428
s(S'ESR1'
p3429
S'FOXF2'
p3430
S'increases'
p3431
tp3432
(lp3433
s(S'CDC5L'
p3434
S'FOXA1'
p3435
S'increases'
p3436
tp3437
(lp3438
s(S'MAZ'
p3439
S'HOXA9'
p3440
S'increases'
p3441
tp3442
(lp3443
s(S'HIF1A'
p3444
S'MAX'
p3445
S'increases'
p3446
tp3447
(lp3448
s(S'FOXN1'
p3449
S'HOXA9'
p3450
S'increases'
p3451
tp3452
(lp3453
s(S'LEF1'
p3454
S'BACH1'
p3455
S'increases'
p3456
tp3457
(lp3458
s(S'PDX1'
p3459
S'FOXO3'
p3460
S'increases'
p3461
tp3462
(lp3463
s(S'CBFA2T3'
p3464
S'CYP26A1'
p3465
S'increases'
p3466
tp3467
(lp3468
s(S'Rabex5'
p3469
S'HRAS/GTP'
p3470
S'adds_modification'
p3471
tp3472
(lp3473
s(S'CBFA2T3'
p3474
S'RUNX2'
p3475
S'increases'
p3476
tp3477
(lp3478
s(S'PI-3-4-5-P3'
p3479
S'ARAP3'
p3480
S'translocates'
p3481
tp3482
(lp3483
s(S'CART1'
p3484
S'CYP26A1'
p3485
S'increases'
p3486
tp3487
(lp3488
s(S'Arsenic'
p3489
S'NRAS MRNA'
p3490
S'increases'
p3491
tp3492
(lp3493
s(S'NRF1'
p3494
S'CDC5L'
p3495
S'increases'
p3496
tp3497
(lp3498
s(S'Quercetin'
p3499
S'HRAS PROTEIN'
p3500
S'decreases'
p3501
tp3502
(lp3503
s(S"N,N'-DIMETHYL-N-(ACETYL)-N'-(7-NITROBENZ-2-OXA-1,3-DIAZOL-4-YL)ETHYLENEDIAMINE"
p3504
S'HRAS'
p3505
S'increases_activity'
p3506
tp3507
(lp3508
s(S'TFDP1'
p3509
S'FOXD3'
p3510
S'increases'
p3511
tp3512
(lp3513
s(S'AR'
p3514
S'TLX2'
p3515
S'increases'
p3516
tp3517
(lp3518
s(S'hsa-miR-181c-5p'
p3519
S'KRAS'
p3520
S'decreases'
p3521
tp3522
(lp3523
s(S'SMAD3'
p3524
S'CBFA2T3'
p3525
S'increases'
p3526
tp3527
(lp3528
s(S'HOXA9'
p3529
S'NRAS'
p3530
S'increases'
p3531
tp3532
(lp3533
s(S'PITX2'
p3534
S'CYP26A1'
p3535
S'increases'
p3536
tp3537
(lp3538
s(S'ATF3'
p3539
S'CYP26A1'
p3540
S'increases'
p3541
tp3542
(lp3543
s(S'E2F1'
p3544
S'MAZ'
p3545
S'increases'
p3546
tp3547
(lp3548
s(S'Ethyl Methanesulfonate'
p3549
S'HRAS MRNA'
p3550
S'increases'
p3551
tp3552
(lp3553
s(S'LMO2'
p3554
S'FOXA1'
p3555
S'increases'
p3556
tp3557
(lp3558
s(S'FOXC1'
p3559
S'POU2F1'
p3560
S'increases'
p3561
tp3562
(lp3563
s(S'DDIT3'
p3564
S'CYP26A1'
p3565
S'increases'
p3566
tp3567
(lp3568
s(S'PAX8'
p3569
S'CYP26A1'
p3570
S'increases'
p3571
tp3572
(lp3573
s(S'LHX3'
p3574
S'EN1'
p3575
S'increases'
p3576
tp3577
(lp3578
s(S'KAT2B'
p3579
S'CYP26A1'
p3580
S'increases'
p3581
tp3582
(lp3583
s(S'P100'
p3584
S'MYB'
p3585
S'binds'
p3586
tp3587
(lp3588
s(S'SOX9'
p3589
S'FOXA1'
p3590
S'increases'
p3591
tp3592
(lp3593
s(S'HIF1A'
p3594
S'EN1'
p3595
S'increases'
p3596
tp3597
(lp3598
s(S'REPIN1'
p3599
S'RUNX1'
p3600
S'increases'
p3601
tp3602
(lp3603
s(S'MYOD1'
p3604
S'BACH1'
p3605
S'increases'
p3606
tp3607
(lp3608
s(S'EBF2'
p3609
S'REPIN1'
p3610
S'increases'
p3611
tp3612
(lp3613
s(S'bisphenol A'
p3614
S'HRAS MRNA'
p3615
S'increases'
p3616
tp3617
(lp3618
s(S'E2F1'
p3619
S'EN1'
p3620
S'increases'
p3621
tp3622
(lp3623
s(S'MYC/Max/MIZ-1'
p3624
S'GALECTIN-1'
p3625
S'decreases'
p3626
tp3627
(lp3628
s(S'PI-3-4-5-P3'
p3629
S'WAVE2/NAP1/SRA1/ABI1/HSPC300'
p3630
S'adds_modification'
p3631
tp3632
(lp3633
s(S'FOXF2'
p3634
S'FOXO3'
p3635
S'increases'
p3636
tp3637
(lp3638
s(S'REPIN1'
p3639
S'STAT5A'
p3640
S'increases'
p3641
tp3642
(lp3643
s(S'RUNX1'
p3644
S'NRAS'
p3645
S'increases'
p3646
tp3647
(lp3648
s(S'benzo(a)pyrene 7,8-dihydrodiol'
p3649
S'HRAS MRNA'
p3650
S'increases'
p3651
tp3652
(lp3653
s(S'RAC1/GTP'
p3654
S'PAK1 (DIMER)'
p3655
S'adds_modification'
p3656
tp3657
(lp3658
s(S'PAX4'
p3659
S'POU2F1'
p3660
S'increases'
p3661
tp3662
(lp3663
s(S'MYOD1'
p3664
S'CBFA2T3'
p3665
S'increases'
p3666
tp3667
(lp3668
s(S'STAT5A'
p3669
S'RUNX2'
p3670
S'increases'
p3671
tp3672
(lp3673
s(S'EBF2'
p3674
S'FOXJ2'
p3675
S'increases'
p3676
tp3677
(lp3678
s(S'Estradiol'
p3679
S'KRAS MRNA'
p3680
S'increases'
p3681
tp3682
(lp3683
s(S'RXRB'
p3684
S'CYP26A1'
p3685
S'increases'
p3686
tp3687
(lp3688
s(S'bisphenol A'
p3689
S'KRAS MRNA'
p3690
S'decreases'
p3691
tp3692
(lp3693
s(S'COMPLEX (GRB2/SOS)'
p3694
S'FGFR1-4'
p3695
S'binds'
p3696
tp3697
(lp3698
s(S'POU2F1'
p3699
S'RUNX1'
p3700
S'increases'
p3701
tp3702
(lp3703
s(S'TCF3'
p3704
S'TLX2'
p3705
S'increases'
p3706
tp3707
(lp3708
s(S'SPZ1'
p3709
S'POU2F1'
p3710
S'increases'
p3711
tp3712
(lp3713
s(S'TFAP4'
p3714
S'FOXO4'
p3715
S'increases'
p3716
tp3717
(lp3718
s(S'OR5I1'
p3719
S'MECOM'
p3720
S'increases'
p3721
tp3722
(lp3723
s(S'Rho Family GTPase-active'
p3724
S'JNK1'
p3725
S'adds_modification'
p3726
tp3727
(lp3728
s(S'TFDP1'
p3729
S'POU2F1'
p3730
S'increases'
p3731
tp3732
(lp3733
s(S'AHR'
p3734
S'MAX'
p3735
S'increases'
p3736
tp3737
(lp3738
s(S'BACH1'
p3739
S'CYP26A1'
p3740
S'increases'
p3741
tp3742
(lp3743
s(S'ZBTB14'
p3744
S'MAZ'
p3745
S'increases'
p3746
tp3747
(lp3748
s(S'TCF3'
p3749
S'FOXO4'
p3750
S'increases'
p3751
tp3752
(lp3753
s(S'MASTERMIND'
p3754
S'NICS'
p3755
S'binds'
p3756
tp3757
(lp3758
s(S'BPTF'
p3759
S'FOXO4'
p3760
S'increases'
p3761
tp3762
(lp3763
s(S'MYOD1'
p3764
S'RUNX1'
p3765
S'increases'
p3766
tp3767
(lp3768
s(S'JUN'
p3769
S'CYP26A1'
p3770
S'increases'
p3771
tp3772
(lp3773
s(S'BPTF'
p3774
S'CYP26A1'
p3775
S'increases'
p3776
tp3777
(lp3778
s(S'POU3F1'
p3779
S'CYP26A1'
p3780
S'increases'
p3781
tp3782
(lp3783
s(S'NRF1'
p3784
S'CYP26A1'
p3785
S'increases'
p3786
tp3787
(lp3788
s(S'TFAP2C'
p3789
S'POU3F2'
p3790
S'increases'
p3791
tp3792
(lp3793
s(S'NFAT1-C-4-INACTIVE2'
p3794
S'YWHAQ'
p3795
S'binds'
p3796
tp3797
(lp3798
s(S'STAT6'
p3799
S'ONECUT1'
p3800
S'increases'
p3801
tp3802
(lp3803
s(S'RUNX1'
p3804
S'RUNX2'
p3805
S'increases'
p3806
tp3807
(lp3808
s(S'ZIC3'
p3809
S'MYCN'
p3810
S'increases'
p3811
tp3812
(lp3813
s(S'CYP26A1'
p3814
S'MAX'
p3815
S'increases'
p3816
tp3817
(lp3818
s(S'ETS2'
p3819
S'FOXO4'
p3820
S'increases'
p3821
tp3822
(lp3823
s(S'GATA6'
p3824
S'FOXA1'
p3825
S'increases'
p3826
tp3827
(lp3828
s(S'Doxorubicin'
p3829
S'HRAS MRNA'
p3830
S'increases'
p3831
tp3832
(lp3833
s(S'PPARA'
p3834
S'HOXA9'
p3835
S'increases'
p3836
tp3837
(lp3838
s(S'REPIN1'
p3839
S'GABPB2'
p3840
S'increases'
p3841
tp3842
(lp3843
s(S'FOXN1'
p3844
S'FOXA1'
p3845
S'increases'
p3846
tp3847
(lp3848
s(S'Dronabinol'
p3849
S'KRAS MRNA'
p3850
S'increases'
p3851
tp3852
(lp3853
s(S'FOXO1'
p3854
S'RUNX1'
p3855
S'increases'
p3856
tp3857
(lp3858
s(S'SMAD4'
p3859
S'HOXA9'
p3860
S'increases'
p3861
tp3862
(lp3863
s(S'PAX4'
p3864
S'JUN'
p3865
S'increases'
p3866
tp3867
(lp3868
s(S'Raf-1'
p3869
S'MEK'
p3870
S'adds_modification'
p3871
tp3872
(lp3873
s(S'PIM1'
p3874
S'MYC/MAX'
p3875
S'binds'
p3876
tp3877
(lp3878
s(S'YY1'
p3879
S'MECOM'
p3880
S'increases'
p3881
tp3882
(lp3883
s(S'NRF1'
p3884
S'MAZ'
p3885
S'increases'
p3886
tp3887
(lp3888
s(S'GATA1'
p3889
S'MECOM'
p3890
S'increases'
p3891
tp3892
(lp3893
s(S'PDGF/PDGFRA'
p3894
S'SHC/GRB2/SOS1'
p3895
S'increases_activity'
p3896
tp3897
(lp3898
s(S'GRB2/SOS1'
p3899
S'FAK'
p3900
S'binds'
p3901
tp3902
(lp3903
s(S'HNF4A'
p3904
S'HOXA9'
p3905
S'increases'
p3906
tp3907
(lp3908
s(S'FOXA2'
p3909
S'CYP26A1'
p3910
S'increases'
p3911
tp3912
(lp3913
s(S'FOXI1'
p3914
S'CYP26A1'
p3915
S'increases'
p3916
tp3917
(lp3918
s(S'GRB2 BOUND TO TIE2'
p3919
S'SOS1'
p3920
S'binds'
p3921
tp3922
(lp3923
s(S'PHOSPHORYLATED BRF1 (SER54, SER92, SER203):MRNA COMPLEX'
p3924
S'YWHAB'
p3925
S'binds'
p3926
tp3927
(lp3928
s(S'COMPLEX (GRB2/SOS)'
p3929
S'GAB'
p3930
S'binds'
p3931
tp3932
(lp3933
s(S'NFE2'
p3934
S'TLX2'
p3935
S'increases'
p3936
tp3937
(lp3938
s(S'MAX'
p3939
S'FOXF2'
p3940
S'increases'
p3941
tp3942
(lp3943
s(S'GRB2:SOS1'
p3944
S'ACTIVATED FGFR:P-FRS2'
p3945
S'binds'
p3946
tp3947
(lp3948
s(S'FOXO4'
p3949
S'MECOM'
p3950
S'increases'
p3951
tp3952
(lp3953
s(S'TCF3'
p3954
S'LEF1'
p3955
S'increases'
p3956
tp3957
(lp3958
s(S'ZIC1'
p3959
S'LEF1'
p3960
S'increases'
p3961
tp3962
(lp3963
s(S'NFIL3'
p3964
S'CYP26A1'
p3965
S'increases'
p3966
tp3967
(lp3968
s(S'RAF1'
p3969
S'MEK1'
p3970
S'increases_activity'
p3971
tp3972
(lp3973
s(S'AR'
p3974
S'FOXA1'
p3975
S'increases'
p3976
tp3977
(lp3978
s(S'POU2F1'
p3979
S'POU3F2'
p3980
S'increases'
p3981
tp3982
(lp3983
s(S'PCBP1'
p3984
S'MAZ'
p3985
S'increases'
p3986
tp3987
(lp3988
s(S'LEF1'
p3989
S'HOXA9'
p3990
S'increases'
p3991
tp3992
(lp3993
s(S'NR6A1'
p3994
S'CYP26A1'
p3995
S'increases'
p3996
tp3997
(lp3998
s(S'PI3K'
p3999
S'BTK'
p4000
S'translocates'
p4001
tp4002
(lp4003
s(S'AHR'
p4004
S'RUNX1'
p4005
S'increases'
p4006
tp4007
(lp4008
s(S'NR1H4'
p4009
S'CYP26A1'
p4010
S'increases'
p4011
tp4012
(lp4013
s(S'NR2F2'
p4014
S'CYP26A1'
p4015
S'increases'
p4016
tp4017
(lp4018
s(S'GNB1/GNG2'
p4019
S'PI3K'
p4020
S'binds'
p4021
tp4022
(lp4023
s(S'RHOA/GTP'
p4024
S'PKN2'
p4025
S'increases_activity'
p4026
tp4027
(lp4028
s(S'MAZ'
p4029
S'LEF1'
p4030
S'increases'
p4031
tp4032
(lp4033
s(S'RFX1'
p4034
S'MECOM'
p4035
S'increases'
p4036
tp4037
(lp4038
s(S'RUNX1'
p4039
S'HOXA9'
p4040
S'increases'
p4041
tp4042
(lp4043
s(S'FOXL1'
p4044
S'POU2F1'
p4045
S'increases'
p4046
tp4047
(lp4048
s(S'GRB2:SOS1'
p4049
S'PHOSPHORYLATED ERBB2:EGFR HETERODIMERS'
p4050
S'binds'
p4051
tp4052
(lp4053
s(S'TFAP4'
p4054
S'MYCN'
p4055
S'increases'
p4056
tp4057
(lp4058
s(S'E2F1'
p4059
S'GATA1'
p4060
S'increases'
p4061
tp4062
(lp4063
s(S'PTF1A'
p4064
S'GATA6'
p4065
S'increases'
p4066
tp4067
(lp4068
s(S'REL'
p4069
S'CYP26A1'
p4070
S'increases'
p4071
tp4072
(lp4073
s(S'MTF1'
p4074
S'JUN'
p4075
S'increases'
p4076
tp4077
(lp4078
s(S'ZEB1'
p4079
S'REPIN1'
p4080
S'increases'
p4081
tp4082
(lp4083
s(S'IRF8'
p4084
S'GATA6'
p4085
S'increases'
p4086
tp4087
(lp4088
s(S'P-Y349,350-SHC1:PHOSPHORYLATED ERBB2 HETERODIMERS'
p4089
S'GRB2:SOS1'
p4090
S'binds'
p4091
tp4092
(lp4093
s(S'BACH2'
p4094
S'EN1'
p4095
S'increases'
p4096
tp4097
(lp4098
s(S'GFI1'
p4099
S'MEIS1'
p4100
S'increases'
p4101
tp4102
(lp4103
s(S'FOXN1'
p4104
S'LEF1'
p4105
S'increases'
p4106
tp4107
(lp4108
s(S'CYP26A1'
p4109
S'JUN'
p4110
S'increases'
p4111
tp4112
(lp4113
s(S'TCF3'
p4114
S'ONECUT1'
p4115
S'increases'
p4116
tp4117
(lp4118
s(S'FOXF2'
p4119
S'POU2F1'
p4120
S'increases'
p4121
tp4122
(lp4123
s(S'MAZ'
p4124
S'MAX'
p4125
S'increases'
p4126
tp4127
(lp4128
s(S'FOXN1'
p4129
S'CYP26A1'
p4130
S'increases'
p4131
tp4132
(lp4133
s(S'HNF1A'
p4134
S'FOXD3'
p4135
S'increases'
p4136
tp4137
(lp4138
s(S'EGR2'
p4139
S'RUNX1'
p4140
S'increases'
p4141
tp4142
(lp4143
s(S'MYC'
p4144
S'RUNX2'
p4145
S'increases'
p4146
tp4147
(lp4148
s(S'TFAP2A'
p4149
S'IRF1'
p4150
S'increases'
p4151
tp4152
(lp4153
s(S'FOXO4'
p4154
S'YY1'
p4155
S'increases'
p4156
tp4157
(lp4158
s(S'VEGFR2 (dimer)/VEGFA (dimer)'
p4159
S'SRC'
p4160
S'adds_modification'
p4161
tp4162
(lp4163
s(S'resveratrol'
p4164
S'KRAS MRNA'
p4165
S'decreases'
p4166
tp4167
(lp4168
s(S'FOXO4'
p4169
S'CYP26A1'
p4170
S'increases'
p4171
tp4172
(lp4173
s(S'STAT3'
p4174
S'FOXO4'
p4175
S'increases'
p4176
tp4177
(lp4178
s(S'GRB2/SOS1'
p4179
S'FRS2 FAMILY/SHP2'
p4180
S'binds'
p4181
tp4182
(lp4183
s(S'LEF1'
p4184
S'CYP26A1'
p4185
S'increases'
p4186
tp4187
(lp4188
s(S'GTF2A2'
p4189
S'SRF'
p4190
S'increases'
p4191
tp4192
(lp4193
s(S'PPARA'
p4194
S'STAT5A'
p4195
S'increases'
p4196
tp4197
(lp4198
s(S'hsa-miR-143-3p'
p4199
S'KRAS'
p4200
S'decreases'
p4201
tp4202
(lp4203
s(S'GFI1'
p4204
S'CYP26A1'
p4205
S'increases'
p4206
tp4207
(lp4208
s(S'RAC1/GTP'
p4209
S'MKK4-MKK7'
p4210
S'increases_activity'
p4211
tp4212
(lp4213
s(S'REPIN1'
p4214
S'ETS1'
p4215
S'increases'
p4216
tp4217
(lp4218
s(S'ZIC1'
p4219
S'GATA6'
p4220
S'increases'
p4221
tp4222
(lp4223
s(S'INTERLEUKIN RECEPTOR COMPLEXES WITH ACTIVATED SHC1'
p4224
S'GRB2:SOS1'
p4225
S'binds'
p4226
tp4227
(lp4228
s(S'Selenium'
p4229
S'HRAS MRNA'
p4230
S'increases'
p4231
tp4232
(lp4233
s(S'HOXA4'
p4234
S'CYP26A1'
p4235
S'increases'
p4236
tp4237
(lp4238
s(S'NKX2-1'
p4239
S'POU2F1'
p4240
S'increases'
p4241
tp4242
(lp4243
s(S'VSX1'
p4244
S'MAX'
p4245
S'increases'
p4246
tp4247
(lp4248
s(S'FOXD1'
p4249
S'FOXD3'
p4250
S'increases'
p4251
tp4252
(lp4253
s(S'MAX'
p4254
S'NRAS'
p4255
S'increases'
p4256
tp4257
(lp4258
s(S'HOXA9'
p4259
S'TCF3'
p4260
S'increases'
p4261
tp4262
(lp4263
s(S'IRF1'
p4264
S'CYP26A1'
p4265
S'increases'
p4266
tp4267
(lp4268
s(S'HRAS'
p4269
S'RAF1'
p4270
S'adds_modification'
p4271
tp4272
(lp4273
s(S'CUX1'
p4274
S'HOXA9'
p4275
S'increases'
p4276
tp4277
(lp4278
s(S'ZHX2'
p4279
S'FOXA1'
p4280
S'increases'
p4281
tp4282
(lp4283
s(S'TFDP1'
p4284
S'MYC'
p4285
S'increases'
p4286
tp4287
(lp4288
s(S'RAC1/GTP'
p4289
S'PAK1'
p4290
S'increases_activity'
p4291
tp4292
(lp4293
s(S'AHR'
p4294
S'MAZ'
p4295
S'increases'
p4296
tp4297
(lp4298
s(S'BRAF/14-3-3'
p4299
S'KSR/14-3-3 /MEK1-2'
p4300
S'increases_activity'
p4301
tp4302
(lp4303
s(S'PPARA'
p4304
S'CYP26A1'
p4305
S'increases'
p4306
tp4307
(lp4308
s(S'REPIN1'
p4309
S'SRF'
p4310
S'increases'
p4311
tp4312
(lp4313
s(S'PAX5'
p4314
S'SRF'
p4315
S'increases'
p4316
tp4317
(lp4318
s(S'PAX4'
p4319
S'FOXJ2'
p4320
S'increases'
p4321
tp4322
(lp4323
s(S'REPIN1'
p4324
S'MYCN'
p4325
S'increases'
p4326
tp4327
(lp4328
s(S'RALA/GTP'
p4329
S'SRC'
p4330
S'adds_modification'
p4331
tp4332
(lp4333
s(S'FOXO4'
p4334
S'ETS1'
p4335
S'increases'
p4336
tp4337
(lp4338
s(S'TFDP1'
p4339
S'CDC5L'
p4340
S'increases'
p4341
tp4342
(lp4343
s(S'TFDP1'
p4344
S'CYP26A1'
p4345
S'increases'
p4346
tp4347
(lp4348
s(S'GATA6'
p4349
S'RUNX2'
p4350
S'increases'
p4351
tp4352
(lp4353
s(S'FOXM1'
p4354
S'CYP26A1'
p4355
S'increases'
p4356
tp4357
(lp4358
s(S'sodium arsenite'
p4359
S'HRAS PROTEIN'
p4360
S'increases'
p4361
tp4362
(lp4363
s(S'STAT5A'
p4364
S'RUNX1'
p4365
S'increases'
p4366
tp4367
(lp4368
s(S'CEBPA'
p4369
S'EN1'
p4370
S'increases'
p4371
tp4372
(lp4373
s(S'MSX1'
p4374
S'POU2F1'
p4375
S'increases'
p4376
tp4377
(lp4378
s(S'NHLH1'
p4379
S'CBFA2T3'
p4380
S'increases'
p4381
tp4382
(lp4383
s(S'Parathion'
p4384
S'HRAS PROTEIN'
p4385
S'increases'
p4386
tp4387
(lp4388
s(S'SMAD4'
p4389
S'CYP26A1'
p4390
S'increases'
p4391
tp4392
(lp4393
s(S'E2F1'
p4394
S'MYC'
p4395
S'increases'
p4396
tp4397
(lp4398
S'CisFinder was tested using published ChIP-seq data on binding of 14 TFs [CTCF, ESRRB, KLF4, MYC, POU5F1 (also known as OCT4 or OCT3/4), SMAD1, SOX2, STAT3, TCFCP2L2, ZFX, P300, NMYC, NANOG, E2F1] in ES cells'
p4399
as(S'CYP26A1'
p4400
S'FOXO3'
p4401
S'increases'
p4402
tp4403
(lp4404
s(S'TCF3'
p4405
S'CBFA2T3'
p4406
S'increases'
p4407
tp4408
(lp4409
s(S'ZHX2'
p4410
S'FOXF2'
p4411
S'increases'
p4412
tp4413
(lp4414
s(S'POU2F1'
p4415
S'MECOM'
p4416
S'increases'
p4417
tp4418
(lp4419
s(S'CYP26A1'
p4420
S'POU2F1'
p4421
S'increases'
p4422
tp4423
(lp4424
s(S'MYOD1'
p4425
S'CYP26A1'
p4426
S'increases'
p4427
tp4428
(lp4429
s(S'RAF'
p4430
S'COMPLEX (RAS/GTP)'
p4431
S'binds'
p4432
tp4433
(lp4434
s(S'RET51/GFRalpha1/GDNF/DOK1'
p4435
S'HRAS/GDP'
p4436
S'increases_activity'
p4437
tp4438
(lp4439
s(S'MAFG'
p4440
S'CYP26A1'
p4441
S'increases'
p4442
tp4443
(lp4444
s(S'CRX'
p4445
S'CYP26A1'
p4446
S'increases'
p4447
tp4448
(lp4449
s(S'hsa-miR-126-3p'
p4450
S'KRAS'
p4451
S'decreases'
p4452
tp4453
(lp4454
s(S'EBF2'
p4455
S'CYP26A1'
p4456
S'increases'
p4457
tp4458
(lp4459
s(S'RUNX1'
p4460
S'CYP26A1'
p4461
S'increases'
p4462
tp4463
(lp4464
s(S'HOXA5'
p4465
S'FOXA1'
p4466
S'increases'
p4467
tp4468
(lp4469
s(S'benzo(a)pyrene-3,6-quinone'
p4470
S'HRAS MRNA'
p4471
S'increases'
p4472
tp4473
(lp4474
s(S'K 7174'
p4475
S'HRAS MRNA'
p4476
S'decreases'
p4477
tp4478
(lp4479
s(S'LEF1'
p4480
S'NRAS'
p4481
S'increases'
p4482
tp4483
(lp4484
s(S'SPI1'
p4485
S'FOXA1'
p4486
S'increases'
p4487
tp4488
(lp4489
s(S'hsa-let-7b-5p'
p4490
S'NRAS'
p4491
S'decreases'
p4492
tp4493
(lp4494
s(S'CEBPA'
p4495
S'JUN'
p4496
S'increases'
p4497
tp4498
(lp4499
s(S'GABPB2'
p4500
S'CYP26A1'
p4501
S'increases'
p4502
tp4503
(lp4504
s(S'PI-3-4-5-P3'
p4505
S'MTOR'
p4506
S'increases_activity'
p4507
tp4508
(lp4509
s(S'GRB2:SOS1'
p4510
S'EGF:P-6Y-EGFR'
p4511
S'binds'
p4512
tp4513
(lp4514
s(S'HNF1A'
p4515
S'CYP26A1'
p4516
S'increases'
p4517
tp4518
(lp4519
s(S'HIF1A'
p4520
S'FOXO4'
p4521
S'increases'
p4522
tp4523
(lp4524
s(S'FOXJ1'
p4525
S'HOXA9'
p4526
S'increases'
p4527
tp4528
(lp4529
s(S'hsa-miR-96-5p'
p4530
S'KRAS'
p4531
S'decreases'
p4532
tp4533
(lp4534
s(S'SRC'
p4535
S'SYNDECAN-2/RASGAP'
p4536
S'binds'
p4537
tp4538
(lp4539
s(S'FOXA1'
p4540
S'MEIS1'
p4541
S'increases'
p4542
tp4543
(lp4544
s(S'LEF1'
p4545
S'MEIS1'
p4546
S'increases'
p4547
tp4548
(lp4549
s(S'PAX3'
p4550
S'CYP26A1'
p4551
S'increases'
p4552
tp4553
(lp4554
s(S'PAX4'
p4555
S'HOXA9'
p4556
S'increases'
p4557
tp4558
(lp4559
s(S'hsa-miR-18a-3p'
p4560
S'KRAS'
p4561
S'decreases'
p4562
tp4563
(lp4564
s(S'FOXF2'
p4565
S'EN1'
p4566
S'increases'
p4567
tp4568
(lp4569
s(S'Pyk2'
p4570
S'SRC FAMILY KINASES'
p4571
S'increases_activity'
p4572
tp4573
(lp4574
s(S'TP53'
p4575
S'HOXA9'
p4576
S'increases'
p4577
tp4578
(lp4579
s(S'Genistein'
p4580
S'KRAS MRNA'
p4581
S'decreases'
p4582
tp4583
(lp4584
s(S'POU1F1'
p4585
S'CYP26A1'
p4586
S'increases'
p4587
tp4588
(lp4589
s(S'manumycin'
p4590
S'KRAS PROTEIN'
p4591
S'decreases_activity'
p4592
tp4593
(lp4594
s(S'Ginkgo biloba extract 761'
p4595
S'GCLC PROTEIN'
p4596
S'increases'
p4597
tp4598
(lp4599
s(S'GATA1'
p4600
S'NRAS'
p4601
S'increases'
p4602
tp4603
(lp4604
s(S'CBFA2T3'
p4605
S'FOXF2'
p4606
S'increases'
p4607
tp4608
(lp4609
s(S'PCBP1'
p4610
S'ELK1'
p4611
S'increases'
p4612
tp4613
(lp4614
s(S'MYC'
p4615
S'FOXF2'
p4616
S'increases'
p4617
tp4618
(lp4619
s(S'hsa-mir-622'
p4620
S'KRAS'
p4621
S'decreases'
p4622
tp4623
(lp4624
s(S'TCF3'
p4625
S'MAZ'
p4626
S'increases'
p4627
tp4628
(lp4629
s(S'STAT2'
p4630
S'MEIS1'
p4631
S'increases'
p4632
tp4633
(lp4634
s(S'CYP26A1'
p4635
S'YY1'
p4636
S'increases'
p4637
tp4638
(lp4639
s(S'CYP26A1'
p4640
S'EN1'
p4641
S'increases'
p4642
tp4643
(lp4644
s(S'GRB2/SOS1'
p4645
S'SHC'
p4646
S'binds'
p4647
tp4648
(lp4649
s(S'BAD'
p4650
S'YWHAZ'
p4651
S'binds'
p4652
tp4653
(lp4654
s(S'SPI1'
p4655
S'MAX'
p4656
S'increases'
p4657
tp4658
(lp4659
s(S'PI-3-4-5-P3'
p4660
S'CENTA1'
p4661
S'translocates'
p4662
tp4663
(lp4664
s(S'XBP1'
p4665
S'CYP26A1'
p4666
S'increases'
p4667
tp4668
(lp4669
s(S'PAX4'
p4670
S'NRAS'
p4671
S'increases'
p4672
tp4673
(lp4674
s(S'PI3K'
p4675
S'EPHRIN A1/EPHA2'
p4676
S'binds'
p4677
tp4678
(lp4679
s(S'POU1F1'
p4680
S'MEIS1'
p4681
S'increases'
p4682
tp4683
(lp4684
s(S'NR3C1'
p4685
S'ETS1'
p4686
S'increases'
p4687
tp4688
(lp4689
s(S'MAZ'
p4690
S'POU3F2'
p4691
S'increases'
p4692
tp4693
(lp4694
s(S'Estradiol'
p4695
S'HRAS MRNA'
p4696
S'increases'
p4697
tp4698
(lp4699
s(S'Aflatoxin B1'
p4700
S'HRAS PROTEIN'
p4701
S'increases'
p4702
tp4703
(lp4704
s(S'ETV7'
p4705
S'STAT4'
p4706
S'increases'
p4707
tp4708
(lp4709
s(S'PBX1'
p4710
S'LEF1'
p4711
S'increases'
p4712
tp4713
(lp4714
s(S'CEBPB'
p4715
S'CYP26A1'
p4716
S'increases'
p4717
tp4718
(lp4719
s(S'MAZ'
p4720
S'JUN'
p4721
S'increases'
p4722
tp4723
(lp4724
s(S'FOXF2'
p4725
S'MYC'
p4726
S'increases'
p4727
tp4728
(lp4729
s(S'FOXJ2'
p4730
S'HOXA9'
p4731
S'increases'
p4732
tp4733
(lp4734
s(S'Capsaicin'
p4735
S'HRAS MRNA'
p4736
S'increases'
p4737
tp4738
(lp4739
s(S'POU3F1'
p4740
S'GATA6'
p4741
S'increases'
p4742
tp4743
(lp4744
s(S'EIF2A'
p4745
S'14-3-3 E'
p4746
S'binds'
p4747
tp4748
(lp4749
s(S'RAS family/GTP'
p4750
S'RAF1-BRAF'
p4751
S'increases_activity'
p4752
tp4753
(lp4754
s(S'GATA6'
p4755
S'GATA1'
p4756
S'increases'
p4757
tp4758
(lp4759
s(S'RASA1'
p4760
S'PHOSPHO PDGF BETA RECEPTOR: PDGF CHAIN B HOMODIMER'
p4761
S'binds'
p4762
tp4763
(lp4764
s(S'CART1'
p4765
S'POU2F1'
p4766
S'increases'
p4767
tp4768
(lp4769
s(S'ZIC3'
p4770
S'POU2F1'
p4771
S'increases'
p4772
tp4773
(lp4774
s(S'TCF4'
p4775
S'FOXA1'
p4776
S'increases'
p4777
tp4778
(lp4779
s(S'PKC theta'
p4780
S'RASGRP1'
p4781
S'adds_modification'
p4782
tp4783
(lp4784
s(S'PTF1A'
p4785
S'STAT5A'
p4786
S'increases'
p4787
tp4788
(lp4789
s(S'SPI1'
p4790
S'FOXO4'
p4791
S'increases'
p4792
tp4793
(lp4794
s(S'HNF1A'
p4795
S'GATA6'
p4796
S'increases'
p4797
tp4798
(lp4799
s(S'FOXJ1'
p4800
S'RUNX1'
p4801
S'increases'
p4802
tp4803
(lp4804
s(S'STAT2'
p4805
S'GATA6'
p4806
S'increases'
p4807
tp4808
(lp4809
s(S'RAS FAMILY/GTP'
p4810
S'PI3K'
p4811
S'binds'
p4812
tp4813
(lp4814
s(S'PAX4'
p4815
S'IRF1'
p4816
S'increases'
p4817
tp4818
(lp4819
s(S'PAX3'
p4820
S'HOXA9'
p4821
S'increases'
p4822
tp4823
(lp4824
s(S'MYB'
p4825
S'MAZ'
p4826
S'increases'
p4827
tp4828
(lp4829
s(S"Guanosine-5'-Triphosphate"
p4830
S'HRAS'
p4831
S'increases_activity'
p4832
tp4833
(lp4834
s(S'alpha9/beta1 Integrin/Tenascin C'
p4835
S'SRC'
p4836
S'adds_modification'
p4837
tp4838
(lp4839
s(S'RAF1'
p4840
S'MEK1'
p4841
S'adds_modification'
p4842
tp4843
(lp4844
s(S'JUN'
p4845
S'FOXA1'
p4846
S'increases'
p4847
tp4848
(lp4849
s(S'NFE2L2'
p4850
S'BACH1'
p4851
S'increases'
p4852
tp4853
(lp4854
s(S'CUX1'
p4855
S'FOXD3'
p4856
S'increases'
p4857
tp4858
(lp4859
s(S'JUN'
p4860
S'EN1'
p4861
S'increases'
p4862
tp4863
(lp4864
s(S'ESR1'
p4865
S'CYP26A1'
p4866
S'increases'
p4867
tp4868
(lp4869
s(S'ESRRA'
p4870
S'FOXA1'
p4871
S'increases'
p4872
tp4873
(lp4874
s(S'POU2F1'
p4875
S'MEIS1'
p4876
S'increases'
p4877
tp4878
(lp4879
s(S'TFCP2'
p4880
S'FOXA1'
p4881
S'increases'
p4882
tp4883
(lp4884
s(S'PI-3-4-5-P3'
p4885
S'PDK1'
p4886
S'increases_activity'
p4887
tp4888
(lp4889
s(S'TCF3'
p4890
S'FOXA1'
p4891
S'increases'
p4892
tp4893
(lp4894
s(S'STAT3'
p4895
S'CYP26A1'
p4896
S'increases'
p4897
tp4898
(lp4899
s(S'CYP26A1'
p4900
S'POU3F2'
p4901
S'increases'
p4902
tp4903
(lp4904
s(S'Curcumin'
p4905
S'KRAS MRNA'
p4906
S'decreases'
p4907
tp4908
(lp4909
s(S'STAT1'
p4910
S'CYP26A1'
p4911
S'increases'
p4912
tp4913
(lp4914
s(S'GFI1'
p4915
S'POU2F1'
p4916
S'increases'
p4917
tp4918
(lp4919
s(S'ZIC1'
p4920
S'POU2F1'
p4921
S'increases'
p4922
tp4923
(lp4924
s(S'PI-3-4-5-P3'
p4925
S'AKT3'
p4926
S'adds_modification'
p4927
tp4928
(lp4929
s(S'BACH1'
p4930
S'NRAS'
p4931
S'increases'
p4932
tp4933
(lp4934
s(S'SCF/KIT'
p4935
S'SHC/GRB2/SOS1'
p4936
S'increases_activity'
p4937
tp4938
(lp4939
s(S'CDX2'
p4940
S'CYP26A1'
p4941
S'increases'
p4942
tp4943
(lp4944
s(S'RET51/GFRalpha1/GDNF/DOK/RasGAP/NCK'
p4945
S'HRAS/GDP'
p4946
S'decreases_activity'
p4947
tp4948
(lp4949
s(S'BETAPIX'
p4950
S'RAC1/GTP'
p4951
S'binds'
p4952
tp4953
(lp4954
s(S'RHOA/GTP'
p4955
S'CITRON'
p4956
S'increases_activity'
p4957
tp4958
(lp4959
s(S'P-SHC1:GRB2:SOS'
p4960
S'P-5Y-LAT-2'
p4961
S'binds'
p4962
tp4963
(lp4964
s(S'PAX4'
p4965
S'CYP26A1'
p4966
S'increases'
p4967
tp4968
(lp4969
s(S'TCF3'
p4970
S'KRAS'
p4971
S'increases'
p4972
tp4973
(lp4974
s(S'GRB2:SOS1'
p4975
S'PHOSPHORYLATED ERBB2:ERBB4 HETERODIMERS'
p4976
S'binds'
p4977
tp4978
(lp4979
s(S'CDX2'
p4980
S'MEIS1'
p4981
S'increases'
p4982
tp4983
(lp4984
s(S'SP3'
p4985
S'RUNX1'
p4986
S'increases'
p4987
tp4988
(lp4989
s(S'REST'
p4990
S'CYP26A1'
p4991
S'increases'
p4992
tp4993
(lp4994
s(S'PTF1A'
p4995
S'CYP26A1'
p4996
S'increases'
p4997
tp4998
(lp4999
s(S'PI-3-4-5-P3'
p5000
S'PI3K/GAB1'
p5001
S'translocates'
p5002
tp5003
(lp5004
s(S'LMO2'
p5005
S'FOXO4'
p5006
S'increases'
p5007
tp5008
(lp5009
s(S'STAT4'
p5010
S'ETS1'
p5011
S'increases'
p5012
tp5013
(lp5014
s(S'GTF2A2'
p5015
S'HOXA9'
p5016
S'increases'
p5017
tp5018
(lp5019
s(S'FOXF2'
p5020
S'POU3F2'
p5021
S'increases'
p5022
tp5023
(lp5024
s(S'GATA1'
p5025
S'GABPB2'
p5026
S'increases'
p5027
tp5028
(lp5029
s(S'Polychlorinated Biphenyls'
p5030
S'KRAS MRNA'
p5031
S'decreases'
p5032
tp5033
(lp5034
s(S'GRB2/SOS1'
p5035
S'EGF/EGFR DIMER/SHC'
p5036
S'binds'
p5037
tp5038
(lp5039
s(S'CYP26A1'
p5040
S'FOXF2'
p5041
S'increases'
p5042
tp5043
(lp5044
s(S'EGR1'
p5045
S'CYP26A1'
p5046
S'increases'
p5047
tp5048
(lp5049
s(S'MAX'
p5050
S'FOXO3'
p5051
S'increases'
p5052
tp5053
(lp5054
s(S'T-DHT/AR/PELP1'
p5055
S'SRC'
p5056
S'binds'
p5057
tp5058
(lp5059
s(S'CUX1'
p5060
S'FOXF2'
p5061
S'increases'
p5062
tp5063
(lp5064
s(S'CEBPD'
p5065
S'CYP26A1'
p5066
S'increases'
p5067
tp5068
(lp5069
s(S'CBFA2T3'
p5070
S'NRAS'
p5071
S'increases'
p5072
tp5073
(lp5074
s(S'Cisplatin'
p5075
S'HRAS MRNA'
p5076
S'translocates'
p5077
tp5078
(lp5079
s(S'BAD/BCL-X(L)'
p5080
S'YWHAZ'
p5081
S'binds'
p5082
tp5083
(lp5084
s(S'GATA1'
p5085
S'FOXA1'
p5086
S'increases'
p5087
tp5088
(lp5089
s(S'RREB1'
p5090
S'CYP26A1'
p5091
S'increases'
p5092
tp5093
(lp5094
s(S'STAT4'
p5095
S'RUNX2'
p5096
S'increases'
p5097
tp5098
(lp5099
s(S'FOXD3'
p5100
S'NRAS'
p5101
S'increases'
p5102
tp5103
(lp5104
s(S'NDEL1'
p5105
S'14-3-3 E'
p5106
S'binds'
p5107
tp5108
(lp5109
s(S'CYP26A1'
p5110
S'REPIN1'
p5111
S'increases'
p5112
tp5113
(lp5114
s(S'MAF'
p5115
S'CDC5L'
p5116
S'increases'
p5117
tp5118
(lp5119
s(S'CYP26A1'
p5120
S'ELK1'
p5121
S'increases'
p5122
tp5123
(lp5124
s(S'MYC'
p5125
S'FOXD3'
p5126
S'increases'
p5127
tp5128
(lp5129
s(S'MAX'
p5130
S'FOXD3'
p5131
S'increases'
p5132
tp5133
(lp5134
s(S'POU1F1'
p5135
S'GATA6'
p5136
S'increases'
p5137
tp5138
(lp5139
s(S'POU2F1'
p5140
S'STAT4'
p5141
S'increases'
p5142
tp5143
(lp5144
s(S'GTF3A'
p5145
S'FOXO3'
p5146
S'increases'
p5147
tp5148
(lp5149
s(S'MYB'
p5150
S'FOXF2'
p5151
S'increases'
p5152
tp5153
(lp5154
s(S'ZIC3'
p5155
S'CYP26A1'
p5156
S'increases'
p5157
tp5158
(lp5159
s(S'POU2F1'
p5160
S'EN1'
p5161
S'increases'
p5162
tp5163
(lp5164
s(S'JUN'
p5165
S'STAT1'
p5166
S'increases'
p5167
tp5168
(lp5169
s(S'TEF'
p5170
S'CYP26A1'
p5171
S'increases'
p5172
tp5173
(lp5174
s(S'MAF'
p5175
S'CYP26A1'
p5176
S'increases'
p5177
tp5178
(lp5179
s(S'PAX4'
p5180
S'GATA6'
p5181
S'increases'
p5182
tp5183
(lp5184
s(S'ZIC2'
p5185
S'GATA6'
p5186
S'increases'
p5187
tp5188
(lp5189
s(S'hsa-miR-181d-5p'
p5190
S'HRAS'
p5191
S'decreases'
p5192
tp5193
(lp5194
s(S'BACH2'
p5195
S'CYP26A1'
p5196
S'increases'
p5197
tp5198
(lp5199
s(S'TCF12'
p5200
S'CYP26A1'
p5201
S'increases'
p5202
tp5203
(lp5204
s(S'GATA1'
p5205
S'FOXO4'
p5206
S'increases'
p5207
tp5208
(lp5209
s(S'RFX1'
p5210
S'FOXD3'
p5211
S'increases'
p5212
tp5213
(lp5214
s(S'FOXJ1'
p5215
S'CYP26A1'
p5216
S'increases'
p5217
tp5218
(lp5219
s(S'GTF2A2'
p5220
S'POU2F1'
p5221
S'increases'
p5222
tp5223
(lp5224
s(S'YY1'
p5225
S'SRF'
p5226
S'increases'
p5227
tp5228
(lp5229
s(S'AHR'
p5230
S'REPIN1'
p5231
S'increases'
p5232
tp5233
(lp5234
s(S'MAZ'
p5235
S'CYP26A1'
p5236
S'increases'
p5237
tp5238
(lp5239
s(S'Quercetin'
p5240
S'HRAS MRNA'
p5241
S'increases'
p5242
tp5243
(lp5244
s(S'ELK1'
p5245
S'NRAS'
p5246
S'increases'
p5247
tp5248
(lp5249
s(S'HIF1A'
p5250
S'ONECUT1'
p5251
S'increases'
p5252
tp5253
(lp5254
s(S'FOXF2'
p5255
S'CYP26A1'
p5256
S'increases'
p5257
tp5258
(lp5259
s(S'SOX9'
p5260
S'ETS1'
p5261
S'increases'
p5262
tp5263
(lp5264
s(S'HSF1'
p5265
S'JUN'
p5266
S'increases'
p5267
tp5268
(lp5269
s(S'CEBPA'
p5270
S'CYP26A1'
p5271
S'increases'
p5272
tp5273
(lp5274
s(S'NR1H4'
p5275
S'MEIS1'
p5276
S'increases'
p5277
tp5278
(lp5279
s(S'SMAD1'
p5280
S'GATA1'
p5281
S'increases'
p5282
tp5283
(lp5284
s(S'Quercetin'
p5285
S'HRAS MRNA'
p5286
S'decreases'
p5287
tp5288
(lp5289
s(S'Glycyrrhetinic Acid'
p5290
S'HRAS PROTEIN'
p5291
S'decreases'
p5292
tp5293
(lp5294
s(S'HOXA4'
p5295
S'POU2F1'
p5296
S'increases'
p5297
tp5298
(lp5299
s(S'FOXQ1'
p5300
S'CYP26A1'
p5301
S'increases'
p5302
tp5303
(lp5304
s(S'FOXI1'
p5305
S'CEBPA'
p5306
S'increases'
p5307
tp5308
(lp5309
s(S'GTF3A'
p5310
S'MYCN'
p5311
S'increases'
p5312
tp5313
(lp5314
s(S'LMO2'
p5315
S'IRF1'
p5316
S'increases'
p5317
tp5318
(lp5319
s(S'FOXO1'
p5320
S'CYP26A1'
p5321
S'increases'
p5322
tp5323
(lp5324
s(S'Copper Sulfate'
p5325
S'NRAS MRNA'
p5326
S'increases'
p5327
tp5328
(lp5329
s(S'TFAP2A'
p5330
S'CYP26A1'
p5331
S'increases'
p5332
tp5333
(lp5334
s(S'FOXJ1'
p5335
S'EN1'
p5336
S'increases'
p5337
tp5338
(lp5339
s(S'MEIS1'
p5340
S'RUNX1'
p5341
S'increases'
p5342
tp5343
(lp5344
s(S'MAZ'
p5345
S'FOXA1'
p5346
S'increases'
p5347
tp5348
(lp5349
s(S'ETS1'
p5350
S'FOXO4'
p5351
S'increases'
p5352
tp5353
(lp5354
s(S'ZBTB14'
p5355
S'FOXD3'
p5356
S'increases'
p5357
tp5358
(lp5359
s(S'FOXC1'
p5360
S'LEF1'
p5361
S'increases'
p5362
tp5363
(lp5364
s(S'IRF1'
p5365
S'EN1'
p5366
S'increases'
p5367
tp5368
(lp5369
s(S'NR3C1'
p5370
S'CYP26A1'
p5371
S'increases'
p5372
tp5373
(lp5374
s(S'VSX1'
p5375
S'BACH1'
p5376
S'increases'
p5377
tp5378
(lp5379
s(S'CYP26A1'
p5380
S'ETS1'
p5381
S'increases'
p5382
tp5383
(lp5384
s(S'CEBPA'
p5385
S'MEIS1'
p5386
S'increases'
p5387
tp5388
(lp5389
s(S'ELF1'
p5390
S'FOXO4'
p5391
S'increases'
p5392
tp5393
(lp5394
s(S'RXRA'
p5395
S'CYP26A1'
p5396
S'increases'
p5397
tp5398
(lp5399
s(S'CREB1'
p5400
S'CYP26A1'
p5401
S'increases'
p5402
tp5403
(lp5404
s(S'IRF7'
p5405
S'GATA6'
p5406
S'increases'
p5407
tp5408
(lp5409
s(S'ZEB1'
p5410
S'CYP26A1'
p5411
S'increases'
p5412
tp5413
(lp5414
s(S'AR'
p5415
S'CYP26A1'
p5416
S'increases'
p5417
tp5418
(lp5419
S'Retinoid homeostasis is tightly regulated by a complex system of enzymes and carriers that can promote the storage of retinol in the form of retinyl esters (RBP4, cellular RBP1, CRBP1, and lecithin:retinol acyltransferase); metabolism to retinoic acid (RA) and signaling through its receptors (retinaldehyde dehydrogenase [RALDH1], cellular RA-binding protein, CRABP, and RA receptors [RARs]); and degradation via cytochrome P450-type enzymes (CYP26A1) ('
p5420
as(S'TFDP2'
p5421
S'MYC'
p5422
S'increases'
p5423
tp5424
(lp5425
s(S'hsa-mir-217'
p5426
S'KRAS'
p5427
S'decreases'
p5428
tp5429
(lp5430
s(S'MEK'
p5431
S'ERK'
p5432
S'adds_modification'
p5433
tp5434
(lp5435
g1739
aS'These effectors include but are not limited to the PLC/PKC and RAF-MEK-ERK pathways that also sit downstream of RAS ['
p5436
aS'NRAS, HRAS, and BRAF are all components of the mitogenic RAS-RAF-MEK-ERK pathway known to promote cellular proliferation    ['
p5437
aS'In human melanomas, the RAS/RAF/MEK/ERK (MAPK) and the PI3K/PTEN/AKT (AKT) signaling pathways are two major signaling pathways and are constitutively activated through genetic alterations.'
p5438
aS'The RAS/RAF/MEK/ERK pathway, one of the most well-known pathways involved in melanoma progression, is regulated by receptor tyrosine kinases, cytokines, and heterotrimeric G-protein-coupled receptors ['
p5439
aS'(c) and (d) Phosphorylation of ERK independent of RAF stimulation is the result of the overexpression of COT (c) and of the additional mutation in MEK kinase (d).'
p5440
ag652
ag653
aS'Pharmacological inhibition or silencing of Tpl2 prevented MEK/ERK1/2 activation by these cytokines but not by insulin, demonstrating its involvement in ERK1/2 activation specifically in response to inflammatory stimuli.'
p5441
aS'We did not detect any effect of MEKK-1 on the basal phosphorylation of JNK, ERK, and p38 in untreated cells ('
p5442
aS'We presently report that MEKK-1 activates JNK, but not ERK or p38, in insulin-producing cells when stimulated with cytokines.'
p5443
aS'Effects of MEKK-1 d-siRNA on MEKK-1 levels and JNK, p38, ERK, or MKK4 activation in dispersed human islet cells. '
p5444
aS'As expected, glucose-induced ERK1/2 phosphorylation with or without palmitate was blocked by the MEK1/2 inhibitors U0126 ('
p5445
aS'Cell lysates were then analyzed by immunoblotting for phospho-ERK1/2, ERK1/2, phospho-MEK1/2, phospho-CREB, phospho-PKB, and PKB as indicated ('
p5446
ag655
aS'Consistent with the inhibition of ERK1/2, WIN55,212-2 or ACEA treatment for 24 h also suppresses insulin-induced CREB phosphorylation at Ser133, a downstream target of ERK1/2, as well as the activation of MEK1/2, the immediate upstream kinase of ERK ('
p5447
ag656
aS'U0126, which blocks MEK, upstream of ERK, blocked the phosphorylation of both ERK and P38 ('
p5448
aS'Activation of ERK, a protein downstream of MEK1/2, has been implicated in the regulation of apoB100 secretion ('
p5449
aS'To determine whether MEK inhibitor studies were relevant to the defects associated with insulin-resistant macrophages, we next examined the role of MEK/ERK signaling in apoptotic responses of '
p5450
aS'The ER stress response is associated with transient activation of both MEK/ERK and AKT signaling pathways, and both have antiapoptotic activity in this context ('
p5451
aS'In contrast, activation of signal transducer and activator of transcription 3 (STAT3), but not the MEK-ERK pathway, in the VMH by leptin enhances the insulin-induced suppression of endogenous glucose production in an MCR-independent manner, with this effect of leptin occurring only in the presence of an increased plasma concentration of insulin.'
p5452
aS'Given that leptin requires 6 h to increase muscle glucose uptake, the transient activation of the MEK-ERK pathway in the VMH by leptin may play a role in the induction of synaptic plasticity in the VMH, resulting in the enhancement of MCR signaling in the nucleus and leading to an increase in insulin sensitivity in red-type muscle.'
p5453
aS'Leptin injection into the VMH increases whole-body insulin sensitivity via MEK-ERK and STAT3 signaling in the VMH. '
p5454
aS'Leptin injection into the VMH increases glucose utilization in red-type muscle via MEK-ERK signaling in the VMH, whereas it enhances insulin-induced suppression of glycogen phosphorylase a activity in the liver via STAT3 in the VMH.'
p5455
aS'Systemic injection of leptin increases whole-body glucose utilization and glucose uptake in soleus muscle via MEK-ERK signaling in the VMH. '
p5456
aS'Leptin-activated MEK-ERK signaling in the VMH increases insulin sensitivity and glucose utilization in red muscle through activation of MCR in the VMH.'
p5457
aS'In summary, we have found that the MEK-ERK pathway in the VMH plays an important role in leptin-induced glucose uptake in red-type muscle as well as whole-body glucose utilization.'
p5458
ag658
ag659
aS'Exercise has also been reported to upregulate many factors in the MAPK signaling pathway including BDNF, trkB, MEK2, and ERK2.'
p5459
ag660
ag662
aS'These doses have only a partial effect on MEK activity as assessed by phospho-ERK1/2 activity and '
p5460
aS'Simplified scheme of the mitogen-activated protein kinase (MAPK) (RAS-RAF-MEK-ERK) signaling pathway.'
p5461
aS'An overview of the EGFR pathway and its main downstream effectors, PI3K/AKT and KRAS/BRAF/MEK/MERK.'
p5462
aS'The increased expression of cancer Osaka thyroid, a MAPK, leads to ERK activation through MEK, independent of BRAF signaling, promoting resistance to BRAF inhibitors.'
p5463
aS'These dimer complexes then lead to activation of MEK1 or MEK2, with subsequent signaling through activation of the ERK and MAPK pathways.'
p5464
aS'Given that most molecular mechanisms of resistance to selective BRAF inhibitors described from patient biopsy specimens appear to reactivate signaling through MAPK/ERK, an interest arose regarding the potential sequencing or combining of BRAF and MEK inhibitors.'
p5465
aS'New insights in molecular knowledge and combinations of drugs like BRAF/MEK/ERK inhibitors may attenuate the problem.'
p5466
as(S'ZBTB18'
p5467
S'ONECUT1'
p5468
S'increases'
p5469
tp5470
(lp5471
s(S'TGIF'
p5472
S'MAX'
p5473
S'increases'
p5474
tp5475
(lp5476
s(S'ETS1'
p5477
S'NRAS'
p5478
S'increases'
p5479
tp5480
(lp5481
s(S'KLF12'
p5482
S'GATA1'
p5483
S'increases'
p5484
tp5485
(lp5486
s(S'HRAS/GTP'
p5487
S'PAK2'
p5488
S'increases_activity'
p5489
tp5490
(lp5491
s(S'CYP26A1'
p5492
S'FOXD3'
p5493
S'increases'
p5494
tp5495
(lp5496
s(S'LMO2'
p5497
S'RUNX1'
p5498
S'increases'
p5499
tp5500
(lp5501
s(S'MLK3'
p5502
S'MKK3/6'
p5503
S'adds_modification'
p5504
tp5505
(lp5506
s(S'TAK'
p5507
S'MKK3/6'
p5508
S'adds_modification'
p5509
tp5510
(lp5511
s(S'GRB2:SOS1'
p5512
S'HB-EGF:P-6Y-EGFR DIMER'
p5513
S'binds'
p5514
tp5515
(lp5516
s(S'FOXO4'
p5517
S'NRAS'
p5518
S'increases'
p5519
tp5520
(lp5521
s(S'MECOM'
p5522
S'NRAS'
p5523
S'increases'
p5524
tp5525
(lp5526
s(S'KLF12'
p5527
S'CYP26A1'
p5528
S'increases'
p5529
tp5530
(lp5531
s(S'RAS family/GTP/PI3K'
p5532
S'TRPV1'
p5533
S'adds_modification'
p5534
tp5535
(lp5536
s(S'hsa-let-7a-5p'
p5537
S'NRAS'
p5538
S'decreases'
p5539
tp5540
(lp5541
s(S'NF1'
p5542
S'HOXA9'
p5543
S'increases'
p5544
tp5545
(lp5546
s(S'REPIN1'
p5547
S'FOXD3'
p5548
S'increases'
p5549
tp5550
(lp5551
s(S'CYP26A1'
p5552
S'FOXJ2'
p5553
S'increases'
p5554
tp5555
(lp5556
s(S'FOXO4'
p5557
S'MEIS1'
p5558
S'increases'
p5559
tp5560
(lp5561
s(S'EBF2'
p5562
S'MECOM'
p5563
S'increases'
p5564
tp5565
(lp5566
s(S'ETS1'
p5567
S'FOXO3'
p5568
S'increases'
p5569
tp5570
(lp5571
s(S'SP3'
p5572
S'CYP26A1'
p5573
S'increases'
p5574
tp5575
(lp5576
s(S'LNXp80'
p5577
S'NUMB'
p5578
S'decreases'
p5579
tp5580
(lp5581
s(S'RUNX2'
p5582
S'CYP26A1'
p5583
S'increases'
p5584
tp5585
(lp5586
s(S'AHR'
p5587
S'FOXO3'
p5588
S'increases'
p5589
tp5590
(lp5591
s(S'VSX1'
p5592
S'FOXF2'
p5593
S'increases'
p5594
tp5595
(lp5596
s(S'BPTF'
p5597
S'RUNX1'
p5598
S'increases'
p5599
tp5600
(lp5601
s(S'7,8-Dihydro-7,8-dihydroxybenzo(a)pyrene 9,10-oxide'
p5602
S'HRAS PROTEIN'
p5603
S'increases'
p5604
tp5605
(lp5606
s(S'TCF3'
p5607
S'POU3F2'
p5608
S'increases'
p5609
tp5610
(lp5611
s(S'TCF3'
p5612
S'IRF1'
p5613
S'increases'
p5614
tp5615
(lp5616
s(S'SREBF1'
p5617
S'EN1'
p5618
S'increases'
p5619
tp5620
(lp5621
s(S'FOXO4'
p5622
S'RUNX2'
p5623
S'increases'
p5624
tp5625
(lp5626
s(S'hsa-miR-181a-5p'
p5627
S'HRAS'
p5628
S'decreases'
p5629
tp5630
(lp5631
s(S'Myb'
p5632
S'NRAS'
p5633
S'decreases'
p5634
tp5635
(lp5636
s(S'HSPA8'
p5637
S'ADP'
p5638
S'binds'
p5639
tp5640
(lp5641
s(S'SOCS3'
p5642
S'RASGAP'
p5643
S'binds'
p5644
tp5645
(lp5646
s(S'ONECUT1'
p5647
S'NRAS'
p5648
S'increases'
p5649
tp5650
(lp5651
s(S'PITX2'
p5652
S'EN1'
p5653
S'increases'
p5654
tp5655
(lp5656
s(S'HGF(dimer)/MET(dimer)'
p5657
S'SRC'
p5658
S'adds_modification'
p5659
tp5660
(lp5661
s(S'2-amino-1-methyl-6-phenylimidazo(4,5-b)pyridine'
p5662
S'HRAS PROTEIN'
p5663
S'increases'
p5664
tp5665
(lp5666
s(S'GFI1'
p5667
S'POU3F2'
p5668
S'increases'
p5669
tp5670
(lp5671
s(S'FARNESYL DIPHOSPHATE'
p5672
S'KRAS'
p5673
S'increases_activity'
p5674
tp5675
(lp5676
s(S'IL2/IL2R BETA/GAMMA/JAK1/LCK/JAK3'
p5677
S'PI3K'
p5678
S'binds'
p5679
tp5680
(lp5681
s(S'GTF3A'
p5682
S'MECOM'
p5683
S'increases'
p5684
tp5685
(lp5686
s(S'EGR2'
p5687
S'CYP26A1'
p5688
S'increases'
p5689
tp5690
(lp5691
s(S'RUNX1'
p5692
S'FOXF2'
p5693
S'increases'
p5694
tp5695
(lp5696
s(S'IL3/IL3RA/CSF2RB (DODECAMER)'
p5697
S'YWHAZ'
p5698
S'binds'
p5699
tp5700
(lp5701
s(S'RAF1'
p5702
S'BRAF'
p5703
S'binds'
p5704
tp5705
(lp5706
s(S'MYC'
p5707
S'CYP26A1'
p5708
S'increases'
p5709
tp5710
(lp5711
s(S'UBP1'
p5712
S'CYP26A1'
p5713
S'increases'
p5714
tp5715
(lp5716
s(S'MTF1'
p5717
S'REPIN1'
p5718
S'increases'
p5719
tp5720
(lp5721
s(S'HNF1A'
p5722
S'RUNX1'
p5723
S'increases'
p5724
tp5725
(lp5726
s(S'NHLH1'
p5727
S'FOXA1'
p5728
S'increases'
p5729
tp5730
(lp5731
s(S'HLF'
p5732
S'FOXA1'
p5733
S'increases'
p5734
tp5735
(lp5736
s(S'MEIS1'
p5737
S'GATA6'
p5738
S'increases'
p5739
tp5740
(lp5741
s(S'PDGF-BB/PDGFRB (DIMER)/SHP2'
p5742
S'GRB2/SOS1'
p5743
S'binds'
p5744
tp5745
(lp5746
s(S'ZBTB14'
p5747
S'EN1'
p5748
S'increases'
p5749
tp5750
(lp5751
s(S'alpha6/beta4 Integrin'
p5752
S'HRAS/GDP'
p5753
S'increases_activity'
p5754
tp5755
(lp5756
s(S'ErbB2'
p5757
S'HRAS/GDP'
p5758
S'increases_activity'
p5759
tp5760
(lp5761
s(S'MEIS1'
p5762
S'FOXO3'
p5763
S'increases'
p5764
tp5765
(lp5766
s(S'RELA'
p5767
S'IRF1'
p5768
S'increases'
p5769
tp5770
(lp5771
s(S'MYCN'
p5772
S'FOXO3'
p5773
S'increases'
p5774
tp5775
(lp5776
s(S'RHOA/GTP'
p5777
S'DIA'
p5778
S'increases_activity'
p5779
tp5780
(lp5781
s(S'Fluorouracil'
p5782
S'KRAS PROTEIN'
p5783
S'decreases'
p5784
tp5785
(lp5786
s(S'ATF2'
p5787
S'CYP26A1'
p5788
S'increases'
p5789
tp5790
(lp5791
s(S'GNAI2/GTP'
p5792
S'SRC FAMILY KINASES'
p5793
S'increases_activity'
p5794
tp5795
(lp5796
s(S'HAND1'
p5797
S'POU2F1'
p5798
S'increases'
p5799
tp5800
(lp5801
s(S'PI5K Type 1 family'
p5802
S'PI-4-P'
p5803
S'translocates'
p5804
tp5805
(lp5806
s(S'HSF1'
p5807
S'CBFA2T3'
p5808
S'increases'
p5809
tp5810
(lp5811
s(S'BACH1'
p5812
S'FOXA1'
p5813
S'increases'
p5814
tp5815
(lp5816
s(S'PI-3-4-5-P3'
p5817
S'SGK1'
p5818
S'adds_modification'
p5819
tp5820
(lp5821
s(S'hsa-miR-20a-5p'
p5822
S'NRAS'
p5823
S'decreases'
p5824
tp5825
(lp5826
s(S'CYP26A1'
p5827
S'MECOM'
p5828
S'increases'
p5829
tp5830
(lp5831
s(S'FOXF2'
p5832
S'RUNX1'
p5833
S'increases'
p5834
tp5835
(lp5836
s(S'EGR2'
p5837
S'SRF'
p5838
S'increases'
p5839
tp5840
(lp5841
s(S'LEF1'
p5842
S'FOXD3'
p5843
S'increases'
p5844
tp5845
(lp5846
s(S'TFAP2C'
p5847
S'MECOM'
p5848
S'increases'
p5849
tp5850
(lp5851
s(S'SHC'
p5852
S'GRB2/SOS1'
p5853
S'binds'
p5854
tp5855
(lp5856
s(S'CA2+'
p5857
S'CAM'
p5858
S'binds'
p5859
tp5860
(lp5861
s(S'MYC'
p5862
S'POU3F2'
p5863
S'increases'
p5864
tp5865
(lp5866
s(S'PAX8'
p5867
S'HOXA9'
p5868
S'increases'
p5869
tp5870
(lp5871
s(S'TFDP2'
p5872
S'CDC5L'
p5873
S'increases'
p5874
tp5875
(lp5876
s(S'RAF1/14-3-3'
p5877
S'KSR/14-3-3 /MEK1-2'
p5878
S'increases_activity'
p5879
tp5880
(lp5881
s(S'DDIT3'
p5882
S'MEIS1'
p5883
S'increases'
p5884
tp5885
(lp5886
s(S'GNB1/GNG2'
p5887
S'HRAS/GDP'
p5888
S'increases_activity'
p5889
tp5890
(lp5891
s(S'ACTIVATED FGFR MUTANTS:P-FRS2ALPHA'
p5892
S'GRB2:SOS1'
p5893
S'binds'
p5894
tp5895
(lp5896
s(S'HIF1A'
p5897
S'CYP26A1'
p5898
S'increases'
p5899
tp5900
(lp5901
s(S'RAF1-BRAF'
p5902
S'ERK1-2'
p5903
S'increases_activity'
p5904
tp5905
(lp5906
s(S'SMAD4'
p5907
S'CBFA2T3'
p5908
S'increases'
p5909
tp5910
(lp5911
s(S'resveratrol'
p5912
S'HRAS PROTEIN'
p5913
S'increases'
p5914
tp5915
(lp5916
s(S'Malathion'
p5917
S'HRAS MRNA'
p5918
S'increases'
p5919
tp5920
(lp5921
s(S'NRF1'
p5922
S'FOXO4'
p5923
S'increases'
p5924
tp5925
(lp5926
s(S'CREB1'
p5927
S'JUN'
p5928
S'increases'
p5929
tp5930
(lp5931
s(S'CDC5L'
p5932
S'HOXA9'
p5933
S'increases'
p5934
tp5935
(lp5936
s(S'CDX2'
p5937
S'HOXA9'
p5938
S'increases'
p5939
tp5940
(lp5941
s(S'HMGA1'
p5942
S'POU2F1'
p5943
S'increases'
p5944
tp5945
(lp5946
s(S'Coumestrol'
p5947
S'KRAS MRNA'
p5948
S'decreases'
p5949
tp5950
(lp5951
s(S'LEF1'
p5952
S'FOXO3'
p5953
S'increases'
p5954
tp5955
(lp5956
s(S'CYP26A1'
p5957
S'MEIS1'
p5958
S'increases'
p5959
tp5960
(lp5961
s(S'GTF2A2'
p5962
S'MEIS1'
p5963
S'increases'
p5964
tp5965
(lp5966
s(S'REPIN1'
p5967
S'CBFA2T3'
p5968
S'increases'
p5969
tp5970
(lp5971
s(S'hsa-miR-143-3p'
p5972
S'HRAS'
p5973
S'decreases'
p5974
tp5975
(lp5976
s(S'[(3,7,11-TRIMETHYL-DODECA-2,6,10-TRIENYLOXYCARBAMOYL)-METHYL]-PHOSPHONIC ACID'
p5977
S'KRAS'
p5978
S'increases_activity'
p5979
tp5980
(lp5981
s(S'TFDP1'
p5982
S'ONECUT1'
p5983
S'increases'
p5984
tp5985
(lp5986
s(S'YY1'
p5987
S'CYP26A1'
p5988
S'increases'
p5989
tp5990
(lp5991
s(S'PITX2'
p5992
S'RUNX1'
p5993
S'increases'
p5994
tp5995
(lp5996
s(S'STAT5A'
p5997
S'NRAS'
p5998
S'increases'
p5999
tp6000
(lp6001
s(S'Valproic Acid'
p6002
S'HRAS MRNA'
p6003
S'increases'
p6004
tp6005
(lp6006
s(S'Malathion'
p6007
S'HRAS PROTEIN'
p6008
S'increases'
p6009
tp6010
(lp6011
s(S'TFAP4'
p6012
S'CBFA2T3'
p6013
S'increases'
p6014
tp6015
(lp6016
s(S'TFAP4'
p6017
S'EN1'
p6018
S'increases'
p6019
tp6020
(lp6021
s(S'POU3F2'
p6022
S'CYP26A1'
p6023
S'increases'
p6024
tp6025
(lp6026
s(S'PAX3'
p6027
S'FOXD3'
p6028
S'increases'
p6029
tp6030
(lp6031
s(S'FOXA2'
p6032
S'RUNX2'
p6033
S'increases'
p6034
tp6035
(lp6036
s(S'MAX'
p6037
S'BACH1'
p6038
S'increases'
p6039
tp6040
(lp6041
s(S'PDX1'
p6042
S'CYP26A1'
p6043
S'increases'
p6044
tp6045
(lp6046
s(S'EPO/EPOR (dimer)/JAK2'
p6047
S'SHC/GRB2/SOS1'
p6048
S'increases_activity'
p6049
tp6050
(lp6051
s(S'E2F1'
p6052
S'MEIS1'
p6053
S'increases'
p6054
tp6055
(lp6056
s(S'FOXF2'
p6057
S'MEIS1'
p6058
S'increases'
p6059
tp6060
(lp6061
s(S'SPZ1'
p6062
S'FOXJ2'
p6063
S'increases'
p6064
tp6065
(lp6066
s(S'SRY'
p6067
S'NRAS'
p6068
S'increases'
p6069
tp6070
(lp6071
s(S'REPIN1'
p6072
S'CYP26A1'
p6073
S'increases'
p6074
tp6075
(lp6076
s(S'VEGFR3/VEGFC-D'
p6077
S'PKC'
p6078
S'increases_activity'
p6079
tp6080
(lp6081
s(S'MEIS1'
p6082
S'EN1'
p6083
S'increases'
p6084
tp6085
(lp6086
s(S'FOXJ1'
p6087
S'FOXD3'
p6088
S'increases'
p6089
tp6090
(lp6091
s(S'SPZ1'
p6092
S'FOXO4'
p6093
S'increases'
p6094
tp6095
(lp6096
s(S'RHOA/GTP'
p6097
S'ROCK1-ROCK2'
p6098
S'increases_activity'
p6099
tp6100
(lp6101
s(S'HMGA1'
p6102
S'ONECUT1'
p6103
S'increases'
p6104
tp6105
(lp6106
s(S'uPA/uPAR/alphav/beta3 Integrin/Vitronectin'
p6107
S'SRC'
p6108
S'adds_modification'
p6109
tp6110
(lp6111
s(S'ETS1'
p6112
S'CYP26A1'
p6113
S'increases'
p6114
tp6115
(lp6116
s(S'ESRRA'
p6117
S'TLX2'
p6118
S'increases'
p6119
tp6120
(lp6121
s(S'ROCK2'
p6122
S'RHO FAMILY GTPASE-ACTIVE'
p6123
S'binds'
p6124
tp6125
(lp6126
s(S'ATF4'
p6127
S'CYP26A1'
p6128
S'increases'
p6129
tp6130
(lp6131
s(S'OR5I1'
p6132
S'CYP26A1'
p6133
S'increases'
p6134
tp6135
(lp6136
s(S'PITX2'
p6137
S'GATA1'
p6138
S'increases'
p6139
tp6140
(lp6141
s(S'AHR'
p6142
S'ONECUT1'
p6143
S'increases'
p6144
tp6145
(lp6146
s(S'PTF1A'
p6147
S'MECOM'
p6148
S'increases'
p6149
tp6150
(lp6151
s(S'arsenic trioxide'
p6152
S'HRAS MRNA'
p6153
S'increases'
p6154
tp6155
(lp6156
s(S'TCF3'
p6157
S'REPIN1'
p6158
S'increases'
p6159
tp6160
(lp6161
s(S'STAT6'
p6162
S'FOXO3'
p6163
S'increases'
p6164
tp6165
(lp6166
s(S'POU1F1'
p6167
S'POU2F1'
p6168
S'increases'
p6169
tp6170
(lp6171
s(S'RHOA/GTP'
p6172
S'ROCK'
p6173
S'increases_activity'
p6174
tp6175
(lp6176
s(S'PITPNA'
p6177
S'PI-4-5-P2'
p6178
S'translocates'
p6179
tp6180
(lp6181
s(S'MDM-2'
p6182
S'P14/19 ARF'
p6183
S'binds'
p6184
tp6185
(lp6186
s(S'TEAD1'
p6187
S'FOXO3'
p6188
S'increases'
p6189
tp6190
(lp6191
s(S'MYC'
p6192
S'MAX'
p6193
S'increases'
p6194
tp6195
(lp6196
S'Under hypoxic conditions, HIF1 inhibits MYC activity, either through interruption of MYC-MAX binding or through stimulation of proteasomal degradation of MYC ('
p6197
as(S'GRB2:SOS1'
p6198
S'EGF:PHOSPHO-EGFR:PHOSPHO-SHC'
p6199
S'binds'
p6200
tp6201
(lp6202
s(S'NF1'
p6203
S'RUNX1'
p6204
S'increases'
p6205
tp6206
(lp6207
s(S'ZEB1'
p6208
S'GATA6'
p6209
S'increases'
p6210
tp6211
(lp6212
s(S'TBP'
p6213
S'EN1'
p6214
S'increases'
p6215
tp6216
(lp6217
s(S'FOXA1'
p6218
S'FOXD3'
p6219
S'increases'
p6220
tp6221
(lp6222
s(S'CART1'
p6223
S'EN1'
p6224
S'increases'
p6225
tp6226
(lp6227
s(S'MAX'
p6228
S'CEBPA'
p6229
S'increases'
p6230
tp6231
(lp6232
s(S'GATA6'
p6233
S'NRAS'
p6234
S'increases'
p6235
tp6236
(lp6237
s(S'PTF1A'
p6238
S'FOXO3'
p6239
S'increases'
p6240
tp6241
(lp6242
s(S'LEF1'
p6243
S'FOXA1'
p6244
S'increases'
p6245
tp6246
(lp6247
s(S'hsa-let-7g-5p'
p6248
S'KRAS'
p6249
S'decreases'
p6250
tp6251
(lp6252
s(S'ZBTB14'
p6253
S'CYP26A1'
p6254
S'increases'
p6255
tp6256
(lp6257
s(S'POU1F1'
p6258
S'FOXO4'
p6259
S'increases'
p6260
tp6261
(lp6262
s(S'PI3K'
p6263
S'PI-4-5-P2'
p6264
S'translocates'
p6265
tp6266
(lp6267
s(S'GABPB2'
p6268
S'NRAS'
p6269
S'increases'
p6270
tp6271
(lp6272
s(S'ELK1'
p6273
S'LEF1'
p6274
S'increases'
p6275
tp6276
(lp6277
s(S'Estrogens'
p6278
S'HRAS MRNA'
p6279
S'increases'
p6280
tp6281
(lp6282
s(S'CYP26A1'
p6283
S'CEBPA'
p6284
S'increases'
p6285
tp6286
(lp6287
s(S'SPI1'
p6288
S'POU2F1'
p6289
S'increases'
p6290
tp6291
(lp6292
s(S'PPARG'
p6293
S'CYP26A1'
p6294
S'increases'
p6295
tp6296
(lp6297
s(S'Asbestos, Serpentine'
p6298
S'HRAS PROTEIN'
p6299
S'increases'
p6300
tp6301
(lp6302
s(S'RET51/GFRALPHA1/GDNF/DOK1'
p6303
S'RASGAP'
p6304
S'binds'
p6305
tp6306
(lp6307
s(S'FOXO1'
p6308
S'GATA6'
p6309
S'increases'
p6310
tp6311
(lp6312
s(S'Cadmium'
p6313
S'KRAS PROTEIN'
p6314
S'increases'
p6315
tp6316
(lp6317
s(S'MAX'
p6318
S'EN1'
p6319
S'increases'
p6320
tp6321
(lp6322
s(S'TLX2'
p6323
S'NRAS'
p6324
S'increases'
p6325
tp6326
(lp6327
s(S'SREBF1'
p6328
S'CYP26A1'
p6329
S'increases'
p6330
tp6331
(lp6332
s(S'SMAD3'
p6333
S'MEIS1'
p6334
S'increases'
p6335
tp6336
(lp6337
s(S'Acetaminophen'
p6338
S'NRAS MRNA'
p6339
S'decreases'
p6340
tp6341
(lp6342
s(S'LEF1'
p6343
S'ETS1'
p6344
S'increases'
p6345
tp6346
(lp6347
s(S'SRF'
p6348
S'MEIS1'
p6349
S'increases'
p6350
tp6351
(lp6352
s(S'BRAF'
p6353
S'MKK3-MKK6'
p6354
S'increases_activity'
p6355
tp6356
(lp6357
s(S'HRAS/GTP'
p6358
S'RAF1'
p6359
S'adds_modification'
p6360
tp6361
(lp6362
s(S'MSX1'
p6363
S'CYP26A1'
p6364
S'increases'
p6365
tp6366
(lp6367
s(S'GATA4'
p6368
S'ETS1'
p6369
S'increases'
p6370
tp6371
(lp6372
s(S'E4F1'
p6373
S'FOXA1'
p6374
S'increases'
p6375
tp6376
(lp6377
s(S'FOXD1'
p6378
S'LEF1'
p6379
S'increases'
p6380
tp6381
(lp6382
s(S'CUX1'
p6383
S'MAX'
p6384
S'increases'
p6385
tp6386
(lp6387
s(S'CYP26A1'
p6388
S'CBFA2T3'
p6389
S'increases'
p6390
tp6391
(lp6392
s(S'CAM/CA2+'
p6393
S'KRAS ISOFORM 4B/GTP'
p6394
S'binds'
p6395
tp6396
(lp6397
s(S'MYOG'
p6398
S'STAT5A'
p6399
S'increases'
p6400
tp6401
(lp6402
s(S'MYOD1'
p6403
S'STAT5A'
p6404
S'increases'
p6405
tp6406
(lp6407
s(S'HNF1A'
p6408
S'POU3F2'
p6409
S'increases'
p6410
tp6411
(lp6412
s(S'EPH'
p6413
S'EPHR'
p6414
S'binds'
p6415
tp6416
(lp6417
S'DIAB2NEPHROGENE was a multicenter case-control study (15 diabetes and 5 nephrology centers in France between 2001 and 2004 [additional information can be found in an online appendix at '
p6418
aS'The DIAB2NEPHROGENE and SURDIAGENE studies were approved by the Poitiers University Ethics Committee.'
p6419
aS'In contrast, the participants in the other two studies were recruited from hospitals (SURDIAGENE and DIAB2NEPHROGENE) and more frequently had cardiovascular diseases.'
p6420
aS'The DIAB2NEPHROGENE and SURDIAGENE studies were supported by grants from PHRC-Poitiers 2004, and AFD (Research Grant 2003).'
p6421
as(S'PDGF:PHOSPHO-PDGF RECEPTOR DIMER'
p6422
S'GRB2:SOS1'
p6423
S'binds'
p6424
tp6425
(lp6426
s(S'HRAS/GTP'
p6427
S'PI3K'
p6428
S'increases_activity'
p6429
tp6430
(lp6431
s(S'RUNX1'
p6432
S'TLX2'
p6433
S'increases'
p6434
tp6435
(lp6436
s(S'MYOG'
p6437
S'CYP26A1'
p6438
S'increases'
p6439
tp6440
(lp6441
s(S'PAX2'
p6442
S'EN1'
p6443
S'increases'
p6444
tp6445
(lp6446
s(S'TFCP2'
p6447
S'CYP26A1'
p6448
S'increases'
p6449
tp6450
(lp6451
s(S'hsa-miR-145-5p'
p6452
S'NRAS'
p6453
S'decreases'
p6454
tp6455
(lp6456
s(S'KAT2B'
p6457
S'GATA1'
p6458
S'increases'
p6459
tp6460
(lp6461
s(S'P-EGFR MUTANTS:P-Y349,350-SHC1'
p6462
S'GRB2:SOS1'
p6463
S'binds'
p6464
tp6465
(lp6466
s(S'E2F1'
p6467
S'MECOM'
p6468
S'increases'
p6469
tp6470
(lp6471
s(S'GNB1/GNG2'
p6472
S'SRC'
p6473
S'adds_modification'
p6474
tp6475
(lp6476
s(S'ZBTB14'
p6477
S'MAX'
p6478
S'increases'
p6479
tp6480
(lp6481
s(S'RALGDS'
p6482
S'P21 RAS:GTP'
p6483
S'binds'
p6484
tp6485
(lp6486
s(S'RHOA/GTP'
p6487
S'ROCK2'
p6488
S'increases_activity'
p6489
tp6490
(lp6491
s(S'NR1H3'
p6492
S'FOXD3'
p6493
S'increases'
p6494
tp6495
(lp6496
s(S'TFAP4'
p6497
S'GATA1'
p6498
S'increases'
p6499
tp6500
(lp6501
s(S'FOXA1'
p6502
S'GATA6'
p6503
S'increases'
p6504
tp6505
(lp6506
s(S'GRB2:SOS1'
p6507
S'P-SHC'
p6508
S'binds'
p6509
tp6510
(lp6511
s(S'E2F1'
p6512
S'FOXO3'
p6513
S'increases'
p6514
tp6515
(lp6516
s.