(dp0
(S'ZEB1'
p1
S'FOXA1'
p2
S'increases'
p3
tp4
(lp5
s(S'FOXJ1'
p6
S'GATA6'
p7
S'increases'
p8
tp9
(lp10
s(S'TFAP4'
p11
S'FOXD3'
p12
S'increases'
p13
tp14
(lp15
s(S'TBP'
p16
S'MEIS1'
p17
S'increases'
p18
tp19
(lp20
s(S'GCM1'
p21
S'GATA6'
p22
S'increases'
p23
tp24
(lp25
s(S'T-DHT'
p26
S'SRC'
p27
S'adds_modification'
p28
tp29
(lp30
s(S'MAZ'
p31
S'GABPB2'
p32
S'increases'
p33
tp34
(lp35
s(S'HMGA1'
p36
S'EN1'
p37
S'increases'
p38
tp39
(lp40
s(S'CYP26A1'
p41
S'NRAS'
p42
S'increases'
p43
tp44
(lp45
s(S'CUX1'
p46
S'MEIS1'
p47
S'increases'
p48
tp49
(lp50
s(S'REPIN1'
p51
S'BACH1'
p52
S'increases'
p53
tp54
(lp55
s(S'TFDP1'
p56
S'HOXA9'
p57
S'increases'
p58
tp59
(lp60
s(S'NFE2L1'
p61
S'CYP26A1'
p62
S'increases'
p63
tp64
(lp65
s(S'MAZ'
p66
S'GATA1'
p67
S'increases'
p68
tp69
(lp70
s(S'TCF12'
p71
S'GABPB2'
p72
S'increases'
p73
tp74
(lp75
s(S'ETS2'
p76
S'FOXO3'
p77
S'increases'
p78
tp79
(lp80
s(S'hsa-let-7c-5p'
p81
S'NRAS'
p82
S'decreases'
p83
tp84
(lp85
s(S'SPI1'
p86
S'CYP26A1'
p87
S'increases'
p88
tp89
(lp90
s(S'RAC1/GTP'
p91
S'MKK4'
p92
S'adds_modification'
p93
tp94
(lp95
s(S'Quercetin'
p96
S'KRAS MRNA'
p97
S'decreases'
p98
tp99
(lp100
s(S'INSULIN RECEPTOR/INSULIN/SHC'
p101
S'GRB2'
p102
S'binds'
p103
tp104
(lp105
s(S'TAp63a (tetramer)'
p106
S'PKC DELTA'
p107
S'increases'
p108
tp109
(lp110
s(S'FOXO1'
p111
S'POU2F1'
p112
S'increases'
p113
tp114
(lp115
s(S'FOXL1'
p116
S'EN1'
p117
S'increases'
p118
tp119
(lp120
s(S'TBP'
p121
S'CYP26A1'
p122
S'increases'
p123
tp124
(lp125
s(S'Heptachlor'
p126
S'HRAS MRNA'
p127
S'decreases'
p128
tp129
(lp130
s(S'PCBP1'
p131
S'CYP26A1'
p132
S'increases'
p133
tp134
(lp135
s(S'ZBTB18'
p136
S'CYP26A1'
p137
S'increases'
p138
tp139
(lp140
s(S'GATA2'
p141
S'CYP26A1'
p142
S'increases'
p143
tp144
(lp145
s(S'Cadmium'
p146
S'KRAS MRNA'
p147
S'increases'
p148
tp149
(lp150
s(S'HNF1A'
p151
S'POU2F1'
p152
S'increases'
p153
tp154
(lp155
s(S'ABT-100'
p156
S'HRAS PROTEIN'
p157
S'inhibits_modification'
p158
tp159
(lp160
s(S'ELF1'
p161
S'CYP26A1'
p162
S'increases'
p163
tp164
(lp165
s(S'LEF1'
p166
S'KRAS'
p167
S'increases'
p168
tp169
(lp170
s(S'NKX2-1'
p171
S'FOXD3'
p172
S'increases'
p173
tp174
(lp175
s(S'PI-3-4-5-P3'
p176
S'BTK-ITK'
p177
S'translocates'
p178
tp179
(lp180
s(S'POU6F1'
p181
S'HOXA9'
p182
S'increases'
p183
tp184
(lp185
s(S'Myb'
p186
S'MYB'
p187
S'increases'
p188
tp189
(lp190
s(S'PAX5'
p191
S'CYP26A1'
p192
S'increases'
p193
tp194
(lp195
s(S'FOXO4'
p196
S'FOXD3'
p197
S'increases'
p198
tp199
(lp200
s(S'CYP26A1'
p201
S'FOXO4'
p202
S'increases'
p203
tp204
(lp205
s(S'cell adhesion'
p206
S'HRAS/GDP'
p207
S'increases_activity'
p208
tp209
(lp210
s(S'IRF7'
p211
S'CYP26A1'
p212
S'increases'
p213
tp214
(lp215
s(S'7,8-Dihydro-7,8-dihydroxybenzo(a)pyrene 9,10-oxide'
p216
S'KRAS PROTEIN'
p217
S'increases'
p218
tp219
(lp220
s(S'PITX2'
p221
S'POU2F1'
p222
S'increases'
p223
tp224
(lp225
s(S'E2F1'
p226
S'CYP26A1'
p227
S'increases'
p228
tp229
(lp230
s(S'ATF1'
p231
S'CYP26A1'
p232
S'increases'
p233
tp234
(lp235
s(S'PI3K'
p236
S'PKC DELTA'
p237
S'adds_modification'
p238
tp239
(lp240
s(S'SOX5'
p241
S'HOXA9'
p242
S'increases'
p243
tp244
(lp245
s(S'FOXO4'
p246
S'POU2F1'
p247
S'increases'
p248
tp249
(lp250
s(S'FOXO4'
p251
S'GATA6'
p252
S'increases'
p253
tp254
(lp255
s(S'LEF1'
p256
S'FOXF2'
p257
S'increases'
p258
tp259
(lp260
s(S'Insulin Receptor/Insuli/IRS1/GRB2/SHC/Sos'
p261
S'HRAS/GDP'
p262
S'increases_activity'
p263
tp264
(lp265
s(S'TLX2'
p266
S'RUNX1'
p267
S'increases'
p268
tp269
(lp270
s(S'ALX4'
p271
S'JUN'
p272
S'increases'
p273
tp274
(lp275
s(S'RHOA/GTP'
p276
S'RHOGDI'
p277
S'binds'
p278
tp279
(lp280
s(S'GCM1'
p281
S'CYP26A1'
p282
S'increases'
p283
tp284
(lp285
s(S'RB1'
p286
S'ONECUT1'
p287
S'increases'
p288
tp289
(lp290
s(S'NHLH1'
p291
S'CYP26A1'
p292
S'increases'
p293
tp294
(lp295
s(S'NR3C1'
p296
S'BACH1'
p297
S'increases'
p298
tp299
(lp300
s(S'HNF4A'
p301
S'CYP26A1'
p302
S'increases'
p303
tp304
(lp305
s(S'YY1'
p306
S'FOXO3'
p307
S'increases'
p308
tp309
(lp310
s(S'GRB2:SOS1'
p311
S'P-EGFR MUTANTS DIMER'
p312
S'binds'
p313
tp314
(lp315
s(S'P-Y349,350-SHC1:P-ERBB4'
p316
S'GRB2:SOS1'
p317
S'binds'
p318
tp319
(lp320
s(S'FOXN1'
p321
S'ONECUT1'
p322
S'increases'
p323
tp324
(lp325
s(S'TFAP4'
p326
S'MYC'
p327
S'increases'
p328
tp329
(lp330
s(S'MYC'
p331
S'EN1'
p332
S'increases'
p333
tp334
(lp335
s(S'Antigen/IgE/Fc epsilon R1/LYN/SYK'
p336
S'SHC/GRB2/SOS1'
p337
S'increases_activity'
p338
tp339
(lp340
s(S'14-3-3 BETA, ZETA'
p341
S'GARNL4'
p342
S'binds'
p343
tp344
(lp345
s(S'SMAD1'
p346
S'EN1'
p347
S'increases'
p348
tp349
(lp350
s(S'Raf-1'
p351
S'MEK1-2'
p352
S'adds_modification'
p353
tp354
(lp355
s(S'POU2F1'
p356
S'FOXO3'
p357
S'increases'
p358
tp359
(lp360
s(S'NGF (dimer)/TRKA'
p361
S'RASGRF1'
p362
S'adds_modification'
p363
tp364
(lp365
s(S'TCF4'
p366
S'CYP26A1'
p367
S'increases'
p368
tp369
(lp370
s(S'STAT5B'
p371
S'TLX2'
p372
S'increases'
p373
tp374
(lp375
s(S'CYP26A1'
p376
S'SRF'
p377
S'increases'
p378
tp379
(lp380
s(S'STAT1'
p381
S'NRAS'
p382
S'increases'
p383
tp384
(lp385
s(S'TFDP1'
p386
S'GATA1'
p387
S'increases'
p388
tp389
(lp390
s(S'PI3K'
p391
S'ALPHA6/BETA4 INTEGRIN/LAMININ'
p392
S'binds'
p393
tp394
(lp395
s(S'FOXF2'
p396
S'NRAS'
p397
S'increases'
p398
tp399
(lp400
s(S'CUX1'
p401
S'POU2F1'
p402
S'increases'
p403
tp404
(lp405
s(S'ETS2'
p406
S'STAT4'
p407
S'increases'
p408
tp409
(lp410
s(S'EN1'
p411
S'CYP26A1'
p412
S'increases'
p413
tp414
(lp415
s(S'COMPLEX (RAS/GTP)'
p416
S'RAF'
p417
S'binds'
p418
tp419
(lp420
s(S'LEF1'
p421
S'EN1'
p422
S'increases'
p423
tp424
(lp425
s(S'FOXL1'
p426
S'NRAS'
p427
S'increases'
p428
tp429
(lp430
s(S'ELF2'
p431
S'CYP26A1'
p432
S'increases'
p433
tp434
(lp435
s(S'Src Family Kinases-active'
p436
S'EGF/EGFR'
p437
S'adds_modification'
p438
tp439
(lp440
s(S'RUNX1'
p441
S'POU2F1'
p442
S'increases'
p443
tp444
(lp445
s(S'RHOA/GTP'
p446
S'CITRON-N'
p447
S'increases_activity'
p448
tp449
(lp450
s(S'PAX4'
p451
S'SRF'
p452
S'increases'
p453
tp454
(lp455
s(S'Vitamin E'
p456
S'HRAS MRNA'
p457
S'increases'
p458
tp459
(lp460
s(S'CDX2'
p461
S'FOXD3'
p462
S'increases'
p463
tp464
(lp465
s(S'Plant Extracts'
p466
S'KEAP1 PROTEIN'
p467
S'decreases'
p468
tp469
(lp470
s(S'PAX4'
p471
S'CBFA2T3'
p472
S'increases'
p473
tp474
(lp475
s(S'FOXD1'
p476
S'CYP26A1'
p477
S'increases'
p478
tp479
(lp480
s(S'Antigen/IgE/Fc epsilon R1/LYN/SYK'
p481
S'VAV1'
p482
S'adds_modification'
p483
tp484
(lp485
s(S'PCBP1'
p486
S'MEIS1'
p487
S'increases'
p488
tp489
(lp490
s(S'FOXI1'
p491
S'FOXD3'
p492
S'increases'
p493
tp494
(lp495
s(S'GATA4'
p496
S'MEIS1'
p497
S'increases'
p498
tp499
(lp500
s(S'STAT5B'
p501
S'CEBPG'
p502
S'increases'
p503
tp504
(lp505
s(S'TFDP2'
p506
S'MAZ'
p507
S'increases'
p508
tp509
(lp510
s(S'PI3K'
p511
S'SHP2'
p512
S'binds'
p513
tp514
(lp515
s(S'SPI1'
p516
S'ONECUT1'
p517
S'increases'
p518
tp519
(lp520
s(S'STAT6'
p521
S'EN1'
p522
S'increases'
p523
tp524
(lp525
s(S'TLX2'
p526
S'CYP26A1'
p527
S'increases'
p528
tp529
(lp530
s(S'RAF1'
p531
S'MEK1-2'
p532
S'increases_activity'
p533
tp534
(lp535
s(S'STAT5A'
p536
S'IRF1'
p537
S'increases'
p538
tp539
(lp540
s(S'2-amino-1-methyl-6-phenylimidazo(4,5-b)pyridine'
p541
S'HRAS MRNA'
p542
S'increases'
p543
tp544
(lp545
s(S'MAZ'
p546
S'POU2F1'
p547
S'increases'
p548
tp549
(lp550
s(S'MAZ'
p551
S'SRF'
p552
S'increases'
p553
tp554
(lp555
s(S'GATA1'
p556
S'JUN'
p557
S'increases'
p558
tp559
(lp560
s(S'FOXA1'
p561
S'NRAS'
p562
S'increases'
p563
tp564
(lp565
s(S'STAT1'
p566
S'EN1'
p567
S'increases'
p568
tp569
(lp570
s(S'GTF2A2'
p571
S'MAX'
p572
S'increases'
p573
tp574
(lp575
s(S'LMO2'
p576
S'EN1'
p577
S'increases'
p578
tp579
(lp580
s(S'MYOD1'
p581
S'LEF1'
p582
S'increases'
p583
tp584
(lp585
s(S'ATF3'
p586
S'JUN'
p587
S'increases'
p588
tp589
(lp590
s(S'GRB2:SOS1'
p591
S'ACTIVATED FGFR:P-SHC1'
p592
S'binds'
p593
tp594
(lp595
s(S'MAFG'
p596
S'BACH1'
p597
S'increases'
p598
tp599
(lp600
s(S'POU3F2'
p601
S'POU2F1'
p602
S'increases'
p603
tp604
(lp605
s(S'K 7174'
p606
S'KRAS MRNA'
p607
S'increases'
p608
tp609
(lp610
s(S'POU1F1'
p611
S'RUNX1'
p612
S'increases'
p613
tp614
(lp615
s(S'HRAS protein'
p616
S'CCND1 MRNA'
p617
S'increases'
p618
tp619
(lp620
s(S'YY1'
p621
S'EN1'
p622
S'increases'
p623
tp624
(lp625
s(S'resveratrol'
p626
S'HRAS MRNA'
p627
S'increases'
p628
tp629
(lp630
s(S'NKX2-1'
p631
S'HOXA9'
p632
S'increases'
p633
tp634
(lp635
s(S'HSF1'
p636
S'CYP26A1'
p637
S'increases'
p638
tp639
(lp640
s(S'MYC'
p641
S'HOXA9'
p642
S'increases'
p643
tp644
(lp645
s(S'Raf'
p646
S'MEK'
p647
S'adds_modification'
p648
tp649
(lp650
S'The regulation of Glut-3 biosynthesis can be regulated by the downstream signaling pathway of insulin receptor, which includes Ras, Raf, MEK, and MAPK ['
p651
aS'On the insulin receptor signaling pathway, the insulin receptor transduces the insulin signal into cytoplasm via the activation of various pathways including the Ras-Raf-MEK-ERK, the PI3K-PDK-AKT, the c-Cbl-GLUT-4, the PI3K-Rab4-GLUT-4 and the PI3K-Rac-MEKK1-MKK4-JNK pathways ['
p652
aS'MEK inhibitors, U0126 and PD184352, and the Raf inhibitor sorafenib were purchased from LC Laboratories (Woburn, MA).'
p653
aS'GAPDH, p-RafS259, p-MEK, p-Erk1/2, ERK1/2 (rabbit), KSR1, c-Raf (rabbit), pan-SFK416, Lyn, Fgr, HRP anti-mouse, and HRP anti-rabbit were from Cell Signaling (Danvers, MA).'
p654
aS'ATRA-induced differentiation is driven by a sustained MAP kinase signal such that inhibition of MEK activity blocks ERK and c-Raf activation, preventing differentiation ('
p655
aS'ATRA induction is characterized by MAPK activation, and inhibitors of MEK and c-Raf block differentiation ('
p656
aS'KSR1 is a scaffolding molecule that modulates interactions between Raf, MEK, and ERK, and fine-tunes the specificity of MAPK signaling ('
p657
aS'Western blotting shows phospho- and total ERK and MEK, and total c-Raf.'
p658
aS'GSK-3 also interacts with the Hh, Notch, Raf/MEK/ERK and other important regulatory pathways.'
p659
aS'Interactions of the Ras/PI3K/PTEN/Akt/mTOR and Ras/Raf/MEK/ERK pathways with GSK-3.'
p660
aS'Some of the regulatory interactions between GSK-3 and Ras/PI3K/PTEN/Akt/mTOR and Ras/Raf/MEK/ERK pathways are indicated.'
p661
as(S'TFDP1'
p662
S'MAZ'
p663
S'increases'
p664
tp665
(lp666
s(S'SPRED1'
p667
S'HRAS'
p668
S'binds'
p669
tp670
(lp671
s(S'MYCN'
p672
S'CYP26A1'
p673
S'increases'
p674
tp675
(lp676
s(S'AHR'
p677
S'FOXD3'
p678
S'increases'
p679
tp680
(lp681
s(S'SF1'
p682
S'CYP26A1'
p683
S'increases'
p684
tp685
(lp686
s(S'MEIS1'
p687
S'ETS1'
p688
S'increases'
p689
tp690
(lp691
s(S'Copper Sulfate'
p692
S'HRAS MRNA'
p693
S'decreases'
p694
tp695
(lp696
s(S'MAZ'
p697
S'MYC'
p698
S'increases'
p699
tp700
(lp701
s(S'E4F1'
p702
S'HOXA9'
p703
S'increases'
p704
tp705
(lp706
s(S'GATA1'
p707
S'GATA6'
p708
S'increases'
p709
tp710
(lp711
s(S'RUNX2'
p712
S'POU2F1'
p713
S'increases'
p714
tp715
(lp716
s(S'CYP26A1'
p717
S'GATA6'
p718
S'increases'
p719
tp720
(lp721
s(S'PAX4'
p722
S'GATA1'
p723
S'increases'
p724
tp725
(lp726
s(S'ELF2'
p727
S'STAT5A'
p728
S'increases'
p729
tp730
(lp731
s(S'CART1'
p732
S'NRAS'
p733
S'increases'
p734
tp735
(lp736
s(S'IGF-1R heterotetramer/IGF1/GRB2/Sos/Shc'
p737
S'HRAS/GDP'
p738
S'increases_activity'
p739
tp740
(lp741
s(S'RB1'
p742
S'CYP26A1'
p743
S'increases'
p744
tp745
(lp746
s(S'CEBPG'
p747
S'HOXA9'
p748
S'increases'
p749
tp750
(lp751
s(S'GRB2/SOS1/SHC'
p752
S'IGF-1R HETEROTETRAMER/IGF1'
p753
S'binds'
p754
tp755
(lp756
s(S'PRRX2'
p757
S'CYP26A1'
p758
S'increases'
p759
tp760
(lp761
s(S'TEAD1'
p762
S'CYP26A1'
p763
S'increases'
p764
tp765
(lp766
s(S'STAT5A'
p767
S'FOXA1'
p768
S'increases'
p769
tp770
(lp771
s(S'ATF2'
p772
S'FOXD3'
p773
S'increases'
p774
tp775
(lp776
s(S'REPIN1'
p777
S'FOXO4'
p778
S'increases'
p779
tp780
(lp781
s(S'FOXF2'
p782
S'ETS1'
p783
S'increases'
p784
tp785
(lp786
s(S'ETV7'
p787
S'MEIS1'
p788
S'increases'
p789
tp790
(lp791
s(S'RUNX2'
p792
S'RUNX1'
p793
S'increases'
p794
tp795
(lp796
s(S'OR5I1'
p797
S'GATA1'
p798
S'increases'
p799
tp800
(lp801
s(S'MSX1'
p802
S'EN1'
p803
S'increases'
p804
tp805
(lp806
s(S'GTF3A'
p807
S'IRF1'
p808
S'increases'
p809
tp810
(lp811
s(S'POU2F1'
p812
S'SRF'
p813
S'increases'
p814
tp815
(lp816
s(S'PLC-GAMMA'
p817
S'COMPLEX (GADS/SLP-76)'
p818
S'binds'
p819
tp820
(lp821
s(S'STAT4'
p822
S'STAT5A'
p823
S'increases'
p824
tp825
(lp826
s(S'JUN'
p827
S'BACH1'
p828
S'increases'
p829
tp830
(lp831
s(S'POU1F1'
p832
S'HOXA9'
p833
S'increases'
p834
tp835
(lp836
s(S'docetaxel'
p837
S'HRAS PROTEIN'
p838
S'increases'
p839
tp840
(lp841
s(S'MAX'
p842
S'LEF1'
p843
S'increases'
p844
tp845
(lp846
s(S'FOXA1'
p847
S'CYP26A1'
p848
S'increases'
p849
tp850
(lp851
s(S'GATA4'
p852
S'FOXD3'
p853
S'increases'
p854
tp855
(lp856
s(S'ZBTB18'
p857
S'RUNX1'
p858
S'increases'
p859
tp860
(lp861
s(S'ATF3'
p862
S'RUNX1'
p863
S'increases'
p864
tp865
(lp866
s(S'NKX2-1'
p867
S'CYP26A1'
p868
S'increases'
p869
tp870
(lp871
s(S'NR3C1'
p872
S'FOXA1'
p873
S'increases'
p874
tp875
(lp876
s(S'RAS family/GTP'
p877
S'RIN1'
p878
S'increases_activity'
p879
tp880
(lp881
s(S'COMPLEX (RAS/GTP/ RAF)'
p882
S'MEK'
p883
S'binds'
p884
tp885
(lp886
s(S'CDC5L'
p887
S'NRAS'
p888
S'increases'
p889
tp890
(lp891
s(S'Vitamin E'
p892
S'NRAS MRNA'
p893
S'decreases'
p894
tp895
(lp896
s(S'NF1'
p897
S'LEF1'
p898
S'increases'
p899
tp900
(lp901
s(S'ETS1'
p902
S'EN1'
p903
S'increases'
p904
tp905
(lp906
s(S'CRAF'
p907
S'YWHAB'
p908
S'binds'
p909
tp910
(lp911
s(S'CEBPD'
p912
S'JUN'
p913
S'increases'
p914
tp915
(lp916
s(S'MAX'
p917
S'RUNX2'
p918
S'increases'
p919
tp920
(lp921
s(S'CEBPA'
p922
S'MECOM'
p923
S'increases'
p924
tp925
(lp926
s(S'PAX2'
p927
S'GATA1'
p928
S'increases'
p929
tp930
(lp931
s(S'CYP26A1'
p932
S'TLX2'
p933
S'increases'
p934
tp935
(lp936
s(S'GFI1'
p937
S'ETS1'
p938
S'increases'
p939
tp940
(lp941
s(S'14-3-3:P-S259,Y340,Y341,S621-RAF1:RAS:GTP'
p942
S'MEK'
p943
S'binds'
p944
tp945
(lp946
s(S'P-S,T-MEK2'
p947
S'ERK2'
p948
S'binds'
p949
tp950
(lp951
s(S'HRAS/GTP'
p952
S'RIN2'
p953
S'increases_activity'
p954
tp955
(lp956
s(S'Ras-GTP'
p957
S'P42/P44MAPKS'
p958
S'adds_modification'
p959
tp960
(lp961
s(S'SRF'
p962
S'CYP26A1'
p963
S'increases'
p964
tp965
(lp966
s(S'FOXL1'
p967
S'RUNX2'
p968
S'increases'
p969
tp970
(lp971
s(S'EGR4'
p972
S'LEF1'
p973
S'increases'
p974
tp975
(lp976
s(S'P-IRS1,2'
p977
S'GRB2:SOS1'
p978
S'binds'
p979
tp980
(lp981
s(S'VEGFR2 (dimer)/VEGFA (dimer)/alphav/beta3 Integrin/Vitronectin'
p982
S'SRC'
p983
S'adds_modification'
p984
tp985
(lp986
s(S'BACH2'
p987
S'BACH1'
p988
S'increases'
p989
tp990
(lp991
s(S'ONECUT1'
p992
S'RUNX1'
p993
S'increases'
p994
tp995
(lp996
s(S'FOXJ2'
p997
S'RUNX2'
p998
S'increases'
p999
tp1000
(lp1001
s(S'PI-3-4-5-P3'
p1002
S'AKT1'
p1003
S'translocates'
p1004
tp1005
(lp1006
s(S'TFAP4'
p1007
S'BACH1'
p1008
S'increases'
p1009
tp1010
(lp1011
s(S'MEKK1/4'
p1012
S'MKK3/6'
p1013
S'adds_modification'
p1014
tp1015
(lp1016
s(S'VSX1'
p1017
S'MECOM'
p1018
S'increases'
p1019
tp1020
(lp1021
s(S'IRF1'
p1022
S'GATA6'
p1023
S'increases'
p1024
tp1025
(lp1026
s(S'MAX'
p1027
S'HOXA9'
p1028
S'increases'
p1029
tp1030
(lp1031
s(S'RB1'
p1032
S'MAZ'
p1033
S'increases'
p1034
tp1035
(lp1036
s(S'GATA1'
p1037
S'EN1'
p1038
S'increases'
p1039
tp1040
(lp1041
s(S'HIF1A'
p1042
S'SRF'
p1043
S'increases'
p1044
tp1045
(lp1046
s(S'IRF8'
p1047
S'CYP26A1'
p1048
S'increases'
p1049
tp1050
(lp1051
s(S'MTF1'
p1052
S'CYP26A1'
p1053
S'increases'
p1054
tp1055
(lp1056
s(S'PI-3-4-5-P3'
p1057
S'GAB1'
p1058
S'translocates'
p1059
tp1060
(lp1061
s(S'PI-3-4-5-P3'
p1062
S'AKT1'
p1063
S'adds_modification'
p1064
tp1065
(lp1066
s(S'RXRA'
p1067
S'HOXA9'
p1068
S'increases'
p1069
tp1070
(lp1071
s(S'AKT1'
p1072
S'RAF1'
p1073
S'binds'
p1074
tp1075
(lp1076
s(S'HSF2'
p1077
S'JUN'
p1078
S'increases'
p1079
tp1080
(lp1081
s(S'PAX2'
p1082
S'CYP26A1'
p1083
S'increases'
p1084
tp1085
(lp1086
s(S'ETV7'
p1087
S'CYP26A1'
p1088
S'increases'
p1089
tp1090
(lp1091
s(S'FOXO3'
p1092
S'NRAS'
p1093
S'increases'
p1094
tp1095
(lp1096
s(S'TP53'
p1097
S'REPIN1'
p1098
S'increases'
p1099
tp1100
(lp1101
s(S'STAT6'
p1102
S'CYP26A1'
p1103
S'increases'
p1104
tp1105
(lp1106
s(S'JUN'
p1107
S'NRAS'
p1108
S'increases'
p1109
tp1110
(lp1111
s(S'MYCN'
p1112
S'NRAS'
p1113
S'increases'
p1114
tp1115
(lp1116
s(S'STAT3'
p1117
S'YY1'
p1118
S'increases'
p1119
tp1120
(lp1121
s(S'Methyl Methanesulfonate'
p1122
S'HRAS MRNA'
p1123
S'increases'
p1124
tp1125
(lp1126
s(S'RHOA/GTP'
p1127
S'PKN'
p1128
S'increases_activity'
p1129
tp1130
(lp1131
s(S'NHLH1'
p1132
S'FOXJ2'
p1133
S'increases'
p1134
tp1135
(lp1136
s(S'RAS family/GTP'
p1137
S'BRAF'
p1138
S'adds_modification'
p1139
tp1140
(lp1141
s(S'RELA'
p1142
S'FOXJ2'
p1143
S'increases'
p1144
tp1145
(lp1146
s(S'TCF3'
p1147
S'RUNX1'
p1148
S'increases'
p1149
tp1150
(lp1151
S'Primary cells of different genetic subtypes of precursor B-ALL, including TCF3-rearranged, hyperdiploid, ETV6-RUNX1 and B-other cases, were then exposed to a dilution range of 6-TG ('
p1152
as(S'FOXF2'
p1153
S'FOXO4'
p1154
S'increases'
p1155
tp1156
(lp1157
s(S'ATF4'
p1158
S'FOXD3'
p1159
S'increases'
p1160
tp1161
(lp1162
s(S'HAND1'
p1163
S'MECOM'
p1164
S'increases'
p1165
tp1166
(lp1167
s(S'RHOA/GTP'
p1168
S'P27KIP1'
p1169
S'adds_modification'
p1170
tp1171
(lp1172
s(S'SRF'
p1173
S'NRAS'
p1174
S'increases'
p1175
tp1176
(lp1177
s(S'ESRRA'
p1178
S'POU3F2'
p1179
S'increases'
p1180
tp1181
(lp1182
s(S'BRAF'
p1183
S'MEK1'
p1184
S'adds_modification'
p1185
tp1186
(lp1187
s(S'Cadmium Chloride'
p1188
S'KRAS PROTEIN'
p1189
S'increases'
p1190
tp1191
(lp1192
s(S'PRRX2'
p1193
S'MEIS1'
p1194
S'increases'
p1195
tp1196
(lp1197
s(S'MYC'
p1198
S'NRAS'
p1199
S'increases'
p1200
tp1201
(lp1202
s(S'MAZ'
p1203
S'KRAS'
p1204
S'increases'
p1205
tp1206
(lp1207
s(S'Rho Family GTPase-active'
p1208
S'PI3K'
p1209
S'increases_activity'
p1210
tp1211
(lp1212
s(S'STAT2'
p1213
S'CYP26A1'
p1214
S'increases'
p1215
tp1216
(lp1217
s(S'hsa-let-7a-5p'
p1218
S'KRAS'
p1219
S'decreases'
p1220
tp1221
(lp1222
s(S'POU3F2'
p1223
S'NRAS'
p1224
S'increases'
p1225
tp1226
(lp1227
s(S'SRF'
p1228
S'FOXO4'
p1229
S'increases'
p1230
tp1231
(lp1232
s(S'S1P1/Sphingosine-1-phosphate/PDGF-BB/PDGFRB (dimer)'
p1233
S'SRC FAMILY KINASES'
p1234
S'increases_activity'
p1235
tp1236
(lp1237
s(S'MYC/Max'
p1238
S'ERBB2'
p1239
S'decreases'
p1240
tp1241
(lp1242
s(S'SREBF1'
p1243
S'CBFA2T3'
p1244
S'increases'
p1245
tp1246
(lp1247
s(S'PI3K'
p1248
S'GELSOLIN/PI-3-4-5-P3'
p1249
S'binds'
p1250
tp1251
(lp1252
s(S'NHLH1'
p1253
S'EN1'
p1254
S'increases'
p1255
tp1256
(lp1257
s(S'LMO2'
p1258
S'GATA6'
p1259
S'increases'
p1260
tp1261
(lp1262
s(S'POU1F1'
p1263
S'FOXD3'
p1264
S'increases'
p1265
tp1266
(lp1267
s(S'hsa-miR-148b-3p'
p1268
S'NRAS'
p1269
S'decreases'
p1270
tp1271
(lp1272
s(S'Quercetin'
p1273
S'KRAS PROTEIN'
p1274
S'decreases'
p1275
tp1276
(lp1277
s(S'PAK2'
p1278
S'MEKK1'
p1279
S'adds_modification'
p1280
tp1281
(lp1282
s(S'LMO2'
p1283
S'MAZ'
p1284
S'increases'
p1285
tp1286
(lp1287
s(S'FOXO1'
p1288
S'POU3F2'
p1289
S'increases'
p1290
tp1291
(lp1292
s(S'NKX2-1'
p1293
S'MAZ'
p1294
S'increases'
p1295
tp1296
(lp1297
s(S'GRB2/SOS1'
p1298
S'PDGF-BB/PDGFRB (DIMER)/P52 SHC'
p1299
S'binds'
p1300
tp1301
(lp1302
s(S'PI3K'
p1303
S'CRK/P130 CAS/PAXILLIN'
p1304
S'increases_activity'
p1305
tp1306
(lp1307
s(S'ATF1'
p1308
S'FOXD3'
p1309
S'increases'
p1310
tp1311
(lp1312
s(S'GATA1'
p1313
S'SRF'
p1314
S'increases'
p1315
tp1316
(lp1317
s(S'TFAP2C'
p1318
S'CYP26A1'
p1319
S'increases'
p1320
tp1321
(lp1322
s(S'AHR'
p1323
S'MEIS1'
p1324
S'increases'
p1325
tp1326
(lp1327
s(S'ETS2'
p1328
S'CYP26A1'
p1329
S'increases'
p1330
tp1331
(lp1332
s(S'Estradiol'
p1333
S'NRAS MRNA'
p1334
S'increases'
p1335
tp1336
(lp1337
s(S'E2F1'
p1338
S'HOXA9'
p1339
S'increases'
p1340
tp1341
(lp1342
s(S'PDGF-BB/PDGFRB (DIMER)'
p1343
S'RASGAP'
p1344
S'binds'
p1345
tp1346
(lp1347
s(S'E2F1'
p1348
S'GABPB2'
p1349
S'increases'
p1350
tp1351
(lp1352
s(S'FOXJ1'
p1353
S'POU3F2'
p1354
S'increases'
p1355
tp1356
(lp1357
s(S'VSX1'
p1358
S'CYP26A1'
p1359
S'increases'
p1360
tp1361
(lp1362
s(S'SPI1'
p1363
S'CDC5L'
p1364
S'increases'
p1365
tp1366
(lp1367
s(S'Gi family'
p1368
S'HRAS/GDP'
p1369
S'increases_activity'
p1370
tp1371
(lp1372
s(S'TCF3'
p1373
S'CYP26A1'
p1374
S'increases'
p1375
tp1376
(lp1377
s(S'IGF-1R HETEROTETRAMER/IGF1/IRS1'
p1378
S'GRB2/SOS1'
p1379
S'binds'
p1380
tp1381
(lp1382
s(S'RAS family/GTP'
p1383
S'RALGDS'
p1384
S'translocates'
p1385
tp1386
(lp1387
s(S'PI3K'
p1388
S'RAC1/GDP'
p1389
S'increases_activity'
p1390
tp1391
(lp1392
s(S'Ca2+'
p1393
S'PKC'
p1394
S'increases_activity'
p1395
tp1396
(lp1397
s(S'ZIC1'
p1398
S'CYP26A1'
p1399
S'increases'
p1400
tp1401
(lp1402
s(S'IRF7'
p1403
S'TLX2'
p1404
S'increases'
p1405
tp1406
(lp1407
s(S'SHC/SHIP'
p1408
S'HRAS/GDP'
p1409
S'decreases_activity'
p1410
tp1411
(lp1412
s(S'hsa-let-7a-5p'
p1413
S'HRAS'
p1414
S'decreases'
p1415
tp1416
(lp1417
s(S'GATA4'
p1418
S'MAZ'
p1419
S'increases'
p1420
tp1421
(lp1422
s(S'EN1'
p1423
S'NRAS'
p1424
S'increases'
p1425
tp1426
(lp1427
s(S'PI3K'
p1428
S'BAM32'
p1429
S'adds_modification'
p1430
tp1431
(lp1432
s(S'GABPB1'
p1433
S'CYP26A1'
p1434
S'increases'
p1435
tp1436
(lp1437
s(S'Trifluoroethanol'
p1438
S'HRAS'
p1439
S'increases_activity'
p1440
tp1441
(lp1442
s(S'SOX5'
p1443
S'CYP26A1'
p1444
S'increases'
p1445
tp1446
(lp1447
s(S'GRB2/SOS1'
p1448
S'HGF(DIMER)/MET(DIMER)/P52 SHC'
p1449
S'binds'
p1450
tp1451
(lp1452
s(S'TCF12'
p1453
S'EN1'
p1454
S'increases'
p1455
tp1456
(lp1457
s(S'SOX9'
p1458
S'MEIS1'
p1459
S'increases'
p1460
tp1461
(lp1462
s(S'RB1'
p1463
S'MYC'
p1464
S'increases'
p1465
tp1466
(lp1467
s(S'RXRA'
p1468
S'FOXA1'
p1469
S'increases'
p1470
tp1471
(lp1472
s(S'decitabine'
p1473
S'HRAS MRNA'
p1474
S'decreases'
p1475
tp1476
(lp1477
s(S'VSX1'
p1478
S'EN1'
p1479
S'increases'
p1480
tp1481
(lp1482
s(S'FOXL1'
p1483
S'CYP26A1'
p1484
S'increases'
p1485
tp1486
(lp1487
s(S'PAX2'
p1488
S'RUNX1'
p1489
S'increases'
p1490
tp1491
(lp1492
s(S'MEKK1/4'
p1493
S'MKK4/7'
p1494
S'adds_modification'
p1495
tp1496
(lp1497
s(S'HOXA9'
p1498
S'CYP26A1'
p1499
S'increases'
p1500
tp1501
(lp1502
s(S'TRKC'
p1503
S'NT3 (DIMER)'
p1504
S'binds'
p1505
tp1506
(lp1507
s(S'PTF1A'
p1508
S'REPIN1'
p1509
S'increases'
p1510
tp1511
(lp1512
s(S'TGIF'
p1513
S'CYP26A1'
p1514
S'increases'
p1515
tp1516
(lp1517
s(S'MYOD1'
p1518
S'MYC'
p1519
S'increases'
p1520
tp1521
(lp1522
s(S'PKCT'
p1523
S'KRAS ISO2'
p1524
S'adds_modification'
p1525
tp1526
(lp1527
s(S'RAS family/GTP'
p1528
S'BRAF'
p1529
S'increases_activity'
p1530
tp1531
(lp1532
s(S'SPZ1'
p1533
S'CYP26A1'
p1534
S'increases'
p1535
tp1536
(lp1537
s(S'HRAS/GTP'
p1538
S'GALECTIN-1'
p1539
S'binds'
p1540
tp1541
(lp1542
s(S'DBP'
p1543
S'FOXD3'
p1544
S'increases'
p1545
tp1546
(lp1547
s(S'E2F1'
p1548
S'POU2F1'
p1549
S'increases'
p1550
tp1551
(lp1552
s(S'MEIS1'
p1553
S'CYP26A1'
p1554
S'increases'
p1555
tp1556
(lp1557
s(S'YY1'
p1558
S'NRAS'
p1559
S'increases'
p1560
tp1561
(lp1562
s(S'RAS:RAF'
p1563
S'YWHAB'
p1564
S'binds'
p1565
tp1566
(lp1567
s(S'NFE2L2'
p1568
S'CYP26A1'
p1569
S'increases'
p1570
tp1571
(lp1572
s(S'FARNESYL'
p1573
S'KRAS'
p1574
S'increases_activity'
p1575
tp1576
(lp1577
s(S'MTF1'
p1578
S'MECOM'
p1579
S'increases'
p1580
tp1581
(lp1582
s(S'TLX2'
p1583
S'FOXD3'
p1584
S'increases'
p1585
tp1586
(lp1587
s(S'Insulin Receptor/Insulin/SHC/GRB2/Sos1'
p1588
S'HRAS/GDP'
p1589
S'increases_activity'
p1590
tp1591
(lp1592
s(S'MYC'
p1593
S'ELK1'
p1594
S'increases'
p1595
tp1596
(lp1597
s(S'ONECUT1'
p1598
S'POU2F1'
p1599
S'increases'
p1600
tp1601
(lp1602
s(S'Paraquat'
p1603
S'HRAS MRNA'
p1604
S'translocates'
p1605
tp1606
(lp1607
s(S'GRB2/SOS1'
p1608
S'PDGF-BB/PDGFRB (DIMER)/SHP2'
p1609
S'binds'
p1610
tp1611
(lp1612
s(S'ONECUT1'
p1613
S'CYP26A1'
p1614
S'increases'
p1615
tp1616
(lp1617
s(S'MYC'
p1618
S'FOXO3'
p1619
S'increases'
p1620
tp1621
(lp1622
S'Rearrangements reposition MYC near a limited number of genes associated with conventional enhancers, but mostly with super-enhancers (e.g., IGH, IGL, IGK, NSMCE2, TXNDC5, FAM46C, FOXO3, IGJ, PRDM1).'
p1623
aS'The molecular characterization of MYC locus breakpoints not involving IGH, IGL, or IGK in 14 MMCL and 11 MM tumors revealed the involvement of: MM.1S SEs (TXNDC5 [6p24.3], FAM46C [1p12], ANKRD55 [5q11.2], FAM188A [10p13], IGJ [4q13.3], FOXO3 [6q21], PRDM1 [6q21], NSMCE2 [8q24.13], CTLA4 [2q33.2], SNX5 [20p11-12]); MM.1S enhancers (AHNAK [11q12.3], PVT1 [8q24.21], MTSS1 [8q24.13], GLCCl1 [7p21.3], C4orf45 [4q32.1]); and GM12878 lymphoblastoid Stretch enhancers (AHNAK, MTSS1, TRIB1), Encode enhancers (LINC00313/HSF2PB [21q22.3], and other regions near the MM.1S enhancers or SEs).'
p1624
as(S'PAX3'
p1625
S'ELK1'
p1626
S'increases'
p1627
tp1628
(lp1629
s(S'DOK-R'
p1630
S'RASGAP'
p1631
S'binds'
p1632
tp1633
(lp1634
s(S'HOXA4'
p1635
S'HOXA9'
p1636
S'increases'
p1637
tp1638
(lp1639
s(S'MAX'
p1640
S'POU3F2'
p1641
S'increases'
p1642
tp1643
(lp1644
s(S'Estradiol'
p1645
S'KRAS MRNA'
p1646
S'decreases'
p1647
tp1648
(lp1649
s(S'KRAS ISOFORM 4B/GTP'
p1650
S'CAM/CA2+'
p1651
S'binds'
p1652
tp1653
(lp1654
s(S'MAZ'
p1655
S'FOXO4'
p1656
S'increases'
p1657
tp1658
(lp1659
s(S'hsa-miR-181a-5p'
p1660
S'KRAS'
p1661
S'decreases'
p1662
tp1663
(lp1664
s(S'GATA1'
p1665
S'CYP26A1'
p1666
S'increases'
p1667
tp1668
(lp1669
s(S'PGR'
p1670
S'ETS1'
p1671
S'increases'
p1672
tp1673
(lp1674
s(S'GATA1'
p1675
S'POU2F1'
p1676
S'increases'
p1677
tp1678
(lp1679
s(S'BRAF'
p1680
S'MEK1-2'
p1681
S'increases_activity'
p1682
tp1683
(lp1684
s(S'LEF1'
p1685
S'GABPB2'
p1686
S'increases'
p1687
tp1688
(lp1689
s(S'CYP26A1'
p1690
S'MYC'
p1691
S'increases'
p1692
tp1693
(lp1694
s(S'STAT1'
p1695
S'IRF1'
p1696
S'increases'
p1697
tp1698
(lp1699
s(S'SMAD1'
p1700
S'RUNX2'
p1701
S'increases'
p1702
tp1703
(lp1704
s(S'ZEB1'
p1705
S'TLX2'
p1706
S'increases'
p1707
tp1708
(lp1709
s(S'STAT5B'
p1710
S'IRF1'
p1711
S'increases'
p1712
tp1713
(lp1714
s(S'POU6F1'
p1715
S'CYP26A1'
p1716
S'increases'
p1717
tp1718
(lp1719
s(S'Vincristine'
p1720
S'HRAS MRNA'
p1721
S'increases'
p1722
tp1723
(lp1724
s(S'DAG'
p1725
S'RASGRP1'
p1726
S'adds_modification'
p1727
tp1728
(lp1729
s(S'PI3K'
p1730
S'PDK1'
p1731
S'increases_activity'
p1732
tp1733
(lp1734
S'The binding of growth factor or insulin to cell surface receptors activates PI3K, which converts the plasma membrane lipid PIP2 to PIP3, subsequently recruits PDK1 and Akt to the plasma.'
p1735
as(S'ETS2'
p1736
S'PAX4'
p1737
S'increases'
p1738
tp1739
(lp1740
s(S'NR3C1'
p1741
S'ONECUT1'
p1742
S'increases'
p1743
tp1744
(lp1745
s(S'CUX1'
p1746
S'CYP26A1'
p1747
S'increases'
p1748
tp1749
(lp1750
s(S'ZEB1'
p1751
S'GATA1'
p1752
S'increases'
p1753
tp1754
(lp1755
s(S'NRF1'
p1756
S'POU2F1'
p1757
S'increases'
p1758
tp1759
(lp1760
s(S'FOXJ2'
p1761
S'MECOM'
p1762
S'increases'
p1763
tp1764
(lp1765
s(S'MAZ'
p1766
S'MYCN'
p1767
S'increases'
p1768
tp1769
(lp1770
s(S'Hydrogen Peroxide'
p1771
S'HRAS MRNA'
p1772
S'increases'
p1773
tp1774
(lp1775
s(S'RASA1'
p1776
S'P-EPHBS:EFNBS'
p1777
S'binds'
p1778
tp1779
(lp1780
s(S'SPI1'
p1781
S'CEBPG'
p1782
S'increases'
p1783
tp1784
(lp1785
s(S'EGR1'
p1786
S'LEF1'
p1787
S'increases'
p1788
tp1789
(lp1790
s(S'RET51/GFRALPHA1/GDNF'
p1791
S'P62DOK'
p1792
S'binds'
p1793
tp1794
(lp1795
s(S'TFDP2'
p1796
S'CYP26A1'
p1797
S'increases'
p1798
tp1799
(lp1800
s(S'matrine'
p1801
S'NRAS MRNA'
p1802
S'increases'
p1803
tp1804
(lp1805
s(S'Isotretinoin'
p1806
S'KRAS MRNA'
p1807
S'decreases'
p1808
tp1809
(lp1810
s(S'PITX2'
p1811
S'FOXF2'
p1812
S'increases'
p1813
tp1814
(lp1815
s(S'MYOD1'
p1816
S'POU2F1'
p1817
S'increases'
p1818
tp1819
(lp1820
s(S'sodium arsenite'
p1821
S'KRAS PROTEIN'
p1822
S'increases'
p1823
tp1824
(lp1825
s(S'TCF4'
p1826
S'CBFA2T3'
p1827
S'increases'
p1828
tp1829
(lp1830
s(S'CYP26A1'
p1831
S'FOXA1'
p1832
S'increases'
p1833
tp1834
(lp1835
s(S'TP53'
p1836
S'CYP26A1'
p1837
S'increases'
p1838
tp1839
(lp1840
s(S'ATF3'
p1841
S'FOXD3'
p1842
S'increases'
p1843
tp1844
(lp1845
s(S'POU2F1'
p1846
S'NRAS'
p1847
S'increases'
p1848
tp1849
(lp1850
s(S'NRF1'
p1851
S'GABPB2'
p1852
S'increases'
p1853
tp1854
(lp1855
s(S'PAX4'
p1856
S'TLX2'
p1857
S'increases'
p1858
tp1859
(lp1860
s(S'PITX2'
p1861
S'FOXA1'
p1862
S'increases'
p1863
tp1864
(lp1865
s(S'GTF3A'
p1866
S'POU2F1'
p1867
S'increases'
p1868
tp1869
(lp1870
s(S'HLF'
p1871
S'FOXO3'
p1872
S'increases'
p1873
tp1874
(lp1875
s(S'PAX4'
p1876
S'FOXO4'
p1877
S'increases'
p1878
tp1879
(lp1880
s(S'CEBPA'
p1881
S'FOXD3'
p1882
S'increases'
p1883
tp1884
(lp1885
s(S'NFE2'
p1886
S'CYP26A1'
p1887
S'increases'
p1888
tp1889
(lp1890
s(S'MYB'
p1891
S'GABPB2'
p1892
S'increases'
p1893
tp1894
(lp1895
s(S'MYC'
p1896
S'CEBPA'
p1897
S'increases'
p1898
tp1899
(lp1900
s(S'ELK1'
p1901
S'EN1'
p1902
S'increases'
p1903
tp1904
(lp1905
s(S'E2F1'
p1906
S'CDC5L'
p1907
S'increases'
p1908
tp1909
(lp1910
s(S'YWHAZ (DIMER)'
p1911
S'RAF1'
p1912
S'binds'
p1913
tp1914
(lp1915
s(S'ATF6'
p1916
S'CYP26A1'
p1917
S'increases'
p1918
tp1919
(lp1920
s(S'sodium arsenite'
p1921
S'HRAS MRNA'
p1922
S'increases'
p1923
tp1924
(lp1925
s(S'EGR3'
p1926
S'CYP26A1'
p1927
S'increases'
p1928
tp1929
(lp1930
s(S'lead acetate'
p1931
S'HRAS PROTEIN'
p1932
S'increases_activity'
p1933
tp1934
(lp1935
s(S'REPIN1'
p1936
S'MYC'
p1937
S'increases'
p1938
tp1939
(lp1940
s(S'CEBPA'
p1941
S'NRAS'
p1942
S'increases'
p1943
tp1944
(lp1945
S'The mutations occurring in AMLs are subdivided into three classes: class I mutations promote cell proliferation (examples of these mutations are FLT3, c-KIT, NRAS, and KRAS mutations); class II mutations inhibit cell differentiation (examples of these mutations are CEBPA, NPM1, CBF'
p1946
as(S'Quercetin'
p1947
S'NRAS MRNA'
p1948
S'decreases'
p1949
tp1950
(lp1951
s(S'14-3-3 E'
p1952
S'TERT'
p1953
S'binds'
p1954
tp1955
(lp1956
s(S'Antigen/IgE/Fc epsilon R1/LYN/SYK'
p1957
S'BTK'
p1958
S'adds_modification'
p1959
tp1960
(lp1961
s(S'HSF2'
p1962
S'CBFA2T3'
p1963
S'increases'
p1964
tp1965
(lp1966
s(S'Fluorouracil'
p1967
S'HRAS MRNA'
p1968
S'increases'
p1969
tp1970
(lp1971
s(S'STAT4'
p1972
S'MECOM'
p1973
S'increases'
p1974
tp1975
(lp1976
s(S'ETS2'
p1977
S'ETS1'
p1978
S'increases'
p1979
tp1980
(lp1981
s(S'CEBPG'
p1982
S'CYP26A1'
p1983
S'increases'
p1984
tp1985
(lp1986
s(S'Complex (PDGF receptor A/PDGF receptor B)'
p1987
S'NCK'
p1988
S'adds_modification'
p1989
tp1990
(lp1991
s(S'Fog1'
p1992
S'MYB'
p1993
S'decreases'
p1994
tp1995
(lp1996
s(S'CREB1'
p1997
S'FOXD3'
p1998
S'increases'
p1999
tp2000
(lp2001
s(S'Numb'
p2002
S'NICS'
p2003
S'translocates'
p2004
tp2005
(lp2006
s(S'STAT6'
p2007
S'STAT5A'
p2008
S'increases'
p2009
tp2010
(lp2011
s(S'RAF1/14-3-3'
p2012
S'BRAF/14-3-3'
p2013
S'binds'
p2014
tp2015
(lp2016
s(S'B-cell antigen/BCR complex/LYN/SYK/BLNK'
p2017
S'SHC/GRB2/SOS1'
p2018
S'increases_activity'
p2019
tp2020
(lp2021
s(S'IRF2'
p2022
S'CYP26A1'
p2023
S'increases'
p2024
tp2025
(lp2026
s(S'GATA6'
p2027
S'CYP26A1'
p2028
S'increases'
p2029
tp2030
(lp2031
s(S'HMGA1'
p2032
S'CYP26A1'
p2033
S'increases'
p2034
tp2035
(lp2036
s(S'MTF1'
p2037
S'FOXO4'
p2038
S'increases'
p2039
tp2040
(lp2041
s(S'STAT1'
p2042
S'GABPB2'
p2043
S'increases'
p2044
tp2045
(lp2046
s(S'manumycin'
p2047
S'HRAS PROTEIN'
p2048
S'decreases'
p2049
tp2050
(lp2051
s(S'STAT5A'
p2052
S'ETS1'
p2053
S'increases'
p2054
tp2055
(lp2056
s(S'SPI1'
p2057
S'CBFA2T3'
p2058
S'increases'
p2059
tp2060
(lp2061
s(S'GMCSF/GMR ALPHA/CSF2RB/JAK2 (DODECAMER)/SHC'
p2062
S'GRB2/SOS1'
p2063
S'binds'
p2064
tp2065
(lp2066
s(S'7,8-Dihydro-7,8-dihydroxybenzo(a)pyrene 9,10-oxide'
p2067
S'NRAS PROTEIN'
p2068
S'increases'
p2069
tp2070
(lp2071
s(S'CDC5L'
p2072
S'CYP26A1'
p2073
S'increases'
p2074
tp2075
(lp2076
s(S'PAX4'
p2077
S'POU3F2'
p2078
S'increases'
p2079
tp2080
(lp2081
s(S'SPRED2'
p2082
S'HRAS'
p2083
S'binds'
p2084
tp2085
(lp2086
s(S'PITX2'
p2087
S'FOXO4'
p2088
S'increases'
p2089
tp2090
(lp2091
s(S'FOXD3'
p2092
S'CYP26A1'
p2093
S'increases'
p2094
tp2095
(lp2096
s(S'NFIL3'
p2097
S'FOXO3'
p2098
S'increases'
p2099
tp2100
(lp2101
s(S'MTF1'
p2102
S'POU2F1'
p2103
S'increases'
p2104
tp2105
(lp2106
s(S'TFCP2'
p2107
S'BACH1'
p2108
S'increases'
p2109
tp2110
(lp2111
s(S'NF1'
p2112
S'MECOM'
p2113
S'increases'
p2114
tp2115
(lp2116
s(S'FOXO3'
p2117
S'FOXD3'
p2118
S'increases'
p2119
tp2120
(lp2121
s(S'STAT5A'
p2122
S'TLX2'
p2123
S'increases'
p2124
tp2125
(lp2126
s(S'RIN1'
p2127
S'HRAS/GTP'
p2128
S'adds_modification'
p2129
tp2130
(lp2131
s(S'STAT5A'
p2132
S'CEBPG'
p2133
S'increases'
p2134
tp2135
(lp2136
s(S'DAG'
p2137
S'PKC'
p2138
S'increases_activity'
p2139
tp2140
(lp2141
S'PKC is also activated by diacylglycerol (DAG) ['
p2142
aS'DAG binds to the cysteine-rich domains of protein kinase C (PKC) ['
p2143
as(S'HNF4A'
p2144
S'FOXA1'
p2145
S'increases'
p2146
tp2147
(lp2148
s(S'LEF1'
p2149
S'MAZ'
p2150
S'increases'
p2151
tp2152
(lp2153
s(S'hsa-miR-124-3p'
p2154
S'NRAS'
p2155
S'decreases'
p2156
tp2157
(lp2158
s(S'RAF1'
p2159
S'14-3-3 E'
p2160
S'binds'
p2161
tp2162
(lp2163
s(S'GATA1'
p2164
S'MYB'
p2165
S'decreases'
p2166
tp2167
(lp2168
s(S'LMO2'
p2169
S'GATA1'
p2170
S'increases'
p2171
tp2172
(lp2173
s(S'HRAS/GTP'
p2174
S'RAF1'
p2175
S'increases_activity'
p2176
tp2177
(lp2178
s(S'MYCN'
p2179
S'RUNX2'
p2180
S'increases'
p2181
tp2182
(lp2183
s(S'STAT5B'
p2184
S'CYP26A1'
p2185
S'increases'
p2186
tp2187
(lp2188
s(S'ZIC2'
p2189
S'MYCN'
p2190
S'increases'
p2191
tp2192
(lp2193
s(S'FOXL1'
p2194
S'FOXD3'
p2195
S'increases'
p2196
tp2197
(lp2198
s(S'ZBTB18'
p2199
S'CBFA2T3'
p2200
S'increases'
p2201
tp2202
(lp2203
s(S'HSF1'
p2204
S'IRF1'
p2205
S'increases'
p2206
tp2207
(lp2208
s(S'SPZ1'
p2209
S'MAZ'
p2210
S'increases'
p2211
tp2212
(lp2213
s(S'SRY'
p2214
S'CYP26A1'
p2215
S'increases'
p2216
tp2217
(lp2218
s(S'FOXO4'
p2219
S'HOXA9'
p2220
S'increases'
p2221
tp2222
(lp2223
s(S'IGF-1R heterotetramer/IGF1/IRS1/GRB2/Sos'
p2224
S'HRAS/GDP'
p2225
S'increases_activity'
p2226
tp2227
(lp2228
s(S'hsa-miR-615-3p'
p2229
S'HRAS'
p2230
S'decreases'
p2231
tp2232
(lp2233
s(S'ESRRA'
p2234
S'FOXD3'
p2235
S'increases'
p2236
tp2237
(lp2238
s(S'ELK1'
p2239
S'CYP26A1'
p2240
S'increases'
p2241
tp2242
(lp2243
s(S'Hexane-1,6-Diol'
p2244
S'HRAS'
p2245
S'increases_activity'
p2246
tp2247
(lp2248
s(S'MAZ'
p2249
S'NRAS'
p2250
S'increases'
p2251
tp2252
(lp2253
s(S'MIF'
p2254
S'CYP26A1'
p2255
S'increases'
p2256
tp2257
(lp2258
s(S'AHR'
p2259
S'POU2F1'
p2260
S'increases'
p2261
tp2262
(lp2263
s(S'SMAD3'
p2264
S'CYP26A1'
p2265
S'increases'
p2266
tp2267
(lp2268
s(S'PI-3-4-5-P3'
p2269
S'GELSOLIN'
p2270
S'binds'
p2271
tp2272
(lp2273
s(S'ADP'
p2274
S'P-S724-IRE1 DIMER'
p2275
S'binds'
p2276
tp2277
(lp2278
s(S'testosterone enanthate'
p2279
S'KRAS MRNA'
p2280
S'increases'
p2281
tp2282
(lp2283
s(S'CYP26A1'
p2284
S'ONECUT1'
p2285
S'increases'
p2286
tp2287
(lp2288
s(S'Valproic Acid'
p2289
S'NRAS MRNA'
p2290
S'decreases'
p2291
tp2292
(lp2293
s(S'GTF2A2'
p2294
S'CYP26A1'
p2295
S'increases'
p2296
tp2297
(lp2298
s(S'CEBPA'
p2299
S'FOXO3'
p2300
S'increases'
p2301
tp2302
(lp2303
s(S'GATA3'
p2304
S'POU2F1'
p2305
S'increases'
p2306
tp2307
(lp2308
s(S'PI3K'
p2309
S'RAC1B/GDP'
p2310
S'increases_activity'
p2311
tp2312
(lp2313
s(S'CDC25C'
p2314
S'YWHAB'
p2315
S'binds'
p2316
tp2317
(lp2318
s(S'RAC1/GTP'
p2319
S'PAK1/BETAPIX/PKL/NCK1-2'
p2320
S'increases_activity'
p2321
tp2322
(lp2323
s(S'SMAD1'
p2324
S'CYP26A1'
p2325
S'increases'
p2326
tp2327
(lp2328
s(S'PI3K'
p2329
S'FAK'
p2330
S'adds_modification'
p2331
tp2332
(lp2333
s(S'NRF1'
p2334
S'MAX'
p2335
S'increases'
p2336
tp2337
(lp2338
s(S'FOXI1'
p2339
S'RUNX2'
p2340
S'increases'
p2341
tp2342
(lp2343
s(S'7,8-Dihydro-7,8-dihydroxybenzo(a)pyrene 9,10-oxide'
p2344
S'HRAS MRNA'
p2345
S'increases'
p2346
tp2347
(lp2348
s(S'ETS1'
p2349
S'CBFA2T3'
p2350
S'increases'
p2351
tp2352
(lp2353
s(S'hsa-miR-98-5p'
p2354
S'NRAS'
p2355
S'decreases'
p2356
tp2357
(lp2358
s(S'PHOSPHORYLATED BRF1 (SER92, SER203):MRNA COMPLEX'
p2359
S'YWHAB'
p2360
S'binds'
p2361
tp2362
(lp2363
s(S'LMO2'
p2364
S'CYP26A1'
p2365
S'increases'
p2366
tp2367
(lp2368
s(S'SOS1'
p2369
S'GRB2:PFAK BOUND TO NCAM1:PFYN'
p2370
S'binds'
p2371
tp2372
(lp2373
s(S'GTF3A'
p2374
S'GATA6'
p2375
S'increases'
p2376
tp2377
(lp2378
s(S'ZIC2'
p2379
S'CYP26A1'
p2380
S'increases'
p2381
tp2382
(lp2383
s(S'PAX2'
p2384
S'POU3F2'
p2385
S'increases'
p2386
tp2387
(lp2388
s(S'CEBPD'
p2389
S'FOXO3'
p2390
S'increases'
p2391
tp2392
(lp2393
s(S'NF1'
p2394
S'CYP26A1'
p2395
S'increases'
p2396
tp2397
(lp2398
s(S'BRAF'
p2399
S'MEK2'
p2400
S'adds_modification'
p2401
tp2402
(lp2403
s(S'TFAP4'
p2404
S'RUNX1'
p2405
S'increases'
p2406
tp2407
(lp2408
s(S'FAK'
p2409
S'SOS'
p2410
S'binds'
p2411
tp2412
(lp2413
s(S'EGR1'
p2414
S'RUNX1'
p2415
S'increases'
p2416
tp2417
(lp2418
s(S'TCF4'
p2419
S'FOXO4'
p2420
S'increases'
p2421
tp2422
(lp2423
s(S'MAZ'
p2424
S'CBFA2T3'
p2425
S'increases'
p2426
tp2427
(lp2428
s(S'MEIS1'
p2429
S'HRAS'
p2430
S'increases'
p2431
tp2432
(lp2433
s(S'RELA'
p2434
S'CYP26A1'
p2435
S'increases'
p2436
tp2437
(lp2438
s(S'hsa-miR-877-3p'
p2439
S'NRAS'
p2440
S'decreases'
p2441
tp2442
(lp2443
s(S'MYC'
p2444
S'LEF1'
p2445
S'increases'
p2446
tp2447
(lp2448
s(S'FOXO4'
p2449
S'RUNX1'
p2450
S'increases'
p2451
tp2452
(lp2453
s(S'LEF1'
p2454
S'RUNX1'
p2455
S'increases'
p2456
tp2457
(lp2458
s(S'TFDP2'
p2459
S'GATA1'
p2460
S'increases'
p2461
tp2462
(lp2463
s(S'AHR'
p2464
S'CYP26A1'
p2465
S'increases'
p2466
tp2467
(lp2468
s(S'4-Nitroquinoline-1-oxide'
p2469
S'PTGS2 MRNA'
p2470
S'increases'
p2471
tp2472
(lp2473
s(S'TGIF'
p2474
S'FOXO3'
p2475
S'increases'
p2476
tp2477
(lp2478
s(S'FOXF2'
p2479
S'CEBPA'
p2480
S'increases'
p2481
tp2482
(lp2483
s(S'NFE2L1'
p2484
S'POU2F1'
p2485
S'increases'
p2486
tp2487
(lp2488
s(S'LHX3'
p2489
S'CYP26A1'
p2490
S'increases'
p2491
tp2492
(lp2493
s(S'HMGA1'
p2494
S'MEIS1'
p2495
S'increases'
p2496
tp2497
(lp2498
s(S'POU2F1'
p2499
S'CYP26A1'
p2500
S'increases'
p2501
tp2502
(lp2503
s(S'PRRX2'
p2504
S'HOXA9'
p2505
S'increases'
p2506
tp2507
(lp2508
s(S'ETS2'
p2509
S'CEBPG'
p2510
S'increases'
p2511
tp2512
(lp2513
s(S'hsa-miR-193b-3p'
p2514
S'KRAS'
p2515
S'decreases'
p2516
tp2517
(lp2518
s(S'RREB1'
p2519
S'RUNX1'
p2520
S'increases'
p2521
tp2522
(lp2523
s(S'IL2/IL2R BETA/GAMMA/JAK1/FYN/JAK3'
p2524
S'PI3K'
p2525
S'binds'
p2526
tp2527
(lp2528
s(S'ELK1'
p2529
S'MEIS1'
p2530
S'increases'
p2531
tp2532
(lp2533
s(S'CYP26A1'
p2534
S'HOXA9'
p2535
S'increases'
p2536
tp2537
(lp2538
s(S'SPZ1'
p2539
S'HOXA9'
p2540
S'increases'
p2541
tp2542
(lp2543
s(S'ERK1'
p2544
S'P-S218,222-MEK1'
p2545
S'binds'
p2546
tp2547
(lp2548
s(S'NHLH1'
p2549
S'MYC'
p2550
S'increases'
p2551
tp2552
(lp2553
s(S'Daunorubicin'
p2554
S'NRAS MRNA'
p2555
S'increases'
p2556
tp2557
(lp2558
s(S'HNF1A'
p2559
S'FOXA1'
p2560
S'increases'
p2561
tp2562
(lp2563
s(S'MYC'
p2564
S'ONECUT1'
p2565
S'increases'
p2566
tp2567
(lp2568
s(S'Vanadates'
p2569
S'HRAS PROTEIN'
p2570
S'increases'
p2571
tp2572
(lp2573
s(S'Purine nucleotide'
p2574
S'H+'
p2575
S'translocates'
p2576
tp2577
(lp2578
s(S'NFE2'
p2579
S'BACH1'
p2580
S'increases'
p2581
tp2582
(lp2583
s(S'EGR4'
p2584
S'CYP26A1'
p2585
S'increases'
p2586
tp2587
(lp2588
s(S'NRF1'
p2589
S'ONECUT1'
p2590
S'increases'
p2591
tp2592
(lp2593
s(S'GFI1'
p2594
S'HOXA9'
p2595
S'increases'
p2596
tp2597
(lp2598
s(S'NR1H4'
p2599
S'FOXD3'
p2600
S'increases'
p2601
tp2602
(lp2603
s(S'STAT6'
p2604
S'FOXA1'
p2605
S'increases'
p2606
tp2607
(lp2608
s(S'INSULIN RECEPTOR/INSULI/IRS1/GRB2/SHC'
p2609
S'SOS1'
p2610
S'binds'
p2611
tp2612
(lp2613
s(S'Tetrachlorodibenzodioxin'
p2614
S'KRAS MRNA'
p2615
S'increases'
p2616
tp2617
(lp2618
s(S'TCF3'
p2619
S'MYC'
p2620
S'increases'
p2621
tp2622
(lp2623
s(S'BACH1'
p2624
S'EN1'
p2625
S'increases'
p2626
tp2627
(lp2628
s(S'RFX1'
p2629
S'CYP26A1'
p2630
S'increases'
p2631
tp2632
(lp2633
s(S'ZEB1'
p2634
S'FOXD3'
p2635
S'increases'
p2636
tp2637
(lp2638
s(S'IRF7'
p2639
S'EN1'
p2640
S'increases'
p2641
tp2642
(lp2643
s(S'GAB2/GRB2/SOS1'
p2644
S'IL2/IL2R ALPHA/BETA/GAMMA/JAK1/LCK/JAK3/SHC'
p2645
S'binds'
p2646
tp2647
(lp2648
s(S'GATA3'
p2649
S'FOXA1'
p2650
S'increases'
p2651
tp2652
(lp2653
s(S'TFAP4'
p2654
S'CYP26A1'
p2655
S'increases'
p2656
tp2657
(lp2658
s(S'FOXF2'
p2659
S'MECOM'
p2660
S'increases'
p2661
tp2662
(lp2663
s(S'NF1'
p2664
S'POU2F1'
p2665
S'increases'
p2666
tp2667
(lp2668
s(S'IRF1'
p2669
S'FOXA1'
p2670
S'increases'
p2671
tp2672
(lp2673
s(S'Rho Family GTPase-active'
p2674
S'PIP5K1A'
p2675
S'increases_activity'
p2676
tp2677
(lp2678
s(S'POU6F1'
p2679
S'EN1'
p2680
S'increases'
p2681
tp2682
(lp2683
s(S'TCF4'
p2684
S'LEF1'
p2685
S'increases'
p2686
tp2687
(lp2688
s(S'MAZ'
p2689
S'FOXO3'
p2690
S'increases'
p2691
tp2692
(lp2693
s(S'POU3F2'
p2694
S'MECOM'
p2695
S'increases'
p2696
tp2697
(lp2698
s(S'GTF3A'
p2699
S'CYP26A1'
p2700
S'increases'
p2701
tp2702
(lp2703
s(S'PI-3-4-5-P3'
p2704
S'AKT2'
p2705
S'adds_modification'
p2706
tp2707
(lp2708
s(S'VSX1'
p2709
S'POU2F1'
p2710
S'increases'
p2711
tp2712
(lp2713
s(S'PHOSPHORYLATED TTP:MRNA COMPLEX'
p2714
S'YWHAB'
p2715
S'binds'
p2716
tp2717
(lp2718
s(S'MEIS1'
p2719
S'MYC'
p2720
S'increases'
p2721
tp2722
(lp2723
s(S'Complex (PDGF receptor A/PDGF receptor B)'
p2724
S'RASGAP'
p2725
S'adds_modification'
p2726
tp2727
(lp2728
s(S'RORA'
p2729
S'CYP26A1'
p2730
S'increases'
p2731
tp2732
(lp2733
s(S'ATF4'
p2734
S'CDC5L'
p2735
S'increases'
p2736
tp2737
(lp2738
s(S'SHC/RasGAP'
p2739
S'RAS FAMILY/GTP'
p2740
S'increases_activity'
p2741
tp2742
(lp2743
s(S'NKX2-1'
p2744
S'MYC'
p2745
S'increases'
p2746
tp2747
(lp2748
s(S'NF1'
p2749
S'SRF'
p2750
S'increases'
p2751
tp2752
(lp2753
s(S'STAT4'
p2754
S'NRAS'
p2755
S'increases'
p2756
tp2757
(lp2758
s(S'POU6F1'
p2759
S'MEIS1'
p2760
S'increases'
p2761
tp2762
(lp2763
s(S'P-KIT COMPLEX'
p2764
S'GRB2:SOS1'
p2765
S'binds'
p2766
tp2767
(lp2768
s(S'MYCN'
p2769
S'MAX'
p2770
S'increases'
p2771
tp2772
(lp2773
s(S'STAT5A'
p2774
S'CYP26A1'
p2775
S'increases'
p2776
tp2777
(lp2778
s(S'GATA3'
p2779
S'EN1'
p2780
S'increases'
p2781
tp2782
(lp2783
s(S'E4F1'
p2784
S'FOXD3'
p2785
S'increases'
p2786
tp2787
(lp2788
s(S'MYB'
p2789
S'ONECUT1'
p2790
S'increases'
p2791
tp2792
(lp2793
s(S'Cadmium Chloride'
p2794
S'NRAS PROTEIN'
p2795
S'increases'
p2796
tp2797
(lp2798
s(S'Deoxycholic Acid'
p2799
S'HRAS PROTEIN'
p2800
S'increases_activity'
p2801
tp2802
(lp2803
s(S'HLF'
p2804
S'CYP26A1'
p2805
S'increases'
p2806
tp2807
(lp2808
s(S'GMCSF/GMR ALPHA/CSF2RB/JAK2 (DIMER)'
p2809
S'YWHAZ'
p2810
S'binds'
p2811
tp2812
(lp2813
s(S'HNF1A'
p2814
S'FOXF2'
p2815
S'increases'
p2816
tp2817
(lp2818
s(S'FOXF2'
p2819
S'GATA6'
p2820
S'increases'
p2821
tp2822
(lp2823
s(S'Arsenic'
p2824
S'GSS PROTEIN'
p2825
S'increases'
p2826
tp2827
(lp2828
s(S'COMPLEX (SOS/GRB2)'
p2829
S'FGFR1-4'
p2830
S'binds'
p2831
tp2832
(lp2833
s(S'MYOD1'
p2834
S'NRAS'
p2835
S'increases'
p2836
tp2837
(lp2838
s(S'MECOM'
p2839
S'CYP26A1'
p2840
S'increases'
p2841
tp2842
(lp2843
s(S'PBX1'
p2844
S'CYP26A1'
p2845
S'increases'
p2846
tp2847
(lp2848
s(S'MAZ'
p2849
S'MEIS1'
p2850
S'increases'
p2851
tp2852
(lp2853
s(S'PAX4'
p2854
S'ELK1'
p2855
S'increases'
p2856
tp2857
(lp2858
s(S'ESRRA'
p2859
S'MECOM'
p2860
S'increases'
p2861
tp2862
(lp2863
s(S'CEBPD'
p2864
S'TLX2'
p2865
S'increases'
p2866
tp2867
(lp2868
s(S'CRX'
p2869
S'FOXA1'
p2870
S'increases'
p2871
tp2872
(lp2873
s(S'GABPB1'
p2874
S'NRAS'
p2875
S'increases'
p2876
tp2877
(lp2878
s(S'CRX'
p2879
S'MEIS1'
p2880
S'increases'
p2881
tp2882
(lp2883
s(S'pirinixic acid/PPARA protein'
p2884
S'KRAS MRNA'
p2885
S'increases'
p2886
tp2887
(lp2888
s(S'BACH2'
p2889
S'FOXA1'
p2890
S'increases'
p2891
tp2892
(lp2893
s(S'JUN'
p2894
S'MECOM'
p2895
S'increases'
p2896
tp2897
(lp2898
s(S'7,8-Dihydro-7,8-dihydroxybenzo(a)pyrene 9,10-oxide'
p2899
S'KRAS MRNA'
p2900
S'decreases'
p2901
tp2902
(lp2903
s(S'SRY'
p2904
S'FOXO4'
p2905
S'increases'
p2906
tp2907
(lp2908
s(S'PI3K'
p2909
S'AKT1'
p2910
S'adds_modification'
p2911
tp2912
(lp2913
s(S'GATA3'
p2914
S'CYP26A1'
p2915
S'increases'
p2916
tp2917
(lp2918
s(S'RAS:GTP'
p2919
S'P-EPHBS:EFNBS:RASA1'
p2920
S'binds'
p2921
tp2922
(lp2923
s(S'STAT5A'
p2924
S'MECOM'
p2925
S'increases'
p2926
tp2927
(lp2928
s(S'RAS family/GTP'
p2929
S'RAF1'
p2930
S'increases_activity'
p2931
tp2932
(lp2933
s(S'RHOA/GTP'
p2934
S'PLD1-2'
p2935
S'increases_activity'
p2936
tp2937
(lp2938
s(S'FOXJ2'
p2939
S'CYP26A1'
p2940
S'increases'
p2941
tp2942
(lp2943
s(S'LEF1'
p2944
S'MECOM'
p2945
S'increases'
p2946
tp2947
(lp2948
s(S'GABPB2'
p2949
S'CDC5L'
p2950
S'increases'
p2951
tp2952
(lp2953
s(S'ESRRA'
p2954
S'CYP26A1'
p2955
S'increases'
p2956
tp2957
(lp2958
s(S'PI-3-4-5-P3'
p2959
S'WAVE2/NAP1/SRA1/ABI1/HSPC300'
p2960
S'translocates'
p2961
tp2962
(lp2963
s(S'CUX1'
p2964
S'MECOM'
p2965
S'increases'
p2966
tp2967
(lp2968
s(S'MAX'
p2969
S'CYP26A1'
p2970
S'increases'
p2971
tp2972
(lp2973
s(S'RXRB'
p2974
S'FOXD3'
p2975
S'increases'
p2976
tp2977
(lp2978
s(S'IRF1'
p2979
S'NRAS'
p2980
S'increases'
p2981
tp2982
(lp2983
s(S'MECOM'
p2984
S'MAX'
p2985
S'increases'
p2986
tp2987
(lp2988
s(S'PAX6'
p2989
S'CYP26A1'
p2990
S'increases'
p2991
tp2992
(lp2993
s(S'GRB2/SOS1'
p2994
S'EGFR/EGFR/EGF/EGF/P46 SHC'
p2995
S'binds'
p2996
tp2997
(lp2998
s(S'POU6F1'
p2999
S'POU2F1'
p3000
S'increases'
p3001
tp3002
(lp3003
s(S'RUNX1'
p3004
S'MYOD1'
p3005
S'increases'
p3006
tp3007
(lp3008
s(S'COMPLEX (GRB2/SOS)'
p3009
S'EGFR'
p3010
S'binds'
p3011
tp3012
(lp3013
s(S'MAZ'
p3014
S'MECOM'
p3015
S'increases'
p3016
tp3017
(lp3018
s(S'REPIN1'
p3019
S'EN1'
p3020
S'increases'
p3021
tp3022
(lp3023
s(S'RAS family/GTP'
p3024
S'RAF1'
p3025
S'adds_modification'
p3026
tp3027
(lp3028
s(S'E4F1'
p3029
S'CYP26A1'
p3030
S'increases'
p3031
tp3032
(lp3033
s(S'Rac'
p3034
S'MEKK1-5'
p3035
S'adds_modification'
p3036
tp3037
(lp3038
s(S'HAND1'
p3039
S'CYP26A1'
p3040
S'increases'
p3041
tp3042
(lp3043
s(S'Quercetin'
p3044
S'NRAS PROTEIN'
p3045
S'decreases'
p3046
tp3047
(lp3048
s(S'HRAS:GTP'
p3049
S'CRAF'
p3050
S'binds'
p3051
tp3052
(lp3053
s(S'REPIN1'
p3054
S'FOXA1'
p3055
S'increases'
p3056
tp3057
(lp3058
s(S'hsa-miR-155-5p'
p3059
S'KRAS'
p3060
S'decreases'
p3061
tp3062
(lp3063
s(S'PAX4'
p3064
S'EN1'
p3065
S'increases'
p3066
tp3067
(lp3068
s(S'FOXN1'
p3069
S'JUN'
p3070
S'increases'
p3071
tp3072
(lp3073
s(S'TFCP2'
p3074
S'GATA1'
p3075
S'increases'
p3076
tp3077
(lp3078
s(S'SHC'
p3079
S'GRAP2'
p3080
S'binds'
p3081
tp3082
(lp3083
s(S'CEBPG'
p3084
S'NRAS'
p3085
S'increases'
p3086
tp3087
(lp3088
s(S'FOXN1'
p3089
S'FOXO4'
p3090
S'increases'
p3091
tp3092
(lp3093
s(S'IL2/IL2R ALPHA/BETA/GAMMA/JAK1/LCK/JAK3/IRS1-2'
p3094
S'PI3K'
p3095
S'binds'
p3096
tp3097
(lp3098
s(S'POU1F1'
p3099
S'EN1'
p3100
S'increases'
p3101
tp3102
(lp3103
s(S'FOXJ1'
p3104
S'POU2F1'
p3105
S'increases'
p3106
tp3107
(lp3108
s(S'YY1'
p3109
S'POU2F1'
p3110
S'increases'
p3111
tp3112
(lp3113
s(S'7,8-Dihydro-7,8-dihydroxybenzo(a)pyrene 9,10-oxide'
p3114
S'NRAS MRNA'
p3115
S'increases'
p3116
tp3117
(lp3118
s(S'EGF/EGFR'
p3119
S'HRAS/GDP'
p3120
S'increases_activity'
p3121
tp3122
(lp3123
s(S'TFAP4'
p3124
S'GABPB2'
p3125
S'increases'
p3126
tp3127
(lp3128
s(S'TFAP2A'
p3129
S'POU3F2'
p3130
S'increases'
p3131
tp3132
(lp3133
s(S'TCF12'
p3134
S'CBFA2T3'
p3135
S'increases'
p3136
tp3137
(lp3138
s(S'STAT3'
p3139
S'IRF1'
p3140
S'increases'
p3141
tp3142
(lp3143
s(S'MYOD1'
p3144
S'GATA1'
p3145
S'increases'
p3146
tp3147
(lp3148
s(S'REPIN1'
p3149
S'HRAS'
p3150
S'increases'
p3151
tp3152
(lp3153
s(S'PAX4'
p3154
S'MAX'
p3155
S'increases'
p3156
tp3157
(lp3158
s(S'PAX2'
p3159
S'FOXA1'
p3160
S'increases'
p3161
tp3162
(lp3163
s(S'Lipopolysaccharides'
p3164
S'HRAS PROTEIN'
p3165
S'increases_activity'
p3166
tp3167
(lp3168
s(S'7,8-Dihydro-7,8-dihydroxybenzo(a)pyrene 9,10-oxide'
p3169
S'KRAS MRNA'
p3170
S'increases'
p3171
tp3172
(lp3173
s(S'REPIN1'
p3174
S'GATA1'
p3175
S'increases'
p3176
tp3177
(lp3178
s(S'Formaldehyde'
p3179
S'HRAS MRNA'
p3180
S'increases'
p3181
tp3182
(lp3183
s(S'ESRRA'
p3184
S'STAT5A'
p3185
S'increases'
p3186
tp3187
(lp3188
s(S'farnesylthiosalicylic acid'
p3189
S'HRAS PROTEIN'
p3190
S'decreases'
p3191
tp3192
(lp3193
s(S'JUN'
p3194
S'RUNX1'
p3195
S'increases'
p3196
tp3197
(lp3198
s(S'FOXD3'
p3199
S'RUNX1'
p3200
S'increases'
p3201
tp3202
(lp3203
s(S'SOX9'
p3204
S'CYP26A1'
p3205
S'increases'
p3206
tp3207
(lp3208
s(S'hexabromocyclododecane'
p3209
S'HRAS MRNA'
p3210
S'increases'
p3211
tp3212
(lp3213
s(S'RUNX2'
p3214
S'KRAS'
p3215
S'increases'
p3216
tp3217
(lp3218
s(S'PGR'
p3219
S'CYP26A1'
p3220
S'increases'
p3221
tp3222
(lp3223
s(S'CYP26A1'
p3224
S'MAZ'
p3225
S'increases'
p3226
tp3227
(lp3228
s(S'RAC1/GTP'
p3229
S'AKT1'
p3230
S'adds_modification'
p3231
tp3232
(lp3233
s(S'FOXO3'
p3234
S'CYP26A1'
p3235
S'increases'
p3236
tp3237
(lp3238
s(S'MAX'
p3239
S'SRF'
p3240
S'increases'
p3241
tp3242
(lp3243
s(S'RUNX2'
p3244
S'NRAS'
p3245
S'increases'
p3246
tp3247
(lp3248
s(S'HSF2'
p3249
S'CYP26A1'
p3250
S'increases'
p3251
tp3252
(lp3253
s(S'IL2/IL2R ALPHA/BETA/GAMMA/JAK1/LCK/JAK3/SHC/GRB2/SOS1/GAB2/SHP2'
p3254
S'PI3K'
p3255
S'binds'
p3256
tp3257
(lp3258
s(S'SPI1'
p3259
S'STAT5A'
p3260
S'increases'
p3261
tp3262
(lp3263
s(S'ZHX2'
p3264
S'MYC'
p3265
S'increases'
p3266
tp3267
(lp3268
s(S'RAF1-BRAF'
p3269
S'MEK1-2'
p3270
S'increases_activity'
p3271
tp3272
(lp3273
s(S'SHC'
p3274
S'GRB2'
p3275
S'binds'
p3276
tp3277
(lp3278
s(S'RB1'
p3279
S'GATA1'
p3280
S'increases'
p3281
tp3282
(lp3283
s(S'TCF3'
p3284
S'FOXJ2'
p3285
S'increases'
p3286
tp3287
(lp3288
s(S'FOXJ2'
p3289
S'NRAS'
p3290
S'increases'
p3291
tp3292
(lp3293
s(S'REPIN1'
p3294
S'LEF1'
p3295
S'increases'
p3296
tp3297
(lp3298
s(S'Aflatoxin B1'
p3299
S'HRAS MRNA'
p3300
S'increases'
p3301
tp3302
(lp3303
s(S'PAX4'
p3304
S'MEIS1'
p3305
S'increases'
p3306
tp3307
(lp3308
s(S'FOXF2'
p3309
S'FOXD3'
p3310
S'increases'
p3311
tp3312
(lp3313
s(S'CBFA2T3'
p3314
S'RUNX1'
p3315
S'increases'
p3316
tp3317
(lp3318
s(S'FOXC1'
p3319
S'HOXA9'
p3320
S'increases'
p3321
tp3322
(lp3323
s(S'DBP'
p3324
S'CYP26A1'
p3325
S'increases'
p3326
tp3327
(lp3328
s(S'TGIF'
p3329
S'EN1'
p3330
S'increases'
p3331
tp3332
(lp3333
s(S'PI-3-4-5-P3'
p3334
S'P62DOK'
p3335
S'adds_modification'
p3336
tp3337
(lp3338
s(S'JUN'
p3339
S'TLX2'
p3340
S'increases'
p3341
tp3342
(lp3343
s(S'Benzo(a)pyrene'
p3344
S'HRAS MRNA'
p3345
S'increases'
p3346
tp3347
(lp3348
s(S'STAT4'
p3349
S'CYP26A1'
p3350
S'increases'
p3351
tp3352
(lp3353
s(S'EGFR/EGFR/EGF/EGF'
p3354
S'SRC'
p3355
S'adds_modification'
p3356
tp3357
(lp3358
s(S'FOXQ1'
p3359
S'FOXD3'
p3360
S'increases'
p3361
tp3362
(lp3363
s(S'FOXJ1'
p3364
S'NRAS'
p3365
S'increases'
p3366
tp3367
(lp3368
s(S'TCF3'
p3369
S'POU2F1'
p3370
S'increases'
p3371
tp3372
(lp3373
s(S'MYB'
p3374
S'CYP26A1'
p3375
S'increases'
p3376
tp3377
(lp3378
s(S'GATA4'
p3379
S'CYP26A1'
p3380
S'increases'
p3381
tp3382
(lp3383
s(S'ELK1'
p3384
S'STAT4'
p3385
S'increases'
p3386
tp3387
(lp3388
s(S'CYP26A1'
p3389
S'LEF1'
p3390
S'increases'
p3391
tp3392
(lp3393
s(S"Guanosine-5'-Diphosphate"
p3394
S'HRAS'
p3395
S'increases_activity'
p3396
tp3397
(lp3398
s(S'ETV4'
p3399
S'CYP26A1'
p3400
S'increases'
p3401
tp3402
(lp3403
s(S'EPHRIN B/EPHB2'
p3404
S'RASGAP'
p3405
S'binds'
p3406
tp3407
(lp3408
s(S'ESR1'
p3409
S'FOXF2'
p3410
S'increases'
p3411
tp3412
(lp3413
s(S'CDC5L'
p3414
S'FOXA1'
p3415
S'increases'
p3416
tp3417
(lp3418
s(S'MAZ'
p3419
S'HOXA9'
p3420
S'increases'
p3421
tp3422
(lp3423
s(S'HIF1A'
p3424
S'MAX'
p3425
S'increases'
p3426
tp3427
(lp3428
s(S'FOXN1'
p3429
S'HOXA9'
p3430
S'increases'
p3431
tp3432
(lp3433
s(S'LEF1'
p3434
S'BACH1'
p3435
S'increases'
p3436
tp3437
(lp3438
s(S'PDX1'
p3439
S'FOXO3'
p3440
S'increases'
p3441
tp3442
(lp3443
s(S'CBFA2T3'
p3444
S'CYP26A1'
p3445
S'increases'
p3446
tp3447
(lp3448
s(S'Rabex5'
p3449
S'HRAS/GTP'
p3450
S'adds_modification'
p3451
tp3452
(lp3453
s(S'CBFA2T3'
p3454
S'RUNX2'
p3455
S'increases'
p3456
tp3457
(lp3458
s(S'PI-3-4-5-P3'
p3459
S'ARAP3'
p3460
S'translocates'
p3461
tp3462
(lp3463
s(S'CART1'
p3464
S'CYP26A1'
p3465
S'increases'
p3466
tp3467
(lp3468
s(S'Arsenic'
p3469
S'NRAS MRNA'
p3470
S'increases'
p3471
tp3472
(lp3473
s(S'NRF1'
p3474
S'CDC5L'
p3475
S'increases'
p3476
tp3477
(lp3478
s(S'Quercetin'
p3479
S'HRAS PROTEIN'
p3480
S'decreases'
p3481
tp3482
(lp3483
s(S"N,N'-DIMETHYL-N-(ACETYL)-N'-(7-NITROBENZ-2-OXA-1,3-DIAZOL-4-YL)ETHYLENEDIAMINE"
p3484
S'HRAS'
p3485
S'increases_activity'
p3486
tp3487
(lp3488
s(S'TFDP1'
p3489
S'FOXD3'
p3490
S'increases'
p3491
tp3492
(lp3493
s(S'AR'
p3494
S'TLX2'
p3495
S'increases'
p3496
tp3497
(lp3498
s(S'hsa-miR-181c-5p'
p3499
S'KRAS'
p3500
S'decreases'
p3501
tp3502
(lp3503
s(S'SMAD3'
p3504
S'CBFA2T3'
p3505
S'increases'
p3506
tp3507
(lp3508
s(S'HOXA9'
p3509
S'NRAS'
p3510
S'increases'
p3511
tp3512
(lp3513
s(S'PITX2'
p3514
S'CYP26A1'
p3515
S'increases'
p3516
tp3517
(lp3518
s(S'ATF3'
p3519
S'CYP26A1'
p3520
S'increases'
p3521
tp3522
(lp3523
s(S'E2F1'
p3524
S'MAZ'
p3525
S'increases'
p3526
tp3527
(lp3528
s(S'Ethyl Methanesulfonate'
p3529
S'HRAS MRNA'
p3530
S'increases'
p3531
tp3532
(lp3533
s(S'LMO2'
p3534
S'FOXA1'
p3535
S'increases'
p3536
tp3537
(lp3538
s(S'FOXC1'
p3539
S'POU2F1'
p3540
S'increases'
p3541
tp3542
(lp3543
s(S'DDIT3'
p3544
S'CYP26A1'
p3545
S'increases'
p3546
tp3547
(lp3548
s(S'PAX8'
p3549
S'CYP26A1'
p3550
S'increases'
p3551
tp3552
(lp3553
s(S'LHX3'
p3554
S'EN1'
p3555
S'increases'
p3556
tp3557
(lp3558
s(S'KAT2B'
p3559
S'CYP26A1'
p3560
S'increases'
p3561
tp3562
(lp3563
s(S'P100'
p3564
S'MYB'
p3565
S'binds'
p3566
tp3567
(lp3568
s(S'SOX9'
p3569
S'FOXA1'
p3570
S'increases'
p3571
tp3572
(lp3573
s(S'HIF1A'
p3574
S'EN1'
p3575
S'increases'
p3576
tp3577
(lp3578
s(S'REPIN1'
p3579
S'RUNX1'
p3580
S'increases'
p3581
tp3582
(lp3583
s(S'MYOD1'
p3584
S'BACH1'
p3585
S'increases'
p3586
tp3587
(lp3588
s(S'EBF2'
p3589
S'REPIN1'
p3590
S'increases'
p3591
tp3592
(lp3593
s(S'bisphenol A'
p3594
S'HRAS MRNA'
p3595
S'increases'
p3596
tp3597
(lp3598
s(S'E2F1'
p3599
S'EN1'
p3600
S'increases'
p3601
tp3602
(lp3603
s(S'MYC/Max/MIZ-1'
p3604
S'GALECTIN-1'
p3605
S'decreases'
p3606
tp3607
(lp3608
s(S'PI-3-4-5-P3'
p3609
S'WAVE2/NAP1/SRA1/ABI1/HSPC300'
p3610
S'adds_modification'
p3611
tp3612
(lp3613
s(S'FOXF2'
p3614
S'FOXO3'
p3615
S'increases'
p3616
tp3617
(lp3618
s(S'REPIN1'
p3619
S'STAT5A'
p3620
S'increases'
p3621
tp3622
(lp3623
s(S'RUNX1'
p3624
S'NRAS'
p3625
S'increases'
p3626
tp3627
(lp3628
s(S'benzo(a)pyrene 7,8-dihydrodiol'
p3629
S'HRAS MRNA'
p3630
S'increases'
p3631
tp3632
(lp3633
s(S'RAC1/GTP'
p3634
S'PAK1 (DIMER)'
p3635
S'adds_modification'
p3636
tp3637
(lp3638
s(S'PAX4'
p3639
S'POU2F1'
p3640
S'increases'
p3641
tp3642
(lp3643
s(S'MYOD1'
p3644
S'CBFA2T3'
p3645
S'increases'
p3646
tp3647
(lp3648
s(S'STAT5A'
p3649
S'RUNX2'
p3650
S'increases'
p3651
tp3652
(lp3653
s(S'EBF2'
p3654
S'FOXJ2'
p3655
S'increases'
p3656
tp3657
(lp3658
s(S'Estradiol'
p3659
S'KRAS MRNA'
p3660
S'increases'
p3661
tp3662
(lp3663
s(S'RXRB'
p3664
S'CYP26A1'
p3665
S'increases'
p3666
tp3667
(lp3668
s(S'bisphenol A'
p3669
S'KRAS MRNA'
p3670
S'decreases'
p3671
tp3672
(lp3673
s(S'COMPLEX (GRB2/SOS)'
p3674
S'FGFR1-4'
p3675
S'binds'
p3676
tp3677
(lp3678
s(S'POU2F1'
p3679
S'RUNX1'
p3680
S'increases'
p3681
tp3682
(lp3683
s(S'TCF3'
p3684
S'TLX2'
p3685
S'increases'
p3686
tp3687
(lp3688
s(S'SPZ1'
p3689
S'POU2F1'
p3690
S'increases'
p3691
tp3692
(lp3693
s(S'TFAP4'
p3694
S'FOXO4'
p3695
S'increases'
p3696
tp3697
(lp3698
s(S'OR5I1'
p3699
S'MECOM'
p3700
S'increases'
p3701
tp3702
(lp3703
s(S'Rho Family GTPase-active'
p3704
S'JNK1'
p3705
S'adds_modification'
p3706
tp3707
(lp3708
s(S'TFDP1'
p3709
S'POU2F1'
p3710
S'increases'
p3711
tp3712
(lp3713
s(S'AHR'
p3714
S'MAX'
p3715
S'increases'
p3716
tp3717
(lp3718
s(S'BACH1'
p3719
S'CYP26A1'
p3720
S'increases'
p3721
tp3722
(lp3723
s(S'ZBTB14'
p3724
S'MAZ'
p3725
S'increases'
p3726
tp3727
(lp3728
s(S'TCF3'
p3729
S'FOXO4'
p3730
S'increases'
p3731
tp3732
(lp3733
s(S'MASTERMIND'
p3734
S'NICS'
p3735
S'binds'
p3736
tp3737
(lp3738
s(S'BPTF'
p3739
S'FOXO4'
p3740
S'increases'
p3741
tp3742
(lp3743
s(S'MYOD1'
p3744
S'RUNX1'
p3745
S'increases'
p3746
tp3747
(lp3748
s(S'JUN'
p3749
S'CYP26A1'
p3750
S'increases'
p3751
tp3752
(lp3753
s(S'BPTF'
p3754
S'CYP26A1'
p3755
S'increases'
p3756
tp3757
(lp3758
s(S'POU3F1'
p3759
S'CYP26A1'
p3760
S'increases'
p3761
tp3762
(lp3763
s(S'NRF1'
p3764
S'CYP26A1'
p3765
S'increases'
p3766
tp3767
(lp3768
s(S'TFAP2C'
p3769
S'POU3F2'
p3770
S'increases'
p3771
tp3772
(lp3773
s(S'NFAT1-C-4-INACTIVE2'
p3774
S'YWHAQ'
p3775
S'binds'
p3776
tp3777
(lp3778
s(S'STAT6'
p3779
S'ONECUT1'
p3780
S'increases'
p3781
tp3782
(lp3783
s(S'RUNX1'
p3784
S'RUNX2'
p3785
S'increases'
p3786
tp3787
(lp3788
s(S'ZIC3'
p3789
S'MYCN'
p3790
S'increases'
p3791
tp3792
(lp3793
s(S'CYP26A1'
p3794
S'MAX'
p3795
S'increases'
p3796
tp3797
(lp3798
s(S'ETS2'
p3799
S'FOXO4'
p3800
S'increases'
p3801
tp3802
(lp3803
s(S'GATA6'
p3804
S'FOXA1'
p3805
S'increases'
p3806
tp3807
(lp3808
s(S'Doxorubicin'
p3809
S'HRAS MRNA'
p3810
S'increases'
p3811
tp3812
(lp3813
s(S'PPARA'
p3814
S'HOXA9'
p3815
S'increases'
p3816
tp3817
(lp3818
s(S'REPIN1'
p3819
S'GABPB2'
p3820
S'increases'
p3821
tp3822
(lp3823
s(S'FOXN1'
p3824
S'FOXA1'
p3825
S'increases'
p3826
tp3827
(lp3828
s(S'Dronabinol'
p3829
S'KRAS MRNA'
p3830
S'increases'
p3831
tp3832
(lp3833
s(S'FOXO1'
p3834
S'RUNX1'
p3835
S'increases'
p3836
tp3837
(lp3838
s(S'SMAD4'
p3839
S'HOXA9'
p3840
S'increases'
p3841
tp3842
(lp3843
s(S'PAX4'
p3844
S'JUN'
p3845
S'increases'
p3846
tp3847
(lp3848
s(S'Raf-1'
p3849
S'MEK'
p3850
S'adds_modification'
p3851
tp3852
(lp3853
s(S'PIM1'
p3854
S'MYC/MAX'
p3855
S'binds'
p3856
tp3857
(lp3858
s(S'YY1'
p3859
S'MECOM'
p3860
S'increases'
p3861
tp3862
(lp3863
s(S'NRF1'
p3864
S'MAZ'
p3865
S'increases'
p3866
tp3867
(lp3868
s(S'GATA1'
p3869
S'MECOM'
p3870
S'increases'
p3871
tp3872
(lp3873
s(S'PDGF/PDGFRA'
p3874
S'SHC/GRB2/SOS1'
p3875
S'increases_activity'
p3876
tp3877
(lp3878
s(S'GRB2/SOS1'
p3879
S'FAK'
p3880
S'binds'
p3881
tp3882
(lp3883
s(S'HNF4A'
p3884
S'HOXA9'
p3885
S'increases'
p3886
tp3887
(lp3888
s(S'FOXA2'
p3889
S'CYP26A1'
p3890
S'increases'
p3891
tp3892
(lp3893
s(S'FOXI1'
p3894
S'CYP26A1'
p3895
S'increases'
p3896
tp3897
(lp3898
s(S'GRB2 BOUND TO TIE2'
p3899
S'SOS1'
p3900
S'binds'
p3901
tp3902
(lp3903
s(S'PHOSPHORYLATED BRF1 (SER54, SER92, SER203):MRNA COMPLEX'
p3904
S'YWHAB'
p3905
S'binds'
p3906
tp3907
(lp3908
s(S'COMPLEX (GRB2/SOS)'
p3909
S'GAB'
p3910
S'binds'
p3911
tp3912
(lp3913
s(S'NFE2'
p3914
S'TLX2'
p3915
S'increases'
p3916
tp3917
(lp3918
s(S'MAX'
p3919
S'FOXF2'
p3920
S'increases'
p3921
tp3922
(lp3923
s(S'GRB2:SOS1'
p3924
S'ACTIVATED FGFR:P-FRS2'
p3925
S'binds'
p3926
tp3927
(lp3928
s(S'FOXO4'
p3929
S'MECOM'
p3930
S'increases'
p3931
tp3932
(lp3933
s(S'TCF3'
p3934
S'LEF1'
p3935
S'increases'
p3936
tp3937
(lp3938
s(S'ZIC1'
p3939
S'LEF1'
p3940
S'increases'
p3941
tp3942
(lp3943
s(S'NFIL3'
p3944
S'CYP26A1'
p3945
S'increases'
p3946
tp3947
(lp3948
s(S'RAF1'
p3949
S'MEK1'
p3950
S'increases_activity'
p3951
tp3952
(lp3953
s(S'AR'
p3954
S'FOXA1'
p3955
S'increases'
p3956
tp3957
(lp3958
s(S'POU2F1'
p3959
S'POU3F2'
p3960
S'increases'
p3961
tp3962
(lp3963
s(S'PCBP1'
p3964
S'MAZ'
p3965
S'increases'
p3966
tp3967
(lp3968
s(S'LEF1'
p3969
S'HOXA9'
p3970
S'increases'
p3971
tp3972
(lp3973
s(S'NR6A1'
p3974
S'CYP26A1'
p3975
S'increases'
p3976
tp3977
(lp3978
s(S'PI3K'
p3979
S'BTK'
p3980
S'translocates'
p3981
tp3982
(lp3983
s(S'AHR'
p3984
S'RUNX1'
p3985
S'increases'
p3986
tp3987
(lp3988
s(S'NR1H4'
p3989
S'CYP26A1'
p3990
S'increases'
p3991
tp3992
(lp3993
s(S'NR2F2'
p3994
S'CYP26A1'
p3995
S'increases'
p3996
tp3997
(lp3998
s(S'GNB1/GNG2'
p3999
S'PI3K'
p4000
S'binds'
p4001
tp4002
(lp4003
s(S'RHOA/GTP'
p4004
S'PKN2'
p4005
S'increases_activity'
p4006
tp4007
(lp4008
s(S'MAZ'
p4009
S'LEF1'
p4010
S'increases'
p4011
tp4012
(lp4013
s(S'RFX1'
p4014
S'MECOM'
p4015
S'increases'
p4016
tp4017
(lp4018
s(S'RUNX1'
p4019
S'HOXA9'
p4020
S'increases'
p4021
tp4022
(lp4023
s(S'FOXL1'
p4024
S'POU2F1'
p4025
S'increases'
p4026
tp4027
(lp4028
s(S'GRB2:SOS1'
p4029
S'PHOSPHORYLATED ERBB2:EGFR HETERODIMERS'
p4030
S'binds'
p4031
tp4032
(lp4033
s(S'TFAP4'
p4034
S'MYCN'
p4035
S'increases'
p4036
tp4037
(lp4038
s(S'E2F1'
p4039
S'GATA1'
p4040
S'increases'
p4041
tp4042
(lp4043
s(S'PTF1A'
p4044
S'GATA6'
p4045
S'increases'
p4046
tp4047
(lp4048
s(S'REL'
p4049
S'CYP26A1'
p4050
S'increases'
p4051
tp4052
(lp4053
s(S'MTF1'
p4054
S'JUN'
p4055
S'increases'
p4056
tp4057
(lp4058
s(S'ZEB1'
p4059
S'REPIN1'
p4060
S'increases'
p4061
tp4062
(lp4063
s(S'IRF8'
p4064
S'GATA6'
p4065
S'increases'
p4066
tp4067
(lp4068
s(S'P-Y349,350-SHC1:PHOSPHORYLATED ERBB2 HETERODIMERS'
p4069
S'GRB2:SOS1'
p4070
S'binds'
p4071
tp4072
(lp4073
s(S'BACH2'
p4074
S'EN1'
p4075
S'increases'
p4076
tp4077
(lp4078
s(S'GFI1'
p4079
S'MEIS1'
p4080
S'increases'
p4081
tp4082
(lp4083
s(S'FOXN1'
p4084
S'LEF1'
p4085
S'increases'
p4086
tp4087
(lp4088
s(S'CYP26A1'
p4089
S'JUN'
p4090
S'increases'
p4091
tp4092
(lp4093
s(S'TCF3'
p4094
S'ONECUT1'
p4095
S'increases'
p4096
tp4097
(lp4098
s(S'FOXF2'
p4099
S'POU2F1'
p4100
S'increases'
p4101
tp4102
(lp4103
s(S'MAZ'
p4104
S'MAX'
p4105
S'increases'
p4106
tp4107
(lp4108
s(S'FOXN1'
p4109
S'CYP26A1'
p4110
S'increases'
p4111
tp4112
(lp4113
s(S'HNF1A'
p4114
S'FOXD3'
p4115
S'increases'
p4116
tp4117
(lp4118
s(S'EGR2'
p4119
S'RUNX1'
p4120
S'increases'
p4121
tp4122
(lp4123
s(S'MYC'
p4124
S'RUNX2'
p4125
S'increases'
p4126
tp4127
(lp4128
s(S'TFAP2A'
p4129
S'IRF1'
p4130
S'increases'
p4131
tp4132
(lp4133
s(S'FOXO4'
p4134
S'YY1'
p4135
S'increases'
p4136
tp4137
(lp4138
s(S'VEGFR2 (dimer)/VEGFA (dimer)'
p4139
S'SRC'
p4140
S'adds_modification'
p4141
tp4142
(lp4143
s(S'resveratrol'
p4144
S'KRAS MRNA'
p4145
S'decreases'
p4146
tp4147
(lp4148
s(S'FOXO4'
p4149
S'CYP26A1'
p4150
S'increases'
p4151
tp4152
(lp4153
s(S'STAT3'
p4154
S'FOXO4'
p4155
S'increases'
p4156
tp4157
(lp4158
s(S'GRB2/SOS1'
p4159
S'FRS2 FAMILY/SHP2'
p4160
S'binds'
p4161
tp4162
(lp4163
s(S'LEF1'
p4164
S'CYP26A1'
p4165
S'increases'
p4166
tp4167
(lp4168
s(S'GTF2A2'
p4169
S'SRF'
p4170
S'increases'
p4171
tp4172
(lp4173
s(S'PPARA'
p4174
S'STAT5A'
p4175
S'increases'
p4176
tp4177
(lp4178
s(S'hsa-miR-143-3p'
p4179
S'KRAS'
p4180
S'decreases'
p4181
tp4182
(lp4183
s(S'GFI1'
p4184
S'CYP26A1'
p4185
S'increases'
p4186
tp4187
(lp4188
s(S'RAC1/GTP'
p4189
S'MKK4-MKK7'
p4190
S'increases_activity'
p4191
tp4192
(lp4193
s(S'REPIN1'
p4194
S'ETS1'
p4195
S'increases'
p4196
tp4197
(lp4198
s(S'ZIC1'
p4199
S'GATA6'
p4200
S'increases'
p4201
tp4202
(lp4203
s(S'INTERLEUKIN RECEPTOR COMPLEXES WITH ACTIVATED SHC1'
p4204
S'GRB2:SOS1'
p4205
S'binds'
p4206
tp4207
(lp4208
s(S'Selenium'
p4209
S'HRAS MRNA'
p4210
S'increases'
p4211
tp4212
(lp4213
s(S'HOXA4'
p4214
S'CYP26A1'
p4215
S'increases'
p4216
tp4217
(lp4218
s(S'NKX2-1'
p4219
S'POU2F1'
p4220
S'increases'
p4221
tp4222
(lp4223
s(S'VSX1'
p4224
S'MAX'
p4225
S'increases'
p4226
tp4227
(lp4228
s(S'FOXD1'
p4229
S'FOXD3'
p4230
S'increases'
p4231
tp4232
(lp4233
s(S'MAX'
p4234
S'NRAS'
p4235
S'increases'
p4236
tp4237
(lp4238
s(S'HOXA9'
p4239
S'TCF3'
p4240
S'increases'
p4241
tp4242
(lp4243
s(S'IRF1'
p4244
S'CYP26A1'
p4245
S'increases'
p4246
tp4247
(lp4248
s(S'HRAS'
p4249
S'RAF1'
p4250
S'adds_modification'
p4251
tp4252
(lp4253
s(S'CUX1'
p4254
S'HOXA9'
p4255
S'increases'
p4256
tp4257
(lp4258
s(S'ZHX2'
p4259
S'FOXA1'
p4260
S'increases'
p4261
tp4262
(lp4263
s(S'TFDP1'
p4264
S'MYC'
p4265
S'increases'
p4266
tp4267
(lp4268
s(S'RAC1/GTP'
p4269
S'PAK1'
p4270
S'increases_activity'
p4271
tp4272
(lp4273
s(S'AHR'
p4274
S'MAZ'
p4275
S'increases'
p4276
tp4277
(lp4278
s(S'BRAF/14-3-3'
p4279
S'KSR/14-3-3 /MEK1-2'
p4280
S'increases_activity'
p4281
tp4282
(lp4283
s(S'PPARA'
p4284
S'CYP26A1'
p4285
S'increases'
p4286
tp4287
(lp4288
s(S'REPIN1'
p4289
S'SRF'
p4290
S'increases'
p4291
tp4292
(lp4293
s(S'PAX5'
p4294
S'SRF'
p4295
S'increases'
p4296
tp4297
(lp4298
s(S'PAX4'
p4299
S'FOXJ2'
p4300
S'increases'
p4301
tp4302
(lp4303
s(S'REPIN1'
p4304
S'MYCN'
p4305
S'increases'
p4306
tp4307
(lp4308
s(S'RALA/GTP'
p4309
S'SRC'
p4310
S'adds_modification'
p4311
tp4312
(lp4313
s(S'FOXO4'
p4314
S'ETS1'
p4315
S'increases'
p4316
tp4317
(lp4318
s(S'TFDP1'
p4319
S'CDC5L'
p4320
S'increases'
p4321
tp4322
(lp4323
s(S'TFDP1'
p4324
S'CYP26A1'
p4325
S'increases'
p4326
tp4327
(lp4328
s(S'GATA6'
p4329
S'RUNX2'
p4330
S'increases'
p4331
tp4332
(lp4333
s(S'FOXM1'
p4334
S'CYP26A1'
p4335
S'increases'
p4336
tp4337
(lp4338
s(S'sodium arsenite'
p4339
S'HRAS PROTEIN'
p4340
S'increases'
p4341
tp4342
(lp4343
s(S'STAT5A'
p4344
S'RUNX1'
p4345
S'increases'
p4346
tp4347
(lp4348
s(S'CEBPA'
p4349
S'EN1'
p4350
S'increases'
p4351
tp4352
(lp4353
s(S'MSX1'
p4354
S'POU2F1'
p4355
S'increases'
p4356
tp4357
(lp4358
s(S'NHLH1'
p4359
S'CBFA2T3'
p4360
S'increases'
p4361
tp4362
(lp4363
s(S'Parathion'
p4364
S'HRAS PROTEIN'
p4365
S'increases'
p4366
tp4367
(lp4368
s(S'SMAD4'
p4369
S'CYP26A1'
p4370
S'increases'
p4371
tp4372
(lp4373
s(S'E2F1'
p4374
S'MYC'
p4375
S'increases'
p4376
tp4377
(lp4378
s(S'CYP26A1'
p4379
S'FOXO3'
p4380
S'increases'
p4381
tp4382
(lp4383
s(S'TCF3'
p4384
S'CBFA2T3'
p4385
S'increases'
p4386
tp4387
(lp4388
s(S'ZHX2'
p4389
S'FOXF2'
p4390
S'increases'
p4391
tp4392
(lp4393
s(S'POU2F1'
p4394
S'MECOM'
p4395
S'increases'
p4396
tp4397
(lp4398
s(S'CYP26A1'
p4399
S'POU2F1'
p4400
S'increases'
p4401
tp4402
(lp4403
s(S'MYOD1'
p4404
S'CYP26A1'
p4405
S'increases'
p4406
tp4407
(lp4408
s(S'RAF'
p4409
S'COMPLEX (RAS/GTP)'
p4410
S'binds'
p4411
tp4412
(lp4413
s(S'RET51/GFRalpha1/GDNF/DOK1'
p4414
S'HRAS/GDP'
p4415
S'increases_activity'
p4416
tp4417
(lp4418
s(S'MAFG'
p4419
S'CYP26A1'
p4420
S'increases'
p4421
tp4422
(lp4423
s(S'CRX'
p4424
S'CYP26A1'
p4425
S'increases'
p4426
tp4427
(lp4428
s(S'hsa-miR-126-3p'
p4429
S'KRAS'
p4430
S'decreases'
p4431
tp4432
(lp4433
s(S'EBF2'
p4434
S'CYP26A1'
p4435
S'increases'
p4436
tp4437
(lp4438
s(S'RUNX1'
p4439
S'CYP26A1'
p4440
S'increases'
p4441
tp4442
(lp4443
s(S'HOXA5'
p4444
S'FOXA1'
p4445
S'increases'
p4446
tp4447
(lp4448
s(S'benzo(a)pyrene-3,6-quinone'
p4449
S'HRAS MRNA'
p4450
S'increases'
p4451
tp4452
(lp4453
s(S'K 7174'
p4454
S'HRAS MRNA'
p4455
S'decreases'
p4456
tp4457
(lp4458
s(S'LEF1'
p4459
S'NRAS'
p4460
S'increases'
p4461
tp4462
(lp4463
s(S'SPI1'
p4464
S'FOXA1'
p4465
S'increases'
p4466
tp4467
(lp4468
s(S'hsa-let-7b-5p'
p4469
S'NRAS'
p4470
S'decreases'
p4471
tp4472
(lp4473
s(S'CEBPA'
p4474
S'JUN'
p4475
S'increases'
p4476
tp4477
(lp4478
s(S'GABPB2'
p4479
S'CYP26A1'
p4480
S'increases'
p4481
tp4482
(lp4483
s(S'PI-3-4-5-P3'
p4484
S'MTOR'
p4485
S'increases_activity'
p4486
tp4487
(lp4488
s(S'GRB2:SOS1'
p4489
S'EGF:P-6Y-EGFR'
p4490
S'binds'
p4491
tp4492
(lp4493
s(S'HNF1A'
p4494
S'CYP26A1'
p4495
S'increases'
p4496
tp4497
(lp4498
s(S'HIF1A'
p4499
S'FOXO4'
p4500
S'increases'
p4501
tp4502
(lp4503
s(S'FOXJ1'
p4504
S'HOXA9'
p4505
S'increases'
p4506
tp4507
(lp4508
s(S'hsa-miR-96-5p'
p4509
S'KRAS'
p4510
S'decreases'
p4511
tp4512
(lp4513
s(S'SRC'
p4514
S'SYNDECAN-2/RASGAP'
p4515
S'binds'
p4516
tp4517
(lp4518
s(S'FOXA1'
p4519
S'MEIS1'
p4520
S'increases'
p4521
tp4522
(lp4523
s(S'LEF1'
p4524
S'MEIS1'
p4525
S'increases'
p4526
tp4527
(lp4528
s(S'PAX3'
p4529
S'CYP26A1'
p4530
S'increases'
p4531
tp4532
(lp4533
s(S'PAX4'
p4534
S'HOXA9'
p4535
S'increases'
p4536
tp4537
(lp4538
s(S'hsa-miR-18a-3p'
p4539
S'KRAS'
p4540
S'decreases'
p4541
tp4542
(lp4543
s(S'FOXF2'
p4544
S'EN1'
p4545
S'increases'
p4546
tp4547
(lp4548
s(S'Pyk2'
p4549
S'SRC FAMILY KINASES'
p4550
S'increases_activity'
p4551
tp4552
(lp4553
s(S'TP53'
p4554
S'HOXA9'
p4555
S'increases'
p4556
tp4557
(lp4558
s(S'Genistein'
p4559
S'KRAS MRNA'
p4560
S'decreases'
p4561
tp4562
(lp4563
s(S'POU1F1'
p4564
S'CYP26A1'
p4565
S'increases'
p4566
tp4567
(lp4568
s(S'manumycin'
p4569
S'KRAS PROTEIN'
p4570
S'decreases_activity'
p4571
tp4572
(lp4573
s(S'Ginkgo biloba extract 761'
p4574
S'GCLC PROTEIN'
p4575
S'increases'
p4576
tp4577
(lp4578
s(S'GATA1'
p4579
S'NRAS'
p4580
S'increases'
p4581
tp4582
(lp4583
s(S'CBFA2T3'
p4584
S'FOXF2'
p4585
S'increases'
p4586
tp4587
(lp4588
s(S'PCBP1'
p4589
S'ELK1'
p4590
S'increases'
p4591
tp4592
(lp4593
s(S'MYC'
p4594
S'FOXF2'
p4595
S'increases'
p4596
tp4597
(lp4598
s(S'hsa-mir-622'
p4599
S'KRAS'
p4600
S'decreases'
p4601
tp4602
(lp4603
s(S'TCF3'
p4604
S'MAZ'
p4605
S'increases'
p4606
tp4607
(lp4608
s(S'STAT2'
p4609
S'MEIS1'
p4610
S'increases'
p4611
tp4612
(lp4613
s(S'CYP26A1'
p4614
S'YY1'
p4615
S'increases'
p4616
tp4617
(lp4618
s(S'CYP26A1'
p4619
S'EN1'
p4620
S'increases'
p4621
tp4622
(lp4623
s(S'GRB2/SOS1'
p4624
S'SHC'
p4625
S'binds'
p4626
tp4627
(lp4628
s(S'BAD'
p4629
S'YWHAZ'
p4630
S'binds'
p4631
tp4632
(lp4633
s(S'SPI1'
p4634
S'MAX'
p4635
S'increases'
p4636
tp4637
(lp4638
s(S'PI-3-4-5-P3'
p4639
S'CENTA1'
p4640
S'translocates'
p4641
tp4642
(lp4643
s(S'XBP1'
p4644
S'CYP26A1'
p4645
S'increases'
p4646
tp4647
(lp4648
s(S'PAX4'
p4649
S'NRAS'
p4650
S'increases'
p4651
tp4652
(lp4653
s(S'PI3K'
p4654
S'EPHRIN A1/EPHA2'
p4655
S'binds'
p4656
tp4657
(lp4658
s(S'POU1F1'
p4659
S'MEIS1'
p4660
S'increases'
p4661
tp4662
(lp4663
s(S'NR3C1'
p4664
S'ETS1'
p4665
S'increases'
p4666
tp4667
(lp4668
s(S'MAZ'
p4669
S'POU3F2'
p4670
S'increases'
p4671
tp4672
(lp4673
s(S'Estradiol'
p4674
S'HRAS MRNA'
p4675
S'increases'
p4676
tp4677
(lp4678
s(S'Aflatoxin B1'
p4679
S'HRAS PROTEIN'
p4680
S'increases'
p4681
tp4682
(lp4683
s(S'ETV7'
p4684
S'STAT4'
p4685
S'increases'
p4686
tp4687
(lp4688
s(S'PBX1'
p4689
S'LEF1'
p4690
S'increases'
p4691
tp4692
(lp4693
s(S'CEBPB'
p4694
S'CYP26A1'
p4695
S'increases'
p4696
tp4697
(lp4698
s(S'MAZ'
p4699
S'JUN'
p4700
S'increases'
p4701
tp4702
(lp4703
s(S'FOXF2'
p4704
S'MYC'
p4705
S'increases'
p4706
tp4707
(lp4708
s(S'FOXJ2'
p4709
S'HOXA9'
p4710
S'increases'
p4711
tp4712
(lp4713
s(S'Capsaicin'
p4714
S'HRAS MRNA'
p4715
S'increases'
p4716
tp4717
(lp4718
s(S'POU3F1'
p4719
S'GATA6'
p4720
S'increases'
p4721
tp4722
(lp4723
s(S'EIF2A'
p4724
S'14-3-3 E'
p4725
S'binds'
p4726
tp4727
(lp4728
s(S'RAS family/GTP'
p4729
S'RAF1-BRAF'
p4730
S'increases_activity'
p4731
tp4732
(lp4733
s(S'GATA6'
p4734
S'GATA1'
p4735
S'increases'
p4736
tp4737
(lp4738
s(S'RASA1'
p4739
S'PHOSPHO PDGF BETA RECEPTOR: PDGF CHAIN B HOMODIMER'
p4740
S'binds'
p4741
tp4742
(lp4743
s(S'CART1'
p4744
S'POU2F1'
p4745
S'increases'
p4746
tp4747
(lp4748
s(S'ZIC3'
p4749
S'POU2F1'
p4750
S'increases'
p4751
tp4752
(lp4753
s(S'TCF4'
p4754
S'FOXA1'
p4755
S'increases'
p4756
tp4757
(lp4758
s(S'PKC theta'
p4759
S'RASGRP1'
p4760
S'adds_modification'
p4761
tp4762
(lp4763
s(S'PTF1A'
p4764
S'STAT5A'
p4765
S'increases'
p4766
tp4767
(lp4768
s(S'SPI1'
p4769
S'FOXO4'
p4770
S'increases'
p4771
tp4772
(lp4773
s(S'HNF1A'
p4774
S'GATA6'
p4775
S'increases'
p4776
tp4777
(lp4778
s(S'FOXJ1'
p4779
S'RUNX1'
p4780
S'increases'
p4781
tp4782
(lp4783
s(S'STAT2'
p4784
S'GATA6'
p4785
S'increases'
p4786
tp4787
(lp4788
s(S'RAS FAMILY/GTP'
p4789
S'PI3K'
p4790
S'binds'
p4791
tp4792
(lp4793
s(S'PAX4'
p4794
S'IRF1'
p4795
S'increases'
p4796
tp4797
(lp4798
s(S'PAX3'
p4799
S'HOXA9'
p4800
S'increases'
p4801
tp4802
(lp4803
s(S'MYB'
p4804
S'MAZ'
p4805
S'increases'
p4806
tp4807
(lp4808
s(S"Guanosine-5'-Triphosphate"
p4809
S'HRAS'
p4810
S'increases_activity'
p4811
tp4812
(lp4813
s(S'alpha9/beta1 Integrin/Tenascin C'
p4814
S'SRC'
p4815
S'adds_modification'
p4816
tp4817
(lp4818
s(S'RAF1'
p4819
S'MEK1'
p4820
S'adds_modification'
p4821
tp4822
(lp4823
s(S'JUN'
p4824
S'FOXA1'
p4825
S'increases'
p4826
tp4827
(lp4828
s(S'NFE2L2'
p4829
S'BACH1'
p4830
S'increases'
p4831
tp4832
(lp4833
s(S'CUX1'
p4834
S'FOXD3'
p4835
S'increases'
p4836
tp4837
(lp4838
s(S'JUN'
p4839
S'EN1'
p4840
S'increases'
p4841
tp4842
(lp4843
s(S'ESR1'
p4844
S'CYP26A1'
p4845
S'increases'
p4846
tp4847
(lp4848
s(S'ESRRA'
p4849
S'FOXA1'
p4850
S'increases'
p4851
tp4852
(lp4853
s(S'POU2F1'
p4854
S'MEIS1'
p4855
S'increases'
p4856
tp4857
(lp4858
s(S'TFCP2'
p4859
S'FOXA1'
p4860
S'increases'
p4861
tp4862
(lp4863
s(S'PI-3-4-5-P3'
p4864
S'PDK1'
p4865
S'increases_activity'
p4866
tp4867
(lp4868
s(S'TCF3'
p4869
S'FOXA1'
p4870
S'increases'
p4871
tp4872
(lp4873
s(S'STAT3'
p4874
S'CYP26A1'
p4875
S'increases'
p4876
tp4877
(lp4878
s(S'CYP26A1'
p4879
S'POU3F2'
p4880
S'increases'
p4881
tp4882
(lp4883
s(S'Curcumin'
p4884
S'KRAS MRNA'
p4885
S'decreases'
p4886
tp4887
(lp4888
s(S'STAT1'
p4889
S'CYP26A1'
p4890
S'increases'
p4891
tp4892
(lp4893
s(S'GFI1'
p4894
S'POU2F1'
p4895
S'increases'
p4896
tp4897
(lp4898
s(S'ZIC1'
p4899
S'POU2F1'
p4900
S'increases'
p4901
tp4902
(lp4903
s(S'PI-3-4-5-P3'
p4904
S'AKT3'
p4905
S'adds_modification'
p4906
tp4907
(lp4908
s(S'BACH1'
p4909
S'NRAS'
p4910
S'increases'
p4911
tp4912
(lp4913
s(S'SCF/KIT'
p4914
S'SHC/GRB2/SOS1'
p4915
S'increases_activity'
p4916
tp4917
(lp4918
s(S'CDX2'
p4919
S'CYP26A1'
p4920
S'increases'
p4921
tp4922
(lp4923
s(S'RET51/GFRalpha1/GDNF/DOK/RasGAP/NCK'
p4924
S'HRAS/GDP'
p4925
S'decreases_activity'
p4926
tp4927
(lp4928
s(S'BETAPIX'
p4929
S'RAC1/GTP'
p4930
S'binds'
p4931
tp4932
(lp4933
s(S'RHOA/GTP'
p4934
S'CITRON'
p4935
S'increases_activity'
p4936
tp4937
(lp4938
s(S'P-SHC1:GRB2:SOS'
p4939
S'P-5Y-LAT-2'
p4940
S'binds'
p4941
tp4942
(lp4943
s(S'PAX4'
p4944
S'CYP26A1'
p4945
S'increases'
p4946
tp4947
(lp4948
s(S'TCF3'
p4949
S'KRAS'
p4950
S'increases'
p4951
tp4952
(lp4953
s(S'GRB2:SOS1'
p4954
S'PHOSPHORYLATED ERBB2:ERBB4 HETERODIMERS'
p4955
S'binds'
p4956
tp4957
(lp4958
s(S'CDX2'
p4959
S'MEIS1'
p4960
S'increases'
p4961
tp4962
(lp4963
s(S'SP3'
p4964
S'RUNX1'
p4965
S'increases'
p4966
tp4967
(lp4968
s(S'REST'
p4969
S'CYP26A1'
p4970
S'increases'
p4971
tp4972
(lp4973
s(S'PTF1A'
p4974
S'CYP26A1'
p4975
S'increases'
p4976
tp4977
(lp4978
s(S'PI-3-4-5-P3'
p4979
S'PI3K/GAB1'
p4980
S'translocates'
p4981
tp4982
(lp4983
s(S'LMO2'
p4984
S'FOXO4'
p4985
S'increases'
p4986
tp4987
(lp4988
s(S'STAT4'
p4989
S'ETS1'
p4990
S'increases'
p4991
tp4992
(lp4993
s(S'GTF2A2'
p4994
S'HOXA9'
p4995
S'increases'
p4996
tp4997
(lp4998
s(S'FOXF2'
p4999
S'POU3F2'
p5000
S'increases'
p5001
tp5002
(lp5003
s(S'GATA1'
p5004
S'GABPB2'
p5005
S'increases'
p5006
tp5007
(lp5008
s(S'Polychlorinated Biphenyls'
p5009
S'KRAS MRNA'
p5010
S'decreases'
p5011
tp5012
(lp5013
s(S'GRB2/SOS1'
p5014
S'EGF/EGFR DIMER/SHC'
p5015
S'binds'
p5016
tp5017
(lp5018
s(S'CYP26A1'
p5019
S'FOXF2'
p5020
S'increases'
p5021
tp5022
(lp5023
s(S'EGR1'
p5024
S'CYP26A1'
p5025
S'increases'
p5026
tp5027
(lp5028
s(S'MAX'
p5029
S'FOXO3'
p5030
S'increases'
p5031
tp5032
(lp5033
s(S'T-DHT/AR/PELP1'
p5034
S'SRC'
p5035
S'binds'
p5036
tp5037
(lp5038
s(S'CUX1'
p5039
S'FOXF2'
p5040
S'increases'
p5041
tp5042
(lp5043
s(S'CEBPD'
p5044
S'CYP26A1'
p5045
S'increases'
p5046
tp5047
(lp5048
s(S'CBFA2T3'
p5049
S'NRAS'
p5050
S'increases'
p5051
tp5052
(lp5053
s(S'Cisplatin'
p5054
S'HRAS MRNA'
p5055
S'translocates'
p5056
tp5057
(lp5058
s(S'BAD/BCL-X(L)'
p5059
S'YWHAZ'
p5060
S'binds'
p5061
tp5062
(lp5063
s(S'GATA1'
p5064
S'FOXA1'
p5065
S'increases'
p5066
tp5067
(lp5068
s(S'RREB1'
p5069
S'CYP26A1'
p5070
S'increases'
p5071
tp5072
(lp5073
s(S'STAT4'
p5074
S'RUNX2'
p5075
S'increases'
p5076
tp5077
(lp5078
s(S'FOXD3'
p5079
S'NRAS'
p5080
S'increases'
p5081
tp5082
(lp5083
s(S'NDEL1'
p5084
S'14-3-3 E'
p5085
S'binds'
p5086
tp5087
(lp5088
s(S'CYP26A1'
p5089
S'REPIN1'
p5090
S'increases'
p5091
tp5092
(lp5093
s(S'MAF'
p5094
S'CDC5L'
p5095
S'increases'
p5096
tp5097
(lp5098
s(S'CYP26A1'
p5099
S'ELK1'
p5100
S'increases'
p5101
tp5102
(lp5103
s(S'MYC'
p5104
S'FOXD3'
p5105
S'increases'
p5106
tp5107
(lp5108
s(S'MAX'
p5109
S'FOXD3'
p5110
S'increases'
p5111
tp5112
(lp5113
s(S'POU1F1'
p5114
S'GATA6'
p5115
S'increases'
p5116
tp5117
(lp5118
s(S'POU2F1'
p5119
S'STAT4'
p5120
S'increases'
p5121
tp5122
(lp5123
s(S'GTF3A'
p5124
S'FOXO3'
p5125
S'increases'
p5126
tp5127
(lp5128
s(S'MYB'
p5129
S'FOXF2'
p5130
S'increases'
p5131
tp5132
(lp5133
s(S'ZIC3'
p5134
S'CYP26A1'
p5135
S'increases'
p5136
tp5137
(lp5138
s(S'POU2F1'
p5139
S'EN1'
p5140
S'increases'
p5141
tp5142
(lp5143
s(S'JUN'
p5144
S'STAT1'
p5145
S'increases'
p5146
tp5147
(lp5148
s(S'TEF'
p5149
S'CYP26A1'
p5150
S'increases'
p5151
tp5152
(lp5153
s(S'MAF'
p5154
S'CYP26A1'
p5155
S'increases'
p5156
tp5157
(lp5158
s(S'PAX4'
p5159
S'GATA6'
p5160
S'increases'
p5161
tp5162
(lp5163
s(S'ZIC2'
p5164
S'GATA6'
p5165
S'increases'
p5166
tp5167
(lp5168
s(S'hsa-miR-181d-5p'
p5169
S'HRAS'
p5170
S'decreases'
p5171
tp5172
(lp5173
s(S'BACH2'
p5174
S'CYP26A1'
p5175
S'increases'
p5176
tp5177
(lp5178
s(S'TCF12'
p5179
S'CYP26A1'
p5180
S'increases'
p5181
tp5182
(lp5183
s(S'GATA1'
p5184
S'FOXO4'
p5185
S'increases'
p5186
tp5187
(lp5188
s(S'RFX1'
p5189
S'FOXD3'
p5190
S'increases'
p5191
tp5192
(lp5193
s(S'FOXJ1'
p5194
S'CYP26A1'
p5195
S'increases'
p5196
tp5197
(lp5198
s(S'GTF2A2'
p5199
S'POU2F1'
p5200
S'increases'
p5201
tp5202
(lp5203
s(S'YY1'
p5204
S'SRF'
p5205
S'increases'
p5206
tp5207
(lp5208
s(S'AHR'
p5209
S'REPIN1'
p5210
S'increases'
p5211
tp5212
(lp5213
s(S'MAZ'
p5214
S'CYP26A1'
p5215
S'increases'
p5216
tp5217
(lp5218
s(S'Quercetin'
p5219
S'HRAS MRNA'
p5220
S'increases'
p5221
tp5222
(lp5223
s(S'ELK1'
p5224
S'NRAS'
p5225
S'increases'
p5226
tp5227
(lp5228
s(S'HIF1A'
p5229
S'ONECUT1'
p5230
S'increases'
p5231
tp5232
(lp5233
s(S'FOXF2'
p5234
S'CYP26A1'
p5235
S'increases'
p5236
tp5237
(lp5238
s(S'SOX9'
p5239
S'ETS1'
p5240
S'increases'
p5241
tp5242
(lp5243
s(S'HSF1'
p5244
S'JUN'
p5245
S'increases'
p5246
tp5247
(lp5248
s(S'CEBPA'
p5249
S'CYP26A1'
p5250
S'increases'
p5251
tp5252
(lp5253
s(S'NR1H4'
p5254
S'MEIS1'
p5255
S'increases'
p5256
tp5257
(lp5258
s(S'SMAD1'
p5259
S'GATA1'
p5260
S'increases'
p5261
tp5262
(lp5263
s(S'Quercetin'
p5264
S'HRAS MRNA'
p5265
S'decreases'
p5266
tp5267
(lp5268
s(S'Glycyrrhetinic Acid'
p5269
S'HRAS PROTEIN'
p5270
S'decreases'
p5271
tp5272
(lp5273
s(S'HOXA4'
p5274
S'POU2F1'
p5275
S'increases'
p5276
tp5277
(lp5278
s(S'FOXQ1'
p5279
S'CYP26A1'
p5280
S'increases'
p5281
tp5282
(lp5283
s(S'FOXI1'
p5284
S'CEBPA'
p5285
S'increases'
p5286
tp5287
(lp5288
s(S'GTF3A'
p5289
S'MYCN'
p5290
S'increases'
p5291
tp5292
(lp5293
s(S'LMO2'
p5294
S'IRF1'
p5295
S'increases'
p5296
tp5297
(lp5298
s(S'FOXO1'
p5299
S'CYP26A1'
p5300
S'increases'
p5301
tp5302
(lp5303
s(S'Copper Sulfate'
p5304
S'NRAS MRNA'
p5305
S'increases'
p5306
tp5307
(lp5308
s(S'TFAP2A'
p5309
S'CYP26A1'
p5310
S'increases'
p5311
tp5312
(lp5313
s(S'FOXJ1'
p5314
S'EN1'
p5315
S'increases'
p5316
tp5317
(lp5318
s(S'MEIS1'
p5319
S'RUNX1'
p5320
S'increases'
p5321
tp5322
(lp5323
s(S'MAZ'
p5324
S'FOXA1'
p5325
S'increases'
p5326
tp5327
(lp5328
s(S'ETS1'
p5329
S'FOXO4'
p5330
S'increases'
p5331
tp5332
(lp5333
s(S'ZBTB14'
p5334
S'FOXD3'
p5335
S'increases'
p5336
tp5337
(lp5338
s(S'FOXC1'
p5339
S'LEF1'
p5340
S'increases'
p5341
tp5342
(lp5343
s(S'IRF1'
p5344
S'EN1'
p5345
S'increases'
p5346
tp5347
(lp5348
s(S'NR3C1'
p5349
S'CYP26A1'
p5350
S'increases'
p5351
tp5352
(lp5353
s(S'VSX1'
p5354
S'BACH1'
p5355
S'increases'
p5356
tp5357
(lp5358
s(S'CYP26A1'
p5359
S'ETS1'
p5360
S'increases'
p5361
tp5362
(lp5363
s(S'CEBPA'
p5364
S'MEIS1'
p5365
S'increases'
p5366
tp5367
(lp5368
s(S'ELF1'
p5369
S'FOXO4'
p5370
S'increases'
p5371
tp5372
(lp5373
s(S'RXRA'
p5374
S'CYP26A1'
p5375
S'increases'
p5376
tp5377
(lp5378
s(S'CREB1'
p5379
S'CYP26A1'
p5380
S'increases'
p5381
tp5382
(lp5383
s(S'IRF7'
p5384
S'GATA6'
p5385
S'increases'
p5386
tp5387
(lp5388
s(S'ZEB1'
p5389
S'CYP26A1'
p5390
S'increases'
p5391
tp5392
(lp5393
s(S'AR'
p5394
S'CYP26A1'
p5395
S'increases'
p5396
tp5397
(lp5398
s(S'TFDP2'
p5399
S'MYC'
p5400
S'increases'
p5401
tp5402
(lp5403
s(S'hsa-mir-217'
p5404
S'KRAS'
p5405
S'decreases'
p5406
tp5407
(lp5408
s(S'MEK'
p5409
S'ERK'
p5410
S'adds_modification'
p5411
tp5412
(lp5413
S'In response to growth factors, hRAS signaling involves the following activation cascade: hRAS-RAF(MAPKKK)-MEK (MAPKK)-ERK (MAPK).'
p5414
aS'We recently reported that the mechanisms by which C1P exerts its mitogenic effects involve stimulation of the mitogen-activated protein kinase kinase (MEK)/Extracellularly regulated kinases 1-2 (ERK1-2), phosphatidylinositol 3-kinase (PI3-K)/Akt (or PKB), and c-Jun terminal kinase (JNK) pathways ['
p5415
ag652
aS'To test the hypothesis that ERK MAPK, Akt and/or eNOS activation participate in sphinganine 1-phosphate-mediated protection against liver IR induced AKI and liver injury, we pretreated the mice with PD98059 (an inhibitor of MEK1 to inhibit ERK phosphorylation, 1 mg/kg, i.p.'
p5416
aS'To determine whether Gi/o, ERK MAPK, Akt and/or eNOS signaling mediate the sphinganine 1-phosphate-mediated renal and hepatic protection after hepatic IR, mice were pretreated with pertussis toxin (an inhibitor of Gi/o signaling), PD98059 (a selective MEK1 inhibitor), wortmannin (a selective PI3K inhibitor) or L-NIO (a selective eNOS inhibitor) prior to sphinganine 1-phosphate treatment.'
p5417
aS'Mice were pretreated with PD98059 (PD, an inhibitor of MEK1 to inhibit ERK phosphorylation, 1 mg/kg, i.p., N=6), with wortmannin (Wort, an inhibitor of PI3K to inhibit Akt phosphorylation, 1 mg/kg, i.p., N=6) or with '
p5418
aS'Some mice were pretreated with PD98059 (PD, an inhibitor of MEK1 to inhibit ERK phosphorylation, 1 mg/kg, i.p., N=6) or with wortmannin (Wort, an inhibitor of PI3K to inhibit Akt phosphorylation, 1 mg/kg, i.p., N=6) 20 min.'
p5419
aS'Some mice were pretreated with PD98059 (PD, an inhibitor of MEK1 to inhibit ERK phosphorylation, 1 mg/kg, i.p., N=6) or with wortmannin (Wort, an inhibitor of PI3K to inhibit Akt phosphorylation, 1 mg/kg, i.p., N=6) 20 min.'
p5420
aS'HB-EGF appears to exert its protection of ISCs and TA progenitor cells through the PI3K and EGFR/MEK1/2/ERK1/2 signaling pathways under conditions of normoxia or hypoxia.'
p5421
aS'Growth factors, cytokines, and proto-oncogenes transduce their growth and differentiation promoting signals through MEK/ERK cascade.'
p5422
aS'To evaluate the significance of ERK activity in cell death induced by Dex/MEK inhibitors co-treatment, we first established the CEM clones that express constitutively active MEK1 (ca-MEK1).'
p5423
aS'Stable transfection into CEM cells with a construct encoding MEK1 shRNA resulted in reduction of MEK1 expression, accompanied with a pronounced reduction of phospho-ERK1/2.'
p5424
aS'The evidence presented here suggests that the amount of BIM protein regulated by ERK plays a significant role in apoptosis induced by Dex/MEK inhibitors regimen.'
p5425
aS'It is widely recognized that the RAS/RAF/MEK/ERK signaling pathway mediates survival signaling in diverse transformed cell types.'
p5426
aS'If validated, this concept could have implications for the development of novel anti-leukemia regimens involving the combined administration of clinically relevant agents targeting at the RAS/RAF/MEK/ERK pathway (e.g.'
p5427
aS'MEK/ERK/S6K signaling also plays a critical role in protein translational regulation ('
p5428
ag654
ag655
ag657
ag658
aS'Moreover, we reveal a heterogeneous response in the collateral MAPK pathway to SYK inhibition in AML, with down-regulation of MEK and ERK phosphorylation in some AML cell lines but a paradoxical increase in phosphorylation in '
p5429
aS'Treatment of AML cell lines with R406 resulted in a decrease in phosphorylation of MEK and ERK in many of the AML cell lines, while an unexpected increase in phosphorylation was seen in HL-60 ('
p5430
aS'In contrast, with pharmacological inhibition of SYK, there is a decrease in phosphorylation of MEK and ERK in a subset of AML cells, but in '
p5431
aS'Western blots of p-MEK1/2 (Ser217/221) and p-ERK1/2 (Thr202/Tyr204) and p-c-RAF (Ser338) are depicted.'
p5432
aS'(a) HL-60, KG-1, MOLM-14 and U937 cells were treated for 6 hours for p-MEK1/2 analysis and 24 hours for p-ERK1/2 analysis.'
p5433
ag659
ag660
ag661
as(S'ZBTB18'
p5434
S'ONECUT1'
p5435
S'increases'
p5436
tp5437
(lp5438
s(S'TGIF'
p5439
S'MAX'
p5440
S'increases'
p5441
tp5442
(lp5443
s(S'ETS1'
p5444
S'NRAS'
p5445
S'increases'
p5446
tp5447
(lp5448
s(S'KLF12'
p5449
S'GATA1'
p5450
S'increases'
p5451
tp5452
(lp5453
s(S'HRAS/GTP'
p5454
S'PAK2'
p5455
S'increases_activity'
p5456
tp5457
(lp5458
s(S'CYP26A1'
p5459
S'FOXD3'
p5460
S'increases'
p5461
tp5462
(lp5463
s(S'LMO2'
p5464
S'RUNX1'
p5465
S'increases'
p5466
tp5467
(lp5468
s(S'MLK3'
p5469
S'MKK3/6'
p5470
S'adds_modification'
p5471
tp5472
(lp5473
s(S'TAK'
p5474
S'MKK3/6'
p5475
S'adds_modification'
p5476
tp5477
(lp5478
s(S'GRB2:SOS1'
p5479
S'HB-EGF:P-6Y-EGFR DIMER'
p5480
S'binds'
p5481
tp5482
(lp5483
s(S'FOXO4'
p5484
S'NRAS'
p5485
S'increases'
p5486
tp5487
(lp5488
s(S'MECOM'
p5489
S'NRAS'
p5490
S'increases'
p5491
tp5492
(lp5493
s(S'KLF12'
p5494
S'CYP26A1'
p5495
S'increases'
p5496
tp5497
(lp5498
s(S'RAS family/GTP/PI3K'
p5499
S'TRPV1'
p5500
S'adds_modification'
p5501
tp5502
(lp5503
s(S'hsa-let-7a-5p'
p5504
S'NRAS'
p5505
S'decreases'
p5506
tp5507
(lp5508
s(S'NF1'
p5509
S'HOXA9'
p5510
S'increases'
p5511
tp5512
(lp5513
s(S'REPIN1'
p5514
S'FOXD3'
p5515
S'increases'
p5516
tp5517
(lp5518
s(S'CYP26A1'
p5519
S'FOXJ2'
p5520
S'increases'
p5521
tp5522
(lp5523
s(S'FOXO4'
p5524
S'MEIS1'
p5525
S'increases'
p5526
tp5527
(lp5528
s(S'EBF2'
p5529
S'MECOM'
p5530
S'increases'
p5531
tp5532
(lp5533
s(S'ETS1'
p5534
S'FOXO3'
p5535
S'increases'
p5536
tp5537
(lp5538
s(S'SP3'
p5539
S'CYP26A1'
p5540
S'increases'
p5541
tp5542
(lp5543
s(S'LNXp80'
p5544
S'NUMB'
p5545
S'decreases'
p5546
tp5547
(lp5548
s(S'RUNX2'
p5549
S'CYP26A1'
p5550
S'increases'
p5551
tp5552
(lp5553
s(S'AHR'
p5554
S'FOXO3'
p5555
S'increases'
p5556
tp5557
(lp5558
s(S'VSX1'
p5559
S'FOXF2'
p5560
S'increases'
p5561
tp5562
(lp5563
s(S'BPTF'
p5564
S'RUNX1'
p5565
S'increases'
p5566
tp5567
(lp5568
s(S'7,8-Dihydro-7,8-dihydroxybenzo(a)pyrene 9,10-oxide'
p5569
S'HRAS PROTEIN'
p5570
S'increases'
p5571
tp5572
(lp5573
s(S'TCF3'
p5574
S'POU3F2'
p5575
S'increases'
p5576
tp5577
(lp5578
s(S'TCF3'
p5579
S'IRF1'
p5580
S'increases'
p5581
tp5582
(lp5583
s(S'SREBF1'
p5584
S'EN1'
p5585
S'increases'
p5586
tp5587
(lp5588
s(S'FOXO4'
p5589
S'RUNX2'
p5590
S'increases'
p5591
tp5592
(lp5593
s(S'hsa-miR-181a-5p'
p5594
S'HRAS'
p5595
S'decreases'
p5596
tp5597
(lp5598
s(S'Myb'
p5599
S'NRAS'
p5600
S'decreases'
p5601
tp5602
(lp5603
s(S'HSPA8'
p5604
S'ADP'
p5605
S'binds'
p5606
tp5607
(lp5608
s(S'SOCS3'
p5609
S'RASGAP'
p5610
S'binds'
p5611
tp5612
(lp5613
s(S'ONECUT1'
p5614
S'NRAS'
p5615
S'increases'
p5616
tp5617
(lp5618
s(S'PITX2'
p5619
S'EN1'
p5620
S'increases'
p5621
tp5622
(lp5623
s(S'HGF(dimer)/MET(dimer)'
p5624
S'SRC'
p5625
S'adds_modification'
p5626
tp5627
(lp5628
s(S'2-amino-1-methyl-6-phenylimidazo(4,5-b)pyridine'
p5629
S'HRAS PROTEIN'
p5630
S'increases'
p5631
tp5632
(lp5633
s(S'GFI1'
p5634
S'POU3F2'
p5635
S'increases'
p5636
tp5637
(lp5638
s(S'FARNESYL DIPHOSPHATE'
p5639
S'KRAS'
p5640
S'increases_activity'
p5641
tp5642
(lp5643
s(S'IL2/IL2R BETA/GAMMA/JAK1/LCK/JAK3'
p5644
S'PI3K'
p5645
S'binds'
p5646
tp5647
(lp5648
s(S'GTF3A'
p5649
S'MECOM'
p5650
S'increases'
p5651
tp5652
(lp5653
s(S'EGR2'
p5654
S'CYP26A1'
p5655
S'increases'
p5656
tp5657
(lp5658
s(S'RUNX1'
p5659
S'FOXF2'
p5660
S'increases'
p5661
tp5662
(lp5663
s(S'IL3/IL3RA/CSF2RB (DODECAMER)'
p5664
S'YWHAZ'
p5665
S'binds'
p5666
tp5667
(lp5668
s(S'RAF1'
p5669
S'BRAF'
p5670
S'binds'
p5671
tp5672
(lp5673
s(S'MYC'
p5674
S'CYP26A1'
p5675
S'increases'
p5676
tp5677
(lp5678
s(S'UBP1'
p5679
S'CYP26A1'
p5680
S'increases'
p5681
tp5682
(lp5683
s(S'MTF1'
p5684
S'REPIN1'
p5685
S'increases'
p5686
tp5687
(lp5688
s(S'HNF1A'
p5689
S'RUNX1'
p5690
S'increases'
p5691
tp5692
(lp5693
s(S'NHLH1'
p5694
S'FOXA1'
p5695
S'increases'
p5696
tp5697
(lp5698
s(S'HLF'
p5699
S'FOXA1'
p5700
S'increases'
p5701
tp5702
(lp5703
s(S'MEIS1'
p5704
S'GATA6'
p5705
S'increases'
p5706
tp5707
(lp5708
s(S'PDGF-BB/PDGFRB (DIMER)/SHP2'
p5709
S'GRB2/SOS1'
p5710
S'binds'
p5711
tp5712
(lp5713
s(S'ZBTB14'
p5714
S'EN1'
p5715
S'increases'
p5716
tp5717
(lp5718
s(S'alpha6/beta4 Integrin'
p5719
S'HRAS/GDP'
p5720
S'increases_activity'
p5721
tp5722
(lp5723
s(S'ErbB2'
p5724
S'HRAS/GDP'
p5725
S'increases_activity'
p5726
tp5727
(lp5728
s(S'MEIS1'
p5729
S'FOXO3'
p5730
S'increases'
p5731
tp5732
(lp5733
s(S'RELA'
p5734
S'IRF1'
p5735
S'increases'
p5736
tp5737
(lp5738
s(S'MYCN'
p5739
S'FOXO3'
p5740
S'increases'
p5741
tp5742
(lp5743
s(S'RHOA/GTP'
p5744
S'DIA'
p5745
S'increases_activity'
p5746
tp5747
(lp5748
s(S'Fluorouracil'
p5749
S'KRAS PROTEIN'
p5750
S'decreases'
p5751
tp5752
(lp5753
s(S'ATF2'
p5754
S'CYP26A1'
p5755
S'increases'
p5756
tp5757
(lp5758
s(S'GNAI2/GTP'
p5759
S'SRC FAMILY KINASES'
p5760
S'increases_activity'
p5761
tp5762
(lp5763
s(S'HAND1'
p5764
S'POU2F1'
p5765
S'increases'
p5766
tp5767
(lp5768
s(S'PI5K Type 1 family'
p5769
S'PI-4-P'
p5770
S'translocates'
p5771
tp5772
(lp5773
s(S'HSF1'
p5774
S'CBFA2T3'
p5775
S'increases'
p5776
tp5777
(lp5778
s(S'BACH1'
p5779
S'FOXA1'
p5780
S'increases'
p5781
tp5782
(lp5783
s(S'PI-3-4-5-P3'
p5784
S'SGK1'
p5785
S'adds_modification'
p5786
tp5787
(lp5788
s(S'hsa-miR-20a-5p'
p5789
S'NRAS'
p5790
S'decreases'
p5791
tp5792
(lp5793
s(S'CYP26A1'
p5794
S'MECOM'
p5795
S'increases'
p5796
tp5797
(lp5798
s(S'FOXF2'
p5799
S'RUNX1'
p5800
S'increases'
p5801
tp5802
(lp5803
s(S'EGR2'
p5804
S'SRF'
p5805
S'increases'
p5806
tp5807
(lp5808
s(S'LEF1'
p5809
S'FOXD3'
p5810
S'increases'
p5811
tp5812
(lp5813
s(S'TFAP2C'
p5814
S'MECOM'
p5815
S'increases'
p5816
tp5817
(lp5818
s(S'SHC'
p5819
S'GRB2/SOS1'
p5820
S'binds'
p5821
tp5822
(lp5823
s(S'CA2+'
p5824
S'CAM'
p5825
S'binds'
p5826
tp5827
(lp5828
s(S'MYC'
p5829
S'POU3F2'
p5830
S'increases'
p5831
tp5832
(lp5833
s(S'PAX8'
p5834
S'HOXA9'
p5835
S'increases'
p5836
tp5837
(lp5838
s(S'TFDP2'
p5839
S'CDC5L'
p5840
S'increases'
p5841
tp5842
(lp5843
s(S'RAF1/14-3-3'
p5844
S'KSR/14-3-3 /MEK1-2'
p5845
S'increases_activity'
p5846
tp5847
(lp5848
s(S'DDIT3'
p5849
S'MEIS1'
p5850
S'increases'
p5851
tp5852
(lp5853
s(S'GNB1/GNG2'
p5854
S'HRAS/GDP'
p5855
S'increases_activity'
p5856
tp5857
(lp5858
s(S'ACTIVATED FGFR MUTANTS:P-FRS2ALPHA'
p5859
S'GRB2:SOS1'
p5860
S'binds'
p5861
tp5862
(lp5863
s(S'HIF1A'
p5864
S'CYP26A1'
p5865
S'increases'
p5866
tp5867
(lp5868
s(S'RAF1-BRAF'
p5869
S'ERK1-2'
p5870
S'increases_activity'
p5871
tp5872
(lp5873
s(S'SMAD4'
p5874
S'CBFA2T3'
p5875
S'increases'
p5876
tp5877
(lp5878
s(S'resveratrol'
p5879
S'HRAS PROTEIN'
p5880
S'increases'
p5881
tp5882
(lp5883
s(S'Malathion'
p5884
S'HRAS MRNA'
p5885
S'increases'
p5886
tp5887
(lp5888
s(S'NRF1'
p5889
S'FOXO4'
p5890
S'increases'
p5891
tp5892
(lp5893
s(S'CREB1'
p5894
S'JUN'
p5895
S'increases'
p5896
tp5897
(lp5898
s(S'CDC5L'
p5899
S'HOXA9'
p5900
S'increases'
p5901
tp5902
(lp5903
s(S'CDX2'
p5904
S'HOXA9'
p5905
S'increases'
p5906
tp5907
(lp5908
s(S'HMGA1'
p5909
S'POU2F1'
p5910
S'increases'
p5911
tp5912
(lp5913
s(S'Coumestrol'
p5914
S'KRAS MRNA'
p5915
S'decreases'
p5916
tp5917
(lp5918
s(S'LEF1'
p5919
S'FOXO3'
p5920
S'increases'
p5921
tp5922
(lp5923
s(S'CYP26A1'
p5924
S'MEIS1'
p5925
S'increases'
p5926
tp5927
(lp5928
s(S'GTF2A2'
p5929
S'MEIS1'
p5930
S'increases'
p5931
tp5932
(lp5933
s(S'REPIN1'
p5934
S'CBFA2T3'
p5935
S'increases'
p5936
tp5937
(lp5938
s(S'hsa-miR-143-3p'
p5939
S'HRAS'
p5940
S'decreases'
p5941
tp5942
(lp5943
s(S'[(3,7,11-TRIMETHYL-DODECA-2,6,10-TRIENYLOXYCARBAMOYL)-METHYL]-PHOSPHONIC ACID'
p5944
S'KRAS'
p5945
S'increases_activity'
p5946
tp5947
(lp5948
s(S'TFDP1'
p5949
S'ONECUT1'
p5950
S'increases'
p5951
tp5952
(lp5953
s(S'YY1'
p5954
S'CYP26A1'
p5955
S'increases'
p5956
tp5957
(lp5958
s(S'PITX2'
p5959
S'RUNX1'
p5960
S'increases'
p5961
tp5962
(lp5963
s(S'STAT5A'
p5964
S'NRAS'
p5965
S'increases'
p5966
tp5967
(lp5968
s(S'Valproic Acid'
p5969
S'HRAS MRNA'
p5970
S'increases'
p5971
tp5972
(lp5973
s(S'Malathion'
p5974
S'HRAS PROTEIN'
p5975
S'increases'
p5976
tp5977
(lp5978
s(S'TFAP4'
p5979
S'CBFA2T3'
p5980
S'increases'
p5981
tp5982
(lp5983
s(S'TFAP4'
p5984
S'EN1'
p5985
S'increases'
p5986
tp5987
(lp5988
s(S'POU3F2'
p5989
S'CYP26A1'
p5990
S'increases'
p5991
tp5992
(lp5993
s(S'PAX3'
p5994
S'FOXD3'
p5995
S'increases'
p5996
tp5997
(lp5998
s(S'FOXA2'
p5999
S'RUNX2'
p6000
S'increases'
p6001
tp6002
(lp6003
s(S'MAX'
p6004
S'BACH1'
p6005
S'increases'
p6006
tp6007
(lp6008
s(S'PDX1'
p6009
S'CYP26A1'
p6010
S'increases'
p6011
tp6012
(lp6013
s(S'EPO/EPOR (dimer)/JAK2'
p6014
S'SHC/GRB2/SOS1'
p6015
S'increases_activity'
p6016
tp6017
(lp6018
s(S'E2F1'
p6019
S'MEIS1'
p6020
S'increases'
p6021
tp6022
(lp6023
s(S'FOXF2'
p6024
S'MEIS1'
p6025
S'increases'
p6026
tp6027
(lp6028
s(S'SPZ1'
p6029
S'FOXJ2'
p6030
S'increases'
p6031
tp6032
(lp6033
s(S'SRY'
p6034
S'NRAS'
p6035
S'increases'
p6036
tp6037
(lp6038
s(S'REPIN1'
p6039
S'CYP26A1'
p6040
S'increases'
p6041
tp6042
(lp6043
s(S'VEGFR3/VEGFC-D'
p6044
S'PKC'
p6045
S'increases_activity'
p6046
tp6047
(lp6048
s(S'MEIS1'
p6049
S'EN1'
p6050
S'increases'
p6051
tp6052
(lp6053
s(S'FOXJ1'
p6054
S'FOXD3'
p6055
S'increases'
p6056
tp6057
(lp6058
s(S'SPZ1'
p6059
S'FOXO4'
p6060
S'increases'
p6061
tp6062
(lp6063
s(S'RHOA/GTP'
p6064
S'ROCK1-ROCK2'
p6065
S'increases_activity'
p6066
tp6067
(lp6068
s(S'HMGA1'
p6069
S'ONECUT1'
p6070
S'increases'
p6071
tp6072
(lp6073
s(S'uPA/uPAR/alphav/beta3 Integrin/Vitronectin'
p6074
S'SRC'
p6075
S'adds_modification'
p6076
tp6077
(lp6078
s(S'ETS1'
p6079
S'CYP26A1'
p6080
S'increases'
p6081
tp6082
(lp6083
s(S'ESRRA'
p6084
S'TLX2'
p6085
S'increases'
p6086
tp6087
(lp6088
s(S'ROCK2'
p6089
S'RHO FAMILY GTPASE-ACTIVE'
p6090
S'binds'
p6091
tp6092
(lp6093
s(S'ATF4'
p6094
S'CYP26A1'
p6095
S'increases'
p6096
tp6097
(lp6098
s(S'OR5I1'
p6099
S'CYP26A1'
p6100
S'increases'
p6101
tp6102
(lp6103
s(S'PITX2'
p6104
S'GATA1'
p6105
S'increases'
p6106
tp6107
(lp6108
s(S'AHR'
p6109
S'ONECUT1'
p6110
S'increases'
p6111
tp6112
(lp6113
s(S'PTF1A'
p6114
S'MECOM'
p6115
S'increases'
p6116
tp6117
(lp6118
s(S'arsenic trioxide'
p6119
S'HRAS MRNA'
p6120
S'increases'
p6121
tp6122
(lp6123
s(S'TCF3'
p6124
S'REPIN1'
p6125
S'increases'
p6126
tp6127
(lp6128
s(S'STAT6'
p6129
S'FOXO3'
p6130
S'increases'
p6131
tp6132
(lp6133
s(S'POU1F1'
p6134
S'POU2F1'
p6135
S'increases'
p6136
tp6137
(lp6138
s(S'RHOA/GTP'
p6139
S'ROCK'
p6140
S'increases_activity'
p6141
tp6142
(lp6143
s(S'PITPNA'
p6144
S'PI-4-5-P2'
p6145
S'translocates'
p6146
tp6147
(lp6148
s(S'MDM-2'
p6149
S'P14/19 ARF'
p6150
S'binds'
p6151
tp6152
(lp6153
s(S'TEAD1'
p6154
S'FOXO3'
p6155
S'increases'
p6156
tp6157
(lp6158
s(S'MYC'
p6159
S'MAX'
p6160
S'increases'
p6161
tp6162
(lp6163
S'Given these observations, and the prior observation of EPC1 and EPC2 in complex with MYC, MAX, TRRAP, EP400, DMAP1 and BRD8 in murine ESC,'
p6164
as(S'GRB2:SOS1'
p6165
S'EGF:PHOSPHO-EGFR:PHOSPHO-SHC'
p6166
S'binds'
p6167
tp6168
(lp6169
s(S'NF1'
p6170
S'RUNX1'
p6171
S'increases'
p6172
tp6173
(lp6174
s(S'ZEB1'
p6175
S'GATA6'
p6176
S'increases'
p6177
tp6178
(lp6179
s(S'TBP'
p6180
S'EN1'
p6181
S'increases'
p6182
tp6183
(lp6184
s(S'FOXA1'
p6185
S'FOXD3'
p6186
S'increases'
p6187
tp6188
(lp6189
s(S'CART1'
p6190
S'EN1'
p6191
S'increases'
p6192
tp6193
(lp6194
s(S'MAX'
p6195
S'CEBPA'
p6196
S'increases'
p6197
tp6198
(lp6199
s(S'GATA6'
p6200
S'NRAS'
p6201
S'increases'
p6202
tp6203
(lp6204
s(S'PTF1A'
p6205
S'FOXO3'
p6206
S'increases'
p6207
tp6208
(lp6209
s(S'LEF1'
p6210
S'FOXA1'
p6211
S'increases'
p6212
tp6213
(lp6214
s(S'hsa-let-7g-5p'
p6215
S'KRAS'
p6216
S'decreases'
p6217
tp6218
(lp6219
s(S'ZBTB14'
p6220
S'CYP26A1'
p6221
S'increases'
p6222
tp6223
(lp6224
s(S'POU1F1'
p6225
S'FOXO4'
p6226
S'increases'
p6227
tp6228
(lp6229
s(S'PI3K'
p6230
S'PI-4-5-P2'
p6231
S'translocates'
p6232
tp6233
(lp6234
s(S'GABPB2'
p6235
S'NRAS'
p6236
S'increases'
p6237
tp6238
(lp6239
s(S'ELK1'
p6240
S'LEF1'
p6241
S'increases'
p6242
tp6243
(lp6244
s(S'Estrogens'
p6245
S'HRAS MRNA'
p6246
S'increases'
p6247
tp6248
(lp6249
s(S'CYP26A1'
p6250
S'CEBPA'
p6251
S'increases'
p6252
tp6253
(lp6254
s(S'SPI1'
p6255
S'POU2F1'
p6256
S'increases'
p6257
tp6258
(lp6259
s(S'PPARG'
p6260
S'CYP26A1'
p6261
S'increases'
p6262
tp6263
(lp6264
s(S'Asbestos, Serpentine'
p6265
S'HRAS PROTEIN'
p6266
S'increases'
p6267
tp6268
(lp6269
s(S'RET51/GFRALPHA1/GDNF/DOK1'
p6270
S'RASGAP'
p6271
S'binds'
p6272
tp6273
(lp6274
s(S'FOXO1'
p6275
S'GATA6'
p6276
S'increases'
p6277
tp6278
(lp6279
s(S'Cadmium'
p6280
S'KRAS PROTEIN'
p6281
S'increases'
p6282
tp6283
(lp6284
s(S'MAX'
p6285
S'EN1'
p6286
S'increases'
p6287
tp6288
(lp6289
s(S'TLX2'
p6290
S'NRAS'
p6291
S'increases'
p6292
tp6293
(lp6294
s(S'SREBF1'
p6295
S'CYP26A1'
p6296
S'increases'
p6297
tp6298
(lp6299
s(S'SMAD3'
p6300
S'MEIS1'
p6301
S'increases'
p6302
tp6303
(lp6304
s(S'Acetaminophen'
p6305
S'NRAS MRNA'
p6306
S'decreases'
p6307
tp6308
(lp6309
s(S'LEF1'
p6310
S'ETS1'
p6311
S'increases'
p6312
tp6313
(lp6314
s(S'SRF'
p6315
S'MEIS1'
p6316
S'increases'
p6317
tp6318
(lp6319
s(S'BRAF'
p6320
S'MKK3-MKK6'
p6321
S'increases_activity'
p6322
tp6323
(lp6324
s(S'HRAS/GTP'
p6325
S'RAF1'
p6326
S'adds_modification'
p6327
tp6328
(lp6329
s(S'MSX1'
p6330
S'CYP26A1'
p6331
S'increases'
p6332
tp6333
(lp6334
s(S'GATA4'
p6335
S'ETS1'
p6336
S'increases'
p6337
tp6338
(lp6339
s(S'E4F1'
p6340
S'FOXA1'
p6341
S'increases'
p6342
tp6343
(lp6344
s(S'FOXD1'
p6345
S'LEF1'
p6346
S'increases'
p6347
tp6348
(lp6349
s(S'CUX1'
p6350
S'MAX'
p6351
S'increases'
p6352
tp6353
(lp6354
s(S'CYP26A1'
p6355
S'CBFA2T3'
p6356
S'increases'
p6357
tp6358
(lp6359
s(S'CAM/CA2+'
p6360
S'KRAS ISOFORM 4B/GTP'
p6361
S'binds'
p6362
tp6363
(lp6364
s(S'MYOG'
p6365
S'STAT5A'
p6366
S'increases'
p6367
tp6368
(lp6369
s(S'MYOD1'
p6370
S'STAT5A'
p6371
S'increases'
p6372
tp6373
(lp6374
s(S'HNF1A'
p6375
S'POU3F2'
p6376
S'increases'
p6377
tp6378
(lp6379
s(S'EPH'
p6380
S'EPHR'
p6381
S'binds'
p6382
tp6383
(lp6384
s(S'PDGF:PHOSPHO-PDGF RECEPTOR DIMER'
p6385
S'GRB2:SOS1'
p6386
S'binds'
p6387
tp6388
(lp6389
s(S'HRAS/GTP'
p6390
S'PI3K'
p6391
S'increases_activity'
p6392
tp6393
(lp6394
s(S'RUNX1'
p6395
S'TLX2'
p6396
S'increases'
p6397
tp6398
(lp6399
s(S'MYOG'
p6400
S'CYP26A1'
p6401
S'increases'
p6402
tp6403
(lp6404
s(S'PAX2'
p6405
S'EN1'
p6406
S'increases'
p6407
tp6408
(lp6409
s(S'TFCP2'
p6410
S'CYP26A1'
p6411
S'increases'
p6412
tp6413
(lp6414
s(S'hsa-miR-145-5p'
p6415
S'NRAS'
p6416
S'decreases'
p6417
tp6418
(lp6419
s(S'KAT2B'
p6420
S'GATA1'
p6421
S'increases'
p6422
tp6423
(lp6424
s(S'P-EGFR MUTANTS:P-Y349,350-SHC1'
p6425
S'GRB2:SOS1'
p6426
S'binds'
p6427
tp6428
(lp6429
s(S'E2F1'
p6430
S'MECOM'
p6431
S'increases'
p6432
tp6433
(lp6434
s(S'GNB1/GNG2'
p6435
S'SRC'
p6436
S'adds_modification'
p6437
tp6438
(lp6439
s(S'ZBTB14'
p6440
S'MAX'
p6441
S'increases'
p6442
tp6443
(lp6444
s(S'RALGDS'
p6445
S'P21 RAS:GTP'
p6446
S'binds'
p6447
tp6448
(lp6449
s(S'RHOA/GTP'
p6450
S'ROCK2'
p6451
S'increases_activity'
p6452
tp6453
(lp6454
s(S'NR1H3'
p6455
S'FOXD3'
p6456
S'increases'
p6457
tp6458
(lp6459
s(S'TFAP4'
p6460
S'GATA1'
p6461
S'increases'
p6462
tp6463
(lp6464
s(S'FOXA1'
p6465
S'GATA6'
p6466
S'increases'
p6467
tp6468
(lp6469
s(S'GRB2:SOS1'
p6470
S'P-SHC'
p6471
S'binds'
p6472
tp6473
(lp6474
s(S'E2F1'
p6475
S'FOXO3'
p6476
S'increases'
p6477
tp6478
(lp6479
s.