(dp0
(S'ZEB1'
p1
S'FOXA1'
p2
S'increases'
p3
tp4
(lp5
s(S'FOXJ1'
p6
S'GATA6'
p7
S'increases'
p8
tp9
(lp10
s(S'TFAP4'
p11
S'FOXD3'
p12
S'increases'
p13
tp14
(lp15
s(S'TBP'
p16
S'MEIS1'
p17
S'increases'
p18
tp19
(lp20
s(S'GCM1'
p21
S'GATA6'
p22
S'increases'
p23
tp24
(lp25
s(S'T-DHT'
p26
S'SRC'
p27
S'adds_modification'
p28
tp29
(lp30
s(S'MAZ'
p31
S'GABPB2'
p32
S'increases'
p33
tp34
(lp35
s(S'HMGA1'
p36
S'EN1'
p37
S'increases'
p38
tp39
(lp40
s(S'CYP26A1'
p41
S'NRAS'
p42
S'increases'
p43
tp44
(lp45
s(S'CUX1'
p46
S'MEIS1'
p47
S'increases'
p48
tp49
(lp50
s(S'REPIN1'
p51
S'BACH1'
p52
S'increases'
p53
tp54
(lp55
s(S'TFDP1'
p56
S'HOXA9'
p57
S'increases'
p58
tp59
(lp60
s(S'NFE2L1'
p61
S'CYP26A1'
p62
S'increases'
p63
tp64
(lp65
s(S'MAZ'
p66
S'GATA1'
p67
S'increases'
p68
tp69
(lp70
s(S'TCF12'
p71
S'GABPB2'
p72
S'increases'
p73
tp74
(lp75
s(S'ETS2'
p76
S'FOXO3'
p77
S'increases'
p78
tp79
(lp80
s(S'hsa-let-7c-5p'
p81
S'NRAS'
p82
S'decreases'
p83
tp84
(lp85
s(S'SPI1'
p86
S'CYP26A1'
p87
S'increases'
p88
tp89
(lp90
s(S'RAC1/GTP'
p91
S'MKK4'
p92
S'adds_modification'
p93
tp94
(lp95
s(S'Quercetin'
p96
S'KRAS MRNA'
p97
S'decreases'
p98
tp99
(lp100
s(S'INSULIN RECEPTOR/INSULIN/SHC'
p101
S'GRB2'
p102
S'binds'
p103
tp104
(lp105
s(S'TAp63a (tetramer)'
p106
S'PKC DELTA'
p107
S'increases'
p108
tp109
(lp110
s(S'FOXO1'
p111
S'POU2F1'
p112
S'increases'
p113
tp114
(lp115
s(S'FOXL1'
p116
S'EN1'
p117
S'increases'
p118
tp119
(lp120
s(S'TBP'
p121
S'CYP26A1'
p122
S'increases'
p123
tp124
(lp125
s(S'Heptachlor'
p126
S'HRAS MRNA'
p127
S'decreases'
p128
tp129
(lp130
s(S'PCBP1'
p131
S'CYP26A1'
p132
S'increases'
p133
tp134
(lp135
s(S'ZBTB18'
p136
S'CYP26A1'
p137
S'increases'
p138
tp139
(lp140
s(S'GATA2'
p141
S'CYP26A1'
p142
S'increases'
p143
tp144
(lp145
s(S'Cadmium'
p146
S'KRAS MRNA'
p147
S'increases'
p148
tp149
(lp150
s(S'HNF1A'
p151
S'POU2F1'
p152
S'increases'
p153
tp154
(lp155
s(S'ABT-100'
p156
S'HRAS PROTEIN'
p157
S'inhibits_modification'
p158
tp159
(lp160
s(S'ELF1'
p161
S'CYP26A1'
p162
S'increases'
p163
tp164
(lp165
s(S'LEF1'
p166
S'KRAS'
p167
S'increases'
p168
tp169
(lp170
s(S'NKX2-1'
p171
S'FOXD3'
p172
S'increases'
p173
tp174
(lp175
s(S'PI-3-4-5-P3'
p176
S'BTK-ITK'
p177
S'translocates'
p178
tp179
(lp180
s(S'POU6F1'
p181
S'HOXA9'
p182
S'increases'
p183
tp184
(lp185
s(S'Myb'
p186
S'MYB'
p187
S'increases'
p188
tp189
(lp190
S'MYB proteins are divided into four classes, 1R, 2R (R2R3), 3R (R1R2R3) and 4R, depending on the number of adjacent repeats homologous to R1, R2 and R3 in the animal c-Myb ['
p191
as(S'PAX5'
p192
S'CYP26A1'
p193
S'increases'
p194
tp195
(lp196
s(S'FOXO4'
p197
S'FOXD3'
p198
S'increases'
p199
tp200
(lp201
s(S'CYP26A1'
p202
S'FOXO4'
p203
S'increases'
p204
tp205
(lp206
s(S'cell adhesion'
p207
S'HRAS/GDP'
p208
S'increases_activity'
p209
tp210
(lp211
s(S'IRF7'
p212
S'CYP26A1'
p213
S'increases'
p214
tp215
(lp216
s(S'7,8-Dihydro-7,8-dihydroxybenzo(a)pyrene 9,10-oxide'
p217
S'KRAS PROTEIN'
p218
S'increases'
p219
tp220
(lp221
s(S'PITX2'
p222
S'POU2F1'
p223
S'increases'
p224
tp225
(lp226
s(S'E2F1'
p227
S'CYP26A1'
p228
S'increases'
p229
tp230
(lp231
s(S'ATF1'
p232
S'CYP26A1'
p233
S'increases'
p234
tp235
(lp236
s(S'PI3K'
p237
S'PKC DELTA'
p238
S'adds_modification'
p239
tp240
(lp241
s(S'SOX5'
p242
S'HOXA9'
p243
S'increases'
p244
tp245
(lp246
s(S'FOXO4'
p247
S'POU2F1'
p248
S'increases'
p249
tp250
(lp251
s(S'FOXO4'
p252
S'GATA6'
p253
S'increases'
p254
tp255
(lp256
s(S'LEF1'
p257
S'FOXF2'
p258
S'increases'
p259
tp260
(lp261
s(S'Insulin Receptor/Insuli/IRS1/GRB2/SHC/Sos'
p262
S'HRAS/GDP'
p263
S'increases_activity'
p264
tp265
(lp266
s(S'TLX2'
p267
S'RUNX1'
p268
S'increases'
p269
tp270
(lp271
s(S'ALX4'
p272
S'JUN'
p273
S'increases'
p274
tp275
(lp276
s(S'RHOA/GTP'
p277
S'RHOGDI'
p278
S'binds'
p279
tp280
(lp281
s(S'GCM1'
p282
S'CYP26A1'
p283
S'increases'
p284
tp285
(lp286
s(S'RB1'
p287
S'ONECUT1'
p288
S'increases'
p289
tp290
(lp291
s(S'NHLH1'
p292
S'CYP26A1'
p293
S'increases'
p294
tp295
(lp296
s(S'NR3C1'
p297
S'BACH1'
p298
S'increases'
p299
tp300
(lp301
s(S'HNF4A'
p302
S'CYP26A1'
p303
S'increases'
p304
tp305
(lp306
s(S'YY1'
p307
S'FOXO3'
p308
S'increases'
p309
tp310
(lp311
s(S'GRB2:SOS1'
p312
S'P-EGFR MUTANTS DIMER'
p313
S'binds'
p314
tp315
(lp316
s(S'P-Y349,350-SHC1:P-ERBB4'
p317
S'GRB2:SOS1'
p318
S'binds'
p319
tp320
(lp321
s(S'FOXN1'
p322
S'ONECUT1'
p323
S'increases'
p324
tp325
(lp326
s(S'TFAP4'
p327
S'MYC'
p328
S'increases'
p329
tp330
(lp331
s(S'MYC'
p332
S'EN1'
p333
S'increases'
p334
tp335
(lp336
s(S'Antigen/IgE/Fc epsilon R1/LYN/SYK'
p337
S'SHC/GRB2/SOS1'
p338
S'increases_activity'
p339
tp340
(lp341
s(S'14-3-3 BETA, ZETA'
p342
S'GARNL4'
p343
S'binds'
p344
tp345
(lp346
s(S'SMAD1'
p347
S'EN1'
p348
S'increases'
p349
tp350
(lp351
s(S'Raf-1'
p352
S'MEK1-2'
p353
S'adds_modification'
p354
tp355
(lp356
s(S'POU2F1'
p357
S'FOXO3'
p358
S'increases'
p359
tp360
(lp361
s(S'NGF (dimer)/TRKA'
p362
S'RASGRF1'
p363
S'adds_modification'
p364
tp365
(lp366
s(S'TCF4'
p367
S'CYP26A1'
p368
S'increases'
p369
tp370
(lp371
s(S'STAT5B'
p372
S'TLX2'
p373
S'increases'
p374
tp375
(lp376
s(S'CYP26A1'
p377
S'SRF'
p378
S'increases'
p379
tp380
(lp381
s(S'STAT1'
p382
S'NRAS'
p383
S'increases'
p384
tp385
(lp386
S'In the THP-1 model (an M5 monoblast like acute myeloid leukemia), we carried out systematic knock-down followed by expression profiling for a collection of 52 transcription factors (BCL6, BMI1, CBFB, CEBPA, CEBPB, CEBPD, CEBPG, CTCF, E2F1, EGR1, ETS1, ETS2, FLI1, FOXD1, FOXJ3, FOXP1, GATA2, GFI1, HOXA9, HOXA10, HOXA11, HOXA13, ID1, IRF7, IRF8, IRX3, LMO2, MAFB, MLL, MLLT3, MXI1, MYB, MYBL2, MYC, NFE2L1, NFKB1, NFYA, NOTCH1, NRAS, PTTG1, RUNX1, SNAI1, SNAI3, SP1, SPI1(PU.1), SREBF1, STAT1, TCFL5, TRIM28, UHRF1, YY1, ZNF238).'
p387
as(S'TFDP1'
p388
S'GATA1'
p389
S'increases'
p390
tp391
(lp392
s(S'PI3K'
p393
S'ALPHA6/BETA4 INTEGRIN/LAMININ'
p394
S'binds'
p395
tp396
(lp397
s(S'FOXF2'
p398
S'NRAS'
p399
S'increases'
p400
tp401
(lp402
s(S'CUX1'
p403
S'POU2F1'
p404
S'increases'
p405
tp406
(lp407
s(S'ETS2'
p408
S'STAT4'
p409
S'increases'
p410
tp411
(lp412
s(S'EN1'
p413
S'CYP26A1'
p414
S'increases'
p415
tp416
(lp417
s(S'COMPLEX (RAS/GTP)'
p418
S'RAF'
p419
S'binds'
p420
tp421
(lp422
s(S'LEF1'
p423
S'EN1'
p424
S'increases'
p425
tp426
(lp427
s(S'FOXL1'
p428
S'NRAS'
p429
S'increases'
p430
tp431
(lp432
s(S'ELF2'
p433
S'CYP26A1'
p434
S'increases'
p435
tp436
(lp437
s(S'Src Family Kinases-active'
p438
S'EGF/EGFR'
p439
S'adds_modification'
p440
tp441
(lp442
s(S'RUNX1'
p443
S'POU2F1'
p444
S'increases'
p445
tp446
(lp447
s(S'RHOA/GTP'
p448
S'CITRON-N'
p449
S'increases_activity'
p450
tp451
(lp452
s(S'PAX4'
p453
S'SRF'
p454
S'increases'
p455
tp456
(lp457
s(S'Vitamin E'
p458
S'HRAS MRNA'
p459
S'increases'
p460
tp461
(lp462
s(S'CDX2'
p463
S'FOXD3'
p464
S'increases'
p465
tp466
(lp467
s(S'Plant Extracts'
p468
S'KEAP1 PROTEIN'
p469
S'decreases'
p470
tp471
(lp472
s(S'PAX4'
p473
S'CBFA2T3'
p474
S'increases'
p475
tp476
(lp477
s(S'FOXD1'
p478
S'CYP26A1'
p479
S'increases'
p480
tp481
(lp482
s(S'Antigen/IgE/Fc epsilon R1/LYN/SYK'
p483
S'VAV1'
p484
S'adds_modification'
p485
tp486
(lp487
s(S'PCBP1'
p488
S'MEIS1'
p489
S'increases'
p490
tp491
(lp492
s(S'FOXI1'
p493
S'FOXD3'
p494
S'increases'
p495
tp496
(lp497
s(S'GATA4'
p498
S'MEIS1'
p499
S'increases'
p500
tp501
(lp502
s(S'STAT5B'
p503
S'CEBPG'
p504
S'increases'
p505
tp506
(lp507
s(S'TFDP2'
p508
S'MAZ'
p509
S'increases'
p510
tp511
(lp512
s(S'PI3K'
p513
S'SHP2'
p514
S'binds'
p515
tp516
(lp517
s(S'SPI1'
p518
S'ONECUT1'
p519
S'increases'
p520
tp521
(lp522
s(S'STAT6'
p523
S'EN1'
p524
S'increases'
p525
tp526
(lp527
s(S'TLX2'
p528
S'CYP26A1'
p529
S'increases'
p530
tp531
(lp532
s(S'RAF1'
p533
S'MEK1-2'
p534
S'increases_activity'
p535
tp536
(lp537
s(S'STAT5A'
p538
S'IRF1'
p539
S'increases'
p540
tp541
(lp542
s(S'2-amino-1-methyl-6-phenylimidazo(4,5-b)pyridine'
p543
S'HRAS MRNA'
p544
S'increases'
p545
tp546
(lp547
s(S'MAZ'
p548
S'POU2F1'
p549
S'increases'
p550
tp551
(lp552
s(S'MAZ'
p553
S'SRF'
p554
S'increases'
p555
tp556
(lp557
s(S'GATA1'
p558
S'JUN'
p559
S'increases'
p560
tp561
(lp562
s(S'FOXA1'
p563
S'NRAS'
p564
S'increases'
p565
tp566
(lp567
s(S'STAT1'
p568
S'EN1'
p569
S'increases'
p570
tp571
(lp572
s(S'GTF2A2'
p573
S'MAX'
p574
S'increases'
p575
tp576
(lp577
s(S'LMO2'
p578
S'EN1'
p579
S'increases'
p580
tp581
(lp582
s(S'MYOD1'
p583
S'LEF1'
p584
S'increases'
p585
tp586
(lp587
s(S'ATF3'
p588
S'JUN'
p589
S'increases'
p590
tp591
(lp592
s(S'GRB2:SOS1'
p593
S'ACTIVATED FGFR:P-SHC1'
p594
S'binds'
p595
tp596
(lp597
s(S'MAFG'
p598
S'BACH1'
p599
S'increases'
p600
tp601
(lp602
s(S'POU3F2'
p603
S'POU2F1'
p604
S'increases'
p605
tp606
(lp607
s(S'K 7174'
p608
S'KRAS MRNA'
p609
S'increases'
p610
tp611
(lp612
s(S'POU1F1'
p613
S'RUNX1'
p614
S'increases'
p615
tp616
(lp617
s(S'HRAS protein'
p618
S'CCND1 MRNA'
p619
S'increases'
p620
tp621
(lp622
s(S'YY1'
p623
S'EN1'
p624
S'increases'
p625
tp626
(lp627
s(S'resveratrol'
p628
S'HRAS MRNA'
p629
S'increases'
p630
tp631
(lp632
s(S'NKX2-1'
p633
S'HOXA9'
p634
S'increases'
p635
tp636
(lp637
s(S'HSF1'
p638
S'CYP26A1'
p639
S'increases'
p640
tp641
(lp642
s(S'MYC'
p643
S'HOXA9'
p644
S'increases'
p645
tp646
(lp647
g387
as(S'Raf'
p648
S'MEK'
p649
S'adds_modification'
p650
tp651
(lp652
S'HCC is characterized by the activation of the Raf/MEK/EPK pathway and is a highly angiogenic malignancy.'
p653
aS'Receptor-bound arrestins serve as scaffolds for MAP kinase cascades, bringing together apoptosis signal-regulating kinase 1 (ASK1) and c-Jun N-terminal kinase 3 (JNK3), as well as the kinase c-Raf-1 and extracellular signal-regulated kinase 2 (ERK2), thereby facilitating signaling in the ASK1-Map kinase kinase 4 (MKK4)-JNK3 and c-Raf-1-MAP/ERK kinase 1 (MEK1)-ERK2 pathways ['
p654
aS'Some downstream events following receptor engagement include protein kinase C activation, signaling via the Raf-MEK-ERK and Rac2 pathways, the formation of reactive oxygen radicals by NADPH oxidase (phagocytic oxidase or PHOX) and migration of myeloperoxidase and the protease, neutrophil elastase, from granules.'
p655
as(S'TFDP1'
p656
S'MAZ'
p657
S'increases'
p658
tp659
(lp660
s(S'SPRED1'
p661
S'HRAS'
p662
S'binds'
p663
tp664
(lp665
s(S'MYCN'
p666
S'CYP26A1'
p667
S'increases'
p668
tp669
(lp670
s(S'AHR'
p671
S'FOXD3'
p672
S'increases'
p673
tp674
(lp675
s(S'SF1'
p676
S'CYP26A1'
p677
S'increases'
p678
tp679
(lp680
s(S'MEIS1'
p681
S'ETS1'
p682
S'increases'
p683
tp684
(lp685
s(S'Copper Sulfate'
p686
S'HRAS MRNA'
p687
S'decreases'
p688
tp689
(lp690
s(S'MAZ'
p691
S'MYC'
p692
S'increases'
p693
tp694
(lp695
s(S'E4F1'
p696
S'HOXA9'
p697
S'increases'
p698
tp699
(lp700
s(S'GATA1'
p701
S'GATA6'
p702
S'increases'
p703
tp704
(lp705
s(S'RUNX2'
p706
S'POU2F1'
p707
S'increases'
p708
tp709
(lp710
s(S'CYP26A1'
p711
S'GATA6'
p712
S'increases'
p713
tp714
(lp715
s(S'PAX4'
p716
S'GATA1'
p717
S'increases'
p718
tp719
(lp720
s(S'ELF2'
p721
S'STAT5A'
p722
S'increases'
p723
tp724
(lp725
s(S'CART1'
p726
S'NRAS'
p727
S'increases'
p728
tp729
(lp730
s(S'IGF-1R heterotetramer/IGF1/GRB2/Sos/Shc'
p731
S'HRAS/GDP'
p732
S'increases_activity'
p733
tp734
(lp735
s(S'RB1'
p736
S'CYP26A1'
p737
S'increases'
p738
tp739
(lp740
s(S'CEBPG'
p741
S'HOXA9'
p742
S'increases'
p743
tp744
(lp745
g387
as(S'GRB2/SOS1/SHC'
p746
S'IGF-1R HETEROTETRAMER/IGF1'
p747
S'binds'
p748
tp749
(lp750
s(S'PRRX2'
p751
S'CYP26A1'
p752
S'increases'
p753
tp754
(lp755
s(S'TEAD1'
p756
S'CYP26A1'
p757
S'increases'
p758
tp759
(lp760
s(S'STAT5A'
p761
S'FOXA1'
p762
S'increases'
p763
tp764
(lp765
s(S'ATF2'
p766
S'FOXD3'
p767
S'increases'
p768
tp769
(lp770
s(S'REPIN1'
p771
S'FOXO4'
p772
S'increases'
p773
tp774
(lp775
s(S'FOXF2'
p776
S'ETS1'
p777
S'increases'
p778
tp779
(lp780
s(S'ETV7'
p781
S'MEIS1'
p782
S'increases'
p783
tp784
(lp785
s(S'RUNX2'
p786
S'RUNX1'
p787
S'increases'
p788
tp789
(lp790
S'Although RUNX genes in mammals such as RUNX1 and RUNX2 are known to be haploinsufficient ('
p791
as(S'OR5I1'
p792
S'GATA1'
p793
S'increases'
p794
tp795
(lp796
s(S'MSX1'
p797
S'EN1'
p798
S'increases'
p799
tp800
(lp801
s(S'GTF3A'
p802
S'IRF1'
p803
S'increases'
p804
tp805
(lp806
s(S'POU2F1'
p807
S'SRF'
p808
S'increases'
p809
tp810
(lp811
s(S'PLC-GAMMA'
p812
S'COMPLEX (GADS/SLP-76)'
p813
S'binds'
p814
tp815
(lp816
s(S'STAT4'
p817
S'STAT5A'
p818
S'increases'
p819
tp820
(lp821
S'The JAK family kinases consist of four members JAK1, JAK2, JAK3, and tyrosine kinase 2 (TYK2) in mammals, whereas there are seven STAT family members such as STAT1, STAT2, STAT3, STAT4, STAT5A, STAT5B, and STAT6.'
p822
as(S'JUN'
p823
S'BACH1'
p824
S'increases'
p825
tp826
(lp827
s(S'POU1F1'
p828
S'HOXA9'
p829
S'increases'
p830
tp831
(lp832
s(S'docetaxel'
p833
S'HRAS PROTEIN'
p834
S'increases'
p835
tp836
(lp837
s(S'MAX'
p838
S'LEF1'
p839
S'increases'
p840
tp841
(lp842
s(S'FOXA1'
p843
S'CYP26A1'
p844
S'increases'
p845
tp846
(lp847
s(S'GATA4'
p848
S'FOXD3'
p849
S'increases'
p850
tp851
(lp852
s(S'ZBTB18'
p853
S'RUNX1'
p854
S'increases'
p855
tp856
(lp857
s(S'ATF3'
p858
S'RUNX1'
p859
S'increases'
p860
tp861
(lp862
s(S'NKX2-1'
p863
S'CYP26A1'
p864
S'increases'
p865
tp866
(lp867
s(S'NR3C1'
p868
S'FOXA1'
p869
S'increases'
p870
tp871
(lp872
s(S'RAS family/GTP'
p873
S'RIN1'
p874
S'increases_activity'
p875
tp876
(lp877
s(S'COMPLEX (RAS/GTP/ RAF)'
p878
S'MEK'
p879
S'binds'
p880
tp881
(lp882
s(S'CDC5L'
p883
S'NRAS'
p884
S'increases'
p885
tp886
(lp887
s(S'Vitamin E'
p888
S'NRAS MRNA'
p889
S'decreases'
p890
tp891
(lp892
s(S'NF1'
p893
S'LEF1'
p894
S'increases'
p895
tp896
(lp897
s(S'ETS1'
p898
S'EN1'
p899
S'increases'
p900
tp901
(lp902
s(S'CRAF'
p903
S'YWHAB'
p904
S'binds'
p905
tp906
(lp907
s(S'CEBPD'
p908
S'JUN'
p909
S'increases'
p910
tp911
(lp912
s(S'MAX'
p913
S'RUNX2'
p914
S'increases'
p915
tp916
(lp917
s(S'CEBPA'
p918
S'MECOM'
p919
S'increases'
p920
tp921
(lp922
s(S'PAX2'
p923
S'GATA1'
p924
S'increases'
p925
tp926
(lp927
s(S'CYP26A1'
p928
S'TLX2'
p929
S'increases'
p930
tp931
(lp932
s(S'GFI1'
p933
S'ETS1'
p934
S'increases'
p935
tp936
(lp937
g387
as(S'14-3-3:P-S259,Y340,Y341,S621-RAF1:RAS:GTP'
p938
S'MEK'
p939
S'binds'
p940
tp941
(lp942
s(S'P-S,T-MEK2'
p943
S'ERK2'
p944
S'binds'
p945
tp946
(lp947
s(S'HRAS/GTP'
p948
S'RIN2'
p949
S'increases_activity'
p950
tp951
(lp952
s(S'Ras-GTP'
p953
S'P42/P44MAPKS'
p954
S'adds_modification'
p955
tp956
(lp957
s(S'SRF'
p958
S'CYP26A1'
p959
S'increases'
p960
tp961
(lp962
s(S'FOXL1'
p963
S'RUNX2'
p964
S'increases'
p965
tp966
(lp967
s(S'EGR4'
p968
S'LEF1'
p969
S'increases'
p970
tp971
(lp972
s(S'P-IRS1,2'
p973
S'GRB2:SOS1'
p974
S'binds'
p975
tp976
(lp977
s(S'VEGFR2 (dimer)/VEGFA (dimer)/alphav/beta3 Integrin/Vitronectin'
p978
S'SRC'
p979
S'adds_modification'
p980
tp981
(lp982
s(S'BACH2'
p983
S'BACH1'
p984
S'increases'
p985
tp986
(lp987
s(S'ONECUT1'
p988
S'RUNX1'
p989
S'increases'
p990
tp991
(lp992
s(S'FOXJ2'
p993
S'RUNX2'
p994
S'increases'
p995
tp996
(lp997
s(S'PI-3-4-5-P3'
p998
S'AKT1'
p999
S'translocates'
p1000
tp1001
(lp1002
s(S'TFAP4'
p1003
S'BACH1'
p1004
S'increases'
p1005
tp1006
(lp1007
s(S'MEKK1/4'
p1008
S'MKK3/6'
p1009
S'adds_modification'
p1010
tp1011
(lp1012
s(S'VSX1'
p1013
S'MECOM'
p1014
S'increases'
p1015
tp1016
(lp1017
s(S'IRF1'
p1018
S'GATA6'
p1019
S'increases'
p1020
tp1021
(lp1022
s(S'MAX'
p1023
S'HOXA9'
p1024
S'increases'
p1025
tp1026
(lp1027
s(S'RB1'
p1028
S'MAZ'
p1029
S'increases'
p1030
tp1031
(lp1032
s(S'GATA1'
p1033
S'EN1'
p1034
S'increases'
p1035
tp1036
(lp1037
s(S'HIF1A'
p1038
S'SRF'
p1039
S'increases'
p1040
tp1041
(lp1042
s(S'IRF8'
p1043
S'CYP26A1'
p1044
S'increases'
p1045
tp1046
(lp1047
s(S'MTF1'
p1048
S'CYP26A1'
p1049
S'increases'
p1050
tp1051
(lp1052
s(S'PI-3-4-5-P3'
p1053
S'GAB1'
p1054
S'translocates'
p1055
tp1056
(lp1057
s(S'PI-3-4-5-P3'
p1058
S'AKT1'
p1059
S'adds_modification'
p1060
tp1061
(lp1062
s(S'RXRA'
p1063
S'HOXA9'
p1064
S'increases'
p1065
tp1066
(lp1067
s(S'AKT1'
p1068
S'RAF1'
p1069
S'binds'
p1070
tp1071
(lp1072
s(S'HSF2'
p1073
S'JUN'
p1074
S'increases'
p1075
tp1076
(lp1077
s(S'PAX2'
p1078
S'CYP26A1'
p1079
S'increases'
p1080
tp1081
(lp1082
s(S'ETV7'
p1083
S'CYP26A1'
p1084
S'increases'
p1085
tp1086
(lp1087
s(S'FOXO3'
p1088
S'NRAS'
p1089
S'increases'
p1090
tp1091
(lp1092
s(S'TP53'
p1093
S'REPIN1'
p1094
S'increases'
p1095
tp1096
(lp1097
s(S'STAT6'
p1098
S'CYP26A1'
p1099
S'increases'
p1100
tp1101
(lp1102
s(S'JUN'
p1103
S'NRAS'
p1104
S'increases'
p1105
tp1106
(lp1107
s(S'MYCN'
p1108
S'NRAS'
p1109
S'increases'
p1110
tp1111
(lp1112
s(S'STAT3'
p1113
S'YY1'
p1114
S'increases'
p1115
tp1116
(lp1117
s(S'Methyl Methanesulfonate'
p1118
S'HRAS MRNA'
p1119
S'increases'
p1120
tp1121
(lp1122
s(S'RHOA/GTP'
p1123
S'PKN'
p1124
S'increases_activity'
p1125
tp1126
(lp1127
s(S'NHLH1'
p1128
S'FOXJ2'
p1129
S'increases'
p1130
tp1131
(lp1132
s(S'RAS family/GTP'
p1133
S'BRAF'
p1134
S'adds_modification'
p1135
tp1136
(lp1137
s(S'RELA'
p1138
S'FOXJ2'
p1139
S'increases'
p1140
tp1141
(lp1142
s(S'TCF3'
p1143
S'RUNX1'
p1144
S'increases'
p1145
tp1146
(lp1147
s(S'FOXF2'
p1148
S'FOXO4'
p1149
S'increases'
p1150
tp1151
(lp1152
s(S'ATF4'
p1153
S'FOXD3'
p1154
S'increases'
p1155
tp1156
(lp1157
s(S'HAND1'
p1158
S'MECOM'
p1159
S'increases'
p1160
tp1161
(lp1162
s(S'RHOA/GTP'
p1163
S'P27KIP1'
p1164
S'adds_modification'
p1165
tp1166
(lp1167
s(S'SRF'
p1168
S'NRAS'
p1169
S'increases'
p1170
tp1171
(lp1172
s(S'ESRRA'
p1173
S'POU3F2'
p1174
S'increases'
p1175
tp1176
(lp1177
s(S'BRAF'
p1178
S'MEK1'
p1179
S'adds_modification'
p1180
tp1181
(lp1182
s(S'Cadmium Chloride'
p1183
S'KRAS PROTEIN'
p1184
S'increases'
p1185
tp1186
(lp1187
s(S'PRRX2'
p1188
S'MEIS1'
p1189
S'increases'
p1190
tp1191
(lp1192
s(S'MYC'
p1193
S'NRAS'
p1194
S'increases'
p1195
tp1196
(lp1197
g387
as(S'MAZ'
p1198
S'KRAS'
p1199
S'increases'
p1200
tp1201
(lp1202
s(S'Rho Family GTPase-active'
p1203
S'PI3K'
p1204
S'increases_activity'
p1205
tp1206
(lp1207
s(S'STAT2'
p1208
S'CYP26A1'
p1209
S'increases'
p1210
tp1211
(lp1212
s(S'hsa-let-7a-5p'
p1213
S'KRAS'
p1214
S'decreases'
p1215
tp1216
(lp1217
s(S'POU3F2'
p1218
S'NRAS'
p1219
S'increases'
p1220
tp1221
(lp1222
s(S'SRF'
p1223
S'FOXO4'
p1224
S'increases'
p1225
tp1226
(lp1227
s(S'S1P1/Sphingosine-1-phosphate/PDGF-BB/PDGFRB (dimer)'
p1228
S'SRC FAMILY KINASES'
p1229
S'increases_activity'
p1230
tp1231
(lp1232
s(S'MYC/Max'
p1233
S'ERBB2'
p1234
S'decreases'
p1235
tp1236
(lp1237
s(S'SREBF1'
p1238
S'CBFA2T3'
p1239
S'increases'
p1240
tp1241
(lp1242
s(S'PI3K'
p1243
S'GELSOLIN/PI-3-4-5-P3'
p1244
S'binds'
p1245
tp1246
(lp1247
s(S'NHLH1'
p1248
S'EN1'
p1249
S'increases'
p1250
tp1251
(lp1252
s(S'LMO2'
p1253
S'GATA6'
p1254
S'increases'
p1255
tp1256
(lp1257
s(S'POU1F1'
p1258
S'FOXD3'
p1259
S'increases'
p1260
tp1261
(lp1262
s(S'hsa-miR-148b-3p'
p1263
S'NRAS'
p1264
S'decreases'
p1265
tp1266
(lp1267
s(S'Quercetin'
p1268
S'KRAS PROTEIN'
p1269
S'decreases'
p1270
tp1271
(lp1272
s(S'PAK2'
p1273
S'MEKK1'
p1274
S'adds_modification'
p1275
tp1276
(lp1277
s(S'LMO2'
p1278
S'MAZ'
p1279
S'increases'
p1280
tp1281
(lp1282
s(S'FOXO1'
p1283
S'POU3F2'
p1284
S'increases'
p1285
tp1286
(lp1287
s(S'NKX2-1'
p1288
S'MAZ'
p1289
S'increases'
p1290
tp1291
(lp1292
s(S'GRB2/SOS1'
p1293
S'PDGF-BB/PDGFRB (DIMER)/P52 SHC'
p1294
S'binds'
p1295
tp1296
(lp1297
s(S'PI3K'
p1298
S'CRK/P130 CAS/PAXILLIN'
p1299
S'increases_activity'
p1300
tp1301
(lp1302
s(S'ATF1'
p1303
S'FOXD3'
p1304
S'increases'
p1305
tp1306
(lp1307
s(S'GATA1'
p1308
S'SRF'
p1309
S'increases'
p1310
tp1311
(lp1312
s(S'TFAP2C'
p1313
S'CYP26A1'
p1314
S'increases'
p1315
tp1316
(lp1317
s(S'AHR'
p1318
S'MEIS1'
p1319
S'increases'
p1320
tp1321
(lp1322
s(S'ETS2'
p1323
S'CYP26A1'
p1324
S'increases'
p1325
tp1326
(lp1327
s(S'Estradiol'
p1328
S'NRAS MRNA'
p1329
S'increases'
p1330
tp1331
(lp1332
s(S'E2F1'
p1333
S'HOXA9'
p1334
S'increases'
p1335
tp1336
(lp1337
g387
as(S'PDGF-BB/PDGFRB (DIMER)'
p1338
S'RASGAP'
p1339
S'binds'
p1340
tp1341
(lp1342
s(S'E2F1'
p1343
S'GABPB2'
p1344
S'increases'
p1345
tp1346
(lp1347
s(S'FOXJ1'
p1348
S'POU3F2'
p1349
S'increases'
p1350
tp1351
(lp1352
s(S'VSX1'
p1353
S'CYP26A1'
p1354
S'increases'
p1355
tp1356
(lp1357
s(S'SPI1'
p1358
S'CDC5L'
p1359
S'increases'
p1360
tp1361
(lp1362
s(S'Gi family'
p1363
S'HRAS/GDP'
p1364
S'increases_activity'
p1365
tp1366
(lp1367
s(S'TCF3'
p1368
S'CYP26A1'
p1369
S'increases'
p1370
tp1371
(lp1372
s(S'IGF-1R HETEROTETRAMER/IGF1/IRS1'
p1373
S'GRB2/SOS1'
p1374
S'binds'
p1375
tp1376
(lp1377
s(S'RAS family/GTP'
p1378
S'RALGDS'
p1379
S'translocates'
p1380
tp1381
(lp1382
s(S'PI3K'
p1383
S'RAC1/GDP'
p1384
S'increases_activity'
p1385
tp1386
(lp1387
s(S'Ca2+'
p1388
S'PKC'
p1389
S'increases_activity'
p1390
tp1391
(lp1392
s(S'ZIC1'
p1393
S'CYP26A1'
p1394
S'increases'
p1395
tp1396
(lp1397
s(S'IRF7'
p1398
S'TLX2'
p1399
S'increases'
p1400
tp1401
(lp1402
s(S'SHC/SHIP'
p1403
S'HRAS/GDP'
p1404
S'decreases_activity'
p1405
tp1406
(lp1407
s(S'hsa-let-7a-5p'
p1408
S'HRAS'
p1409
S'decreases'
p1410
tp1411
(lp1412
s(S'GATA4'
p1413
S'MAZ'
p1414
S'increases'
p1415
tp1416
(lp1417
s(S'EN1'
p1418
S'NRAS'
p1419
S'increases'
p1420
tp1421
(lp1422
s(S'PI3K'
p1423
S'BAM32'
p1424
S'adds_modification'
p1425
tp1426
(lp1427
s(S'GABPB1'
p1428
S'CYP26A1'
p1429
S'increases'
p1430
tp1431
(lp1432
s(S'Trifluoroethanol'
p1433
S'HRAS'
p1434
S'increases_activity'
p1435
tp1436
(lp1437
s(S'SOX5'
p1438
S'CYP26A1'
p1439
S'increases'
p1440
tp1441
(lp1442
s(S'GRB2/SOS1'
p1443
S'HGF(DIMER)/MET(DIMER)/P52 SHC'
p1444
S'binds'
p1445
tp1446
(lp1447
s(S'TCF12'
p1448
S'EN1'
p1449
S'increases'
p1450
tp1451
(lp1452
s(S'SOX9'
p1453
S'MEIS1'
p1454
S'increases'
p1455
tp1456
(lp1457
s(S'RB1'
p1458
S'MYC'
p1459
S'increases'
p1460
tp1461
(lp1462
S'Nine downstream regulators (TP53, TP63, TP73, MYC, RBL1, RB1, E2f, SIN3A, and HDAC) are revealed by IPA analysis as the center of the TP53 mechanistic regulation network ('
p1463
as(S'RXRA'
p1464
S'FOXA1'
p1465
S'increases'
p1466
tp1467
(lp1468
s(S'decitabine'
p1469
S'HRAS MRNA'
p1470
S'decreases'
p1471
tp1472
(lp1473
s(S'VSX1'
p1474
S'EN1'
p1475
S'increases'
p1476
tp1477
(lp1478
s(S'FOXL1'
p1479
S'CYP26A1'
p1480
S'increases'
p1481
tp1482
(lp1483
s(S'PAX2'
p1484
S'RUNX1'
p1485
S'increases'
p1486
tp1487
(lp1488
s(S'MEKK1/4'
p1489
S'MKK4/7'
p1490
S'adds_modification'
p1491
tp1492
(lp1493
s(S'HOXA9'
p1494
S'CYP26A1'
p1495
S'increases'
p1496
tp1497
(lp1498
s(S'TRKC'
p1499
S'NT3 (DIMER)'
p1500
S'binds'
p1501
tp1502
(lp1503
s(S'PTF1A'
p1504
S'REPIN1'
p1505
S'increases'
p1506
tp1507
(lp1508
s(S'TGIF'
p1509
S'CYP26A1'
p1510
S'increases'
p1511
tp1512
(lp1513
s(S'MYOD1'
p1514
S'MYC'
p1515
S'increases'
p1516
tp1517
(lp1518
s(S'PKCT'
p1519
S'KRAS ISO2'
p1520
S'adds_modification'
p1521
tp1522
(lp1523
s(S'RAS family/GTP'
p1524
S'BRAF'
p1525
S'increases_activity'
p1526
tp1527
(lp1528
s(S'SPZ1'
p1529
S'CYP26A1'
p1530
S'increases'
p1531
tp1532
(lp1533
s(S'HRAS/GTP'
p1534
S'GALECTIN-1'
p1535
S'binds'
p1536
tp1537
(lp1538
s(S'DBP'
p1539
S'FOXD3'
p1540
S'increases'
p1541
tp1542
(lp1543
s(S'E2F1'
p1544
S'POU2F1'
p1545
S'increases'
p1546
tp1547
(lp1548
s(S'MEIS1'
p1549
S'CYP26A1'
p1550
S'increases'
p1551
tp1552
(lp1553
s(S'YY1'
p1554
S'NRAS'
p1555
S'increases'
p1556
tp1557
(lp1558
g387
as(S'RAS:RAF'
p1559
S'YWHAB'
p1560
S'binds'
p1561
tp1562
(lp1563
s(S'NFE2L2'
p1564
S'CYP26A1'
p1565
S'increases'
p1566
tp1567
(lp1568
s(S'FARNESYL'
p1569
S'KRAS'
p1570
S'increases_activity'
p1571
tp1572
(lp1573
s(S'MTF1'
p1574
S'MECOM'
p1575
S'increases'
p1576
tp1577
(lp1578
s(S'TLX2'
p1579
S'FOXD3'
p1580
S'increases'
p1581
tp1582
(lp1583
s(S'Insulin Receptor/Insulin/SHC/GRB2/Sos1'
p1584
S'HRAS/GDP'
p1585
S'increases_activity'
p1586
tp1587
(lp1588
s(S'MYC'
p1589
S'ELK1'
p1590
S'increases'
p1591
tp1592
(lp1593
s(S'ONECUT1'
p1594
S'POU2F1'
p1595
S'increases'
p1596
tp1597
(lp1598
s(S'Paraquat'
p1599
S'HRAS MRNA'
p1600
S'translocates'
p1601
tp1602
(lp1603
s(S'GRB2/SOS1'
p1604
S'PDGF-BB/PDGFRB (DIMER)/SHP2'
p1605
S'binds'
p1606
tp1607
(lp1608
s(S'ONECUT1'
p1609
S'CYP26A1'
p1610
S'increases'
p1611
tp1612
(lp1613
s(S'MYC'
p1614
S'FOXO3'
p1615
S'increases'
p1616
tp1617
(lp1618
s(S'PAX3'
p1619
S'ELK1'
p1620
S'increases'
p1621
tp1622
(lp1623
s(S'DOK-R'
p1624
S'RASGAP'
p1625
S'binds'
p1626
tp1627
(lp1628
s(S'HOXA4'
p1629
S'HOXA9'
p1630
S'increases'
p1631
tp1632
(lp1633
s(S'MAX'
p1634
S'POU3F2'
p1635
S'increases'
p1636
tp1637
(lp1638
s(S'Estradiol'
p1639
S'KRAS MRNA'
p1640
S'decreases'
p1641
tp1642
(lp1643
s(S'KRAS ISOFORM 4B/GTP'
p1644
S'CAM/CA2+'
p1645
S'binds'
p1646
tp1647
(lp1648
s(S'MAZ'
p1649
S'FOXO4'
p1650
S'increases'
p1651
tp1652
(lp1653
s(S'hsa-miR-181a-5p'
p1654
S'KRAS'
p1655
S'decreases'
p1656
tp1657
(lp1658
s(S'GATA1'
p1659
S'CYP26A1'
p1660
S'increases'
p1661
tp1662
(lp1663
s(S'PGR'
p1664
S'ETS1'
p1665
S'increases'
p1666
tp1667
(lp1668
s(S'GATA1'
p1669
S'POU2F1'
p1670
S'increases'
p1671
tp1672
(lp1673
s(S'BRAF'
p1674
S'MEK1-2'
p1675
S'increases_activity'
p1676
tp1677
(lp1678
s(S'LEF1'
p1679
S'GABPB2'
p1680
S'increases'
p1681
tp1682
(lp1683
s(S'CYP26A1'
p1684
S'MYC'
p1685
S'increases'
p1686
tp1687
(lp1688
s(S'STAT1'
p1689
S'IRF1'
p1690
S'increases'
p1691
tp1692
(lp1693
s(S'SMAD1'
p1694
S'RUNX2'
p1695
S'increases'
p1696
tp1697
(lp1698
s(S'ZEB1'
p1699
S'TLX2'
p1700
S'increases'
p1701
tp1702
(lp1703
s(S'STAT5B'
p1704
S'IRF1'
p1705
S'increases'
p1706
tp1707
(lp1708
s(S'POU6F1'
p1709
S'CYP26A1'
p1710
S'increases'
p1711
tp1712
(lp1713
s(S'Vincristine'
p1714
S'HRAS MRNA'
p1715
S'increases'
p1716
tp1717
(lp1718
s(S'DAG'
p1719
S'RASGRP1'
p1720
S'adds_modification'
p1721
tp1722
(lp1723
s(S'PI3K'
p1724
S'PDK1'
p1725
S'increases_activity'
p1726
tp1727
(lp1728
s(S'ETS2'
p1729
S'PAX4'
p1730
S'increases'
p1731
tp1732
(lp1733
s(S'NR3C1'
p1734
S'ONECUT1'
p1735
S'increases'
p1736
tp1737
(lp1738
s(S'CUX1'
p1739
S'CYP26A1'
p1740
S'increases'
p1741
tp1742
(lp1743
s(S'ZEB1'
p1744
S'GATA1'
p1745
S'increases'
p1746
tp1747
(lp1748
s(S'NRF1'
p1749
S'POU2F1'
p1750
S'increases'
p1751
tp1752
(lp1753
s(S'FOXJ2'
p1754
S'MECOM'
p1755
S'increases'
p1756
tp1757
(lp1758
s(S'MAZ'
p1759
S'MYCN'
p1760
S'increases'
p1761
tp1762
(lp1763
s(S'Hydrogen Peroxide'
p1764
S'HRAS MRNA'
p1765
S'increases'
p1766
tp1767
(lp1768
s(S'RASA1'
p1769
S'P-EPHBS:EFNBS'
p1770
S'binds'
p1771
tp1772
(lp1773
s(S'SPI1'
p1774
S'CEBPG'
p1775
S'increases'
p1776
tp1777
(lp1778
g387
as(S'EGR1'
p1779
S'LEF1'
p1780
S'increases'
p1781
tp1782
(lp1783
s(S'RET51/GFRALPHA1/GDNF'
p1784
S'P62DOK'
p1785
S'binds'
p1786
tp1787
(lp1788
s(S'TFDP2'
p1789
S'CYP26A1'
p1790
S'increases'
p1791
tp1792
(lp1793
s(S'matrine'
p1794
S'NRAS MRNA'
p1795
S'increases'
p1796
tp1797
(lp1798
s(S'Isotretinoin'
p1799
S'KRAS MRNA'
p1800
S'decreases'
p1801
tp1802
(lp1803
s(S'PITX2'
p1804
S'FOXF2'
p1805
S'increases'
p1806
tp1807
(lp1808
s(S'MYOD1'
p1809
S'POU2F1'
p1810
S'increases'
p1811
tp1812
(lp1813
s(S'sodium arsenite'
p1814
S'KRAS PROTEIN'
p1815
S'increases'
p1816
tp1817
(lp1818
s(S'TCF4'
p1819
S'CBFA2T3'
p1820
S'increases'
p1821
tp1822
(lp1823
s(S'CYP26A1'
p1824
S'FOXA1'
p1825
S'increases'
p1826
tp1827
(lp1828
s(S'TP53'
p1829
S'CYP26A1'
p1830
S'increases'
p1831
tp1832
(lp1833
s(S'ATF3'
p1834
S'FOXD3'
p1835
S'increases'
p1836
tp1837
(lp1838
s(S'POU2F1'
p1839
S'NRAS'
p1840
S'increases'
p1841
tp1842
(lp1843
s(S'NRF1'
p1844
S'GABPB2'
p1845
S'increases'
p1846
tp1847
(lp1848
s(S'PAX4'
p1849
S'TLX2'
p1850
S'increases'
p1851
tp1852
(lp1853
s(S'PITX2'
p1854
S'FOXA1'
p1855
S'increases'
p1856
tp1857
(lp1858
s(S'GTF3A'
p1859
S'POU2F1'
p1860
S'increases'
p1861
tp1862
(lp1863
s(S'HLF'
p1864
S'FOXO3'
p1865
S'increases'
p1866
tp1867
(lp1868
s(S'PAX4'
p1869
S'FOXO4'
p1870
S'increases'
p1871
tp1872
(lp1873
s(S'CEBPA'
p1874
S'FOXD3'
p1875
S'increases'
p1876
tp1877
(lp1878
s(S'NFE2'
p1879
S'CYP26A1'
p1880
S'increases'
p1881
tp1882
(lp1883
s(S'MYB'
p1884
S'GABPB2'
p1885
S'increases'
p1886
tp1887
(lp1888
s(S'MYC'
p1889
S'CEBPA'
p1890
S'increases'
p1891
tp1892
(lp1893
g387
as(S'ELK1'
p1894
S'EN1'
p1895
S'increases'
p1896
tp1897
(lp1898
s(S'E2F1'
p1899
S'CDC5L'
p1900
S'increases'
p1901
tp1902
(lp1903
s(S'YWHAZ (DIMER)'
p1904
S'RAF1'
p1905
S'binds'
p1906
tp1907
(lp1908
s(S'ATF6'
p1909
S'CYP26A1'
p1910
S'increases'
p1911
tp1912
(lp1913
s(S'sodium arsenite'
p1914
S'HRAS MRNA'
p1915
S'increases'
p1916
tp1917
(lp1918
s(S'EGR3'
p1919
S'CYP26A1'
p1920
S'increases'
p1921
tp1922
(lp1923
s(S'lead acetate'
p1924
S'HRAS PROTEIN'
p1925
S'increases_activity'
p1926
tp1927
(lp1928
s(S'REPIN1'
p1929
S'MYC'
p1930
S'increases'
p1931
tp1932
(lp1933
s(S'CEBPA'
p1934
S'NRAS'
p1935
S'increases'
p1936
tp1937
(lp1938
g387
as(S'Quercetin'
p1939
S'NRAS MRNA'
p1940
S'decreases'
p1941
tp1942
(lp1943
s(S'14-3-3 E'
p1944
S'TERT'
p1945
S'binds'
p1946
tp1947
(lp1948
s(S'Antigen/IgE/Fc epsilon R1/LYN/SYK'
p1949
S'BTK'
p1950
S'adds_modification'
p1951
tp1952
(lp1953
s(S'HSF2'
p1954
S'CBFA2T3'
p1955
S'increases'
p1956
tp1957
(lp1958
s(S'Fluorouracil'
p1959
S'HRAS MRNA'
p1960
S'increases'
p1961
tp1962
(lp1963
s(S'STAT4'
p1964
S'MECOM'
p1965
S'increases'
p1966
tp1967
(lp1968
s(S'ETS2'
p1969
S'ETS1'
p1970
S'increases'
p1971
tp1972
(lp1973
g387
as(S'CEBPG'
p1974
S'CYP26A1'
p1975
S'increases'
p1976
tp1977
(lp1978
s(S'Complex (PDGF receptor A/PDGF receptor B)'
p1979
S'NCK'
p1980
S'adds_modification'
p1981
tp1982
(lp1983
s(S'Fog1'
p1984
S'MYB'
p1985
S'decreases'
p1986
tp1987
(lp1988
s(S'CREB1'
p1989
S'FOXD3'
p1990
S'increases'
p1991
tp1992
(lp1993
s(S'Numb'
p1994
S'NICS'
p1995
S'translocates'
p1996
tp1997
(lp1998
s(S'STAT6'
p1999
S'STAT5A'
p2000
S'increases'
p2001
tp2002
(lp2003
g822
as(S'RAF1/14-3-3'
p2004
S'BRAF/14-3-3'
p2005
S'binds'
p2006
tp2007
(lp2008
s(S'B-cell antigen/BCR complex/LYN/SYK/BLNK'
p2009
S'SHC/GRB2/SOS1'
p2010
S'increases_activity'
p2011
tp2012
(lp2013
s(S'IRF2'
p2014
S'CYP26A1'
p2015
S'increases'
p2016
tp2017
(lp2018
s(S'GATA6'
p2019
S'CYP26A1'
p2020
S'increases'
p2021
tp2022
(lp2023
s(S'HMGA1'
p2024
S'CYP26A1'
p2025
S'increases'
p2026
tp2027
(lp2028
s(S'MTF1'
p2029
S'FOXO4'
p2030
S'increases'
p2031
tp2032
(lp2033
s(S'STAT1'
p2034
S'GABPB2'
p2035
S'increases'
p2036
tp2037
(lp2038
s(S'manumycin'
p2039
S'HRAS PROTEIN'
p2040
S'decreases'
p2041
tp2042
(lp2043
s(S'STAT5A'
p2044
S'ETS1'
p2045
S'increases'
p2046
tp2047
(lp2048
s(S'SPI1'
p2049
S'CBFA2T3'
p2050
S'increases'
p2051
tp2052
(lp2053
s(S'GMCSF/GMR ALPHA/CSF2RB/JAK2 (DODECAMER)/SHC'
p2054
S'GRB2/SOS1'
p2055
S'binds'
p2056
tp2057
(lp2058
s(S'7,8-Dihydro-7,8-dihydroxybenzo(a)pyrene 9,10-oxide'
p2059
S'NRAS PROTEIN'
p2060
S'increases'
p2061
tp2062
(lp2063
s(S'CDC5L'
p2064
S'CYP26A1'
p2065
S'increases'
p2066
tp2067
(lp2068
s(S'PAX4'
p2069
S'POU3F2'
p2070
S'increases'
p2071
tp2072
(lp2073
s(S'SPRED2'
p2074
S'HRAS'
p2075
S'binds'
p2076
tp2077
(lp2078
s(S'PITX2'
p2079
S'FOXO4'
p2080
S'increases'
p2081
tp2082
(lp2083
s(S'FOXD3'
p2084
S'CYP26A1'
p2085
S'increases'
p2086
tp2087
(lp2088
s(S'NFIL3'
p2089
S'FOXO3'
p2090
S'increases'
p2091
tp2092
(lp2093
s(S'MTF1'
p2094
S'POU2F1'
p2095
S'increases'
p2096
tp2097
(lp2098
s(S'TFCP2'
p2099
S'BACH1'
p2100
S'increases'
p2101
tp2102
(lp2103
s(S'NF1'
p2104
S'MECOM'
p2105
S'increases'
p2106
tp2107
(lp2108
s(S'FOXO3'
p2109
S'FOXD3'
p2110
S'increases'
p2111
tp2112
(lp2113
s(S'STAT5A'
p2114
S'TLX2'
p2115
S'increases'
p2116
tp2117
(lp2118
s(S'RIN1'
p2119
S'HRAS/GTP'
p2120
S'adds_modification'
p2121
tp2122
(lp2123
s(S'STAT5A'
p2124
S'CEBPG'
p2125
S'increases'
p2126
tp2127
(lp2128
s(S'DAG'
p2129
S'PKC'
p2130
S'increases_activity'
p2131
tp2132
(lp2133
S'The PKC activator DAG is mainly produced from phosphatidylinositol 4,5-biphosphate (PIP2) or phosphatidylcholine (PC) through direct cleavage with phosphatidylinositol-specific PLC (PI-PLC) or PC-specific PLC (PC-PLC), respectively.'
p2134
aS'For full activation, conventional and novel PKC require DAG, generated following PIP2 hydrolysis by PLCs.'
p2135
as(S'HNF4A'
p2136
S'FOXA1'
p2137
S'increases'
p2138
tp2139
(lp2140
s(S'LEF1'
p2141
S'MAZ'
p2142
S'increases'
p2143
tp2144
(lp2145
s(S'hsa-miR-124-3p'
p2146
S'NRAS'
p2147
S'decreases'
p2148
tp2149
(lp2150
s(S'RAF1'
p2151
S'14-3-3 E'
p2152
S'binds'
p2153
tp2154
(lp2155
s(S'GATA1'
p2156
S'MYB'
p2157
S'decreases'
p2158
tp2159
(lp2160
s(S'LMO2'
p2161
S'GATA1'
p2162
S'increases'
p2163
tp2164
(lp2165
S'In the BC data set, the GATA2 network contained the hemangioblastic and hematopoeitic genes TAL1, LMO2, FOG/ZFPM1, IGTA2B/CD41/GPIIb, and GATA1.'
p2166
as(S'HRAS/GTP'
p2167
S'RAF1'
p2168
S'increases_activity'
p2169
tp2170
(lp2171
s(S'MYCN'
p2172
S'RUNX2'
p2173
S'increases'
p2174
tp2175
(lp2176
s(S'STAT5B'
p2177
S'CYP26A1'
p2178
S'increases'
p2179
tp2180
(lp2181
s(S'ZIC2'
p2182
S'MYCN'
p2183
S'increases'
p2184
tp2185
(lp2186
s(S'FOXL1'
p2187
S'FOXD3'
p2188
S'increases'
p2189
tp2190
(lp2191
s(S'ZBTB18'
p2192
S'CBFA2T3'
p2193
S'increases'
p2194
tp2195
(lp2196
s(S'HSF1'
p2197
S'IRF1'
p2198
S'increases'
p2199
tp2200
(lp2201
s(S'SPZ1'
p2202
S'MAZ'
p2203
S'increases'
p2204
tp2205
(lp2206
s(S'SRY'
p2207
S'CYP26A1'
p2208
S'increases'
p2209
tp2210
(lp2211
s(S'FOXO4'
p2212
S'HOXA9'
p2213
S'increases'
p2214
tp2215
(lp2216
s(S'IGF-1R heterotetramer/IGF1/IRS1/GRB2/Sos'
p2217
S'HRAS/GDP'
p2218
S'increases_activity'
p2219
tp2220
(lp2221
s(S'hsa-miR-615-3p'
p2222
S'HRAS'
p2223
S'decreases'
p2224
tp2225
(lp2226
s(S'ESRRA'
p2227
S'FOXD3'
p2228
S'increases'
p2229
tp2230
(lp2231
s(S'ELK1'
p2232
S'CYP26A1'
p2233
S'increases'
p2234
tp2235
(lp2236
s(S'Hexane-1,6-Diol'
p2237
S'HRAS'
p2238
S'increases_activity'
p2239
tp2240
(lp2241
s(S'MAZ'
p2242
S'NRAS'
p2243
S'increases'
p2244
tp2245
(lp2246
s(S'MIF'
p2247
S'CYP26A1'
p2248
S'increases'
p2249
tp2250
(lp2251
s(S'AHR'
p2252
S'POU2F1'
p2253
S'increases'
p2254
tp2255
(lp2256
s(S'SMAD3'
p2257
S'CYP26A1'
p2258
S'increases'
p2259
tp2260
(lp2261
s(S'PI-3-4-5-P3'
p2262
S'GELSOLIN'
p2263
S'binds'
p2264
tp2265
(lp2266
s(S'ADP'
p2267
S'P-S724-IRE1 DIMER'
p2268
S'binds'
p2269
tp2270
(lp2271
s(S'testosterone enanthate'
p2272
S'KRAS MRNA'
p2273
S'increases'
p2274
tp2275
(lp2276
s(S'CYP26A1'
p2277
S'ONECUT1'
p2278
S'increases'
p2279
tp2280
(lp2281
s(S'Valproic Acid'
p2282
S'NRAS MRNA'
p2283
S'decreases'
p2284
tp2285
(lp2286
s(S'GTF2A2'
p2287
S'CYP26A1'
p2288
S'increases'
p2289
tp2290
(lp2291
s(S'CEBPA'
p2292
S'FOXO3'
p2293
S'increases'
p2294
tp2295
(lp2296
s(S'GATA3'
p2297
S'POU2F1'
p2298
S'increases'
p2299
tp2300
(lp2301
s(S'PI3K'
p2302
S'RAC1B/GDP'
p2303
S'increases_activity'
p2304
tp2305
(lp2306
s(S'CDC25C'
p2307
S'YWHAB'
p2308
S'binds'
p2309
tp2310
(lp2311
s(S'RAC1/GTP'
p2312
S'PAK1/BETAPIX/PKL/NCK1-2'
p2313
S'increases_activity'
p2314
tp2315
(lp2316
s(S'SMAD1'
p2317
S'CYP26A1'
p2318
S'increases'
p2319
tp2320
(lp2321
s(S'PI3K'
p2322
S'FAK'
p2323
S'adds_modification'
p2324
tp2325
(lp2326
s(S'NRF1'
p2327
S'MAX'
p2328
S'increases'
p2329
tp2330
(lp2331
s(S'FOXI1'
p2332
S'RUNX2'
p2333
S'increases'
p2334
tp2335
(lp2336
s(S'7,8-Dihydro-7,8-dihydroxybenzo(a)pyrene 9,10-oxide'
p2337
S'HRAS MRNA'
p2338
S'increases'
p2339
tp2340
(lp2341
s(S'ETS1'
p2342
S'CBFA2T3'
p2343
S'increases'
p2344
tp2345
(lp2346
s(S'hsa-miR-98-5p'
p2347
S'NRAS'
p2348
S'decreases'
p2349
tp2350
(lp2351
s(S'PHOSPHORYLATED BRF1 (SER92, SER203):MRNA COMPLEX'
p2352
S'YWHAB'
p2353
S'binds'
p2354
tp2355
(lp2356
s(S'LMO2'
p2357
S'CYP26A1'
p2358
S'increases'
p2359
tp2360
(lp2361
s(S'SOS1'
p2362
S'GRB2:PFAK BOUND TO NCAM1:PFYN'
p2363
S'binds'
p2364
tp2365
(lp2366
s(S'GTF3A'
p2367
S'GATA6'
p2368
S'increases'
p2369
tp2370
(lp2371
s(S'ZIC2'
p2372
S'CYP26A1'
p2373
S'increases'
p2374
tp2375
(lp2376
s(S'PAX2'
p2377
S'POU3F2'
p2378
S'increases'
p2379
tp2380
(lp2381
s(S'CEBPD'
p2382
S'FOXO3'
p2383
S'increases'
p2384
tp2385
(lp2386
s(S'NF1'
p2387
S'CYP26A1'
p2388
S'increases'
p2389
tp2390
(lp2391
s(S'BRAF'
p2392
S'MEK2'
p2393
S'adds_modification'
p2394
tp2395
(lp2396
s(S'TFAP4'
p2397
S'RUNX1'
p2398
S'increases'
p2399
tp2400
(lp2401
s(S'FAK'
p2402
S'SOS'
p2403
S'binds'
p2404
tp2405
(lp2406
s(S'EGR1'
p2407
S'RUNX1'
p2408
S'increases'
p2409
tp2410
(lp2411
g387
as(S'TCF4'
p2412
S'FOXO4'
p2413
S'increases'
p2414
tp2415
(lp2416
s(S'MAZ'
p2417
S'CBFA2T3'
p2418
S'increases'
p2419
tp2420
(lp2421
s(S'MEIS1'
p2422
S'HRAS'
p2423
S'increases'
p2424
tp2425
(lp2426
s(S'RELA'
p2427
S'CYP26A1'
p2428
S'increases'
p2429
tp2430
(lp2431
s(S'hsa-miR-877-3p'
p2432
S'NRAS'
p2433
S'decreases'
p2434
tp2435
(lp2436
s(S'MYC'
p2437
S'LEF1'
p2438
S'increases'
p2439
tp2440
(lp2441
s(S'FOXO4'
p2442
S'RUNX1'
p2443
S'increases'
p2444
tp2445
(lp2446
s(S'LEF1'
p2447
S'RUNX1'
p2448
S'increases'
p2449
tp2450
(lp2451
s(S'TFDP2'
p2452
S'GATA1'
p2453
S'increases'
p2454
tp2455
(lp2456
s(S'AHR'
p2457
S'CYP26A1'
p2458
S'increases'
p2459
tp2460
(lp2461
s(S'4-Nitroquinoline-1-oxide'
p2462
S'PTGS2 MRNA'
p2463
S'increases'
p2464
tp2465
(lp2466
s(S'TGIF'
p2467
S'FOXO3'
p2468
S'increases'
p2469
tp2470
(lp2471
s(S'FOXF2'
p2472
S'CEBPA'
p2473
S'increases'
p2474
tp2475
(lp2476
s(S'NFE2L1'
p2477
S'POU2F1'
p2478
S'increases'
p2479
tp2480
(lp2481
s(S'LHX3'
p2482
S'CYP26A1'
p2483
S'increases'
p2484
tp2485
(lp2486
s(S'HMGA1'
p2487
S'MEIS1'
p2488
S'increases'
p2489
tp2490
(lp2491
s(S'POU2F1'
p2492
S'CYP26A1'
p2493
S'increases'
p2494
tp2495
(lp2496
s(S'PRRX2'
p2497
S'HOXA9'
p2498
S'increases'
p2499
tp2500
(lp2501
s(S'ETS2'
p2502
S'CEBPG'
p2503
S'increases'
p2504
tp2505
(lp2506
g387
as(S'hsa-miR-193b-3p'
p2507
S'KRAS'
p2508
S'decreases'
p2509
tp2510
(lp2511
s(S'RREB1'
p2512
S'RUNX1'
p2513
S'increases'
p2514
tp2515
(lp2516
s(S'IL2/IL2R BETA/GAMMA/JAK1/FYN/JAK3'
p2517
S'PI3K'
p2518
S'binds'
p2519
tp2520
(lp2521
s(S'ELK1'
p2522
S'MEIS1'
p2523
S'increases'
p2524
tp2525
(lp2526
s(S'CYP26A1'
p2527
S'HOXA9'
p2528
S'increases'
p2529
tp2530
(lp2531
s(S'SPZ1'
p2532
S'HOXA9'
p2533
S'increases'
p2534
tp2535
(lp2536
s(S'ERK1'
p2537
S'P-S218,222-MEK1'
p2538
S'binds'
p2539
tp2540
(lp2541
s(S'NHLH1'
p2542
S'MYC'
p2543
S'increases'
p2544
tp2545
(lp2546
s(S'Daunorubicin'
p2547
S'NRAS MRNA'
p2548
S'increases'
p2549
tp2550
(lp2551
s(S'HNF1A'
p2552
S'FOXA1'
p2553
S'increases'
p2554
tp2555
(lp2556
s(S'MYC'
p2557
S'ONECUT1'
p2558
S'increases'
p2559
tp2560
(lp2561
s(S'Vanadates'
p2562
S'HRAS PROTEIN'
p2563
S'increases'
p2564
tp2565
(lp2566
s(S'Purine nucleotide'
p2567
S'H+'
p2568
S'translocates'
p2569
tp2570
(lp2571
s(S'NFE2'
p2572
S'BACH1'
p2573
S'increases'
p2574
tp2575
(lp2576
s(S'EGR4'
p2577
S'CYP26A1'
p2578
S'increases'
p2579
tp2580
(lp2581
s(S'NRF1'
p2582
S'ONECUT1'
p2583
S'increases'
p2584
tp2585
(lp2586
s(S'GFI1'
p2587
S'HOXA9'
p2588
S'increases'
p2589
tp2590
(lp2591
g387
as(S'NR1H4'
p2592
S'FOXD3'
p2593
S'increases'
p2594
tp2595
(lp2596
s(S'STAT6'
p2597
S'FOXA1'
p2598
S'increases'
p2599
tp2600
(lp2601
s(S'INSULIN RECEPTOR/INSULI/IRS1/GRB2/SHC'
p2602
S'SOS1'
p2603
S'binds'
p2604
tp2605
(lp2606
s(S'Tetrachlorodibenzodioxin'
p2607
S'KRAS MRNA'
p2608
S'increases'
p2609
tp2610
(lp2611
s(S'TCF3'
p2612
S'MYC'
p2613
S'increases'
p2614
tp2615
(lp2616
s(S'BACH1'
p2617
S'EN1'
p2618
S'increases'
p2619
tp2620
(lp2621
s(S'RFX1'
p2622
S'CYP26A1'
p2623
S'increases'
p2624
tp2625
(lp2626
s(S'ZEB1'
p2627
S'FOXD3'
p2628
S'increases'
p2629
tp2630
(lp2631
s(S'IRF7'
p2632
S'EN1'
p2633
S'increases'
p2634
tp2635
(lp2636
s(S'GAB2/GRB2/SOS1'
p2637
S'IL2/IL2R ALPHA/BETA/GAMMA/JAK1/LCK/JAK3/SHC'
p2638
S'binds'
p2639
tp2640
(lp2641
s(S'GATA3'
p2642
S'FOXA1'
p2643
S'increases'
p2644
tp2645
(lp2646
S'Primary antibodies were directed toward FOXA1 (NBP1-49791, rabbit polyclonal, Novus Biologicals, Littleton, CO, USA), GATA3 (HG3-35, mouse monoclonal, Santa Cruz Biotechnology, Dallas, TX, USA), and ER (SP1, rabbit monoclonal, Abcam, Cambridge, MA, USA).'
p2647
aS'plots FOXA1 and GATA3 IHC scores in relation to patient-matched ER scores. '
p2648
as(S'TFAP4'
p2649
S'CYP26A1'
p2650
S'increases'
p2651
tp2652
(lp2653
s(S'FOXF2'
p2654
S'MECOM'
p2655
S'increases'
p2656
tp2657
(lp2658
s(S'NF1'
p2659
S'POU2F1'
p2660
S'increases'
p2661
tp2662
(lp2663
s(S'IRF1'
p2664
S'FOXA1'
p2665
S'increases'
p2666
tp2667
(lp2668
s(S'Rho Family GTPase-active'
p2669
S'PIP5K1A'
p2670
S'increases_activity'
p2671
tp2672
(lp2673
s(S'POU6F1'
p2674
S'EN1'
p2675
S'increases'
p2676
tp2677
(lp2678
s(S'TCF4'
p2679
S'LEF1'
p2680
S'increases'
p2681
tp2682
(lp2683
s(S'MAZ'
p2684
S'FOXO3'
p2685
S'increases'
p2686
tp2687
(lp2688
s(S'POU3F2'
p2689
S'MECOM'
p2690
S'increases'
p2691
tp2692
(lp2693
s(S'GTF3A'
p2694
S'CYP26A1'
p2695
S'increases'
p2696
tp2697
(lp2698
s(S'PI-3-4-5-P3'
p2699
S'AKT2'
p2700
S'adds_modification'
p2701
tp2702
(lp2703
s(S'VSX1'
p2704
S'POU2F1'
p2705
S'increases'
p2706
tp2707
(lp2708
s(S'PHOSPHORYLATED TTP:MRNA COMPLEX'
p2709
S'YWHAB'
p2710
S'binds'
p2711
tp2712
(lp2713
s(S'MEIS1'
p2714
S'MYC'
p2715
S'increases'
p2716
tp2717
(lp2718
s(S'Complex (PDGF receptor A/PDGF receptor B)'
p2719
S'RASGAP'
p2720
S'adds_modification'
p2721
tp2722
(lp2723
s(S'RORA'
p2724
S'CYP26A1'
p2725
S'increases'
p2726
tp2727
(lp2728
s(S'ATF4'
p2729
S'CDC5L'
p2730
S'increases'
p2731
tp2732
(lp2733
s(S'SHC/RasGAP'
p2734
S'RAS FAMILY/GTP'
p2735
S'increases_activity'
p2736
tp2737
(lp2738
s(S'NKX2-1'
p2739
S'MYC'
p2740
S'increases'
p2741
tp2742
(lp2743
s(S'NF1'
p2744
S'SRF'
p2745
S'increases'
p2746
tp2747
(lp2748
S'The TRGMs ModuleMiner contructed contain PWMs for SRF, MEF2, Myf and MyoD (muscle), HNF1, HNF3, HNF4 and CEBP (liver), and STAT (ORegAnno Stat1), even though we used all CNSs in the 10 kb upstream region.'
p2749
as(S'STAT4'
p2750
S'NRAS'
p2751
S'increases'
p2752
tp2753
(lp2754
s(S'POU6F1'
p2755
S'MEIS1'
p2756
S'increases'
p2757
tp2758
(lp2759
s(S'P-KIT COMPLEX'
p2760
S'GRB2:SOS1'
p2761
S'binds'
p2762
tp2763
(lp2764
s(S'MYCN'
p2765
S'MAX'
p2766
S'increases'
p2767
tp2768
(lp2769
s(S'STAT5A'
p2770
S'CYP26A1'
p2771
S'increases'
p2772
tp2773
(lp2774
s(S'GATA3'
p2775
S'EN1'
p2776
S'increases'
p2777
tp2778
(lp2779
s(S'E4F1'
p2780
S'FOXD3'
p2781
S'increases'
p2782
tp2783
(lp2784
s(S'MYB'
p2785
S'ONECUT1'
p2786
S'increases'
p2787
tp2788
(lp2789
s(S'Cadmium Chloride'
p2790
S'NRAS PROTEIN'
p2791
S'increases'
p2792
tp2793
(lp2794
s(S'Deoxycholic Acid'
p2795
S'HRAS PROTEIN'
p2796
S'increases_activity'
p2797
tp2798
(lp2799
s(S'HLF'
p2800
S'CYP26A1'
p2801
S'increases'
p2802
tp2803
(lp2804
s(S'GMCSF/GMR ALPHA/CSF2RB/JAK2 (DIMER)'
p2805
S'YWHAZ'
p2806
S'binds'
p2807
tp2808
(lp2809
s(S'HNF1A'
p2810
S'FOXF2'
p2811
S'increases'
p2812
tp2813
(lp2814
s(S'FOXF2'
p2815
S'GATA6'
p2816
S'increases'
p2817
tp2818
(lp2819
s(S'Arsenic'
p2820
S'GSS PROTEIN'
p2821
S'increases'
p2822
tp2823
(lp2824
s(S'COMPLEX (SOS/GRB2)'
p2825
S'FGFR1-4'
p2826
S'binds'
p2827
tp2828
(lp2829
s(S'MYOD1'
p2830
S'NRAS'
p2831
S'increases'
p2832
tp2833
(lp2834
s(S'MECOM'
p2835
S'CYP26A1'
p2836
S'increases'
p2837
tp2838
(lp2839
s(S'PBX1'
p2840
S'CYP26A1'
p2841
S'increases'
p2842
tp2843
(lp2844
s(S'MAZ'
p2845
S'MEIS1'
p2846
S'increases'
p2847
tp2848
(lp2849
s(S'PAX4'
p2850
S'ELK1'
p2851
S'increases'
p2852
tp2853
(lp2854
s(S'ESRRA'
p2855
S'MECOM'
p2856
S'increases'
p2857
tp2858
(lp2859
s(S'CEBPD'
p2860
S'TLX2'
p2861
S'increases'
p2862
tp2863
(lp2864
s(S'CRX'
p2865
S'FOXA1'
p2866
S'increases'
p2867
tp2868
(lp2869
s(S'GABPB1'
p2870
S'NRAS'
p2871
S'increases'
p2872
tp2873
(lp2874
s(S'CRX'
p2875
S'MEIS1'
p2876
S'increases'
p2877
tp2878
(lp2879
s(S'pirinixic acid/PPARA protein'
p2880
S'KRAS MRNA'
p2881
S'increases'
p2882
tp2883
(lp2884
s(S'BACH2'
p2885
S'FOXA1'
p2886
S'increases'
p2887
tp2888
(lp2889
s(S'JUN'
p2890
S'MECOM'
p2891
S'increases'
p2892
tp2893
(lp2894
s(S'7,8-Dihydro-7,8-dihydroxybenzo(a)pyrene 9,10-oxide'
p2895
S'KRAS MRNA'
p2896
S'decreases'
p2897
tp2898
(lp2899
s(S'SRY'
p2900
S'FOXO4'
p2901
S'increases'
p2902
tp2903
(lp2904
s(S'PI3K'
p2905
S'AKT1'
p2906
S'adds_modification'
p2907
tp2908
(lp2909
s(S'GATA3'
p2910
S'CYP26A1'
p2911
S'increases'
p2912
tp2913
(lp2914
s(S'RAS:GTP'
p2915
S'P-EPHBS:EFNBS:RASA1'
p2916
S'binds'
p2917
tp2918
(lp2919
s(S'STAT5A'
p2920
S'MECOM'
p2921
S'increases'
p2922
tp2923
(lp2924
s(S'RAS family/GTP'
p2925
S'RAF1'
p2926
S'increases_activity'
p2927
tp2928
(lp2929
s(S'RHOA/GTP'
p2930
S'PLD1-2'
p2931
S'increases_activity'
p2932
tp2933
(lp2934
s(S'FOXJ2'
p2935
S'CYP26A1'
p2936
S'increases'
p2937
tp2938
(lp2939
s(S'LEF1'
p2940
S'MECOM'
p2941
S'increases'
p2942
tp2943
(lp2944
s(S'GABPB2'
p2945
S'CDC5L'
p2946
S'increases'
p2947
tp2948
(lp2949
s(S'ESRRA'
p2950
S'CYP26A1'
p2951
S'increases'
p2952
tp2953
(lp2954
s(S'PI-3-4-5-P3'
p2955
S'WAVE2/NAP1/SRA1/ABI1/HSPC300'
p2956
S'translocates'
p2957
tp2958
(lp2959
s(S'CUX1'
p2960
S'MECOM'
p2961
S'increases'
p2962
tp2963
(lp2964
s(S'MAX'
p2965
S'CYP26A1'
p2966
S'increases'
p2967
tp2968
(lp2969
s(S'RXRB'
p2970
S'FOXD3'
p2971
S'increases'
p2972
tp2973
(lp2974
s(S'IRF1'
p2975
S'NRAS'
p2976
S'increases'
p2977
tp2978
(lp2979
s(S'MECOM'
p2980
S'MAX'
p2981
S'increases'
p2982
tp2983
(lp2984
s(S'PAX6'
p2985
S'CYP26A1'
p2986
S'increases'
p2987
tp2988
(lp2989
s(S'GRB2/SOS1'
p2990
S'EGFR/EGFR/EGF/EGF/P46 SHC'
p2991
S'binds'
p2992
tp2993
(lp2994
s(S'POU6F1'
p2995
S'POU2F1'
p2996
S'increases'
p2997
tp2998
(lp2999
s(S'RUNX1'
p3000
S'MYOD1'
p3001
S'increases'
p3002
tp3003
(lp3004
s(S'COMPLEX (GRB2/SOS)'
p3005
S'EGFR'
p3006
S'binds'
p3007
tp3008
(lp3009
s(S'MAZ'
p3010
S'MECOM'
p3011
S'increases'
p3012
tp3013
(lp3014
s(S'REPIN1'
p3015
S'EN1'
p3016
S'increases'
p3017
tp3018
(lp3019
s(S'RAS family/GTP'
p3020
S'RAF1'
p3021
S'adds_modification'
p3022
tp3023
(lp3024
s(S'E4F1'
p3025
S'CYP26A1'
p3026
S'increases'
p3027
tp3028
(lp3029
s(S'Rac'
p3030
S'MEKK1-5'
p3031
S'adds_modification'
p3032
tp3033
(lp3034
s(S'HAND1'
p3035
S'CYP26A1'
p3036
S'increases'
p3037
tp3038
(lp3039
s(S'Quercetin'
p3040
S'NRAS PROTEIN'
p3041
S'decreases'
p3042
tp3043
(lp3044
s(S'HRAS:GTP'
p3045
S'CRAF'
p3046
S'binds'
p3047
tp3048
(lp3049
s(S'REPIN1'
p3050
S'FOXA1'
p3051
S'increases'
p3052
tp3053
(lp3054
s(S'hsa-miR-155-5p'
p3055
S'KRAS'
p3056
S'decreases'
p3057
tp3058
(lp3059
s(S'PAX4'
p3060
S'EN1'
p3061
S'increases'
p3062
tp3063
(lp3064
s(S'FOXN1'
p3065
S'JUN'
p3066
S'increases'
p3067
tp3068
(lp3069
s(S'TFCP2'
p3070
S'GATA1'
p3071
S'increases'
p3072
tp3073
(lp3074
s(S'SHC'
p3075
S'GRAP2'
p3076
S'binds'
p3077
tp3078
(lp3079
s(S'CEBPG'
p3080
S'NRAS'
p3081
S'increases'
p3082
tp3083
(lp3084
g387
as(S'FOXN1'
p3085
S'FOXO4'
p3086
S'increases'
p3087
tp3088
(lp3089
s(S'IL2/IL2R ALPHA/BETA/GAMMA/JAK1/LCK/JAK3/IRS1-2'
p3090
S'PI3K'
p3091
S'binds'
p3092
tp3093
(lp3094
s(S'POU1F1'
p3095
S'EN1'
p3096
S'increases'
p3097
tp3098
(lp3099
s(S'FOXJ1'
p3100
S'POU2F1'
p3101
S'increases'
p3102
tp3103
(lp3104
s(S'YY1'
p3105
S'POU2F1'
p3106
S'increases'
p3107
tp3108
(lp3109
s(S'7,8-Dihydro-7,8-dihydroxybenzo(a)pyrene 9,10-oxide'
p3110
S'NRAS MRNA'
p3111
S'increases'
p3112
tp3113
(lp3114
s(S'EGF/EGFR'
p3115
S'HRAS/GDP'
p3116
S'increases_activity'
p3117
tp3118
(lp3119
s(S'TFAP4'
p3120
S'GABPB2'
p3121
S'increases'
p3122
tp3123
(lp3124
s(S'TFAP2A'
p3125
S'POU3F2'
p3126
S'increases'
p3127
tp3128
(lp3129
s(S'TCF12'
p3130
S'CBFA2T3'
p3131
S'increases'
p3132
tp3133
(lp3134
s(S'STAT3'
p3135
S'IRF1'
p3136
S'increases'
p3137
tp3138
(lp3139
S'An example of this exists in our network - STAT3 protein (proliferation-inhibitor) inhibits the transcription of IRF1 mRNA (proliferation-promoter) ['
p3140
as(S'MYOD1'
p3141
S'GATA1'
p3142
S'increases'
p3143
tp3144
(lp3145
s(S'REPIN1'
p3146
S'HRAS'
p3147
S'increases'
p3148
tp3149
(lp3150
s(S'PAX4'
p3151
S'MAX'
p3152
S'increases'
p3153
tp3154
(lp3155
s(S'PAX2'
p3156
S'FOXA1'
p3157
S'increases'
p3158
tp3159
(lp3160
s(S'Lipopolysaccharides'
p3161
S'HRAS PROTEIN'
p3162
S'increases_activity'
p3163
tp3164
(lp3165
s(S'7,8-Dihydro-7,8-dihydroxybenzo(a)pyrene 9,10-oxide'
p3166
S'KRAS MRNA'
p3167
S'increases'
p3168
tp3169
(lp3170
s(S'REPIN1'
p3171
S'GATA1'
p3172
S'increases'
p3173
tp3174
(lp3175
s(S'Formaldehyde'
p3176
S'HRAS MRNA'
p3177
S'increases'
p3178
tp3179
(lp3180
s(S'ESRRA'
p3181
S'STAT5A'
p3182
S'increases'
p3183
tp3184
(lp3185
s(S'farnesylthiosalicylic acid'
p3186
S'HRAS PROTEIN'
p3187
S'decreases'
p3188
tp3189
(lp3190
s(S'JUN'
p3191
S'RUNX1'
p3192
S'increases'
p3193
tp3194
(lp3195
s(S'FOXD3'
p3196
S'RUNX1'
p3197
S'increases'
p3198
tp3199
(lp3200
s(S'SOX9'
p3201
S'CYP26A1'
p3202
S'increases'
p3203
tp3204
(lp3205
s(S'hexabromocyclododecane'
p3206
S'HRAS MRNA'
p3207
S'increases'
p3208
tp3209
(lp3210
s(S'RUNX2'
p3211
S'KRAS'
p3212
S'increases'
p3213
tp3214
(lp3215
s(S'PGR'
p3216
S'CYP26A1'
p3217
S'increases'
p3218
tp3219
(lp3220
s(S'CYP26A1'
p3221
S'MAZ'
p3222
S'increases'
p3223
tp3224
(lp3225
s(S'RAC1/GTP'
p3226
S'AKT1'
p3227
S'adds_modification'
p3228
tp3229
(lp3230
s(S'FOXO3'
p3231
S'CYP26A1'
p3232
S'increases'
p3233
tp3234
(lp3235
s(S'MAX'
p3236
S'SRF'
p3237
S'increases'
p3238
tp3239
(lp3240
s(S'RUNX2'
p3241
S'NRAS'
p3242
S'increases'
p3243
tp3244
(lp3245
s(S'HSF2'
p3246
S'CYP26A1'
p3247
S'increases'
p3248
tp3249
(lp3250
s(S'IL2/IL2R ALPHA/BETA/GAMMA/JAK1/LCK/JAK3/SHC/GRB2/SOS1/GAB2/SHP2'
p3251
S'PI3K'
p3252
S'binds'
p3253
tp3254
(lp3255
s(S'SPI1'
p3256
S'STAT5A'
p3257
S'increases'
p3258
tp3259
(lp3260
s(S'ZHX2'
p3261
S'MYC'
p3262
S'increases'
p3263
tp3264
(lp3265
s(S'RAF1-BRAF'
p3266
S'MEK1-2'
p3267
S'increases_activity'
p3268
tp3269
(lp3270
s(S'SHC'
p3271
S'GRB2'
p3272
S'binds'
p3273
tp3274
(lp3275
s(S'RB1'
p3276
S'GATA1'
p3277
S'increases'
p3278
tp3279
(lp3280
s(S'TCF3'
p3281
S'FOXJ2'
p3282
S'increases'
p3283
tp3284
(lp3285
s(S'FOXJ2'
p3286
S'NRAS'
p3287
S'increases'
p3288
tp3289
(lp3290
s(S'REPIN1'
p3291
S'LEF1'
p3292
S'increases'
p3293
tp3294
(lp3295
s(S'Aflatoxin B1'
p3296
S'HRAS MRNA'
p3297
S'increases'
p3298
tp3299
(lp3300
s(S'PAX4'
p3301
S'MEIS1'
p3302
S'increases'
p3303
tp3304
(lp3305
s(S'FOXF2'
p3306
S'FOXD3'
p3307
S'increases'
p3308
tp3309
(lp3310
s(S'CBFA2T3'
p3311
S'RUNX1'
p3312
S'increases'
p3313
tp3314
(lp3315
s(S'FOXC1'
p3316
S'HOXA9'
p3317
S'increases'
p3318
tp3319
(lp3320
s(S'DBP'
p3321
S'CYP26A1'
p3322
S'increases'
p3323
tp3324
(lp3325
s(S'TGIF'
p3326
S'EN1'
p3327
S'increases'
p3328
tp3329
(lp3330
s(S'PI-3-4-5-P3'
p3331
S'P62DOK'
p3332
S'adds_modification'
p3333
tp3334
(lp3335
s(S'JUN'
p3336
S'TLX2'
p3337
S'increases'
p3338
tp3339
(lp3340
s(S'Benzo(a)pyrene'
p3341
S'HRAS MRNA'
p3342
S'increases'
p3343
tp3344
(lp3345
s(S'STAT4'
p3346
S'CYP26A1'
p3347
S'increases'
p3348
tp3349
(lp3350
s(S'EGFR/EGFR/EGF/EGF'
p3351
S'SRC'
p3352
S'adds_modification'
p3353
tp3354
(lp3355
s(S'FOXQ1'
p3356
S'FOXD3'
p3357
S'increases'
p3358
tp3359
(lp3360
s(S'FOXJ1'
p3361
S'NRAS'
p3362
S'increases'
p3363
tp3364
(lp3365
s(S'TCF3'
p3366
S'POU2F1'
p3367
S'increases'
p3368
tp3369
(lp3370
s(S'MYB'
p3371
S'CYP26A1'
p3372
S'increases'
p3373
tp3374
(lp3375
s(S'GATA4'
p3376
S'CYP26A1'
p3377
S'increases'
p3378
tp3379
(lp3380
s(S'ELK1'
p3381
S'STAT4'
p3382
S'increases'
p3383
tp3384
(lp3385
s(S'CYP26A1'
p3386
S'LEF1'
p3387
S'increases'
p3388
tp3389
(lp3390
s(S"Guanosine-5'-Diphosphate"
p3391
S'HRAS'
p3392
S'increases_activity'
p3393
tp3394
(lp3395
s(S'ETV4'
p3396
S'CYP26A1'
p3397
S'increases'
p3398
tp3399
(lp3400
s(S'EPHRIN B/EPHB2'
p3401
S'RASGAP'
p3402
S'binds'
p3403
tp3404
(lp3405
s(S'ESR1'
p3406
S'FOXF2'
p3407
S'increases'
p3408
tp3409
(lp3410
s(S'CDC5L'
p3411
S'FOXA1'
p3412
S'increases'
p3413
tp3414
(lp3415
s(S'MAZ'
p3416
S'HOXA9'
p3417
S'increases'
p3418
tp3419
(lp3420
s(S'HIF1A'
p3421
S'MAX'
p3422
S'increases'
p3423
tp3424
(lp3425
s(S'FOXN1'
p3426
S'HOXA9'
p3427
S'increases'
p3428
tp3429
(lp3430
s(S'LEF1'
p3431
S'BACH1'
p3432
S'increases'
p3433
tp3434
(lp3435
s(S'PDX1'
p3436
S'FOXO3'
p3437
S'increases'
p3438
tp3439
(lp3440
s(S'CBFA2T3'
p3441
S'CYP26A1'
p3442
S'increases'
p3443
tp3444
(lp3445
s(S'Rabex5'
p3446
S'HRAS/GTP'
p3447
S'adds_modification'
p3448
tp3449
(lp3450
s(S'CBFA2T3'
p3451
S'RUNX2'
p3452
S'increases'
p3453
tp3454
(lp3455
s(S'PI-3-4-5-P3'
p3456
S'ARAP3'
p3457
S'translocates'
p3458
tp3459
(lp3460
s(S'CART1'
p3461
S'CYP26A1'
p3462
S'increases'
p3463
tp3464
(lp3465
s(S'Arsenic'
p3466
S'NRAS MRNA'
p3467
S'increases'
p3468
tp3469
(lp3470
s(S'NRF1'
p3471
S'CDC5L'
p3472
S'increases'
p3473
tp3474
(lp3475
s(S'Quercetin'
p3476
S'HRAS PROTEIN'
p3477
S'decreases'
p3478
tp3479
(lp3480
s(S"N,N'-DIMETHYL-N-(ACETYL)-N'-(7-NITROBENZ-2-OXA-1,3-DIAZOL-4-YL)ETHYLENEDIAMINE"
p3481
S'HRAS'
p3482
S'increases_activity'
p3483
tp3484
(lp3485
s(S'TFDP1'
p3486
S'FOXD3'
p3487
S'increases'
p3488
tp3489
(lp3490
s(S'AR'
p3491
S'TLX2'
p3492
S'increases'
p3493
tp3494
(lp3495
s(S'hsa-miR-181c-5p'
p3496
S'KRAS'
p3497
S'decreases'
p3498
tp3499
(lp3500
s(S'SMAD3'
p3501
S'CBFA2T3'
p3502
S'increases'
p3503
tp3504
(lp3505
s(S'HOXA9'
p3506
S'NRAS'
p3507
S'increases'
p3508
tp3509
(lp3510
g387
as(S'PITX2'
p3511
S'CYP26A1'
p3512
S'increases'
p3513
tp3514
(lp3515
s(S'ATF3'
p3516
S'CYP26A1'
p3517
S'increases'
p3518
tp3519
(lp3520
s(S'E2F1'
p3521
S'MAZ'
p3522
S'increases'
p3523
tp3524
(lp3525
s(S'Ethyl Methanesulfonate'
p3526
S'HRAS MRNA'
p3527
S'increases'
p3528
tp3529
(lp3530
s(S'LMO2'
p3531
S'FOXA1'
p3532
S'increases'
p3533
tp3534
(lp3535
s(S'FOXC1'
p3536
S'POU2F1'
p3537
S'increases'
p3538
tp3539
(lp3540
s(S'DDIT3'
p3541
S'CYP26A1'
p3542
S'increases'
p3543
tp3544
(lp3545
s(S'PAX8'
p3546
S'CYP26A1'
p3547
S'increases'
p3548
tp3549
(lp3550
s(S'LHX3'
p3551
S'EN1'
p3552
S'increases'
p3553
tp3554
(lp3555
s(S'KAT2B'
p3556
S'CYP26A1'
p3557
S'increases'
p3558
tp3559
(lp3560
s(S'P100'
p3561
S'MYB'
p3562
S'binds'
p3563
tp3564
(lp3565
s(S'SOX9'
p3566
S'FOXA1'
p3567
S'increases'
p3568
tp3569
(lp3570
s(S'HIF1A'
p3571
S'EN1'
p3572
S'increases'
p3573
tp3574
(lp3575
s(S'REPIN1'
p3576
S'RUNX1'
p3577
S'increases'
p3578
tp3579
(lp3580
s(S'MYOD1'
p3581
S'BACH1'
p3582
S'increases'
p3583
tp3584
(lp3585
s(S'EBF2'
p3586
S'REPIN1'
p3587
S'increases'
p3588
tp3589
(lp3590
s(S'bisphenol A'
p3591
S'HRAS MRNA'
p3592
S'increases'
p3593
tp3594
(lp3595
s(S'E2F1'
p3596
S'EN1'
p3597
S'increases'
p3598
tp3599
(lp3600
s(S'MYC/Max/MIZ-1'
p3601
S'GALECTIN-1'
p3602
S'decreases'
p3603
tp3604
(lp3605
s(S'PI-3-4-5-P3'
p3606
S'WAVE2/NAP1/SRA1/ABI1/HSPC300'
p3607
S'adds_modification'
p3608
tp3609
(lp3610
s(S'FOXF2'
p3611
S'FOXO3'
p3612
S'increases'
p3613
tp3614
(lp3615
s(S'REPIN1'
p3616
S'STAT5A'
p3617
S'increases'
p3618
tp3619
(lp3620
s(S'RUNX1'
p3621
S'NRAS'
p3622
S'increases'
p3623
tp3624
(lp3625
g387
as(S'benzo(a)pyrene 7,8-dihydrodiol'
p3626
S'HRAS MRNA'
p3627
S'increases'
p3628
tp3629
(lp3630
s(S'RAC1/GTP'
p3631
S'PAK1 (DIMER)'
p3632
S'adds_modification'
p3633
tp3634
(lp3635
s(S'PAX4'
p3636
S'POU2F1'
p3637
S'increases'
p3638
tp3639
(lp3640
s(S'MYOD1'
p3641
S'CBFA2T3'
p3642
S'increases'
p3643
tp3644
(lp3645
s(S'STAT5A'
p3646
S'RUNX2'
p3647
S'increases'
p3648
tp3649
(lp3650
s(S'EBF2'
p3651
S'FOXJ2'
p3652
S'increases'
p3653
tp3654
(lp3655
s(S'Estradiol'
p3656
S'KRAS MRNA'
p3657
S'increases'
p3658
tp3659
(lp3660
s(S'RXRB'
p3661
S'CYP26A1'
p3662
S'increases'
p3663
tp3664
(lp3665
s(S'bisphenol A'
p3666
S'KRAS MRNA'
p3667
S'decreases'
p3668
tp3669
(lp3670
s(S'COMPLEX (GRB2/SOS)'
p3671
S'FGFR1-4'
p3672
S'binds'
p3673
tp3674
(lp3675
s(S'POU2F1'
p3676
S'RUNX1'
p3677
S'increases'
p3678
tp3679
(lp3680
s(S'TCF3'
p3681
S'TLX2'
p3682
S'increases'
p3683
tp3684
(lp3685
s(S'SPZ1'
p3686
S'POU2F1'
p3687
S'increases'
p3688
tp3689
(lp3690
s(S'TFAP4'
p3691
S'FOXO4'
p3692
S'increases'
p3693
tp3694
(lp3695
s(S'OR5I1'
p3696
S'MECOM'
p3697
S'increases'
p3698
tp3699
(lp3700
s(S'Rho Family GTPase-active'
p3701
S'JNK1'
p3702
S'adds_modification'
p3703
tp3704
(lp3705
s(S'TFDP1'
p3706
S'POU2F1'
p3707
S'increases'
p3708
tp3709
(lp3710
s(S'AHR'
p3711
S'MAX'
p3712
S'increases'
p3713
tp3714
(lp3715
s(S'BACH1'
p3716
S'CYP26A1'
p3717
S'increases'
p3718
tp3719
(lp3720
s(S'ZBTB14'
p3721
S'MAZ'
p3722
S'increases'
p3723
tp3724
(lp3725
s(S'TCF3'
p3726
S'FOXO4'
p3727
S'increases'
p3728
tp3729
(lp3730
s(S'MASTERMIND'
p3731
S'NICS'
p3732
S'binds'
p3733
tp3734
(lp3735
s(S'BPTF'
p3736
S'FOXO4'
p3737
S'increases'
p3738
tp3739
(lp3740
s(S'MYOD1'
p3741
S'RUNX1'
p3742
S'increases'
p3743
tp3744
(lp3745
s(S'JUN'
p3746
S'CYP26A1'
p3747
S'increases'
p3748
tp3749
(lp3750
s(S'BPTF'
p3751
S'CYP26A1'
p3752
S'increases'
p3753
tp3754
(lp3755
s(S'POU3F1'
p3756
S'CYP26A1'
p3757
S'increases'
p3758
tp3759
(lp3760
s(S'NRF1'
p3761
S'CYP26A1'
p3762
S'increases'
p3763
tp3764
(lp3765
s(S'TFAP2C'
p3766
S'POU3F2'
p3767
S'increases'
p3768
tp3769
(lp3770
s(S'NFAT1-C-4-INACTIVE2'
p3771
S'YWHAQ'
p3772
S'binds'
p3773
tp3774
(lp3775
s(S'STAT6'
p3776
S'ONECUT1'
p3777
S'increases'
p3778
tp3779
(lp3780
s(S'RUNX1'
p3781
S'RUNX2'
p3782
S'increases'
p3783
tp3784
(lp3785
g791
as(S'ZIC3'
p3786
S'MYCN'
p3787
S'increases'
p3788
tp3789
(lp3790
s(S'CYP26A1'
p3791
S'MAX'
p3792
S'increases'
p3793
tp3794
(lp3795
s(S'ETS2'
p3796
S'FOXO4'
p3797
S'increases'
p3798
tp3799
(lp3800
s(S'GATA6'
p3801
S'FOXA1'
p3802
S'increases'
p3803
tp3804
(lp3805
s(S'Doxorubicin'
p3806
S'HRAS MRNA'
p3807
S'increases'
p3808
tp3809
(lp3810
s(S'PPARA'
p3811
S'HOXA9'
p3812
S'increases'
p3813
tp3814
(lp3815
s(S'REPIN1'
p3816
S'GABPB2'
p3817
S'increases'
p3818
tp3819
(lp3820
s(S'FOXN1'
p3821
S'FOXA1'
p3822
S'increases'
p3823
tp3824
(lp3825
s(S'Dronabinol'
p3826
S'KRAS MRNA'
p3827
S'increases'
p3828
tp3829
(lp3830
s(S'FOXO1'
p3831
S'RUNX1'
p3832
S'increases'
p3833
tp3834
(lp3835
s(S'SMAD4'
p3836
S'HOXA9'
p3837
S'increases'
p3838
tp3839
(lp3840
s(S'PAX4'
p3841
S'JUN'
p3842
S'increases'
p3843
tp3844
(lp3845
s(S'Raf-1'
p3846
S'MEK'
p3847
S'adds_modification'
p3848
tp3849
(lp3850
g654
as(S'PIM1'
p3851
S'MYC/MAX'
p3852
S'binds'
p3853
tp3854
(lp3855
s(S'YY1'
p3856
S'MECOM'
p3857
S'increases'
p3858
tp3859
(lp3860
s(S'NRF1'
p3861
S'MAZ'
p3862
S'increases'
p3863
tp3864
(lp3865
s(S'GATA1'
p3866
S'MECOM'
p3867
S'increases'
p3868
tp3869
(lp3870
s(S'PDGF/PDGFRA'
p3871
S'SHC/GRB2/SOS1'
p3872
S'increases_activity'
p3873
tp3874
(lp3875
s(S'GRB2/SOS1'
p3876
S'FAK'
p3877
S'binds'
p3878
tp3879
(lp3880
s(S'HNF4A'
p3881
S'HOXA9'
p3882
S'increases'
p3883
tp3884
(lp3885
s(S'FOXA2'
p3886
S'CYP26A1'
p3887
S'increases'
p3888
tp3889
(lp3890
s(S'FOXI1'
p3891
S'CYP26A1'
p3892
S'increases'
p3893
tp3894
(lp3895
s(S'GRB2 BOUND TO TIE2'
p3896
S'SOS1'
p3897
S'binds'
p3898
tp3899
(lp3900
s(S'PHOSPHORYLATED BRF1 (SER54, SER92, SER203):MRNA COMPLEX'
p3901
S'YWHAB'
p3902
S'binds'
p3903
tp3904
(lp3905
s(S'COMPLEX (GRB2/SOS)'
p3906
S'GAB'
p3907
S'binds'
p3908
tp3909
(lp3910
s(S'NFE2'
p3911
S'TLX2'
p3912
S'increases'
p3913
tp3914
(lp3915
s(S'MAX'
p3916
S'FOXF2'
p3917
S'increases'
p3918
tp3919
(lp3920
s(S'GRB2:SOS1'
p3921
S'ACTIVATED FGFR:P-FRS2'
p3922
S'binds'
p3923
tp3924
(lp3925
s(S'FOXO4'
p3926
S'MECOM'
p3927
S'increases'
p3928
tp3929
(lp3930
s(S'TCF3'
p3931
S'LEF1'
p3932
S'increases'
p3933
tp3934
(lp3935
s(S'ZIC1'
p3936
S'LEF1'
p3937
S'increases'
p3938
tp3939
(lp3940
s(S'NFIL3'
p3941
S'CYP26A1'
p3942
S'increases'
p3943
tp3944
(lp3945
s(S'RAF1'
p3946
S'MEK1'
p3947
S'increases_activity'
p3948
tp3949
(lp3950
s(S'AR'
p3951
S'FOXA1'
p3952
S'increases'
p3953
tp3954
(lp3955
S'Mutations in other genes that may be functionally relevant were noted, especially the recently reported high confidence cancer drivers FOXA1 and CCAR1.'
p3956
as(S'POU2F1'
p3957
S'POU3F2'
p3958
S'increases'
p3959
tp3960
(lp3961
s(S'PCBP1'
p3962
S'MAZ'
p3963
S'increases'
p3964
tp3965
(lp3966
s(S'LEF1'
p3967
S'HOXA9'
p3968
S'increases'
p3969
tp3970
(lp3971
s(S'NR6A1'
p3972
S'CYP26A1'
p3973
S'increases'
p3974
tp3975
(lp3976
s(S'PI3K'
p3977
S'BTK'
p3978
S'translocates'
p3979
tp3980
(lp3981
s(S'AHR'
p3982
S'RUNX1'
p3983
S'increases'
p3984
tp3985
(lp3986
s(S'NR1H4'
p3987
S'CYP26A1'
p3988
S'increases'
p3989
tp3990
(lp3991
s(S'NR2F2'
p3992
S'CYP26A1'
p3993
S'increases'
p3994
tp3995
(lp3996
s(S'GNB1/GNG2'
p3997
S'PI3K'
p3998
S'binds'
p3999
tp4000
(lp4001
s(S'RHOA/GTP'
p4002
S'PKN2'
p4003
S'increases_activity'
p4004
tp4005
(lp4006
s(S'MAZ'
p4007
S'LEF1'
p4008
S'increases'
p4009
tp4010
(lp4011
s(S'RFX1'
p4012
S'MECOM'
p4013
S'increases'
p4014
tp4015
(lp4016
s(S'RUNX1'
p4017
S'HOXA9'
p4018
S'increases'
p4019
tp4020
(lp4021
g387
as(S'FOXL1'
p4022
S'POU2F1'
p4023
S'increases'
p4024
tp4025
(lp4026
s(S'GRB2:SOS1'
p4027
S'PHOSPHORYLATED ERBB2:EGFR HETERODIMERS'
p4028
S'binds'
p4029
tp4030
(lp4031
s(S'TFAP4'
p4032
S'MYCN'
p4033
S'increases'
p4034
tp4035
(lp4036
s(S'E2F1'
p4037
S'GATA1'
p4038
S'increases'
p4039
tp4040
(lp4041
s(S'PTF1A'
p4042
S'GATA6'
p4043
S'increases'
p4044
tp4045
(lp4046
s(S'REL'
p4047
S'CYP26A1'
p4048
S'increases'
p4049
tp4050
(lp4051
s(S'MTF1'
p4052
S'JUN'
p4053
S'increases'
p4054
tp4055
(lp4056
s(S'ZEB1'
p4057
S'REPIN1'
p4058
S'increases'
p4059
tp4060
(lp4061
s(S'IRF8'
p4062
S'GATA6'
p4063
S'increases'
p4064
tp4065
(lp4066
s(S'P-Y349,350-SHC1:PHOSPHORYLATED ERBB2 HETERODIMERS'
p4067
S'GRB2:SOS1'
p4068
S'binds'
p4069
tp4070
(lp4071
s(S'BACH2'
p4072
S'EN1'
p4073
S'increases'
p4074
tp4075
(lp4076
s(S'GFI1'
p4077
S'MEIS1'
p4078
S'increases'
p4079
tp4080
(lp4081
s(S'FOXN1'
p4082
S'LEF1'
p4083
S'increases'
p4084
tp4085
(lp4086
s(S'CYP26A1'
p4087
S'JUN'
p4088
S'increases'
p4089
tp4090
(lp4091
s(S'TCF3'
p4092
S'ONECUT1'
p4093
S'increases'
p4094
tp4095
(lp4096
s(S'FOXF2'
p4097
S'POU2F1'
p4098
S'increases'
p4099
tp4100
(lp4101
s(S'MAZ'
p4102
S'MAX'
p4103
S'increases'
p4104
tp4105
(lp4106
s(S'FOXN1'
p4107
S'CYP26A1'
p4108
S'increases'
p4109
tp4110
(lp4111
s(S'HNF1A'
p4112
S'FOXD3'
p4113
S'increases'
p4114
tp4115
(lp4116
s(S'EGR2'
p4117
S'RUNX1'
p4118
S'increases'
p4119
tp4120
(lp4121
s(S'MYC'
p4122
S'RUNX2'
p4123
S'increases'
p4124
tp4125
(lp4126
s(S'TFAP2A'
p4127
S'IRF1'
p4128
S'increases'
p4129
tp4130
(lp4131
s(S'FOXO4'
p4132
S'YY1'
p4133
S'increases'
p4134
tp4135
(lp4136
s(S'VEGFR2 (dimer)/VEGFA (dimer)'
p4137
S'SRC'
p4138
S'adds_modification'
p4139
tp4140
(lp4141
s(S'resveratrol'
p4142
S'KRAS MRNA'
p4143
S'decreases'
p4144
tp4145
(lp4146
s(S'FOXO4'
p4147
S'CYP26A1'
p4148
S'increases'
p4149
tp4150
(lp4151
s(S'STAT3'
p4152
S'FOXO4'
p4153
S'increases'
p4154
tp4155
(lp4156
s(S'GRB2/SOS1'
p4157
S'FRS2 FAMILY/SHP2'
p4158
S'binds'
p4159
tp4160
(lp4161
s(S'LEF1'
p4162
S'CYP26A1'
p4163
S'increases'
p4164
tp4165
(lp4166
s(S'GTF2A2'
p4167
S'SRF'
p4168
S'increases'
p4169
tp4170
(lp4171
s(S'PPARA'
p4172
S'STAT5A'
p4173
S'increases'
p4174
tp4175
(lp4176
s(S'hsa-miR-143-3p'
p4177
S'KRAS'
p4178
S'decreases'
p4179
tp4180
(lp4181
s(S'GFI1'
p4182
S'CYP26A1'
p4183
S'increases'
p4184
tp4185
(lp4186
s(S'RAC1/GTP'
p4187
S'MKK4-MKK7'
p4188
S'increases_activity'
p4189
tp4190
(lp4191
s(S'REPIN1'
p4192
S'ETS1'
p4193
S'increases'
p4194
tp4195
(lp4196
s(S'ZIC1'
p4197
S'GATA6'
p4198
S'increases'
p4199
tp4200
(lp4201
s(S'INTERLEUKIN RECEPTOR COMPLEXES WITH ACTIVATED SHC1'
p4202
S'GRB2:SOS1'
p4203
S'binds'
p4204
tp4205
(lp4206
s(S'Selenium'
p4207
S'HRAS MRNA'
p4208
S'increases'
p4209
tp4210
(lp4211
s(S'HOXA4'
p4212
S'CYP26A1'
p4213
S'increases'
p4214
tp4215
(lp4216
s(S'NKX2-1'
p4217
S'POU2F1'
p4218
S'increases'
p4219
tp4220
(lp4221
s(S'VSX1'
p4222
S'MAX'
p4223
S'increases'
p4224
tp4225
(lp4226
s(S'FOXD1'
p4227
S'FOXD3'
p4228
S'increases'
p4229
tp4230
(lp4231
s(S'MAX'
p4232
S'NRAS'
p4233
S'increases'
p4234
tp4235
(lp4236
s(S'HOXA9'
p4237
S'TCF3'
p4238
S'increases'
p4239
tp4240
(lp4241
s(S'IRF1'
p4242
S'CYP26A1'
p4243
S'increases'
p4244
tp4245
(lp4246
s(S'HRAS'
p4247
S'RAF1'
p4248
S'adds_modification'
p4249
tp4250
(lp4251
s(S'CUX1'
p4252
S'HOXA9'
p4253
S'increases'
p4254
tp4255
(lp4256
s(S'ZHX2'
p4257
S'FOXA1'
p4258
S'increases'
p4259
tp4260
(lp4261
s(S'TFDP1'
p4262
S'MYC'
p4263
S'increases'
p4264
tp4265
(lp4266
s(S'RAC1/GTP'
p4267
S'PAK1'
p4268
S'increases_activity'
p4269
tp4270
(lp4271
s(S'AHR'
p4272
S'MAZ'
p4273
S'increases'
p4274
tp4275
(lp4276
s(S'BRAF/14-3-3'
p4277
S'KSR/14-3-3 /MEK1-2'
p4278
S'increases_activity'
p4279
tp4280
(lp4281
s(S'PPARA'
p4282
S'CYP26A1'
p4283
S'increases'
p4284
tp4285
(lp4286
s(S'REPIN1'
p4287
S'SRF'
p4288
S'increases'
p4289
tp4290
(lp4291
s(S'PAX5'
p4292
S'SRF'
p4293
S'increases'
p4294
tp4295
(lp4296
s(S'PAX4'
p4297
S'FOXJ2'
p4298
S'increases'
p4299
tp4300
(lp4301
s(S'REPIN1'
p4302
S'MYCN'
p4303
S'increases'
p4304
tp4305
(lp4306
s(S'RALA/GTP'
p4307
S'SRC'
p4308
S'adds_modification'
p4309
tp4310
(lp4311
s(S'FOXO4'
p4312
S'ETS1'
p4313
S'increases'
p4314
tp4315
(lp4316
s(S'TFDP1'
p4317
S'CDC5L'
p4318
S'increases'
p4319
tp4320
(lp4321
s(S'TFDP1'
p4322
S'CYP26A1'
p4323
S'increases'
p4324
tp4325
(lp4326
s(S'GATA6'
p4327
S'RUNX2'
p4328
S'increases'
p4329
tp4330
(lp4331
s(S'FOXM1'
p4332
S'CYP26A1'
p4333
S'increases'
p4334
tp4335
(lp4336
s(S'sodium arsenite'
p4337
S'HRAS PROTEIN'
p4338
S'increases'
p4339
tp4340
(lp4341
s(S'STAT5A'
p4342
S'RUNX1'
p4343
S'increases'
p4344
tp4345
(lp4346
s(S'CEBPA'
p4347
S'EN1'
p4348
S'increases'
p4349
tp4350
(lp4351
s(S'MSX1'
p4352
S'POU2F1'
p4353
S'increases'
p4354
tp4355
(lp4356
s(S'NHLH1'
p4357
S'CBFA2T3'
p4358
S'increases'
p4359
tp4360
(lp4361
s(S'Parathion'
p4362
S'HRAS PROTEIN'
p4363
S'increases'
p4364
tp4365
(lp4366
s(S'SMAD4'
p4367
S'CYP26A1'
p4368
S'increases'
p4369
tp4370
(lp4371
s(S'E2F1'
p4372
S'MYC'
p4373
S'increases'
p4374
tp4375
(lp4376
S'We obtained ChIP-seq datasets for a number of well-established components of the mESC pluripotency network, SOX2, NANOG, KLF4, STAT3, SMAD1, C-MYC, N-MYC, ZFX, E2F1, ESRRB, TCFCP2L1 ('
p4377
aS'(A) ChIP-seq profiles of OCT4, SOX2, NANOG, KLF4, STAT3, SMAD1, c-MYC, n-MYC, ZFX, E2F1, ESRRB, TCFCP2L1, P300, BRG1, and CHD7 at rDNA in mESCs.'
p4378
aS'We could furthermore show a direct correlation between the expression of cluster activators (MYC, E2F1-3), inhibitors (TP53), individual miRNAs, and pro-apoptotic targets (FAS, BIM).'
p4379
aS'In a next step, we interrogated the expression of selected regulators (MYC, TP53, E2F1, E2F2, E2F3) and pro-apoptotic targets (FAS, BIM) of the miR-17-92 cluster and its two paraloga that have already been described to show an altered expression and potential pathogenetic impact in OS ['
p4380
aS'As expected, higher expression levels of MYC, E2F1, E2F2, and E2F3 showed a trend towards concomitant higher expression levels of most of the analyzed miRNAs, in line with the concept of those genes to represent stimulators of the respective clusters (Figure '
p4381
ag387
as(S'CYP26A1'
p4382
S'FOXO3'
p4383
S'increases'
p4384
tp4385
(lp4386
s(S'TCF3'
p4387
S'CBFA2T3'
p4388
S'increases'
p4389
tp4390
(lp4391
s(S'ZHX2'
p4392
S'FOXF2'
p4393
S'increases'
p4394
tp4395
(lp4396
s(S'POU2F1'
p4397
S'MECOM'
p4398
S'increases'
p4399
tp4400
(lp4401
s(S'CYP26A1'
p4402
S'POU2F1'
p4403
S'increases'
p4404
tp4405
(lp4406
s(S'MYOD1'
p4407
S'CYP26A1'
p4408
S'increases'
p4409
tp4410
(lp4411
s(S'RAF'
p4412
S'COMPLEX (RAS/GTP)'
p4413
S'binds'
p4414
tp4415
(lp4416
s(S'RET51/GFRalpha1/GDNF/DOK1'
p4417
S'HRAS/GDP'
p4418
S'increases_activity'
p4419
tp4420
(lp4421
s(S'MAFG'
p4422
S'CYP26A1'
p4423
S'increases'
p4424
tp4425
(lp4426
s(S'CRX'
p4427
S'CYP26A1'
p4428
S'increases'
p4429
tp4430
(lp4431
s(S'hsa-miR-126-3p'
p4432
S'KRAS'
p4433
S'decreases'
p4434
tp4435
(lp4436
s(S'EBF2'
p4437
S'CYP26A1'
p4438
S'increases'
p4439
tp4440
(lp4441
s(S'RUNX1'
p4442
S'CYP26A1'
p4443
S'increases'
p4444
tp4445
(lp4446
s(S'HOXA5'
p4447
S'FOXA1'
p4448
S'increases'
p4449
tp4450
(lp4451
s(S'benzo(a)pyrene-3,6-quinone'
p4452
S'HRAS MRNA'
p4453
S'increases'
p4454
tp4455
(lp4456
s(S'K 7174'
p4457
S'HRAS MRNA'
p4458
S'decreases'
p4459
tp4460
(lp4461
s(S'LEF1'
p4462
S'NRAS'
p4463
S'increases'
p4464
tp4465
(lp4466
s(S'SPI1'
p4467
S'FOXA1'
p4468
S'increases'
p4469
tp4470
(lp4471
s(S'hsa-let-7b-5p'
p4472
S'NRAS'
p4473
S'decreases'
p4474
tp4475
(lp4476
s(S'CEBPA'
p4477
S'JUN'
p4478
S'increases'
p4479
tp4480
(lp4481
s(S'GABPB2'
p4482
S'CYP26A1'
p4483
S'increases'
p4484
tp4485
(lp4486
s(S'PI-3-4-5-P3'
p4487
S'MTOR'
p4488
S'increases_activity'
p4489
tp4490
(lp4491
s(S'GRB2:SOS1'
p4492
S'EGF:P-6Y-EGFR'
p4493
S'binds'
p4494
tp4495
(lp4496
s(S'HNF1A'
p4497
S'CYP26A1'
p4498
S'increases'
p4499
tp4500
(lp4501
s(S'HIF1A'
p4502
S'FOXO4'
p4503
S'increases'
p4504
tp4505
(lp4506
s(S'FOXJ1'
p4507
S'HOXA9'
p4508
S'increases'
p4509
tp4510
(lp4511
s(S'hsa-miR-96-5p'
p4512
S'KRAS'
p4513
S'decreases'
p4514
tp4515
(lp4516
s(S'SRC'
p4517
S'SYNDECAN-2/RASGAP'
p4518
S'binds'
p4519
tp4520
(lp4521
s(S'FOXA1'
p4522
S'MEIS1'
p4523
S'increases'
p4524
tp4525
(lp4526
s(S'LEF1'
p4527
S'MEIS1'
p4528
S'increases'
p4529
tp4530
(lp4531
s(S'PAX3'
p4532
S'CYP26A1'
p4533
S'increases'
p4534
tp4535
(lp4536
s(S'PAX4'
p4537
S'HOXA9'
p4538
S'increases'
p4539
tp4540
(lp4541
s(S'hsa-miR-18a-3p'
p4542
S'KRAS'
p4543
S'decreases'
p4544
tp4545
(lp4546
s(S'FOXF2'
p4547
S'EN1'
p4548
S'increases'
p4549
tp4550
(lp4551
s(S'Pyk2'
p4552
S'SRC FAMILY KINASES'
p4553
S'increases_activity'
p4554
tp4555
(lp4556
s(S'TP53'
p4557
S'HOXA9'
p4558
S'increases'
p4559
tp4560
(lp4561
S'PTEN: phosphatase and tensin homolog, PDCD4: programed cell death 4, TPM1: tropomyosin 1, TIMP3: tissue inhibitor of metalloproteinases 3, CDKN1B (p27): cyclin-dependent kinase inhibitor 1B, PUMA: p53 upregulated modulator of apoptosis, TP53INP1: tumor protein 53-induced nuclear protein 1, SEL1L: Sel-1-like, HOXB8: Homeobox B8, ANXA1: annexin A1, HMGA2: high-mobility group AT-hook 2, SOCS6: cytokine-induced signaling 6, LATS2: large tumour suppressor homolog 2, Spry2: Sprouty2, HOXA1: Homeobox A1, FGFRL1: fibroblast growth factor receptor-like 1, HOXA9: Homeobox A9, CCNE1: cyclin E1, TCL1: T cell leukemia/lymphoma 1, DNMT3b: DNA methyltransferase 3b, Mitf: microphthalmia associated transcription factor, CCKBR: cholecystokinin-B receptor, BCL2: B cell lymphoma 2, MSLN: mesothelin, PBX-1: Pre-B-cell leukemia homeobox factor 1, VCP: valosin-containing protein, TRAF6: TNF receptor-associated factor 6, IRAK1: interleukin-1 receptor-associated kinase 1, Stat1: signal transducer and activator of transcription 1, Stat3: signal transducer and activator of transcription 3, PDK1: 3-phosphoinositide dependent protein kinase-1, MAPK: Mitogen-Activated Protein Kinase.'
p4562
as(S'Genistein'
p4563
S'KRAS MRNA'
p4564
S'decreases'
p4565
tp4566
(lp4567
s(S'POU1F1'
p4568
S'CYP26A1'
p4569
S'increases'
p4570
tp4571
(lp4572
s(S'manumycin'
p4573
S'KRAS PROTEIN'
p4574
S'decreases_activity'
p4575
tp4576
(lp4577
s(S'Ginkgo biloba extract 761'
p4578
S'GCLC PROTEIN'
p4579
S'increases'
p4580
tp4581
(lp4582
s(S'GATA1'
p4583
S'NRAS'
p4584
S'increases'
p4585
tp4586
(lp4587
s(S'CBFA2T3'
p4588
S'FOXF2'
p4589
S'increases'
p4590
tp4591
(lp4592
s(S'PCBP1'
p4593
S'ELK1'
p4594
S'increases'
p4595
tp4596
(lp4597
s(S'MYC'
p4598
S'FOXF2'
p4599
S'increases'
p4600
tp4601
(lp4602
s(S'hsa-mir-622'
p4603
S'KRAS'
p4604
S'decreases'
p4605
tp4606
(lp4607
s(S'TCF3'
p4608
S'MAZ'
p4609
S'increases'
p4610
tp4611
(lp4612
s(S'STAT2'
p4613
S'MEIS1'
p4614
S'increases'
p4615
tp4616
(lp4617
s(S'CYP26A1'
p4618
S'YY1'
p4619
S'increases'
p4620
tp4621
(lp4622
s(S'CYP26A1'
p4623
S'EN1'
p4624
S'increases'
p4625
tp4626
(lp4627
s(S'GRB2/SOS1'
p4628
S'SHC'
p4629
S'binds'
p4630
tp4631
(lp4632
s(S'BAD'
p4633
S'YWHAZ'
p4634
S'binds'
p4635
tp4636
(lp4637
s(S'SPI1'
p4638
S'MAX'
p4639
S'increases'
p4640
tp4641
(lp4642
s(S'PI-3-4-5-P3'
p4643
S'CENTA1'
p4644
S'translocates'
p4645
tp4646
(lp4647
s(S'XBP1'
p4648
S'CYP26A1'
p4649
S'increases'
p4650
tp4651
(lp4652
s(S'PAX4'
p4653
S'NRAS'
p4654
S'increases'
p4655
tp4656
(lp4657
s(S'PI3K'
p4658
S'EPHRIN A1/EPHA2'
p4659
S'binds'
p4660
tp4661
(lp4662
s(S'POU1F1'
p4663
S'MEIS1'
p4664
S'increases'
p4665
tp4666
(lp4667
s(S'NR3C1'
p4668
S'ETS1'
p4669
S'increases'
p4670
tp4671
(lp4672
s(S'MAZ'
p4673
S'POU3F2'
p4674
S'increases'
p4675
tp4676
(lp4677
s(S'Estradiol'
p4678
S'HRAS MRNA'
p4679
S'increases'
p4680
tp4681
(lp4682
s(S'Aflatoxin B1'
p4683
S'HRAS PROTEIN'
p4684
S'increases'
p4685
tp4686
(lp4687
s(S'ETV7'
p4688
S'STAT4'
p4689
S'increases'
p4690
tp4691
(lp4692
s(S'PBX1'
p4693
S'LEF1'
p4694
S'increases'
p4695
tp4696
(lp4697
s(S'CEBPB'
p4698
S'CYP26A1'
p4699
S'increases'
p4700
tp4701
(lp4702
s(S'MAZ'
p4703
S'JUN'
p4704
S'increases'
p4705
tp4706
(lp4707
s(S'FOXF2'
p4708
S'MYC'
p4709
S'increases'
p4710
tp4711
(lp4712
s(S'FOXJ2'
p4713
S'HOXA9'
p4714
S'increases'
p4715
tp4716
(lp4717
s(S'Capsaicin'
p4718
S'HRAS MRNA'
p4719
S'increases'
p4720
tp4721
(lp4722
s(S'POU3F1'
p4723
S'GATA6'
p4724
S'increases'
p4725
tp4726
(lp4727
s(S'EIF2A'
p4728
S'14-3-3 E'
p4729
S'binds'
p4730
tp4731
(lp4732
s(S'RAS family/GTP'
p4733
S'RAF1-BRAF'
p4734
S'increases_activity'
p4735
tp4736
(lp4737
s(S'GATA6'
p4738
S'GATA1'
p4739
S'increases'
p4740
tp4741
(lp4742
s(S'RASA1'
p4743
S'PHOSPHO PDGF BETA RECEPTOR: PDGF CHAIN B HOMODIMER'
p4744
S'binds'
p4745
tp4746
(lp4747
s(S'CART1'
p4748
S'POU2F1'
p4749
S'increases'
p4750
tp4751
(lp4752
s(S'ZIC3'
p4753
S'POU2F1'
p4754
S'increases'
p4755
tp4756
(lp4757
s(S'TCF4'
p4758
S'FOXA1'
p4759
S'increases'
p4760
tp4761
(lp4762
s(S'PKC theta'
p4763
S'RASGRP1'
p4764
S'adds_modification'
p4765
tp4766
(lp4767
s(S'PTF1A'
p4768
S'STAT5A'
p4769
S'increases'
p4770
tp4771
(lp4772
s(S'SPI1'
p4773
S'FOXO4'
p4774
S'increases'
p4775
tp4776
(lp4777
s(S'HNF1A'
p4778
S'GATA6'
p4779
S'increases'
p4780
tp4781
(lp4782
s(S'FOXJ1'
p4783
S'RUNX1'
p4784
S'increases'
p4785
tp4786
(lp4787
s(S'STAT2'
p4788
S'GATA6'
p4789
S'increases'
p4790
tp4791
(lp4792
s(S'RAS FAMILY/GTP'
p4793
S'PI3K'
p4794
S'binds'
p4795
tp4796
(lp4797
s(S'PAX4'
p4798
S'IRF1'
p4799
S'increases'
p4800
tp4801
(lp4802
s(S'PAX3'
p4803
S'HOXA9'
p4804
S'increases'
p4805
tp4806
(lp4807
s(S'MYB'
p4808
S'MAZ'
p4809
S'increases'
p4810
tp4811
(lp4812
s(S"Guanosine-5'-Triphosphate"
p4813
S'HRAS'
p4814
S'increases_activity'
p4815
tp4816
(lp4817
s(S'alpha9/beta1 Integrin/Tenascin C'
p4818
S'SRC'
p4819
S'adds_modification'
p4820
tp4821
(lp4822
s(S'RAF1'
p4823
S'MEK1'
p4824
S'adds_modification'
p4825
tp4826
(lp4827
s(S'JUN'
p4828
S'FOXA1'
p4829
S'increases'
p4830
tp4831
(lp4832
s(S'NFE2L2'
p4833
S'BACH1'
p4834
S'increases'
p4835
tp4836
(lp4837
s(S'CUX1'
p4838
S'FOXD3'
p4839
S'increases'
p4840
tp4841
(lp4842
s(S'JUN'
p4843
S'EN1'
p4844
S'increases'
p4845
tp4846
(lp4847
s(S'ESR1'
p4848
S'CYP26A1'
p4849
S'increases'
p4850
tp4851
(lp4852
s(S'ESRRA'
p4853
S'FOXA1'
p4854
S'increases'
p4855
tp4856
(lp4857
s(S'POU2F1'
p4858
S'MEIS1'
p4859
S'increases'
p4860
tp4861
(lp4862
s(S'TFCP2'
p4863
S'FOXA1'
p4864
S'increases'
p4865
tp4866
(lp4867
s(S'PI-3-4-5-P3'
p4868
S'PDK1'
p4869
S'increases_activity'
p4870
tp4871
(lp4872
s(S'TCF3'
p4873
S'FOXA1'
p4874
S'increases'
p4875
tp4876
(lp4877
s(S'STAT3'
p4878
S'CYP26A1'
p4879
S'increases'
p4880
tp4881
(lp4882
s(S'CYP26A1'
p4883
S'POU3F2'
p4884
S'increases'
p4885
tp4886
(lp4887
s(S'Curcumin'
p4888
S'KRAS MRNA'
p4889
S'decreases'
p4890
tp4891
(lp4892
s(S'STAT1'
p4893
S'CYP26A1'
p4894
S'increases'
p4895
tp4896
(lp4897
s(S'GFI1'
p4898
S'POU2F1'
p4899
S'increases'
p4900
tp4901
(lp4902
s(S'ZIC1'
p4903
S'POU2F1'
p4904
S'increases'
p4905
tp4906
(lp4907
s(S'PI-3-4-5-P3'
p4908
S'AKT3'
p4909
S'adds_modification'
p4910
tp4911
(lp4912
s(S'BACH1'
p4913
S'NRAS'
p4914
S'increases'
p4915
tp4916
(lp4917
s(S'SCF/KIT'
p4918
S'SHC/GRB2/SOS1'
p4919
S'increases_activity'
p4920
tp4921
(lp4922
s(S'CDX2'
p4923
S'CYP26A1'
p4924
S'increases'
p4925
tp4926
(lp4927
s(S'RET51/GFRalpha1/GDNF/DOK/RasGAP/NCK'
p4928
S'HRAS/GDP'
p4929
S'decreases_activity'
p4930
tp4931
(lp4932
s(S'BETAPIX'
p4933
S'RAC1/GTP'
p4934
S'binds'
p4935
tp4936
(lp4937
s(S'RHOA/GTP'
p4938
S'CITRON'
p4939
S'increases_activity'
p4940
tp4941
(lp4942
s(S'P-SHC1:GRB2:SOS'
p4943
S'P-5Y-LAT-2'
p4944
S'binds'
p4945
tp4946
(lp4947
s(S'PAX4'
p4948
S'CYP26A1'
p4949
S'increases'
p4950
tp4951
(lp4952
s(S'TCF3'
p4953
S'KRAS'
p4954
S'increases'
p4955
tp4956
(lp4957
s(S'GRB2:SOS1'
p4958
S'PHOSPHORYLATED ERBB2:ERBB4 HETERODIMERS'
p4959
S'binds'
p4960
tp4961
(lp4962
s(S'CDX2'
p4963
S'MEIS1'
p4964
S'increases'
p4965
tp4966
(lp4967
s(S'SP3'
p4968
S'RUNX1'
p4969
S'increases'
p4970
tp4971
(lp4972
s(S'REST'
p4973
S'CYP26A1'
p4974
S'increases'
p4975
tp4976
(lp4977
s(S'PTF1A'
p4978
S'CYP26A1'
p4979
S'increases'
p4980
tp4981
(lp4982
s(S'PI-3-4-5-P3'
p4983
S'PI3K/GAB1'
p4984
S'translocates'
p4985
tp4986
(lp4987
s(S'LMO2'
p4988
S'FOXO4'
p4989
S'increases'
p4990
tp4991
(lp4992
s(S'STAT4'
p4993
S'ETS1'
p4994
S'increases'
p4995
tp4996
(lp4997
s(S'GTF2A2'
p4998
S'HOXA9'
p4999
S'increases'
p5000
tp5001
(lp5002
s(S'FOXF2'
p5003
S'POU3F2'
p5004
S'increases'
p5005
tp5006
(lp5007
s(S'GATA1'
p5008
S'GABPB2'
p5009
S'increases'
p5010
tp5011
(lp5012
s(S'Polychlorinated Biphenyls'
p5013
S'KRAS MRNA'
p5014
S'decreases'
p5015
tp5016
(lp5017
s(S'GRB2/SOS1'
p5018
S'EGF/EGFR DIMER/SHC'
p5019
S'binds'
p5020
tp5021
(lp5022
s(S'CYP26A1'
p5023
S'FOXF2'
p5024
S'increases'
p5025
tp5026
(lp5027
s(S'EGR1'
p5028
S'CYP26A1'
p5029
S'increases'
p5030
tp5031
(lp5032
s(S'MAX'
p5033
S'FOXO3'
p5034
S'increases'
p5035
tp5036
(lp5037
s(S'T-DHT/AR/PELP1'
p5038
S'SRC'
p5039
S'binds'
p5040
tp5041
(lp5042
s(S'CUX1'
p5043
S'FOXF2'
p5044
S'increases'
p5045
tp5046
(lp5047
s(S'CEBPD'
p5048
S'CYP26A1'
p5049
S'increases'
p5050
tp5051
(lp5052
s(S'CBFA2T3'
p5053
S'NRAS'
p5054
S'increases'
p5055
tp5056
(lp5057
s(S'Cisplatin'
p5058
S'HRAS MRNA'
p5059
S'translocates'
p5060
tp5061
(lp5062
s(S'BAD/BCL-X(L)'
p5063
S'YWHAZ'
p5064
S'binds'
p5065
tp5066
(lp5067
s(S'GATA1'
p5068
S'FOXA1'
p5069
S'increases'
p5070
tp5071
(lp5072
S'Similarly to FOXA1, early binding of the TFs GATA1 ['
p5073
as(S'RREB1'
p5074
S'CYP26A1'
p5075
S'increases'
p5076
tp5077
(lp5078
s(S'STAT4'
p5079
S'RUNX2'
p5080
S'increases'
p5081
tp5082
(lp5083
s(S'FOXD3'
p5084
S'NRAS'
p5085
S'increases'
p5086
tp5087
(lp5088
s(S'NDEL1'
p5089
S'14-3-3 E'
p5090
S'binds'
p5091
tp5092
(lp5093
s(S'CYP26A1'
p5094
S'REPIN1'
p5095
S'increases'
p5096
tp5097
(lp5098
s(S'MAF'
p5099
S'CDC5L'
p5100
S'increases'
p5101
tp5102
(lp5103
s(S'CYP26A1'
p5104
S'ELK1'
p5105
S'increases'
p5106
tp5107
(lp5108
s(S'MYC'
p5109
S'FOXD3'
p5110
S'increases'
p5111
tp5112
(lp5113
s(S'MAX'
p5114
S'FOXD3'
p5115
S'increases'
p5116
tp5117
(lp5118
s(S'POU1F1'
p5119
S'GATA6'
p5120
S'increases'
p5121
tp5122
(lp5123
s(S'POU2F1'
p5124
S'STAT4'
p5125
S'increases'
p5126
tp5127
(lp5128
s(S'GTF3A'
p5129
S'FOXO3'
p5130
S'increases'
p5131
tp5132
(lp5133
s(S'MYB'
p5134
S'FOXF2'
p5135
S'increases'
p5136
tp5137
(lp5138
s(S'ZIC3'
p5139
S'CYP26A1'
p5140
S'increases'
p5141
tp5142
(lp5143
s(S'POU2F1'
p5144
S'EN1'
p5145
S'increases'
p5146
tp5147
(lp5148
s(S'JUN'
p5149
S'STAT1'
p5150
S'increases'
p5151
tp5152
(lp5153
s(S'TEF'
p5154
S'CYP26A1'
p5155
S'increases'
p5156
tp5157
(lp5158
s(S'MAF'
p5159
S'CYP26A1'
p5160
S'increases'
p5161
tp5162
(lp5163
s(S'PAX4'
p5164
S'GATA6'
p5165
S'increases'
p5166
tp5167
(lp5168
s(S'ZIC2'
p5169
S'GATA6'
p5170
S'increases'
p5171
tp5172
(lp5173
s(S'hsa-miR-181d-5p'
p5174
S'HRAS'
p5175
S'decreases'
p5176
tp5177
(lp5178
s(S'BACH2'
p5179
S'CYP26A1'
p5180
S'increases'
p5181
tp5182
(lp5183
s(S'TCF12'
p5184
S'CYP26A1'
p5185
S'increases'
p5186
tp5187
(lp5188
s(S'GATA1'
p5189
S'FOXO4'
p5190
S'increases'
p5191
tp5192
(lp5193
s(S'RFX1'
p5194
S'FOXD3'
p5195
S'increases'
p5196
tp5197
(lp5198
s(S'FOXJ1'
p5199
S'CYP26A1'
p5200
S'increases'
p5201
tp5202
(lp5203
s(S'GTF2A2'
p5204
S'POU2F1'
p5205
S'increases'
p5206
tp5207
(lp5208
s(S'YY1'
p5209
S'SRF'
p5210
S'increases'
p5211
tp5212
(lp5213
s(S'AHR'
p5214
S'REPIN1'
p5215
S'increases'
p5216
tp5217
(lp5218
s(S'MAZ'
p5219
S'CYP26A1'
p5220
S'increases'
p5221
tp5222
(lp5223
s(S'Quercetin'
p5224
S'HRAS MRNA'
p5225
S'increases'
p5226
tp5227
(lp5228
s(S'ELK1'
p5229
S'NRAS'
p5230
S'increases'
p5231
tp5232
(lp5233
s(S'HIF1A'
p5234
S'ONECUT1'
p5235
S'increases'
p5236
tp5237
(lp5238
s(S'FOXF2'
p5239
S'CYP26A1'
p5240
S'increases'
p5241
tp5242
(lp5243
s(S'SOX9'
p5244
S'ETS1'
p5245
S'increases'
p5246
tp5247
(lp5248
s(S'HSF1'
p5249
S'JUN'
p5250
S'increases'
p5251
tp5252
(lp5253
s(S'CEBPA'
p5254
S'CYP26A1'
p5255
S'increases'
p5256
tp5257
(lp5258
s(S'NR1H4'
p5259
S'MEIS1'
p5260
S'increases'
p5261
tp5262
(lp5263
s(S'SMAD1'
p5264
S'GATA1'
p5265
S'increases'
p5266
tp5267
(lp5268
s(S'Quercetin'
p5269
S'HRAS MRNA'
p5270
S'decreases'
p5271
tp5272
(lp5273
s(S'Glycyrrhetinic Acid'
p5274
S'HRAS PROTEIN'
p5275
S'decreases'
p5276
tp5277
(lp5278
s(S'HOXA4'
p5279
S'POU2F1'
p5280
S'increases'
p5281
tp5282
(lp5283
s(S'FOXQ1'
p5284
S'CYP26A1'
p5285
S'increases'
p5286
tp5287
(lp5288
s(S'FOXI1'
p5289
S'CEBPA'
p5290
S'increases'
p5291
tp5292
(lp5293
s(S'GTF3A'
p5294
S'MYCN'
p5295
S'increases'
p5296
tp5297
(lp5298
s(S'LMO2'
p5299
S'IRF1'
p5300
S'increases'
p5301
tp5302
(lp5303
s(S'FOXO1'
p5304
S'CYP26A1'
p5305
S'increases'
p5306
tp5307
(lp5308
s(S'Copper Sulfate'
p5309
S'NRAS MRNA'
p5310
S'increases'
p5311
tp5312
(lp5313
s(S'TFAP2A'
p5314
S'CYP26A1'
p5315
S'increases'
p5316
tp5317
(lp5318
s(S'FOXJ1'
p5319
S'EN1'
p5320
S'increases'
p5321
tp5322
(lp5323
s(S'MEIS1'
p5324
S'RUNX1'
p5325
S'increases'
p5326
tp5327
(lp5328
s(S'MAZ'
p5329
S'FOXA1'
p5330
S'increases'
p5331
tp5332
(lp5333
s(S'ETS1'
p5334
S'FOXO4'
p5335
S'increases'
p5336
tp5337
(lp5338
s(S'ZBTB14'
p5339
S'FOXD3'
p5340
S'increases'
p5341
tp5342
(lp5343
s(S'FOXC1'
p5344
S'LEF1'
p5345
S'increases'
p5346
tp5347
(lp5348
s(S'IRF1'
p5349
S'EN1'
p5350
S'increases'
p5351
tp5352
(lp5353
s(S'NR3C1'
p5354
S'CYP26A1'
p5355
S'increases'
p5356
tp5357
(lp5358
s(S'VSX1'
p5359
S'BACH1'
p5360
S'increases'
p5361
tp5362
(lp5363
s(S'CYP26A1'
p5364
S'ETS1'
p5365
S'increases'
p5366
tp5367
(lp5368
s(S'CEBPA'
p5369
S'MEIS1'
p5370
S'increases'
p5371
tp5372
(lp5373
s(S'ELF1'
p5374
S'FOXO4'
p5375
S'increases'
p5376
tp5377
(lp5378
s(S'RXRA'
p5379
S'CYP26A1'
p5380
S'increases'
p5381
tp5382
(lp5383
s(S'CREB1'
p5384
S'CYP26A1'
p5385
S'increases'
p5386
tp5387
(lp5388
s(S'IRF7'
p5389
S'GATA6'
p5390
S'increases'
p5391
tp5392
(lp5393
s(S'ZEB1'
p5394
S'CYP26A1'
p5395
S'increases'
p5396
tp5397
(lp5398
s(S'AR'
p5399
S'CYP26A1'
p5400
S'increases'
p5401
tp5402
(lp5403
s(S'TFDP2'
p5404
S'MYC'
p5405
S'increases'
p5406
tp5407
(lp5408
s(S'hsa-mir-217'
p5409
S'KRAS'
p5410
S'decreases'
p5411
tp5412
(lp5413
s(S'MEK'
p5414
S'ERK'
p5415
S'adds_modification'
p5416
tp5417
(lp5418
S'The BRAF gene encodes a serine/threonine protein kinase belonging to the RAS-RAF-MEK-ERK kinase pathway regulated by KRAS protein activity and involved in CRC development ['
p5419
aS'Membrane-bound CD14 and TLR-4 mediate the LPS-induced activation of MEK/ERK and NF'
p5420
aS'Regorafenib is an oral multikinase inhibitor with activity against selected tyrosine kinases (VEGFR-2 and -3, TIE-2, PDGFR, FGFR, RET, and c-Kit) as well as a signal transduction inhibitor of the RAF/MEK/ERK pathway ('
p5421
aS'Regorafenib is a multikinase inhibitor against selected tyrosine kinases and signal transduction VEGFR2-3/RAF/MEK/ERK pathway.'
p5422
aS'Dose response of ERK 1/2 phosphorylation and viral exposed HAOSMC survival to MEK inhibitors.'
p5423
aS'The conventional MAPK pathways, represented by MAPK/extracellular signal regulated kinase kinase (MEK), extracellular signal-regulated kinases (ERK), c-Jun N-terminal kinases (JNK), p38'
p5424
aS'However, LIF activates also parallel circuitries like the PI3K-pathway and the MEK/ERK-pathway, but its mechanisms of action remain to be better elucidated.'
p5425
aS'MEK/ERK1/2 MAPK pathway may contribute to this residual activity as inhibition of this pathway by two MEK inhibitors, PD98059, U0126, blocked the transcriptional induction of p21, p21 promoter activity stimulated by CDA1 ['
p5426
aS'We have shown that once PI3K inhibition is removed, cells that have acquired GDC-0941 resistance also become resistant to MEK or ERK inhibition.'
p5427
aS'The loss of sensitivity to ERK and MEK inhibition can be restored if GDC-0941 is retained in the media, which prevents PI3K/AKT pathway activation.'
p5428
aS'U0126 inhibits MEK1/2, the upstream kinase of ERK1/2, and thus inhibits any signaling events downstream of ERK1/2 phosphorylation'
p5429
aS'ATA abrogates phosphorylation of activated ERK, MEK and PDGFR. '
p5430
aS"ATA, aurintricarboxylic acid; DMEM, Dulbecco's modified Eagle's medium; DMSO, dimethyl sulfoxide; EGF, epidermal growth factor; EGFR, EGF receptor; ERK, extracellular regulated kinase; GE-HTS, gene expression-based high-throughput screening; IGF, insulin-like growth factor; IGF1R, IGF1 receptor; IL, interleukin; MAP, mitogen activated protein; MEK, mitogen/extracellular signal-regulated kinase; M-MuLV, Moloney murine leukemia virus; NMDA, N-methyl-D-aspartate; PDGF, platelet derived growth factor; PDGFR, PDGF receptor; RT, reverse transcriptase; RTK, receptor tyrosine kinase; SCF, stem cell factor."
p5431
aS'It has been shown in human fibroblasts that a sustained high intensity Ras signal induces increased expression of MEK and ERK, eventually resulting in stimulation of the p38 pathway ['
p5432
ag654
aS'Many targets do not yet have approved therapeutic options, such as the ERK and MEK targets identified in the above studies.'
p5433
aS'The MEK/ERK1/2 and PI3K/Akt pathways (but not p38 MAPK) are therefore downstream of NRG1 signaling in microglial cells.'
p5434
aS'For this purpose we used two different kinase inhibitors (Wortmannin which is a specific covalent inhibitor of PI3K the kinase upstream of Akt, and U0126 which blocks the upstream ERK1/2 kinase, MEK1/2).'
p5435
aS'NRG1 effect on microglial proliferation was dependant on MEK/ERK1/2 pathway.'
p5436
aS'NRG1 effect on microglial survival was dependant on PI3K/Akt and MEK/ERK pathways'
p5437
aS'We next tested the hypothesis that MEK/ERK1/2 pathway was necessary for NRG1 signaling '
p5438
aS'Inhibition of the MEK/ERK pathway has been shown previously to reduce mechanical hypersensitivity after spinal nerve ligation (Obata et al., '
p5439
aS'Here we show that NRG1 activates both the MEK/ERK and PI3K/AKT pathways in microglia '
p5440
aS'ErbB receptor activation by NRG1 results in the stimulation of a number of intracellular signaling pathways including the PI3K/AKT, MEK/ERK, and p38MAPK pathways (Di Segni et al., '
p5441
aS'ERK exists in two isoforms (1 and 2) which are activated by upstream kinase MEK1/2 (MKK1/2) and has been implicated in regulating the proliferation, differentiation, and survival of cells during development (reviewed in Widmann etal., '
p5442
aS'This stimulates the MEK/ERK1/2 pathway which plays a pivotal role in the microglial mitotic response and contributes to the development of neuropathic pain.'
p5443
aS'Ingenuity Pathway Analysis of differentially expressed genes of patients with no activating mutation in KRAS, BRAF and PI3KCA classified as oncogenic by the combined model (n=79) versus patients classified as wildtype-like (n=127) The ERK/MEK pathway can be activated by mutations in '
p5444
aS'U0126 (a specific inhibitor of MEK-1/2, an upstream effector of ERK1/2) and EGCG suppressed the LPS-induced ERK1/2 phosphorylation and IL-12p40, IL-6, MCP-1, ICAM-1, and VCAM-1 mRNA accumulations in BMMs ('
p5445
ag655
as(S'ZBTB18'
p5446
S'ONECUT1'
p5447
S'increases'
p5448
tp5449
(lp5450
s(S'TGIF'
p5451
S'MAX'
p5452
S'increases'
p5453
tp5454
(lp5455
s(S'ETS1'
p5456
S'NRAS'
p5457
S'increases'
p5458
tp5459
(lp5460
g387
as(S'KLF12'
p5461
S'GATA1'
p5462
S'increases'
p5463
tp5464
(lp5465
s(S'HRAS/GTP'
p5466
S'PAK2'
p5467
S'increases_activity'
p5468
tp5469
(lp5470
s(S'CYP26A1'
p5471
S'FOXD3'
p5472
S'increases'
p5473
tp5474
(lp5475
s(S'LMO2'
p5476
S'RUNX1'
p5477
S'increases'
p5478
tp5479
(lp5480
g387
as(S'MLK3'
p5481
S'MKK3/6'
p5482
S'adds_modification'
p5483
tp5484
(lp5485
s(S'TAK'
p5486
S'MKK3/6'
p5487
S'adds_modification'
p5488
tp5489
(lp5490
s(S'GRB2:SOS1'
p5491
S'HB-EGF:P-6Y-EGFR DIMER'
p5492
S'binds'
p5493
tp5494
(lp5495
s(S'FOXO4'
p5496
S'NRAS'
p5497
S'increases'
p5498
tp5499
(lp5500
s(S'MECOM'
p5501
S'NRAS'
p5502
S'increases'
p5503
tp5504
(lp5505
s(S'KLF12'
p5506
S'CYP26A1'
p5507
S'increases'
p5508
tp5509
(lp5510
s(S'RAS family/GTP/PI3K'
p5511
S'TRPV1'
p5512
S'adds_modification'
p5513
tp5514
(lp5515
s(S'hsa-let-7a-5p'
p5516
S'NRAS'
p5517
S'decreases'
p5518
tp5519
(lp5520
s(S'NF1'
p5521
S'HOXA9'
p5522
S'increases'
p5523
tp5524
(lp5525
s(S'REPIN1'
p5526
S'FOXD3'
p5527
S'increases'
p5528
tp5529
(lp5530
s(S'CYP26A1'
p5531
S'FOXJ2'
p5532
S'increases'
p5533
tp5534
(lp5535
s(S'FOXO4'
p5536
S'MEIS1'
p5537
S'increases'
p5538
tp5539
(lp5540
s(S'EBF2'
p5541
S'MECOM'
p5542
S'increases'
p5543
tp5544
(lp5545
s(S'ETS1'
p5546
S'FOXO3'
p5547
S'increases'
p5548
tp5549
(lp5550
s(S'SP3'
p5551
S'CYP26A1'
p5552
S'increases'
p5553
tp5554
(lp5555
s(S'LNXp80'
p5556
S'NUMB'
p5557
S'decreases'
p5558
tp5559
(lp5560
s(S'RUNX2'
p5561
S'CYP26A1'
p5562
S'increases'
p5563
tp5564
(lp5565
s(S'AHR'
p5566
S'FOXO3'
p5567
S'increases'
p5568
tp5569
(lp5570
s(S'VSX1'
p5571
S'FOXF2'
p5572
S'increases'
p5573
tp5574
(lp5575
s(S'BPTF'
p5576
S'RUNX1'
p5577
S'increases'
p5578
tp5579
(lp5580
s(S'7,8-Dihydro-7,8-dihydroxybenzo(a)pyrene 9,10-oxide'
p5581
S'HRAS PROTEIN'
p5582
S'increases'
p5583
tp5584
(lp5585
s(S'TCF3'
p5586
S'POU3F2'
p5587
S'increases'
p5588
tp5589
(lp5590
s(S'TCF3'
p5591
S'IRF1'
p5592
S'increases'
p5593
tp5594
(lp5595
s(S'SREBF1'
p5596
S'EN1'
p5597
S'increases'
p5598
tp5599
(lp5600
s(S'FOXO4'
p5601
S'RUNX2'
p5602
S'increases'
p5603
tp5604
(lp5605
s(S'hsa-miR-181a-5p'
p5606
S'HRAS'
p5607
S'decreases'
p5608
tp5609
(lp5610
s(S'Myb'
p5611
S'NRAS'
p5612
S'decreases'
p5613
tp5614
(lp5615
s(S'HSPA8'
p5616
S'ADP'
p5617
S'binds'
p5618
tp5619
(lp5620
s(S'SOCS3'
p5621
S'RASGAP'
p5622
S'binds'
p5623
tp5624
(lp5625
s(S'ONECUT1'
p5626
S'NRAS'
p5627
S'increases'
p5628
tp5629
(lp5630
s(S'PITX2'
p5631
S'EN1'
p5632
S'increases'
p5633
tp5634
(lp5635
s(S'HGF(dimer)/MET(dimer)'
p5636
S'SRC'
p5637
S'adds_modification'
p5638
tp5639
(lp5640
s(S'2-amino-1-methyl-6-phenylimidazo(4,5-b)pyridine'
p5641
S'HRAS PROTEIN'
p5642
S'increases'
p5643
tp5644
(lp5645
s(S'GFI1'
p5646
S'POU3F2'
p5647
S'increases'
p5648
tp5649
(lp5650
s(S'FARNESYL DIPHOSPHATE'
p5651
S'KRAS'
p5652
S'increases_activity'
p5653
tp5654
(lp5655
s(S'IL2/IL2R BETA/GAMMA/JAK1/LCK/JAK3'
p5656
S'PI3K'
p5657
S'binds'
p5658
tp5659
(lp5660
s(S'GTF3A'
p5661
S'MECOM'
p5662
S'increases'
p5663
tp5664
(lp5665
s(S'EGR2'
p5666
S'CYP26A1'
p5667
S'increases'
p5668
tp5669
(lp5670
s(S'RUNX1'
p5671
S'FOXF2'
p5672
S'increases'
p5673
tp5674
(lp5675
s(S'IL3/IL3RA/CSF2RB (DODECAMER)'
p5676
S'YWHAZ'
p5677
S'binds'
p5678
tp5679
(lp5680
s(S'RAF1'
p5681
S'BRAF'
p5682
S'binds'
p5683
tp5684
(lp5685
s(S'MYC'
p5686
S'CYP26A1'
p5687
S'increases'
p5688
tp5689
(lp5690
s(S'UBP1'
p5691
S'CYP26A1'
p5692
S'increases'
p5693
tp5694
(lp5695
s(S'MTF1'
p5696
S'REPIN1'
p5697
S'increases'
p5698
tp5699
(lp5700
s(S'HNF1A'
p5701
S'RUNX1'
p5702
S'increases'
p5703
tp5704
(lp5705
s(S'NHLH1'
p5706
S'FOXA1'
p5707
S'increases'
p5708
tp5709
(lp5710
s(S'HLF'
p5711
S'FOXA1'
p5712
S'increases'
p5713
tp5714
(lp5715
s(S'MEIS1'
p5716
S'GATA6'
p5717
S'increases'
p5718
tp5719
(lp5720
s(S'PDGF-BB/PDGFRB (DIMER)/SHP2'
p5721
S'GRB2/SOS1'
p5722
S'binds'
p5723
tp5724
(lp5725
s(S'ZBTB14'
p5726
S'EN1'
p5727
S'increases'
p5728
tp5729
(lp5730
s(S'alpha6/beta4 Integrin'
p5731
S'HRAS/GDP'
p5732
S'increases_activity'
p5733
tp5734
(lp5735
s(S'ErbB2'
p5736
S'HRAS/GDP'
p5737
S'increases_activity'
p5738
tp5739
(lp5740
s(S'MEIS1'
p5741
S'FOXO3'
p5742
S'increases'
p5743
tp5744
(lp5745
s(S'RELA'
p5746
S'IRF1'
p5747
S'increases'
p5748
tp5749
(lp5750
s(S'MYCN'
p5751
S'FOXO3'
p5752
S'increases'
p5753
tp5754
(lp5755
s(S'RHOA/GTP'
p5756
S'DIA'
p5757
S'increases_activity'
p5758
tp5759
(lp5760
s(S'Fluorouracil'
p5761
S'KRAS PROTEIN'
p5762
S'decreases'
p5763
tp5764
(lp5765
s(S'ATF2'
p5766
S'CYP26A1'
p5767
S'increases'
p5768
tp5769
(lp5770
s(S'GNAI2/GTP'
p5771
S'SRC FAMILY KINASES'
p5772
S'increases_activity'
p5773
tp5774
(lp5775
s(S'HAND1'
p5776
S'POU2F1'
p5777
S'increases'
p5778
tp5779
(lp5780
s(S'PI5K Type 1 family'
p5781
S'PI-4-P'
p5782
S'translocates'
p5783
tp5784
(lp5785
s(S'HSF1'
p5786
S'CBFA2T3'
p5787
S'increases'
p5788
tp5789
(lp5790
s(S'BACH1'
p5791
S'FOXA1'
p5792
S'increases'
p5793
tp5794
(lp5795
s(S'PI-3-4-5-P3'
p5796
S'SGK1'
p5797
S'adds_modification'
p5798
tp5799
(lp5800
s(S'hsa-miR-20a-5p'
p5801
S'NRAS'
p5802
S'decreases'
p5803
tp5804
(lp5805
s(S'CYP26A1'
p5806
S'MECOM'
p5807
S'increases'
p5808
tp5809
(lp5810
s(S'FOXF2'
p5811
S'RUNX1'
p5812
S'increases'
p5813
tp5814
(lp5815
s(S'EGR2'
p5816
S'SRF'
p5817
S'increases'
p5818
tp5819
(lp5820
s(S'LEF1'
p5821
S'FOXD3'
p5822
S'increases'
p5823
tp5824
(lp5825
s(S'TFAP2C'
p5826
S'MECOM'
p5827
S'increases'
p5828
tp5829
(lp5830
s(S'SHC'
p5831
S'GRB2/SOS1'
p5832
S'binds'
p5833
tp5834
(lp5835
s(S'CA2+'
p5836
S'CAM'
p5837
S'binds'
p5838
tp5839
(lp5840
s(S'MYC'
p5841
S'POU3F2'
p5842
S'increases'
p5843
tp5844
(lp5845
s(S'PAX8'
p5846
S'HOXA9'
p5847
S'increases'
p5848
tp5849
(lp5850
s(S'TFDP2'
p5851
S'CDC5L'
p5852
S'increases'
p5853
tp5854
(lp5855
s(S'RAF1/14-3-3'
p5856
S'KSR/14-3-3 /MEK1-2'
p5857
S'increases_activity'
p5858
tp5859
(lp5860
s(S'DDIT3'
p5861
S'MEIS1'
p5862
S'increases'
p5863
tp5864
(lp5865
s(S'GNB1/GNG2'
p5866
S'HRAS/GDP'
p5867
S'increases_activity'
p5868
tp5869
(lp5870
s(S'ACTIVATED FGFR MUTANTS:P-FRS2ALPHA'
p5871
S'GRB2:SOS1'
p5872
S'binds'
p5873
tp5874
(lp5875
s(S'HIF1A'
p5876
S'CYP26A1'
p5877
S'increases'
p5878
tp5879
(lp5880
s(S'RAF1-BRAF'
p5881
S'ERK1-2'
p5882
S'increases_activity'
p5883
tp5884
(lp5885
s(S'SMAD4'
p5886
S'CBFA2T3'
p5887
S'increases'
p5888
tp5889
(lp5890
s(S'resveratrol'
p5891
S'HRAS PROTEIN'
p5892
S'increases'
p5893
tp5894
(lp5895
s(S'Malathion'
p5896
S'HRAS MRNA'
p5897
S'increases'
p5898
tp5899
(lp5900
s(S'NRF1'
p5901
S'FOXO4'
p5902
S'increases'
p5903
tp5904
(lp5905
s(S'CREB1'
p5906
S'JUN'
p5907
S'increases'
p5908
tp5909
(lp5910
s(S'CDC5L'
p5911
S'HOXA9'
p5912
S'increases'
p5913
tp5914
(lp5915
s(S'CDX2'
p5916
S'HOXA9'
p5917
S'increases'
p5918
tp5919
(lp5920
s(S'HMGA1'
p5921
S'POU2F1'
p5922
S'increases'
p5923
tp5924
(lp5925
s(S'Coumestrol'
p5926
S'KRAS MRNA'
p5927
S'decreases'
p5928
tp5929
(lp5930
s(S'LEF1'
p5931
S'FOXO3'
p5932
S'increases'
p5933
tp5934
(lp5935
s(S'CYP26A1'
p5936
S'MEIS1'
p5937
S'increases'
p5938
tp5939
(lp5940
s(S'GTF2A2'
p5941
S'MEIS1'
p5942
S'increases'
p5943
tp5944
(lp5945
s(S'REPIN1'
p5946
S'CBFA2T3'
p5947
S'increases'
p5948
tp5949
(lp5950
s(S'hsa-miR-143-3p'
p5951
S'HRAS'
p5952
S'decreases'
p5953
tp5954
(lp5955
s(S'[(3,7,11-TRIMETHYL-DODECA-2,6,10-TRIENYLOXYCARBAMOYL)-METHYL]-PHOSPHONIC ACID'
p5956
S'KRAS'
p5957
S'increases_activity'
p5958
tp5959
(lp5960
s(S'TFDP1'
p5961
S'ONECUT1'
p5962
S'increases'
p5963
tp5964
(lp5965
s(S'YY1'
p5966
S'CYP26A1'
p5967
S'increases'
p5968
tp5969
(lp5970
s(S'PITX2'
p5971
S'RUNX1'
p5972
S'increases'
p5973
tp5974
(lp5975
s(S'STAT5A'
p5976
S'NRAS'
p5977
S'increases'
p5978
tp5979
(lp5980
s(S'Valproic Acid'
p5981
S'HRAS MRNA'
p5982
S'increases'
p5983
tp5984
(lp5985
s(S'Malathion'
p5986
S'HRAS PROTEIN'
p5987
S'increases'
p5988
tp5989
(lp5990
s(S'TFAP4'
p5991
S'CBFA2T3'
p5992
S'increases'
p5993
tp5994
(lp5995
s(S'TFAP4'
p5996
S'EN1'
p5997
S'increases'
p5998
tp5999
(lp6000
s(S'POU3F2'
p6001
S'CYP26A1'
p6002
S'increases'
p6003
tp6004
(lp6005
s(S'PAX3'
p6006
S'FOXD3'
p6007
S'increases'
p6008
tp6009
(lp6010
s(S'FOXA2'
p6011
S'RUNX2'
p6012
S'increases'
p6013
tp6014
(lp6015
s(S'MAX'
p6016
S'BACH1'
p6017
S'increases'
p6018
tp6019
(lp6020
s(S'PDX1'
p6021
S'CYP26A1'
p6022
S'increases'
p6023
tp6024
(lp6025
s(S'EPO/EPOR (dimer)/JAK2'
p6026
S'SHC/GRB2/SOS1'
p6027
S'increases_activity'
p6028
tp6029
(lp6030
s(S'E2F1'
p6031
S'MEIS1'
p6032
S'increases'
p6033
tp6034
(lp6035
s(S'FOXF2'
p6036
S'MEIS1'
p6037
S'increases'
p6038
tp6039
(lp6040
s(S'SPZ1'
p6041
S'FOXJ2'
p6042
S'increases'
p6043
tp6044
(lp6045
s(S'SRY'
p6046
S'NRAS'
p6047
S'increases'
p6048
tp6049
(lp6050
s(S'REPIN1'
p6051
S'CYP26A1'
p6052
S'increases'
p6053
tp6054
(lp6055
s(S'VEGFR3/VEGFC-D'
p6056
S'PKC'
p6057
S'increases_activity'
p6058
tp6059
(lp6060
s(S'MEIS1'
p6061
S'EN1'
p6062
S'increases'
p6063
tp6064
(lp6065
s(S'FOXJ1'
p6066
S'FOXD3'
p6067
S'increases'
p6068
tp6069
(lp6070
s(S'SPZ1'
p6071
S'FOXO4'
p6072
S'increases'
p6073
tp6074
(lp6075
s(S'RHOA/GTP'
p6076
S'ROCK1-ROCK2'
p6077
S'increases_activity'
p6078
tp6079
(lp6080
s(S'HMGA1'
p6081
S'ONECUT1'
p6082
S'increases'
p6083
tp6084
(lp6085
s(S'uPA/uPAR/alphav/beta3 Integrin/Vitronectin'
p6086
S'SRC'
p6087
S'adds_modification'
p6088
tp6089
(lp6090
s(S'ETS1'
p6091
S'CYP26A1'
p6092
S'increases'
p6093
tp6094
(lp6095
s(S'ESRRA'
p6096
S'TLX2'
p6097
S'increases'
p6098
tp6099
(lp6100
s(S'ROCK2'
p6101
S'RHO FAMILY GTPASE-ACTIVE'
p6102
S'binds'
p6103
tp6104
(lp6105
s(S'ATF4'
p6106
S'CYP26A1'
p6107
S'increases'
p6108
tp6109
(lp6110
s(S'OR5I1'
p6111
S'CYP26A1'
p6112
S'increases'
p6113
tp6114
(lp6115
s(S'PITX2'
p6116
S'GATA1'
p6117
S'increases'
p6118
tp6119
(lp6120
s(S'AHR'
p6121
S'ONECUT1'
p6122
S'increases'
p6123
tp6124
(lp6125
s(S'PTF1A'
p6126
S'MECOM'
p6127
S'increases'
p6128
tp6129
(lp6130
s(S'arsenic trioxide'
p6131
S'HRAS MRNA'
p6132
S'increases'
p6133
tp6134
(lp6135
s(S'TCF3'
p6136
S'REPIN1'
p6137
S'increases'
p6138
tp6139
(lp6140
s(S'STAT6'
p6141
S'FOXO3'
p6142
S'increases'
p6143
tp6144
(lp6145
s(S'POU1F1'
p6146
S'POU2F1'
p6147
S'increases'
p6148
tp6149
(lp6150
s(S'RHOA/GTP'
p6151
S'ROCK'
p6152
S'increases_activity'
p6153
tp6154
(lp6155
s(S'PITPNA'
p6156
S'PI-4-5-P2'
p6157
S'translocates'
p6158
tp6159
(lp6160
s(S'MDM-2'
p6161
S'P14/19 ARF'
p6162
S'binds'
p6163
tp6164
(lp6165
s(S'TEAD1'
p6166
S'FOXO3'
p6167
S'increases'
p6168
tp6169
(lp6170
s(S'MYC'
p6171
S'MAX'
p6172
S'increases'
p6173
tp6174
(lp6175
s(S'GRB2:SOS1'
p6176
S'EGF:PHOSPHO-EGFR:PHOSPHO-SHC'
p6177
S'binds'
p6178
tp6179
(lp6180
s(S'NF1'
p6181
S'RUNX1'
p6182
S'increases'
p6183
tp6184
(lp6185
s(S'ZEB1'
p6186
S'GATA6'
p6187
S'increases'
p6188
tp6189
(lp6190
s(S'TBP'
p6191
S'EN1'
p6192
S'increases'
p6193
tp6194
(lp6195
s(S'FOXA1'
p6196
S'FOXD3'
p6197
S'increases'
p6198
tp6199
(lp6200
s(S'CART1'
p6201
S'EN1'
p6202
S'increases'
p6203
tp6204
(lp6205
s(S'MAX'
p6206
S'CEBPA'
p6207
S'increases'
p6208
tp6209
(lp6210
s(S'GATA6'
p6211
S'NRAS'
p6212
S'increases'
p6213
tp6214
(lp6215
s(S'PTF1A'
p6216
S'FOXO3'
p6217
S'increases'
p6218
tp6219
(lp6220
s(S'LEF1'
p6221
S'FOXA1'
p6222
S'increases'
p6223
tp6224
(lp6225
s(S'hsa-let-7g-5p'
p6226
S'KRAS'
p6227
S'decreases'
p6228
tp6229
(lp6230
s(S'ZBTB14'
p6231
S'CYP26A1'
p6232
S'increases'
p6233
tp6234
(lp6235
s(S'POU1F1'
p6236
S'FOXO4'
p6237
S'increases'
p6238
tp6239
(lp6240
s(S'PI3K'
p6241
S'PI-4-5-P2'
p6242
S'translocates'
p6243
tp6244
(lp6245
s(S'GABPB2'
p6246
S'NRAS'
p6247
S'increases'
p6248
tp6249
(lp6250
s(S'ELK1'
p6251
S'LEF1'
p6252
S'increases'
p6253
tp6254
(lp6255
s(S'Estrogens'
p6256
S'HRAS MRNA'
p6257
S'increases'
p6258
tp6259
(lp6260
s(S'CYP26A1'
p6261
S'CEBPA'
p6262
S'increases'
p6263
tp6264
(lp6265
s(S'SPI1'
p6266
S'POU2F1'
p6267
S'increases'
p6268
tp6269
(lp6270
s(S'PPARG'
p6271
S'CYP26A1'
p6272
S'increases'
p6273
tp6274
(lp6275
s(S'Asbestos, Serpentine'
p6276
S'HRAS PROTEIN'
p6277
S'increases'
p6278
tp6279
(lp6280
s(S'RET51/GFRALPHA1/GDNF/DOK1'
p6281
S'RASGAP'
p6282
S'binds'
p6283
tp6284
(lp6285
s(S'FOXO1'
p6286
S'GATA6'
p6287
S'increases'
p6288
tp6289
(lp6290
s(S'Cadmium'
p6291
S'KRAS PROTEIN'
p6292
S'increases'
p6293
tp6294
(lp6295
s(S'MAX'
p6296
S'EN1'
p6297
S'increases'
p6298
tp6299
(lp6300
s(S'TLX2'
p6301
S'NRAS'
p6302
S'increases'
p6303
tp6304
(lp6305
s(S'SREBF1'
p6306
S'CYP26A1'
p6307
S'increases'
p6308
tp6309
(lp6310
s(S'SMAD3'
p6311
S'MEIS1'
p6312
S'increases'
p6313
tp6314
(lp6315
s(S'Acetaminophen'
p6316
S'NRAS MRNA'
p6317
S'decreases'
p6318
tp6319
(lp6320
s(S'LEF1'
p6321
S'ETS1'
p6322
S'increases'
p6323
tp6324
(lp6325
s(S'SRF'
p6326
S'MEIS1'
p6327
S'increases'
p6328
tp6329
(lp6330
s(S'BRAF'
p6331
S'MKK3-MKK6'
p6332
S'increases_activity'
p6333
tp6334
(lp6335
s(S'HRAS/GTP'
p6336
S'RAF1'
p6337
S'adds_modification'
p6338
tp6339
(lp6340
s(S'MSX1'
p6341
S'CYP26A1'
p6342
S'increases'
p6343
tp6344
(lp6345
s(S'GATA4'
p6346
S'ETS1'
p6347
S'increases'
p6348
tp6349
(lp6350
s(S'E4F1'
p6351
S'FOXA1'
p6352
S'increases'
p6353
tp6354
(lp6355
s(S'FOXD1'
p6356
S'LEF1'
p6357
S'increases'
p6358
tp6359
(lp6360
s(S'CUX1'
p6361
S'MAX'
p6362
S'increases'
p6363
tp6364
(lp6365
s(S'CYP26A1'
p6366
S'CBFA2T3'
p6367
S'increases'
p6368
tp6369
(lp6370
s(S'CAM/CA2+'
p6371
S'KRAS ISOFORM 4B/GTP'
p6372
S'binds'
p6373
tp6374
(lp6375
s(S'MYOG'
p6376
S'STAT5A'
p6377
S'increases'
p6378
tp6379
(lp6380
s(S'MYOD1'
p6381
S'STAT5A'
p6382
S'increases'
p6383
tp6384
(lp6385
s(S'HNF1A'
p6386
S'POU3F2'
p6387
S'increases'
p6388
tp6389
(lp6390
s(S'EPH'
p6391
S'EPHR'
p6392
S'binds'
p6393
tp6394
(lp6395
s(S'PDGF:PHOSPHO-PDGF RECEPTOR DIMER'
p6396
S'GRB2:SOS1'
p6397
S'binds'
p6398
tp6399
(lp6400
s(S'HRAS/GTP'
p6401
S'PI3K'
p6402
S'increases_activity'
p6403
tp6404
(lp6405
s(S'RUNX1'
p6406
S'TLX2'
p6407
S'increases'
p6408
tp6409
(lp6410
s(S'MYOG'
p6411
S'CYP26A1'
p6412
S'increases'
p6413
tp6414
(lp6415
s(S'PAX2'
p6416
S'EN1'
p6417
S'increases'
p6418
tp6419
(lp6420
s(S'TFCP2'
p6421
S'CYP26A1'
p6422
S'increases'
p6423
tp6424
(lp6425
s(S'hsa-miR-145-5p'
p6426
S'NRAS'
p6427
S'decreases'
p6428
tp6429
(lp6430
s(S'KAT2B'
p6431
S'GATA1'
p6432
S'increases'
p6433
tp6434
(lp6435
s(S'P-EGFR MUTANTS:P-Y349,350-SHC1'
p6436
S'GRB2:SOS1'
p6437
S'binds'
p6438
tp6439
(lp6440
s(S'E2F1'
p6441
S'MECOM'
p6442
S'increases'
p6443
tp6444
(lp6445
s(S'GNB1/GNG2'
p6446
S'SRC'
p6447
S'adds_modification'
p6448
tp6449
(lp6450
s(S'ZBTB14'
p6451
S'MAX'
p6452
S'increases'
p6453
tp6454
(lp6455
s(S'RALGDS'
p6456
S'P21 RAS:GTP'
p6457
S'binds'
p6458
tp6459
(lp6460
s(S'RHOA/GTP'
p6461
S'ROCK2'
p6462
S'increases_activity'
p6463
tp6464
(lp6465
s(S'NR1H3'
p6466
S'FOXD3'
p6467
S'increases'
p6468
tp6469
(lp6470
s(S'TFAP4'
p6471
S'GATA1'
p6472
S'increases'
p6473
tp6474
(lp6475
s(S'FOXA1'
p6476
S'GATA6'
p6477
S'increases'
p6478
tp6479
(lp6480
s(S'GRB2:SOS1'
p6481
S'P-SHC'
p6482
S'binds'
p6483
tp6484
(lp6485
s(S'E2F1'
p6486
S'FOXO3'
p6487
S'increases'
p6488
tp6489
(lp6490
s.