(dp0
(S'ZEB1'
p1
S'FOXA1'
p2
S'increases'
p3
tp4
(lp5
s(S'FOXJ1'
p6
S'GATA6'
p7
S'increases'
p8
tp9
(lp10
s(S'TFAP4'
p11
S'FOXD3'
p12
S'increases'
p13
tp14
(lp15
s(S'TBP'
p16
S'MEIS1'
p17
S'increases'
p18
tp19
(lp20
s(S'GCM1'
p21
S'GATA6'
p22
S'increases'
p23
tp24
(lp25
s(S'T-DHT'
p26
S'SRC'
p27
S'adds_modification'
p28
tp29
(lp30
s(S'MAZ'
p31
S'GABPB2'
p32
S'increases'
p33
tp34
(lp35
s(S'HMGA1'
p36
S'EN1'
p37
S'increases'
p38
tp39
(lp40
s(S'CYP26A1'
p41
S'NRAS'
p42
S'increases'
p43
tp44
(lp45
s(S'CUX1'
p46
S'MEIS1'
p47
S'increases'
p48
tp49
(lp50
s(S'REPIN1'
p51
S'BACH1'
p52
S'increases'
p53
tp54
(lp55
s(S'TFDP1'
p56
S'HOXA9'
p57
S'increases'
p58
tp59
(lp60
s(S'NFE2L1'
p61
S'CYP26A1'
p62
S'increases'
p63
tp64
(lp65
s(S'MAZ'
p66
S'GATA1'
p67
S'increases'
p68
tp69
(lp70
s(S'TCF12'
p71
S'GABPB2'
p72
S'increases'
p73
tp74
(lp75
s(S'ETS2'
p76
S'FOXO3'
p77
S'increases'
p78
tp79
(lp80
s(S'hsa-let-7c-5p'
p81
S'NRAS'
p82
S'decreases'
p83
tp84
(lp85
s(S'SPI1'
p86
S'CYP26A1'
p87
S'increases'
p88
tp89
(lp90
s(S'RAC1/GTP'
p91
S'MKK4'
p92
S'adds_modification'
p93
tp94
(lp95
s(S'Quercetin'
p96
S'KRAS MRNA'
p97
S'decreases'
p98
tp99
(lp100
s(S'INSULIN RECEPTOR/INSULIN/SHC'
p101
S'GRB2'
p102
S'binds'
p103
tp104
(lp105
s(S'TAp63a (tetramer)'
p106
S'PKC DELTA'
p107
S'increases'
p108
tp109
(lp110
s(S'FOXO1'
p111
S'POU2F1'
p112
S'increases'
p113
tp114
(lp115
s(S'FOXL1'
p116
S'EN1'
p117
S'increases'
p118
tp119
(lp120
s(S'TBP'
p121
S'CYP26A1'
p122
S'increases'
p123
tp124
(lp125
s(S'Heptachlor'
p126
S'HRAS MRNA'
p127
S'decreases'
p128
tp129
(lp130
s(S'PCBP1'
p131
S'CYP26A1'
p132
S'increases'
p133
tp134
(lp135
s(S'ZBTB18'
p136
S'CYP26A1'
p137
S'increases'
p138
tp139
(lp140
s(S'GATA2'
p141
S'CYP26A1'
p142
S'increases'
p143
tp144
(lp145
s(S'Cadmium'
p146
S'KRAS MRNA'
p147
S'increases'
p148
tp149
(lp150
s(S'HNF1A'
p151
S'POU2F1'
p152
S'increases'
p153
tp154
(lp155
s(S'ABT-100'
p156
S'HRAS PROTEIN'
p157
S'inhibits_modification'
p158
tp159
(lp160
s(S'ELF1'
p161
S'CYP26A1'
p162
S'increases'
p163
tp164
(lp165
s(S'LEF1'
p166
S'KRAS'
p167
S'increases'
p168
tp169
(lp170
s(S'NKX2-1'
p171
S'FOXD3'
p172
S'increases'
p173
tp174
(lp175
s(S'PI-3-4-5-P3'
p176
S'BTK-ITK'
p177
S'translocates'
p178
tp179
(lp180
s(S'POU6F1'
p181
S'HOXA9'
p182
S'increases'
p183
tp184
(lp185
s(S'Myb'
p186
S'MYB'
p187
S'increases'
p188
tp189
(lp190
S'In addition, we have shown that nucleolar protein Myb-binding protein 1A (MYBBP1A) acts as a nucleolar stress response molecule by regulating p53 acetylation'
p191
as(S'PAX5'
p192
S'CYP26A1'
p193
S'increases'
p194
tp195
(lp196
s(S'FOXO4'
p197
S'FOXD3'
p198
S'increases'
p199
tp200
(lp201
s(S'CYP26A1'
p202
S'FOXO4'
p203
S'increases'
p204
tp205
(lp206
s(S'cell adhesion'
p207
S'HRAS/GDP'
p208
S'increases_activity'
p209
tp210
(lp211
s(S'IRF7'
p212
S'CYP26A1'
p213
S'increases'
p214
tp215
(lp216
s(S'7,8-Dihydro-7,8-dihydroxybenzo(a)pyrene 9,10-oxide'
p217
S'KRAS PROTEIN'
p218
S'increases'
p219
tp220
(lp221
s(S'PITX2'
p222
S'POU2F1'
p223
S'increases'
p224
tp225
(lp226
s(S'E2F1'
p227
S'CYP26A1'
p228
S'increases'
p229
tp230
(lp231
s(S'ATF1'
p232
S'CYP26A1'
p233
S'increases'
p234
tp235
(lp236
s(S'PI3K'
p237
S'PKC DELTA'
p238
S'adds_modification'
p239
tp240
(lp241
s(S'SOX5'
p242
S'HOXA9'
p243
S'increases'
p244
tp245
(lp246
s(S'FOXO4'
p247
S'POU2F1'
p248
S'increases'
p249
tp250
(lp251
s(S'FOXO4'
p252
S'GATA6'
p253
S'increases'
p254
tp255
(lp256
s(S'LEF1'
p257
S'FOXF2'
p258
S'increases'
p259
tp260
(lp261
s(S'Insulin Receptor/Insuli/IRS1/GRB2/SHC/Sos'
p262
S'HRAS/GDP'
p263
S'increases_activity'
p264
tp265
(lp266
s(S'TLX2'
p267
S'RUNX1'
p268
S'increases'
p269
tp270
(lp271
s(S'ALX4'
p272
S'JUN'
p273
S'increases'
p274
tp275
(lp276
s(S'RHOA/GTP'
p277
S'RHOGDI'
p278
S'binds'
p279
tp280
(lp281
s(S'GCM1'
p282
S'CYP26A1'
p283
S'increases'
p284
tp285
(lp286
s(S'RB1'
p287
S'ONECUT1'
p288
S'increases'
p289
tp290
(lp291
s(S'NHLH1'
p292
S'CYP26A1'
p293
S'increases'
p294
tp295
(lp296
s(S'NR3C1'
p297
S'BACH1'
p298
S'increases'
p299
tp300
(lp301
s(S'HNF4A'
p302
S'CYP26A1'
p303
S'increases'
p304
tp305
(lp306
s(S'YY1'
p307
S'FOXO3'
p308
S'increases'
p309
tp310
(lp311
s(S'GRB2:SOS1'
p312
S'P-EGFR MUTANTS DIMER'
p313
S'binds'
p314
tp315
(lp316
s(S'P-Y349,350-SHC1:P-ERBB4'
p317
S'GRB2:SOS1'
p318
S'binds'
p319
tp320
(lp321
s(S'FOXN1'
p322
S'ONECUT1'
p323
S'increases'
p324
tp325
(lp326
s(S'TFAP4'
p327
S'MYC'
p328
S'increases'
p329
tp330
(lp331
s(S'MYC'
p332
S'EN1'
p333
S'increases'
p334
tp335
(lp336
s(S'Antigen/IgE/Fc epsilon R1/LYN/SYK'
p337
S'SHC/GRB2/SOS1'
p338
S'increases_activity'
p339
tp340
(lp341
s(S'14-3-3 BETA, ZETA'
p342
S'GARNL4'
p343
S'binds'
p344
tp345
(lp346
s(S'SMAD1'
p347
S'EN1'
p348
S'increases'
p349
tp350
(lp351
s(S'Raf-1'
p352
S'MEK1-2'
p353
S'adds_modification'
p354
tp355
(lp356
s(S'POU2F1'
p357
S'FOXO3'
p358
S'increases'
p359
tp360
(lp361
s(S'NGF (dimer)/TRKA'
p362
S'RASGRF1'
p363
S'adds_modification'
p364
tp365
(lp366
s(S'TCF4'
p367
S'CYP26A1'
p368
S'increases'
p369
tp370
(lp371
s(S'STAT5B'
p372
S'TLX2'
p373
S'increases'
p374
tp375
(lp376
s(S'CYP26A1'
p377
S'SRF'
p378
S'increases'
p379
tp380
(lp381
s(S'STAT1'
p382
S'NRAS'
p383
S'increases'
p384
tp385
(lp386
s(S'TFDP1'
p387
S'GATA1'
p388
S'increases'
p389
tp390
(lp391
s(S'PI3K'
p392
S'ALPHA6/BETA4 INTEGRIN/LAMININ'
p393
S'binds'
p394
tp395
(lp396
s(S'FOXF2'
p397
S'NRAS'
p398
S'increases'
p399
tp400
(lp401
s(S'CUX1'
p402
S'POU2F1'
p403
S'increases'
p404
tp405
(lp406
s(S'ETS2'
p407
S'STAT4'
p408
S'increases'
p409
tp410
(lp411
s(S'EN1'
p412
S'CYP26A1'
p413
S'increases'
p414
tp415
(lp416
s(S'COMPLEX (RAS/GTP)'
p417
S'RAF'
p418
S'binds'
p419
tp420
(lp421
s(S'LEF1'
p422
S'EN1'
p423
S'increases'
p424
tp425
(lp426
s(S'FOXL1'
p427
S'NRAS'
p428
S'increases'
p429
tp430
(lp431
s(S'ELF2'
p432
S'CYP26A1'
p433
S'increases'
p434
tp435
(lp436
s(S'Src Family Kinases-active'
p437
S'EGF/EGFR'
p438
S'adds_modification'
p439
tp440
(lp441
s(S'RUNX1'
p442
S'POU2F1'
p443
S'increases'
p444
tp445
(lp446
s(S'RHOA/GTP'
p447
S'CITRON-N'
p448
S'increases_activity'
p449
tp450
(lp451
s(S'PAX4'
p452
S'SRF'
p453
S'increases'
p454
tp455
(lp456
s(S'Vitamin E'
p457
S'HRAS MRNA'
p458
S'increases'
p459
tp460
(lp461
s(S'CDX2'
p462
S'FOXD3'
p463
S'increases'
p464
tp465
(lp466
s(S'Plant Extracts'
p467
S'KEAP1 PROTEIN'
p468
S'decreases'
p469
tp470
(lp471
s(S'PAX4'
p472
S'CBFA2T3'
p473
S'increases'
p474
tp475
(lp476
s(S'FOXD1'
p477
S'CYP26A1'
p478
S'increases'
p479
tp480
(lp481
s(S'Antigen/IgE/Fc epsilon R1/LYN/SYK'
p482
S'VAV1'
p483
S'adds_modification'
p484
tp485
(lp486
s(S'PCBP1'
p487
S'MEIS1'
p488
S'increases'
p489
tp490
(lp491
s(S'FOXI1'
p492
S'FOXD3'
p493
S'increases'
p494
tp495
(lp496
s(S'GATA4'
p497
S'MEIS1'
p498
S'increases'
p499
tp500
(lp501
s(S'STAT5B'
p502
S'CEBPG'
p503
S'increases'
p504
tp505
(lp506
s(S'TFDP2'
p507
S'MAZ'
p508
S'increases'
p509
tp510
(lp511
s(S'PI3K'
p512
S'SHP2'
p513
S'binds'
p514
tp515
(lp516
s(S'SPI1'
p517
S'ONECUT1'
p518
S'increases'
p519
tp520
(lp521
s(S'STAT6'
p522
S'EN1'
p523
S'increases'
p524
tp525
(lp526
s(S'TLX2'
p527
S'CYP26A1'
p528
S'increases'
p529
tp530
(lp531
s(S'RAF1'
p532
S'MEK1-2'
p533
S'increases_activity'
p534
tp535
(lp536
s(S'STAT5A'
p537
S'IRF1'
p538
S'increases'
p539
tp540
(lp541
s(S'2-amino-1-methyl-6-phenylimidazo(4,5-b)pyridine'
p542
S'HRAS MRNA'
p543
S'increases'
p544
tp545
(lp546
s(S'MAZ'
p547
S'POU2F1'
p548
S'increases'
p549
tp550
(lp551
s(S'MAZ'
p552
S'SRF'
p553
S'increases'
p554
tp555
(lp556
s(S'GATA1'
p557
S'JUN'
p558
S'increases'
p559
tp560
(lp561
s(S'FOXA1'
p562
S'NRAS'
p563
S'increases'
p564
tp565
(lp566
s(S'STAT1'
p567
S'EN1'
p568
S'increases'
p569
tp570
(lp571
s(S'GTF2A2'
p572
S'MAX'
p573
S'increases'
p574
tp575
(lp576
s(S'LMO2'
p577
S'EN1'
p578
S'increases'
p579
tp580
(lp581
s(S'MYOD1'
p582
S'LEF1'
p583
S'increases'
p584
tp585
(lp586
s(S'ATF3'
p587
S'JUN'
p588
S'increases'
p589
tp590
(lp591
s(S'GRB2:SOS1'
p592
S'ACTIVATED FGFR:P-SHC1'
p593
S'binds'
p594
tp595
(lp596
s(S'MAFG'
p597
S'BACH1'
p598
S'increases'
p599
tp600
(lp601
s(S'POU3F2'
p602
S'POU2F1'
p603
S'increases'
p604
tp605
(lp606
s(S'K 7174'
p607
S'KRAS MRNA'
p608
S'increases'
p609
tp610
(lp611
s(S'POU1F1'
p612
S'RUNX1'
p613
S'increases'
p614
tp615
(lp616
s(S'HRAS protein'
p617
S'CCND1 MRNA'
p618
S'increases'
p619
tp620
(lp621
s(S'YY1'
p622
S'EN1'
p623
S'increases'
p624
tp625
(lp626
s(S'resveratrol'
p627
S'HRAS MRNA'
p628
S'increases'
p629
tp630
(lp631
s(S'NKX2-1'
p632
S'HOXA9'
p633
S'increases'
p634
tp635
(lp636
s(S'HSF1'
p637
S'CYP26A1'
p638
S'increases'
p639
tp640
(lp641
s(S'MYC'
p642
S'HOXA9'
p643
S'increases'
p644
tp645
(lp646
s(S'Raf'
p647
S'MEK'
p648
S'adds_modification'
p649
tp650
(lp651
S'One previous publication also suggested that the Raf-MEK-ERK pathway might play a role in maintaining satellite cell quiescence ['
p652
aS'Classical growth factors, upon binding to their cognate receptors with intrinsic tyrosine kinase activity, activate several downstream pathways that lead to proliferation: Ras GTPase through Raf and MEK to the ERK MAPKs, PI3K activation of Akt/PKB, and the STAT pathways.'
p653
aS'An alternative approach is to inhibit the IGF1R/IR downstream signaling cascade with PI3K/AKT/mTOR and/or Raf/Ras/MEK/ERK inhibitors.'
p654
aS'Expression of pRaf (ser 338), an upstream activator of MEK1, was associated with disease relapse and decreased overall survival of patients with breast cancer who were treated with tamoxifen.'
p655
aS'Therapeutic implications of Ras-Raf-MEK-ERK targeting in bone sarcomas.'
p656
aS'Growth factor-induced activation of Ras leads to the activation of Raf, followed by the activation of MAPK/ERK kinases (MEK1-MEK2) and lastly the activation of ERK1 and ERK2 ('
p657
aS'The roles of tyrosine kinase-dependant growth factors (Raf, VEGF and PDGF) and extracellular signal-regulated kinase (ERK) and MEK in the development of HCC have been well established.'
p658
aS'Essentially, this system enabled the authors to specifically target myelinating Schwann cells and activate the Raf/MEK/ERK signaling pathway '
p659
aS'One of the core signaling pathways activated by Ras is the Raf-MEK-ERK mitogen-activated protein kinase cascade (MAPK cascade) by which Ras is able to signal to targets in the cytosol as well as in the nucleus.'
p660
aS'The Rac effector PAK was shown to activate Raf and MEK1, both downstream targets of Ras.'
p661
aS'Raf-MEK and PI3K-Akt intracellular pathways downstream of basic fibroblast growth factor (bFGF) have opposing actions in the regulation of Nurr1 protein decay. '
p662
aS'Of particular importance are the FAK and Raf/Ras/MEK/ERK pathways.'
p663
aS'XIAP-dependent regulation of neuritogenesis is mediated by the activation of the MEK/ERK pathway through the interaction of XIAP with cRaf and Trk receptors.'
p664
aS'The only well-characterized connection between XIAP and elements of MEK/ERK signalling pathway is the direct interaction with cRaf, also called Raf1'
p665
aS'Until now, the only direct link established between XIAP and MEK/ERK pathway was the interaction with cRaf, which induces the kinase ubiquitination and proteosomal degradation'
p666
aS'The mitogen activated protein kinase (MAPK) ERK2, a serine/threonine kinase, is activated downstream of the Ras-Raf-MEK cascade in response to a variety of extracellular cues including growth factors, cytokines, hormones, neurotransmitters and osmotic stress'
p667
aS'For example, the Ras/Raf/MEK/ERK pathway has been reported to enhance cell motility'
p668
as(S'TFDP1'
p669
S'MAZ'
p670
S'increases'
p671
tp672
(lp673
s(S'SPRED1'
p674
S'HRAS'
p675
S'binds'
p676
tp677
(lp678
s(S'MYCN'
p679
S'CYP26A1'
p680
S'increases'
p681
tp682
(lp683
s(S'AHR'
p684
S'FOXD3'
p685
S'increases'
p686
tp687
(lp688
s(S'SF1'
p689
S'CYP26A1'
p690
S'increases'
p691
tp692
(lp693
s(S'MEIS1'
p694
S'ETS1'
p695
S'increases'
p696
tp697
(lp698
s(S'Copper Sulfate'
p699
S'HRAS MRNA'
p700
S'decreases'
p701
tp702
(lp703
s(S'MAZ'
p704
S'MYC'
p705
S'increases'
p706
tp707
(lp708
s(S'E4F1'
p709
S'HOXA9'
p710
S'increases'
p711
tp712
(lp713
s(S'GATA1'
p714
S'GATA6'
p715
S'increases'
p716
tp717
(lp718
s(S'RUNX2'
p719
S'POU2F1'
p720
S'increases'
p721
tp722
(lp723
s(S'CYP26A1'
p724
S'GATA6'
p725
S'increases'
p726
tp727
(lp728
s(S'PAX4'
p729
S'GATA1'
p730
S'increases'
p731
tp732
(lp733
s(S'ELF2'
p734
S'STAT5A'
p735
S'increases'
p736
tp737
(lp738
s(S'CART1'
p739
S'NRAS'
p740
S'increases'
p741
tp742
(lp743
s(S'IGF-1R heterotetramer/IGF1/GRB2/Sos/Shc'
p744
S'HRAS/GDP'
p745
S'increases_activity'
p746
tp747
(lp748
s(S'RB1'
p749
S'CYP26A1'
p750
S'increases'
p751
tp752
(lp753
s(S'CEBPG'
p754
S'HOXA9'
p755
S'increases'
p756
tp757
(lp758
s(S'GRB2/SOS1/SHC'
p759
S'IGF-1R HETEROTETRAMER/IGF1'
p760
S'binds'
p761
tp762
(lp763
s(S'PRRX2'
p764
S'CYP26A1'
p765
S'increases'
p766
tp767
(lp768
s(S'TEAD1'
p769
S'CYP26A1'
p770
S'increases'
p771
tp772
(lp773
s(S'STAT5A'
p774
S'FOXA1'
p775
S'increases'
p776
tp777
(lp778
s(S'ATF2'
p779
S'FOXD3'
p780
S'increases'
p781
tp782
(lp783
s(S'REPIN1'
p784
S'FOXO4'
p785
S'increases'
p786
tp787
(lp788
s(S'FOXF2'
p789
S'ETS1'
p790
S'increases'
p791
tp792
(lp793
s(S'ETV7'
p794
S'MEIS1'
p795
S'increases'
p796
tp797
(lp798
s(S'RUNX2'
p799
S'RUNX1'
p800
S'increases'
p801
tp802
(lp803
s(S'OR5I1'
p804
S'GATA1'
p805
S'increases'
p806
tp807
(lp808
s(S'MSX1'
p809
S'EN1'
p810
S'increases'
p811
tp812
(lp813
s(S'GTF3A'
p814
S'IRF1'
p815
S'increases'
p816
tp817
(lp818
s(S'POU2F1'
p819
S'SRF'
p820
S'increases'
p821
tp822
(lp823
s(S'PLC-GAMMA'
p824
S'COMPLEX (GADS/SLP-76)'
p825
S'binds'
p826
tp827
(lp828
s(S'STAT4'
p829
S'STAT5A'
p830
S'increases'
p831
tp832
(lp833
s(S'JUN'
p834
S'BACH1'
p835
S'increases'
p836
tp837
(lp838
s(S'POU1F1'
p839
S'HOXA9'
p840
S'increases'
p841
tp842
(lp843
s(S'docetaxel'
p844
S'HRAS PROTEIN'
p845
S'increases'
p846
tp847
(lp848
s(S'MAX'
p849
S'LEF1'
p850
S'increases'
p851
tp852
(lp853
s(S'FOXA1'
p854
S'CYP26A1'
p855
S'increases'
p856
tp857
(lp858
s(S'GATA4'
p859
S'FOXD3'
p860
S'increases'
p861
tp862
(lp863
s(S'ZBTB18'
p864
S'RUNX1'
p865
S'increases'
p866
tp867
(lp868
s(S'ATF3'
p869
S'RUNX1'
p870
S'increases'
p871
tp872
(lp873
s(S'NKX2-1'
p874
S'CYP26A1'
p875
S'increases'
p876
tp877
(lp878
s(S'NR3C1'
p879
S'FOXA1'
p880
S'increases'
p881
tp882
(lp883
s(S'RAS family/GTP'
p884
S'RIN1'
p885
S'increases_activity'
p886
tp887
(lp888
s(S'COMPLEX (RAS/GTP/ RAF)'
p889
S'MEK'
p890
S'binds'
p891
tp892
(lp893
s(S'CDC5L'
p894
S'NRAS'
p895
S'increases'
p896
tp897
(lp898
s(S'Vitamin E'
p899
S'NRAS MRNA'
p900
S'decreases'
p901
tp902
(lp903
s(S'NF1'
p904
S'LEF1'
p905
S'increases'
p906
tp907
(lp908
s(S'ETS1'
p909
S'EN1'
p910
S'increases'
p911
tp912
(lp913
s(S'CRAF'
p914
S'YWHAB'
p915
S'binds'
p916
tp917
(lp918
s(S'CEBPD'
p919
S'JUN'
p920
S'increases'
p921
tp922
(lp923
s(S'MAX'
p924
S'RUNX2'
p925
S'increases'
p926
tp927
(lp928
s(S'CEBPA'
p929
S'MECOM'
p930
S'increases'
p931
tp932
(lp933
s(S'PAX2'
p934
S'GATA1'
p935
S'increases'
p936
tp937
(lp938
s(S'CYP26A1'
p939
S'TLX2'
p940
S'increases'
p941
tp942
(lp943
s(S'GFI1'
p944
S'ETS1'
p945
S'increases'
p946
tp947
(lp948
s(S'14-3-3:P-S259,Y340,Y341,S621-RAF1:RAS:GTP'
p949
S'MEK'
p950
S'binds'
p951
tp952
(lp953
s(S'P-S,T-MEK2'
p954
S'ERK2'
p955
S'binds'
p956
tp957
(lp958
s(S'HRAS/GTP'
p959
S'RIN2'
p960
S'increases_activity'
p961
tp962
(lp963
s(S'Ras-GTP'
p964
S'P42/P44MAPKS'
p965
S'adds_modification'
p966
tp967
(lp968
s(S'SRF'
p969
S'CYP26A1'
p970
S'increases'
p971
tp972
(lp973
s(S'FOXL1'
p974
S'RUNX2'
p975
S'increases'
p976
tp977
(lp978
s(S'EGR4'
p979
S'LEF1'
p980
S'increases'
p981
tp982
(lp983
s(S'P-IRS1,2'
p984
S'GRB2:SOS1'
p985
S'binds'
p986
tp987
(lp988
s(S'VEGFR2 (dimer)/VEGFA (dimer)/alphav/beta3 Integrin/Vitronectin'
p989
S'SRC'
p990
S'adds_modification'
p991
tp992
(lp993
s(S'BACH2'
p994
S'BACH1'
p995
S'increases'
p996
tp997
(lp998
s(S'ONECUT1'
p999
S'RUNX1'
p1000
S'increases'
p1001
tp1002
(lp1003
s(S'FOXJ2'
p1004
S'RUNX2'
p1005
S'increases'
p1006
tp1007
(lp1008
s(S'PI-3-4-5-P3'
p1009
S'AKT1'
p1010
S'translocates'
p1011
tp1012
(lp1013
s(S'TFAP4'
p1014
S'BACH1'
p1015
S'increases'
p1016
tp1017
(lp1018
s(S'MEKK1/4'
p1019
S'MKK3/6'
p1020
S'adds_modification'
p1021
tp1022
(lp1023
s(S'VSX1'
p1024
S'MECOM'
p1025
S'increases'
p1026
tp1027
(lp1028
s(S'IRF1'
p1029
S'GATA6'
p1030
S'increases'
p1031
tp1032
(lp1033
s(S'MAX'
p1034
S'HOXA9'
p1035
S'increases'
p1036
tp1037
(lp1038
s(S'RB1'
p1039
S'MAZ'
p1040
S'increases'
p1041
tp1042
(lp1043
s(S'GATA1'
p1044
S'EN1'
p1045
S'increases'
p1046
tp1047
(lp1048
s(S'HIF1A'
p1049
S'SRF'
p1050
S'increases'
p1051
tp1052
(lp1053
s(S'IRF8'
p1054
S'CYP26A1'
p1055
S'increases'
p1056
tp1057
(lp1058
s(S'MTF1'
p1059
S'CYP26A1'
p1060
S'increases'
p1061
tp1062
(lp1063
s(S'PI-3-4-5-P3'
p1064
S'GAB1'
p1065
S'translocates'
p1066
tp1067
(lp1068
s(S'PI-3-4-5-P3'
p1069
S'AKT1'
p1070
S'adds_modification'
p1071
tp1072
(lp1073
s(S'RXRA'
p1074
S'HOXA9'
p1075
S'increases'
p1076
tp1077
(lp1078
s(S'AKT1'
p1079
S'RAF1'
p1080
S'binds'
p1081
tp1082
(lp1083
s(S'HSF2'
p1084
S'JUN'
p1085
S'increases'
p1086
tp1087
(lp1088
s(S'PAX2'
p1089
S'CYP26A1'
p1090
S'increases'
p1091
tp1092
(lp1093
s(S'ETV7'
p1094
S'CYP26A1'
p1095
S'increases'
p1096
tp1097
(lp1098
s(S'FOXO3'
p1099
S'NRAS'
p1100
S'increases'
p1101
tp1102
(lp1103
s(S'TP53'
p1104
S'REPIN1'
p1105
S'increases'
p1106
tp1107
(lp1108
s(S'STAT6'
p1109
S'CYP26A1'
p1110
S'increases'
p1111
tp1112
(lp1113
s(S'JUN'
p1114
S'NRAS'
p1115
S'increases'
p1116
tp1117
(lp1118
s(S'MYCN'
p1119
S'NRAS'
p1120
S'increases'
p1121
tp1122
(lp1123
s(S'STAT3'
p1124
S'YY1'
p1125
S'increases'
p1126
tp1127
(lp1128
S'From CPDB pathway analysis, we found 5 genes (YY1, RELA, STAT3, TCF3, LEF1) from the active sub-network to be part of Notch signaling.'
p1129
as(S'Methyl Methanesulfonate'
p1130
S'HRAS MRNA'
p1131
S'increases'
p1132
tp1133
(lp1134
s(S'RHOA/GTP'
p1135
S'PKN'
p1136
S'increases_activity'
p1137
tp1138
(lp1139
s(S'NHLH1'
p1140
S'FOXJ2'
p1141
S'increases'
p1142
tp1143
(lp1144
s(S'RAS family/GTP'
p1145
S'BRAF'
p1146
S'adds_modification'
p1147
tp1148
(lp1149
s(S'RELA'
p1150
S'FOXJ2'
p1151
S'increases'
p1152
tp1153
(lp1154
s(S'TCF3'
p1155
S'RUNX1'
p1156
S'increases'
p1157
tp1158
(lp1159
s(S'FOXF2'
p1160
S'FOXO4'
p1161
S'increases'
p1162
tp1163
(lp1164
s(S'ATF4'
p1165
S'FOXD3'
p1166
S'increases'
p1167
tp1168
(lp1169
s(S'HAND1'
p1170
S'MECOM'
p1171
S'increases'
p1172
tp1173
(lp1174
s(S'RHOA/GTP'
p1175
S'P27KIP1'
p1176
S'adds_modification'
p1177
tp1178
(lp1179
s(S'SRF'
p1180
S'NRAS'
p1181
S'increases'
p1182
tp1183
(lp1184
s(S'ESRRA'
p1185
S'POU3F2'
p1186
S'increases'
p1187
tp1188
(lp1189
s(S'BRAF'
p1190
S'MEK1'
p1191
S'adds_modification'
p1192
tp1193
(lp1194
S'BRAF mutations have been proposed as a responder marker of MEK1/2 inhibitors in a preclinical study.'
p1195
aS'However, current clinical approaches focusing on BRAF mutations have shown only moderate sensitivity of MEK1/2 inhibitors.'
p1196
aS'Trametinib and MEK162 are potent, highly specific inhibitors of MEK1/MEK2, BRAF downstream kinases ['
p1197
as(S'Cadmium Chloride'
p1198
S'KRAS PROTEIN'
p1199
S'increases'
p1200
tp1201
(lp1202
s(S'PRRX2'
p1203
S'MEIS1'
p1204
S'increases'
p1205
tp1206
(lp1207
s(S'MYC'
p1208
S'NRAS'
p1209
S'increases'
p1210
tp1211
(lp1212
s(S'MAZ'
p1213
S'KRAS'
p1214
S'increases'
p1215
tp1216
(lp1217
s(S'Rho Family GTPase-active'
p1218
S'PI3K'
p1219
S'increases_activity'
p1220
tp1221
(lp1222
s(S'STAT2'
p1223
S'CYP26A1'
p1224
S'increases'
p1225
tp1226
(lp1227
s(S'hsa-let-7a-5p'
p1228
S'KRAS'
p1229
S'decreases'
p1230
tp1231
(lp1232
s(S'POU3F2'
p1233
S'NRAS'
p1234
S'increases'
p1235
tp1236
(lp1237
s(S'SRF'
p1238
S'FOXO4'
p1239
S'increases'
p1240
tp1241
(lp1242
s(S'S1P1/Sphingosine-1-phosphate/PDGF-BB/PDGFRB (dimer)'
p1243
S'SRC FAMILY KINASES'
p1244
S'increases_activity'
p1245
tp1246
(lp1247
s(S'MYC/Max'
p1248
S'ERBB2'
p1249
S'decreases'
p1250
tp1251
(lp1252
s(S'SREBF1'
p1253
S'CBFA2T3'
p1254
S'increases'
p1255
tp1256
(lp1257
s(S'PI3K'
p1258
S'GELSOLIN/PI-3-4-5-P3'
p1259
S'binds'
p1260
tp1261
(lp1262
s(S'NHLH1'
p1263
S'EN1'
p1264
S'increases'
p1265
tp1266
(lp1267
s(S'LMO2'
p1268
S'GATA6'
p1269
S'increases'
p1270
tp1271
(lp1272
s(S'POU1F1'
p1273
S'FOXD3'
p1274
S'increases'
p1275
tp1276
(lp1277
s(S'hsa-miR-148b-3p'
p1278
S'NRAS'
p1279
S'decreases'
p1280
tp1281
(lp1282
s(S'Quercetin'
p1283
S'KRAS PROTEIN'
p1284
S'decreases'
p1285
tp1286
(lp1287
s(S'PAK2'
p1288
S'MEKK1'
p1289
S'adds_modification'
p1290
tp1291
(lp1292
s(S'LMO2'
p1293
S'MAZ'
p1294
S'increases'
p1295
tp1296
(lp1297
s(S'FOXO1'
p1298
S'POU3F2'
p1299
S'increases'
p1300
tp1301
(lp1302
s(S'NKX2-1'
p1303
S'MAZ'
p1304
S'increases'
p1305
tp1306
(lp1307
s(S'GRB2/SOS1'
p1308
S'PDGF-BB/PDGFRB (DIMER)/P52 SHC'
p1309
S'binds'
p1310
tp1311
(lp1312
s(S'PI3K'
p1313
S'CRK/P130 CAS/PAXILLIN'
p1314
S'increases_activity'
p1315
tp1316
(lp1317
s(S'ATF1'
p1318
S'FOXD3'
p1319
S'increases'
p1320
tp1321
(lp1322
s(S'GATA1'
p1323
S'SRF'
p1324
S'increases'
p1325
tp1326
(lp1327
s(S'TFAP2C'
p1328
S'CYP26A1'
p1329
S'increases'
p1330
tp1331
(lp1332
s(S'AHR'
p1333
S'MEIS1'
p1334
S'increases'
p1335
tp1336
(lp1337
s(S'ETS2'
p1338
S'CYP26A1'
p1339
S'increases'
p1340
tp1341
(lp1342
s(S'Estradiol'
p1343
S'NRAS MRNA'
p1344
S'increases'
p1345
tp1346
(lp1347
s(S'E2F1'
p1348
S'HOXA9'
p1349
S'increases'
p1350
tp1351
(lp1352
s(S'PDGF-BB/PDGFRB (DIMER)'
p1353
S'RASGAP'
p1354
S'binds'
p1355
tp1356
(lp1357
s(S'E2F1'
p1358
S'GABPB2'
p1359
S'increases'
p1360
tp1361
(lp1362
s(S'FOXJ1'
p1363
S'POU3F2'
p1364
S'increases'
p1365
tp1366
(lp1367
s(S'VSX1'
p1368
S'CYP26A1'
p1369
S'increases'
p1370
tp1371
(lp1372
s(S'SPI1'
p1373
S'CDC5L'
p1374
S'increases'
p1375
tp1376
(lp1377
s(S'Gi family'
p1378
S'HRAS/GDP'
p1379
S'increases_activity'
p1380
tp1381
(lp1382
s(S'TCF3'
p1383
S'CYP26A1'
p1384
S'increases'
p1385
tp1386
(lp1387
s(S'IGF-1R HETEROTETRAMER/IGF1/IRS1'
p1388
S'GRB2/SOS1'
p1389
S'binds'
p1390
tp1391
(lp1392
s(S'RAS family/GTP'
p1393
S'RALGDS'
p1394
S'translocates'
p1395
tp1396
(lp1397
s(S'PI3K'
p1398
S'RAC1/GDP'
p1399
S'increases_activity'
p1400
tp1401
(lp1402
s(S'Ca2+'
p1403
S'PKC'
p1404
S'increases_activity'
p1405
tp1406
(lp1407
s(S'ZIC1'
p1408
S'CYP26A1'
p1409
S'increases'
p1410
tp1411
(lp1412
s(S'IRF7'
p1413
S'TLX2'
p1414
S'increases'
p1415
tp1416
(lp1417
s(S'SHC/SHIP'
p1418
S'HRAS/GDP'
p1419
S'decreases_activity'
p1420
tp1421
(lp1422
s(S'hsa-let-7a-5p'
p1423
S'HRAS'
p1424
S'decreases'
p1425
tp1426
(lp1427
s(S'GATA4'
p1428
S'MAZ'
p1429
S'increases'
p1430
tp1431
(lp1432
s(S'EN1'
p1433
S'NRAS'
p1434
S'increases'
p1435
tp1436
(lp1437
s(S'PI3K'
p1438
S'BAM32'
p1439
S'adds_modification'
p1440
tp1441
(lp1442
s(S'GABPB1'
p1443
S'CYP26A1'
p1444
S'increases'
p1445
tp1446
(lp1447
s(S'Trifluoroethanol'
p1448
S'HRAS'
p1449
S'increases_activity'
p1450
tp1451
(lp1452
s(S'SOX5'
p1453
S'CYP26A1'
p1454
S'increases'
p1455
tp1456
(lp1457
s(S'GRB2/SOS1'
p1458
S'HGF(DIMER)/MET(DIMER)/P52 SHC'
p1459
S'binds'
p1460
tp1461
(lp1462
s(S'TCF12'
p1463
S'EN1'
p1464
S'increases'
p1465
tp1466
(lp1467
s(S'SOX9'
p1468
S'MEIS1'
p1469
S'increases'
p1470
tp1471
(lp1472
s(S'RB1'
p1473
S'MYC'
p1474
S'increases'
p1475
tp1476
(lp1477
s(S'RXRA'
p1478
S'FOXA1'
p1479
S'increases'
p1480
tp1481
(lp1482
s(S'decitabine'
p1483
S'HRAS MRNA'
p1484
S'decreases'
p1485
tp1486
(lp1487
s(S'VSX1'
p1488
S'EN1'
p1489
S'increases'
p1490
tp1491
(lp1492
s(S'FOXL1'
p1493
S'CYP26A1'
p1494
S'increases'
p1495
tp1496
(lp1497
s(S'PAX2'
p1498
S'RUNX1'
p1499
S'increases'
p1500
tp1501
(lp1502
s(S'MEKK1/4'
p1503
S'MKK4/7'
p1504
S'adds_modification'
p1505
tp1506
(lp1507
s(S'HOXA9'
p1508
S'CYP26A1'
p1509
S'increases'
p1510
tp1511
(lp1512
s(S'TRKC'
p1513
S'NT3 (DIMER)'
p1514
S'binds'
p1515
tp1516
(lp1517
s(S'PTF1A'
p1518
S'REPIN1'
p1519
S'increases'
p1520
tp1521
(lp1522
s(S'TGIF'
p1523
S'CYP26A1'
p1524
S'increases'
p1525
tp1526
(lp1527
s(S'MYOD1'
p1528
S'MYC'
p1529
S'increases'
p1530
tp1531
(lp1532
s(S'PKCT'
p1533
S'KRAS ISO2'
p1534
S'adds_modification'
p1535
tp1536
(lp1537
s(S'RAS family/GTP'
p1538
S'BRAF'
p1539
S'increases_activity'
p1540
tp1541
(lp1542
s(S'SPZ1'
p1543
S'CYP26A1'
p1544
S'increases'
p1545
tp1546
(lp1547
s(S'HRAS/GTP'
p1548
S'GALECTIN-1'
p1549
S'binds'
p1550
tp1551
(lp1552
s(S'DBP'
p1553
S'FOXD3'
p1554
S'increases'
p1555
tp1556
(lp1557
s(S'E2F1'
p1558
S'POU2F1'
p1559
S'increases'
p1560
tp1561
(lp1562
s(S'MEIS1'
p1563
S'CYP26A1'
p1564
S'increases'
p1565
tp1566
(lp1567
s(S'YY1'
p1568
S'NRAS'
p1569
S'increases'
p1570
tp1571
(lp1572
s(S'RAS:RAF'
p1573
S'YWHAB'
p1574
S'binds'
p1575
tp1576
(lp1577
s(S'NFE2L2'
p1578
S'CYP26A1'
p1579
S'increases'
p1580
tp1581
(lp1582
s(S'FARNESYL'
p1583
S'KRAS'
p1584
S'increases_activity'
p1585
tp1586
(lp1587
s(S'MTF1'
p1588
S'MECOM'
p1589
S'increases'
p1590
tp1591
(lp1592
s(S'TLX2'
p1593
S'FOXD3'
p1594
S'increases'
p1595
tp1596
(lp1597
s(S'Insulin Receptor/Insulin/SHC/GRB2/Sos1'
p1598
S'HRAS/GDP'
p1599
S'increases_activity'
p1600
tp1601
(lp1602
s(S'MYC'
p1603
S'ELK1'
p1604
S'increases'
p1605
tp1606
(lp1607
s(S'ONECUT1'
p1608
S'POU2F1'
p1609
S'increases'
p1610
tp1611
(lp1612
s(S'Paraquat'
p1613
S'HRAS MRNA'
p1614
S'translocates'
p1615
tp1616
(lp1617
s(S'GRB2/SOS1'
p1618
S'PDGF-BB/PDGFRB (DIMER)/SHP2'
p1619
S'binds'
p1620
tp1621
(lp1622
s(S'ONECUT1'
p1623
S'CYP26A1'
p1624
S'increases'
p1625
tp1626
(lp1627
s(S'MYC'
p1628
S'FOXO3'
p1629
S'increases'
p1630
tp1631
(lp1632
s(S'PAX3'
p1633
S'ELK1'
p1634
S'increases'
p1635
tp1636
(lp1637
s(S'DOK-R'
p1638
S'RASGAP'
p1639
S'binds'
p1640
tp1641
(lp1642
s(S'HOXA4'
p1643
S'HOXA9'
p1644
S'increases'
p1645
tp1646
(lp1647
s(S'MAX'
p1648
S'POU3F2'
p1649
S'increases'
p1650
tp1651
(lp1652
s(S'Estradiol'
p1653
S'KRAS MRNA'
p1654
S'decreases'
p1655
tp1656
(lp1657
s(S'KRAS ISOFORM 4B/GTP'
p1658
S'CAM/CA2+'
p1659
S'binds'
p1660
tp1661
(lp1662
s(S'MAZ'
p1663
S'FOXO4'
p1664
S'increases'
p1665
tp1666
(lp1667
s(S'hsa-miR-181a-5p'
p1668
S'KRAS'
p1669
S'decreases'
p1670
tp1671
(lp1672
s(S'GATA1'
p1673
S'CYP26A1'
p1674
S'increases'
p1675
tp1676
(lp1677
s(S'PGR'
p1678
S'ETS1'
p1679
S'increases'
p1680
tp1681
(lp1682
s(S'GATA1'
p1683
S'POU2F1'
p1684
S'increases'
p1685
tp1686
(lp1687
s(S'BRAF'
p1688
S'MEK1-2'
p1689
S'increases_activity'
p1690
tp1691
(lp1692
s(S'LEF1'
p1693
S'GABPB2'
p1694
S'increases'
p1695
tp1696
(lp1697
s(S'CYP26A1'
p1698
S'MYC'
p1699
S'increases'
p1700
tp1701
(lp1702
s(S'STAT1'
p1703
S'IRF1'
p1704
S'increases'
p1705
tp1706
(lp1707
S'Expression levels of signal transducer and activator of transcription 1 (STAT1), interferon regulatory factor 1 (IRF1), and the chemokines CXCL9, CXCL10, and CCL5 were statistically significantly higher in the synovium of RA than in that of OA.'
p1708
aS'Immunohistochemically, the lining synovium of RA, but not that of OA, clearly expressed STAT1, IRF1, and chemokines, as was seen in microarray analysis combined with LMD.'
p1709
aS'The immunohisto-chemical staining of STAT1 (BD Biosciences, Franklin Lakes, NJ, USA), CCL5, CXCL9, CXCL10 (R&D Systems, Inc, Minneapolis, MN, USA), and IRF1 (Abeam Inc, Cambridge, MA, USA) was performed in a single laboratory, as described previously ('
p1710
aS'Expression of chemokines (CCL5 and CXCL9/10) and transcription factors (IRF1 and STAT1) were selected and analysed using Gene-Spring software.'
p1711
aS'The 48 genes were: AIM2, ALOX5, ALPP, ANPEP, APP, AQP9, CCL3, CCL3L1, CCL5, CD2, CD247, CD79A, CD8A, CFB, CFH, COLEC12, CTGF, CXCL9, CXCL10, CXCL12, DEFB1, EGR2, FGR, GZMA, GZMH, HCP5, HLA-B, HLA-DQB1, ICAM3, IRF1, ISG20, ITGAX, LILRB2, LTB, PDE4B, PROS1, RAC2, S100A8, SEMA4D, SERPINA1, SLAMF6, STAT1, TAP1, TAPBP, and TGFBR3.'
p1712
aS'In an independent study using synovium from patients with OA and RA, we could confirm the existence of differential expressions of STAT1, CCL5, CXCL9/10, and IRF1 at the protein level ('
p1713
aS'The expressions of CCL5, CXCL9/10, STAT1, and IRF1 were found to be up-regulated in RA.'
p1714
aS'In our study, the results of immunohistochemical analysis of the up-regulated molecules, that is CCL5, CXCL9/10, STAT1, and IRF1, matched the results of the analysis of mRNA expression levels.'
p1715
as(S'SMAD1'
p1716
S'RUNX2'
p1717
S'increases'
p1718
tp1719
(lp1720
S'(I) OE of SMAD2 results in a greater reduction of RUNX2 as does OE of SMAD1.'
p1721
as(S'ZEB1'
p1722
S'TLX2'
p1723
S'increases'
p1724
tp1725
(lp1726
s(S'STAT5B'
p1727
S'IRF1'
p1728
S'increases'
p1729
tp1730
(lp1731
s(S'POU6F1'
p1732
S'CYP26A1'
p1733
S'increases'
p1734
tp1735
(lp1736
s(S'Vincristine'
p1737
S'HRAS MRNA'
p1738
S'increases'
p1739
tp1740
(lp1741
s(S'DAG'
p1742
S'RASGRP1'
p1743
S'adds_modification'
p1744
tp1745
(lp1746
s(S'PI3K'
p1747
S'PDK1'
p1748
S'increases_activity'
p1749
tp1750
(lp1751
S'PI3K catalyzes triple phosphorylation of phosphatidylinositol (PI) AKT in conjunction with its PDK1.'
p1752
aS'For example, the well-studied PI3K-PDK1-AKT, RAF-MEK-ERK, and TIAM1-RAC1 cascades regulate cell survival, cell proliferation, and cytoskeletal organization, respectively'
p1753
aS'PI3K catalyzes the phosphorylation of phosphatidylinositol (PI) into phosphatidylinositol-3 phosphate (PIP3), which recruits PDK1 and triggers the activation of the serine/threonine kinase AKT.'
p1754
as(S'ETS2'
p1755
S'PAX4'
p1756
S'increases'
p1757
tp1758
(lp1759
s(S'NR3C1'
p1760
S'ONECUT1'
p1761
S'increases'
p1762
tp1763
(lp1764
s(S'CUX1'
p1765
S'CYP26A1'
p1766
S'increases'
p1767
tp1768
(lp1769
s(S'ZEB1'
p1770
S'GATA1'
p1771
S'increases'
p1772
tp1773
(lp1774
s(S'NRF1'
p1775
S'POU2F1'
p1776
S'increases'
p1777
tp1778
(lp1779
s(S'FOXJ2'
p1780
S'MECOM'
p1781
S'increases'
p1782
tp1783
(lp1784
s(S'MAZ'
p1785
S'MYCN'
p1786
S'increases'
p1787
tp1788
(lp1789
s(S'Hydrogen Peroxide'
p1790
S'HRAS MRNA'
p1791
S'increases'
p1792
tp1793
(lp1794
s(S'RASA1'
p1795
S'P-EPHBS:EFNBS'
p1796
S'binds'
p1797
tp1798
(lp1799
s(S'SPI1'
p1800
S'CEBPG'
p1801
S'increases'
p1802
tp1803
(lp1804
s(S'EGR1'
p1805
S'LEF1'
p1806
S'increases'
p1807
tp1808
(lp1809
s(S'RET51/GFRALPHA1/GDNF'
p1810
S'P62DOK'
p1811
S'binds'
p1812
tp1813
(lp1814
s(S'TFDP2'
p1815
S'CYP26A1'
p1816
S'increases'
p1817
tp1818
(lp1819
s(S'matrine'
p1820
S'NRAS MRNA'
p1821
S'increases'
p1822
tp1823
(lp1824
s(S'Isotretinoin'
p1825
S'KRAS MRNA'
p1826
S'decreases'
p1827
tp1828
(lp1829
s(S'PITX2'
p1830
S'FOXF2'
p1831
S'increases'
p1832
tp1833
(lp1834
s(S'MYOD1'
p1835
S'POU2F1'
p1836
S'increases'
p1837
tp1838
(lp1839
s(S'sodium arsenite'
p1840
S'KRAS PROTEIN'
p1841
S'increases'
p1842
tp1843
(lp1844
s(S'TCF4'
p1845
S'CBFA2T3'
p1846
S'increases'
p1847
tp1848
(lp1849
s(S'CYP26A1'
p1850
S'FOXA1'
p1851
S'increases'
p1852
tp1853
(lp1854
s(S'TP53'
p1855
S'CYP26A1'
p1856
S'increases'
p1857
tp1858
(lp1859
s(S'ATF3'
p1860
S'FOXD3'
p1861
S'increases'
p1862
tp1863
(lp1864
s(S'POU2F1'
p1865
S'NRAS'
p1866
S'increases'
p1867
tp1868
(lp1869
s(S'NRF1'
p1870
S'GABPB2'
p1871
S'increases'
p1872
tp1873
(lp1874
s(S'PAX4'
p1875
S'TLX2'
p1876
S'increases'
p1877
tp1878
(lp1879
s(S'PITX2'
p1880
S'FOXA1'
p1881
S'increases'
p1882
tp1883
(lp1884
s(S'GTF3A'
p1885
S'POU2F1'
p1886
S'increases'
p1887
tp1888
(lp1889
s(S'HLF'
p1890
S'FOXO3'
p1891
S'increases'
p1892
tp1893
(lp1894
s(S'PAX4'
p1895
S'FOXO4'
p1896
S'increases'
p1897
tp1898
(lp1899
s(S'CEBPA'
p1900
S'FOXD3'
p1901
S'increases'
p1902
tp1903
(lp1904
s(S'NFE2'
p1905
S'CYP26A1'
p1906
S'increases'
p1907
tp1908
(lp1909
s(S'MYB'
p1910
S'GABPB2'
p1911
S'increases'
p1912
tp1913
(lp1914
s(S'MYC'
p1915
S'CEBPA'
p1916
S'increases'
p1917
tp1918
(lp1919
s(S'ELK1'
p1920
S'EN1'
p1921
S'increases'
p1922
tp1923
(lp1924
s(S'E2F1'
p1925
S'CDC5L'
p1926
S'increases'
p1927
tp1928
(lp1929
s(S'YWHAZ (DIMER)'
p1930
S'RAF1'
p1931
S'binds'
p1932
tp1933
(lp1934
s(S'ATF6'
p1935
S'CYP26A1'
p1936
S'increases'
p1937
tp1938
(lp1939
s(S'sodium arsenite'
p1940
S'HRAS MRNA'
p1941
S'increases'
p1942
tp1943
(lp1944
s(S'EGR3'
p1945
S'CYP26A1'
p1946
S'increases'
p1947
tp1948
(lp1949
s(S'lead acetate'
p1950
S'HRAS PROTEIN'
p1951
S'increases_activity'
p1952
tp1953
(lp1954
s(S'REPIN1'
p1955
S'MYC'
p1956
S'increases'
p1957
tp1958
(lp1959
s(S'CEBPA'
p1960
S'NRAS'
p1961
S'increases'
p1962
tp1963
(lp1964
s(S'Quercetin'
p1965
S'NRAS MRNA'
p1966
S'decreases'
p1967
tp1968
(lp1969
s(S'14-3-3 E'
p1970
S'TERT'
p1971
S'binds'
p1972
tp1973
(lp1974
s(S'Antigen/IgE/Fc epsilon R1/LYN/SYK'
p1975
S'BTK'
p1976
S'adds_modification'
p1977
tp1978
(lp1979
s(S'HSF2'
p1980
S'CBFA2T3'
p1981
S'increases'
p1982
tp1983
(lp1984
s(S'Fluorouracil'
p1985
S'HRAS MRNA'
p1986
S'increases'
p1987
tp1988
(lp1989
s(S'STAT4'
p1990
S'MECOM'
p1991
S'increases'
p1992
tp1993
(lp1994
s(S'ETS2'
p1995
S'ETS1'
p1996
S'increases'
p1997
tp1998
(lp1999
S'Advanced stages of CaP are associated with the expression of ETS1 and ETS2.'
p2000
as(S'CEBPG'
p2001
S'CYP26A1'
p2002
S'increases'
p2003
tp2004
(lp2005
s(S'Complex (PDGF receptor A/PDGF receptor B)'
p2006
S'NCK'
p2007
S'adds_modification'
p2008
tp2009
(lp2010
s(S'Fog1'
p2011
S'MYB'
p2012
S'decreases'
p2013
tp2014
(lp2015
s(S'CREB1'
p2016
S'FOXD3'
p2017
S'increases'
p2018
tp2019
(lp2020
s(S'Numb'
p2021
S'NICS'
p2022
S'translocates'
p2023
tp2024
(lp2025
s(S'STAT6'
p2026
S'STAT5A'
p2027
S'increases'
p2028
tp2029
(lp2030
S'The data presented here demonstrated that while STAT6 phosphorylation increases with re-expression of wild-type EPHB4, indicating a pro-survival response, STAT5A phosphorylation was decreased with EPHB4 knockdown.'
p2031
aS'It may be the case that STAT5A acts as an attempted survival mechanism upon knockdown of EPHB4 and the resulting lack of growth stimulation and that this role is distinct from STAT6 in this cell line.'
p2032
aS'Relative to wild-type EPHB4, two point mutations in EPHB4 caused decreased phosphorylation of STAT3, and the P881S mutation decreased the phosphorylation of STAT5A and STAT6.'
p2033
aS'The STAT family is comprised of seven distinct members (STAT1-STAT6), among which are the two related forms of STAT5 (STAT5A and STAT5B)'
p2034
as(S'RAF1/14-3-3'
p2035
S'BRAF/14-3-3'
p2036
S'binds'
p2037
tp2038
(lp2039
s(S'B-cell antigen/BCR complex/LYN/SYK/BLNK'
p2040
S'SHC/GRB2/SOS1'
p2041
S'increases_activity'
p2042
tp2043
(lp2044
s(S'IRF2'
p2045
S'CYP26A1'
p2046
S'increases'
p2047
tp2048
(lp2049
s(S'GATA6'
p2050
S'CYP26A1'
p2051
S'increases'
p2052
tp2053
(lp2054
s(S'HMGA1'
p2055
S'CYP26A1'
p2056
S'increases'
p2057
tp2058
(lp2059
s(S'MTF1'
p2060
S'FOXO4'
p2061
S'increases'
p2062
tp2063
(lp2064
s(S'STAT1'
p2065
S'GABPB2'
p2066
S'increases'
p2067
tp2068
(lp2069
s(S'manumycin'
p2070
S'HRAS PROTEIN'
p2071
S'decreases'
p2072
tp2073
(lp2074
s(S'STAT5A'
p2075
S'ETS1'
p2076
S'increases'
p2077
tp2078
(lp2079
s(S'SPI1'
p2080
S'CBFA2T3'
p2081
S'increases'
p2082
tp2083
(lp2084
s(S'GMCSF/GMR ALPHA/CSF2RB/JAK2 (DODECAMER)/SHC'
p2085
S'GRB2/SOS1'
p2086
S'binds'
p2087
tp2088
(lp2089
s(S'7,8-Dihydro-7,8-dihydroxybenzo(a)pyrene 9,10-oxide'
p2090
S'NRAS PROTEIN'
p2091
S'increases'
p2092
tp2093
(lp2094
s(S'CDC5L'
p2095
S'CYP26A1'
p2096
S'increases'
p2097
tp2098
(lp2099
s(S'PAX4'
p2100
S'POU3F2'
p2101
S'increases'
p2102
tp2103
(lp2104
s(S'SPRED2'
p2105
S'HRAS'
p2106
S'binds'
p2107
tp2108
(lp2109
s(S'PITX2'
p2110
S'FOXO4'
p2111
S'increases'
p2112
tp2113
(lp2114
s(S'FOXD3'
p2115
S'CYP26A1'
p2116
S'increases'
p2117
tp2118
(lp2119
s(S'NFIL3'
p2120
S'FOXO3'
p2121
S'increases'
p2122
tp2123
(lp2124
s(S'MTF1'
p2125
S'POU2F1'
p2126
S'increases'
p2127
tp2128
(lp2129
s(S'TFCP2'
p2130
S'BACH1'
p2131
S'increases'
p2132
tp2133
(lp2134
s(S'NF1'
p2135
S'MECOM'
p2136
S'increases'
p2137
tp2138
(lp2139
s(S'FOXO3'
p2140
S'FOXD3'
p2141
S'increases'
p2142
tp2143
(lp2144
s(S'STAT5A'
p2145
S'TLX2'
p2146
S'increases'
p2147
tp2148
(lp2149
s(S'RIN1'
p2150
S'HRAS/GTP'
p2151
S'adds_modification'
p2152
tp2153
(lp2154
s(S'STAT5A'
p2155
S'CEBPG'
p2156
S'increases'
p2157
tp2158
(lp2159
s(S'DAG'
p2160
S'PKC'
p2161
S'increases_activity'
p2162
tp2163
(lp2164
S'Jak: janus kinase; STAT: signal transducing proteins and activator of transcription; STAT-P: phosphorylated STAT (active); PDE 4: phosphodiesterase 4; NF-KB: nuclear factor kappaB; PKC: protein kinases C; DAG: diacylglycerol; cAMP: cyclic adenosine monophosphate; AMP: adenosine monophosphate.'
p2165
aS'It was previously reported that the transmembrane guanylyl cyclase GCY-28 and axonal diacylglycerol (DAG) signalling through the protein kinase C (PKC-1) regulate synaptic outputs of the AWC sensory neurons and the activity of AIB interneurons'
p2166
aS'The protein kinase C (PKC) family consists of at least 11 members being classified into three groups: classical, novel, and atypical PKCs, depending on their requirement for regulation by calcium and diacylglycerol (DAG)'
p2167
as(S'HNF4A'
p2168
S'FOXA1'
p2169
S'increases'
p2170
tp2171
(lp2172
s(S'LEF1'
p2173
S'MAZ'
p2174
S'increases'
p2175
tp2176
(lp2177
s(S'hsa-miR-124-3p'
p2178
S'NRAS'
p2179
S'decreases'
p2180
tp2181
(lp2182
s(S'RAF1'
p2183
S'14-3-3 E'
p2184
S'binds'
p2185
tp2186
(lp2187
s(S'GATA1'
p2188
S'MYB'
p2189
S'decreases'
p2190
tp2191
(lp2192
s(S'LMO2'
p2193
S'GATA1'
p2194
S'increases'
p2195
tp2196
(lp2197
S'The noted hinge region between the two LIM domains provides the motional flexibility that locks LMO2-LDB1 interactions and places LMO2 in a configuration that facilitates the surrounding protein complex formation involving variously TAL1/SCL, E47 and GATA1.'
p2198
aS'When it binds to a natural partner such as LDB1 (shown in red), a structural constraint is imposed on LMO2 and the heterodimer can nucleate subsequent protein complex formation, depicted here the complex found in erythroid cells including GATA1.'
p2199
as(S'HRAS/GTP'
p2200
S'RAF1'
p2201
S'increases_activity'
p2202
tp2203
(lp2204
s(S'MYCN'
p2205
S'RUNX2'
p2206
S'increases'
p2207
tp2208
(lp2209
s(S'STAT5B'
p2210
S'CYP26A1'
p2211
S'increases'
p2212
tp2213
(lp2214
s(S'ZIC2'
p2215
S'MYCN'
p2216
S'increases'
p2217
tp2218
(lp2219
s(S'FOXL1'
p2220
S'FOXD3'
p2221
S'increases'
p2222
tp2223
(lp2224
s(S'ZBTB18'
p2225
S'CBFA2T3'
p2226
S'increases'
p2227
tp2228
(lp2229
s(S'HSF1'
p2230
S'IRF1'
p2231
S'increases'
p2232
tp2233
(lp2234
s(S'SPZ1'
p2235
S'MAZ'
p2236
S'increases'
p2237
tp2238
(lp2239
s(S'SRY'
p2240
S'CYP26A1'
p2241
S'increases'
p2242
tp2243
(lp2244
s(S'FOXO4'
p2245
S'HOXA9'
p2246
S'increases'
p2247
tp2248
(lp2249
s(S'IGF-1R heterotetramer/IGF1/IRS1/GRB2/Sos'
p2250
S'HRAS/GDP'
p2251
S'increases_activity'
p2252
tp2253
(lp2254
s(S'hsa-miR-615-3p'
p2255
S'HRAS'
p2256
S'decreases'
p2257
tp2258
(lp2259
s(S'ESRRA'
p2260
S'FOXD3'
p2261
S'increases'
p2262
tp2263
(lp2264
s(S'ELK1'
p2265
S'CYP26A1'
p2266
S'increases'
p2267
tp2268
(lp2269
s(S'Hexane-1,6-Diol'
p2270
S'HRAS'
p2271
S'increases_activity'
p2272
tp2273
(lp2274
s(S'MAZ'
p2275
S'NRAS'
p2276
S'increases'
p2277
tp2278
(lp2279
s(S'MIF'
p2280
S'CYP26A1'
p2281
S'increases'
p2282
tp2283
(lp2284
s(S'AHR'
p2285
S'POU2F1'
p2286
S'increases'
p2287
tp2288
(lp2289
s(S'SMAD3'
p2290
S'CYP26A1'
p2291
S'increases'
p2292
tp2293
(lp2294
s(S'PI-3-4-5-P3'
p2295
S'GELSOLIN'
p2296
S'binds'
p2297
tp2298
(lp2299
s(S'ADP'
p2300
S'P-S724-IRE1 DIMER'
p2301
S'binds'
p2302
tp2303
(lp2304
s(S'testosterone enanthate'
p2305
S'KRAS MRNA'
p2306
S'increases'
p2307
tp2308
(lp2309
s(S'CYP26A1'
p2310
S'ONECUT1'
p2311
S'increases'
p2312
tp2313
(lp2314
s(S'Valproic Acid'
p2315
S'NRAS MRNA'
p2316
S'decreases'
p2317
tp2318
(lp2319
s(S'GTF2A2'
p2320
S'CYP26A1'
p2321
S'increases'
p2322
tp2323
(lp2324
s(S'CEBPA'
p2325
S'FOXO3'
p2326
S'increases'
p2327
tp2328
(lp2329
s(S'GATA3'
p2330
S'POU2F1'
p2331
S'increases'
p2332
tp2333
(lp2334
s(S'PI3K'
p2335
S'RAC1B/GDP'
p2336
S'increases_activity'
p2337
tp2338
(lp2339
s(S'CDC25C'
p2340
S'YWHAB'
p2341
S'binds'
p2342
tp2343
(lp2344
s(S'RAC1/GTP'
p2345
S'PAK1/BETAPIX/PKL/NCK1-2'
p2346
S'increases_activity'
p2347
tp2348
(lp2349
s(S'SMAD1'
p2350
S'CYP26A1'
p2351
S'increases'
p2352
tp2353
(lp2354
s(S'PI3K'
p2355
S'FAK'
p2356
S'adds_modification'
p2357
tp2358
(lp2359
S'Effect of PI3K inhibitor, LY294002, on COL1 and FN-mediated phosphorylation of FAK and cell adhesion strengthening.'
p2360
aS'VEGFR inhibitor (SU5416), anti-HCC drug (sorafenib), MEK inhibitor (U0126), JNK inhibitor (SP600125), PI3K inhibitor (LY294002), p38 inhibitor (SB202190), ROCK inhibitor (Y27632), PKC activator (PMA), FAK inhibitor (Y15) were used to target various signaling pathways regulating angiogenesis.'
p2361
aS'Integrin clustering-mediated the activation of FAK results in the phosphorylation of Tyr397, which is a binding site for PI3K'
p2362
aS'Studies have demonstrated that the activation of FAK by integrin engagement or growth factor stimulation promote the activation of downstream signaling transduction cascades including Ras/MEK/ERK and PI3K/Akt, which can positive regulate pro-metastatic proteins'
p2363
aS'Activated FAK can stimulate Ras/MEK/ERK and PI3K/Akt pathways, leading to the activation or overexpression of MMPs and uPA'
p2364
as(S'NRF1'
p2365
S'MAX'
p2366
S'increases'
p2367
tp2368
(lp2369
s(S'FOXI1'
p2370
S'RUNX2'
p2371
S'increases'
p2372
tp2373
(lp2374
s(S'7,8-Dihydro-7,8-dihydroxybenzo(a)pyrene 9,10-oxide'
p2375
S'HRAS MRNA'
p2376
S'increases'
p2377
tp2378
(lp2379
s(S'ETS1'
p2380
S'CBFA2T3'
p2381
S'increases'
p2382
tp2383
(lp2384
s(S'hsa-miR-98-5p'
p2385
S'NRAS'
p2386
S'decreases'
p2387
tp2388
(lp2389
s(S'PHOSPHORYLATED BRF1 (SER92, SER203):MRNA COMPLEX'
p2390
S'YWHAB'
p2391
S'binds'
p2392
tp2393
(lp2394
s(S'LMO2'
p2395
S'CYP26A1'
p2396
S'increases'
p2397
tp2398
(lp2399
s(S'SOS1'
p2400
S'GRB2:PFAK BOUND TO NCAM1:PFYN'
p2401
S'binds'
p2402
tp2403
(lp2404
s(S'GTF3A'
p2405
S'GATA6'
p2406
S'increases'
p2407
tp2408
(lp2409
s(S'ZIC2'
p2410
S'CYP26A1'
p2411
S'increases'
p2412
tp2413
(lp2414
s(S'PAX2'
p2415
S'POU3F2'
p2416
S'increases'
p2417
tp2418
(lp2419
s(S'CEBPD'
p2420
S'FOXO3'
p2421
S'increases'
p2422
tp2423
(lp2424
s(S'NF1'
p2425
S'CYP26A1'
p2426
S'increases'
p2427
tp2428
(lp2429
s(S'BRAF'
p2430
S'MEK2'
p2431
S'adds_modification'
p2432
tp2433
(lp2434
g1197
as(S'TFAP4'
p2435
S'RUNX1'
p2436
S'increases'
p2437
tp2438
(lp2439
s(S'FAK'
p2440
S'SOS'
p2441
S'binds'
p2442
tp2443
(lp2444
s(S'EGR1'
p2445
S'RUNX1'
p2446
S'increases'
p2447
tp2448
(lp2449
s(S'TCF4'
p2450
S'FOXO4'
p2451
S'increases'
p2452
tp2453
(lp2454
s(S'MAZ'
p2455
S'CBFA2T3'
p2456
S'increases'
p2457
tp2458
(lp2459
s(S'MEIS1'
p2460
S'HRAS'
p2461
S'increases'
p2462
tp2463
(lp2464
s(S'RELA'
p2465
S'CYP26A1'
p2466
S'increases'
p2467
tp2468
(lp2469
s(S'hsa-miR-877-3p'
p2470
S'NRAS'
p2471
S'decreases'
p2472
tp2473
(lp2474
s(S'MYC'
p2475
S'LEF1'
p2476
S'increases'
p2477
tp2478
(lp2479
s(S'FOXO4'
p2480
S'RUNX1'
p2481
S'increases'
p2482
tp2483
(lp2484
s(S'LEF1'
p2485
S'RUNX1'
p2486
S'increases'
p2487
tp2488
(lp2489
s(S'TFDP2'
p2490
S'GATA1'
p2491
S'increases'
p2492
tp2493
(lp2494
s(S'AHR'
p2495
S'CYP26A1'
p2496
S'increases'
p2497
tp2498
(lp2499
s(S'4-Nitroquinoline-1-oxide'
p2500
S'PTGS2 MRNA'
p2501
S'increases'
p2502
tp2503
(lp2504
s(S'TGIF'
p2505
S'FOXO3'
p2506
S'increases'
p2507
tp2508
(lp2509
s(S'FOXF2'
p2510
S'CEBPA'
p2511
S'increases'
p2512
tp2513
(lp2514
s(S'NFE2L1'
p2515
S'POU2F1'
p2516
S'increases'
p2517
tp2518
(lp2519
s(S'LHX3'
p2520
S'CYP26A1'
p2521
S'increases'
p2522
tp2523
(lp2524
s(S'HMGA1'
p2525
S'MEIS1'
p2526
S'increases'
p2527
tp2528
(lp2529
s(S'POU2F1'
p2530
S'CYP26A1'
p2531
S'increases'
p2532
tp2533
(lp2534
s(S'PRRX2'
p2535
S'HOXA9'
p2536
S'increases'
p2537
tp2538
(lp2539
s(S'ETS2'
p2540
S'CEBPG'
p2541
S'increases'
p2542
tp2543
(lp2544
s(S'hsa-miR-193b-3p'
p2545
S'KRAS'
p2546
S'decreases'
p2547
tp2548
(lp2549
s(S'RREB1'
p2550
S'RUNX1'
p2551
S'increases'
p2552
tp2553
(lp2554
s(S'IL2/IL2R BETA/GAMMA/JAK1/FYN/JAK3'
p2555
S'PI3K'
p2556
S'binds'
p2557
tp2558
(lp2559
s(S'ELK1'
p2560
S'MEIS1'
p2561
S'increases'
p2562
tp2563
(lp2564
s(S'CYP26A1'
p2565
S'HOXA9'
p2566
S'increases'
p2567
tp2568
(lp2569
s(S'SPZ1'
p2570
S'HOXA9'
p2571
S'increases'
p2572
tp2573
(lp2574
s(S'ERK1'
p2575
S'P-S218,222-MEK1'
p2576
S'binds'
p2577
tp2578
(lp2579
s(S'NHLH1'
p2580
S'MYC'
p2581
S'increases'
p2582
tp2583
(lp2584
s(S'Daunorubicin'
p2585
S'NRAS MRNA'
p2586
S'increases'
p2587
tp2588
(lp2589
s(S'HNF1A'
p2590
S'FOXA1'
p2591
S'increases'
p2592
tp2593
(lp2594
s(S'MYC'
p2595
S'ONECUT1'
p2596
S'increases'
p2597
tp2598
(lp2599
s(S'Vanadates'
p2600
S'HRAS PROTEIN'
p2601
S'increases'
p2602
tp2603
(lp2604
s(S'Purine nucleotide'
p2605
S'H+'
p2606
S'translocates'
p2607
tp2608
(lp2609
s(S'NFE2'
p2610
S'BACH1'
p2611
S'increases'
p2612
tp2613
(lp2614
s(S'EGR4'
p2615
S'CYP26A1'
p2616
S'increases'
p2617
tp2618
(lp2619
s(S'NRF1'
p2620
S'ONECUT1'
p2621
S'increases'
p2622
tp2623
(lp2624
s(S'GFI1'
p2625
S'HOXA9'
p2626
S'increases'
p2627
tp2628
(lp2629
s(S'NR1H4'
p2630
S'FOXD3'
p2631
S'increases'
p2632
tp2633
(lp2634
s(S'STAT6'
p2635
S'FOXA1'
p2636
S'increases'
p2637
tp2638
(lp2639
s(S'INSULIN RECEPTOR/INSULI/IRS1/GRB2/SHC'
p2640
S'SOS1'
p2641
S'binds'
p2642
tp2643
(lp2644
s(S'Tetrachlorodibenzodioxin'
p2645
S'KRAS MRNA'
p2646
S'increases'
p2647
tp2648
(lp2649
s(S'TCF3'
p2650
S'MYC'
p2651
S'increases'
p2652
tp2653
(lp2654
s(S'BACH1'
p2655
S'EN1'
p2656
S'increases'
p2657
tp2658
(lp2659
s(S'RFX1'
p2660
S'CYP26A1'
p2661
S'increases'
p2662
tp2663
(lp2664
s(S'ZEB1'
p2665
S'FOXD3'
p2666
S'increases'
p2667
tp2668
(lp2669
s(S'IRF7'
p2670
S'EN1'
p2671
S'increases'
p2672
tp2673
(lp2674
s(S'GAB2/GRB2/SOS1'
p2675
S'IL2/IL2R ALPHA/BETA/GAMMA/JAK1/LCK/JAK3/SHC'
p2676
S'binds'
p2677
tp2678
(lp2679
s(S'GATA3'
p2680
S'FOXA1'
p2681
S'increases'
p2682
tp2683
(lp2684
s(S'TFAP4'
p2685
S'CYP26A1'
p2686
S'increases'
p2687
tp2688
(lp2689
s(S'FOXF2'
p2690
S'MECOM'
p2691
S'increases'
p2692
tp2693
(lp2694
s(S'NF1'
p2695
S'POU2F1'
p2696
S'increases'
p2697
tp2698
(lp2699
s(S'IRF1'
p2700
S'FOXA1'
p2701
S'increases'
p2702
tp2703
(lp2704
s(S'Rho Family GTPase-active'
p2705
S'PIP5K1A'
p2706
S'increases_activity'
p2707
tp2708
(lp2709
s(S'POU6F1'
p2710
S'EN1'
p2711
S'increases'
p2712
tp2713
(lp2714
s(S'TCF4'
p2715
S'LEF1'
p2716
S'increases'
p2717
tp2718
(lp2719
s(S'MAZ'
p2720
S'FOXO3'
p2721
S'increases'
p2722
tp2723
(lp2724
s(S'POU3F2'
p2725
S'MECOM'
p2726
S'increases'
p2727
tp2728
(lp2729
s(S'GTF3A'
p2730
S'CYP26A1'
p2731
S'increases'
p2732
tp2733
(lp2734
s(S'PI-3-4-5-P3'
p2735
S'AKT2'
p2736
S'adds_modification'
p2737
tp2738
(lp2739
s(S'VSX1'
p2740
S'POU2F1'
p2741
S'increases'
p2742
tp2743
(lp2744
s(S'PHOSPHORYLATED TTP:MRNA COMPLEX'
p2745
S'YWHAB'
p2746
S'binds'
p2747
tp2748
(lp2749
s(S'MEIS1'
p2750
S'MYC'
p2751
S'increases'
p2752
tp2753
(lp2754
s(S'Complex (PDGF receptor A/PDGF receptor B)'
p2755
S'RASGAP'
p2756
S'adds_modification'
p2757
tp2758
(lp2759
s(S'RORA'
p2760
S'CYP26A1'
p2761
S'increases'
p2762
tp2763
(lp2764
s(S'ATF4'
p2765
S'CDC5L'
p2766
S'increases'
p2767
tp2768
(lp2769
s(S'SHC/RasGAP'
p2770
S'RAS FAMILY/GTP'
p2771
S'increases_activity'
p2772
tp2773
(lp2774
s(S'NKX2-1'
p2775
S'MYC'
p2776
S'increases'
p2777
tp2778
(lp2779
s(S'NF1'
p2780
S'SRF'
p2781
S'increases'
p2782
tp2783
(lp2784
s(S'STAT4'
p2785
S'NRAS'
p2786
S'increases'
p2787
tp2788
(lp2789
s(S'POU6F1'
p2790
S'MEIS1'
p2791
S'increases'
p2792
tp2793
(lp2794
s(S'P-KIT COMPLEX'
p2795
S'GRB2:SOS1'
p2796
S'binds'
p2797
tp2798
(lp2799
s(S'MYCN'
p2800
S'MAX'
p2801
S'increases'
p2802
tp2803
(lp2804
s(S'STAT5A'
p2805
S'CYP26A1'
p2806
S'increases'
p2807
tp2808
(lp2809
s(S'GATA3'
p2810
S'EN1'
p2811
S'increases'
p2812
tp2813
(lp2814
s(S'E4F1'
p2815
S'FOXD3'
p2816
S'increases'
p2817
tp2818
(lp2819
s(S'MYB'
p2820
S'ONECUT1'
p2821
S'increases'
p2822
tp2823
(lp2824
s(S'Cadmium Chloride'
p2825
S'NRAS PROTEIN'
p2826
S'increases'
p2827
tp2828
(lp2829
s(S'Deoxycholic Acid'
p2830
S'HRAS PROTEIN'
p2831
S'increases_activity'
p2832
tp2833
(lp2834
s(S'HLF'
p2835
S'CYP26A1'
p2836
S'increases'
p2837
tp2838
(lp2839
s(S'GMCSF/GMR ALPHA/CSF2RB/JAK2 (DIMER)'
p2840
S'YWHAZ'
p2841
S'binds'
p2842
tp2843
(lp2844
s(S'HNF1A'
p2845
S'FOXF2'
p2846
S'increases'
p2847
tp2848
(lp2849
s(S'FOXF2'
p2850
S'GATA6'
p2851
S'increases'
p2852
tp2853
(lp2854
s(S'Arsenic'
p2855
S'GSS PROTEIN'
p2856
S'increases'
p2857
tp2858
(lp2859
s(S'COMPLEX (SOS/GRB2)'
p2860
S'FGFR1-4'
p2861
S'binds'
p2862
tp2863
(lp2864
s(S'MYOD1'
p2865
S'NRAS'
p2866
S'increases'
p2867
tp2868
(lp2869
s(S'MECOM'
p2870
S'CYP26A1'
p2871
S'increases'
p2872
tp2873
(lp2874
s(S'PBX1'
p2875
S'CYP26A1'
p2876
S'increases'
p2877
tp2878
(lp2879
s(S'MAZ'
p2880
S'MEIS1'
p2881
S'increases'
p2882
tp2883
(lp2884
s(S'PAX4'
p2885
S'ELK1'
p2886
S'increases'
p2887
tp2888
(lp2889
s(S'ESRRA'
p2890
S'MECOM'
p2891
S'increases'
p2892
tp2893
(lp2894
s(S'CEBPD'
p2895
S'TLX2'
p2896
S'increases'
p2897
tp2898
(lp2899
s(S'CRX'
p2900
S'FOXA1'
p2901
S'increases'
p2902
tp2903
(lp2904
s(S'GABPB1'
p2905
S'NRAS'
p2906
S'increases'
p2907
tp2908
(lp2909
s(S'CRX'
p2910
S'MEIS1'
p2911
S'increases'
p2912
tp2913
(lp2914
s(S'pirinixic acid/PPARA protein'
p2915
S'KRAS MRNA'
p2916
S'increases'
p2917
tp2918
(lp2919
s(S'BACH2'
p2920
S'FOXA1'
p2921
S'increases'
p2922
tp2923
(lp2924
s(S'JUN'
p2925
S'MECOM'
p2926
S'increases'
p2927
tp2928
(lp2929
s(S'7,8-Dihydro-7,8-dihydroxybenzo(a)pyrene 9,10-oxide'
p2930
S'KRAS MRNA'
p2931
S'decreases'
p2932
tp2933
(lp2934
s(S'SRY'
p2935
S'FOXO4'
p2936
S'increases'
p2937
tp2938
(lp2939
s(S'PI3K'
p2940
S'AKT1'
p2941
S'adds_modification'
p2942
tp2943
(lp2944
s(S'GATA3'
p2945
S'CYP26A1'
p2946
S'increases'
p2947
tp2948
(lp2949
s(S'RAS:GTP'
p2950
S'P-EPHBS:EFNBS:RASA1'
p2951
S'binds'
p2952
tp2953
(lp2954
s(S'STAT5A'
p2955
S'MECOM'
p2956
S'increases'
p2957
tp2958
(lp2959
s(S'RAS family/GTP'
p2960
S'RAF1'
p2961
S'increases_activity'
p2962
tp2963
(lp2964
s(S'RHOA/GTP'
p2965
S'PLD1-2'
p2966
S'increases_activity'
p2967
tp2968
(lp2969
s(S'FOXJ2'
p2970
S'CYP26A1'
p2971
S'increases'
p2972
tp2973
(lp2974
s(S'LEF1'
p2975
S'MECOM'
p2976
S'increases'
p2977
tp2978
(lp2979
s(S'GABPB2'
p2980
S'CDC5L'
p2981
S'increases'
p2982
tp2983
(lp2984
s(S'ESRRA'
p2985
S'CYP26A1'
p2986
S'increases'
p2987
tp2988
(lp2989
s(S'PI-3-4-5-P3'
p2990
S'WAVE2/NAP1/SRA1/ABI1/HSPC300'
p2991
S'translocates'
p2992
tp2993
(lp2994
s(S'CUX1'
p2995
S'MECOM'
p2996
S'increases'
p2997
tp2998
(lp2999
s(S'MAX'
p3000
S'CYP26A1'
p3001
S'increases'
p3002
tp3003
(lp3004
s(S'RXRB'
p3005
S'FOXD3'
p3006
S'increases'
p3007
tp3008
(lp3009
s(S'IRF1'
p3010
S'NRAS'
p3011
S'increases'
p3012
tp3013
(lp3014
s(S'MECOM'
p3015
S'MAX'
p3016
S'increases'
p3017
tp3018
(lp3019
s(S'PAX6'
p3020
S'CYP26A1'
p3021
S'increases'
p3022
tp3023
(lp3024
s(S'GRB2/SOS1'
p3025
S'EGFR/EGFR/EGF/EGF/P46 SHC'
p3026
S'binds'
p3027
tp3028
(lp3029
s(S'POU6F1'
p3030
S'POU2F1'
p3031
S'increases'
p3032
tp3033
(lp3034
s(S'RUNX1'
p3035
S'MYOD1'
p3036
S'increases'
p3037
tp3038
(lp3039
s(S'COMPLEX (GRB2/SOS)'
p3040
S'EGFR'
p3041
S'binds'
p3042
tp3043
(lp3044
s(S'MAZ'
p3045
S'MECOM'
p3046
S'increases'
p3047
tp3048
(lp3049
s(S'REPIN1'
p3050
S'EN1'
p3051
S'increases'
p3052
tp3053
(lp3054
s(S'RAS family/GTP'
p3055
S'RAF1'
p3056
S'adds_modification'
p3057
tp3058
(lp3059
s(S'E4F1'
p3060
S'CYP26A1'
p3061
S'increases'
p3062
tp3063
(lp3064
s(S'Rac'
p3065
S'MEKK1-5'
p3066
S'adds_modification'
p3067
tp3068
(lp3069
s(S'HAND1'
p3070
S'CYP26A1'
p3071
S'increases'
p3072
tp3073
(lp3074
s(S'Quercetin'
p3075
S'NRAS PROTEIN'
p3076
S'decreases'
p3077
tp3078
(lp3079
s(S'HRAS:GTP'
p3080
S'CRAF'
p3081
S'binds'
p3082
tp3083
(lp3084
s(S'REPIN1'
p3085
S'FOXA1'
p3086
S'increases'
p3087
tp3088
(lp3089
s(S'hsa-miR-155-5p'
p3090
S'KRAS'
p3091
S'decreases'
p3092
tp3093
(lp3094
s(S'PAX4'
p3095
S'EN1'
p3096
S'increases'
p3097
tp3098
(lp3099
s(S'FOXN1'
p3100
S'JUN'
p3101
S'increases'
p3102
tp3103
(lp3104
s(S'TFCP2'
p3105
S'GATA1'
p3106
S'increases'
p3107
tp3108
(lp3109
s(S'SHC'
p3110
S'GRAP2'
p3111
S'binds'
p3112
tp3113
(lp3114
s(S'CEBPG'
p3115
S'NRAS'
p3116
S'increases'
p3117
tp3118
(lp3119
s(S'FOXN1'
p3120
S'FOXO4'
p3121
S'increases'
p3122
tp3123
(lp3124
s(S'IL2/IL2R ALPHA/BETA/GAMMA/JAK1/LCK/JAK3/IRS1-2'
p3125
S'PI3K'
p3126
S'binds'
p3127
tp3128
(lp3129
s(S'POU1F1'
p3130
S'EN1'
p3131
S'increases'
p3132
tp3133
(lp3134
s(S'FOXJ1'
p3135
S'POU2F1'
p3136
S'increases'
p3137
tp3138
(lp3139
s(S'YY1'
p3140
S'POU2F1'
p3141
S'increases'
p3142
tp3143
(lp3144
s(S'7,8-Dihydro-7,8-dihydroxybenzo(a)pyrene 9,10-oxide'
p3145
S'NRAS MRNA'
p3146
S'increases'
p3147
tp3148
(lp3149
s(S'EGF/EGFR'
p3150
S'HRAS/GDP'
p3151
S'increases_activity'
p3152
tp3153
(lp3154
s(S'TFAP4'
p3155
S'GABPB2'
p3156
S'increases'
p3157
tp3158
(lp3159
s(S'TFAP2A'
p3160
S'POU3F2'
p3161
S'increases'
p3162
tp3163
(lp3164
s(S'TCF12'
p3165
S'CBFA2T3'
p3166
S'increases'
p3167
tp3168
(lp3169
s(S'STAT3'
p3170
S'IRF1'
p3171
S'increases'
p3172
tp3173
(lp3174
s(S'MYOD1'
p3175
S'GATA1'
p3176
S'increases'
p3177
tp3178
(lp3179
s(S'REPIN1'
p3180
S'HRAS'
p3181
S'increases'
p3182
tp3183
(lp3184
s(S'PAX4'
p3185
S'MAX'
p3186
S'increases'
p3187
tp3188
(lp3189
s(S'PAX2'
p3190
S'FOXA1'
p3191
S'increases'
p3192
tp3193
(lp3194
s(S'Lipopolysaccharides'
p3195
S'HRAS PROTEIN'
p3196
S'increases_activity'
p3197
tp3198
(lp3199
s(S'7,8-Dihydro-7,8-dihydroxybenzo(a)pyrene 9,10-oxide'
p3200
S'KRAS MRNA'
p3201
S'increases'
p3202
tp3203
(lp3204
s(S'REPIN1'
p3205
S'GATA1'
p3206
S'increases'
p3207
tp3208
(lp3209
s(S'Formaldehyde'
p3210
S'HRAS MRNA'
p3211
S'increases'
p3212
tp3213
(lp3214
s(S'ESRRA'
p3215
S'STAT5A'
p3216
S'increases'
p3217
tp3218
(lp3219
s(S'farnesylthiosalicylic acid'
p3220
S'HRAS PROTEIN'
p3221
S'decreases'
p3222
tp3223
(lp3224
s(S'JUN'
p3225
S'RUNX1'
p3226
S'increases'
p3227
tp3228
(lp3229
s(S'FOXD3'
p3230
S'RUNX1'
p3231
S'increases'
p3232
tp3233
(lp3234
s(S'SOX9'
p3235
S'CYP26A1'
p3236
S'increases'
p3237
tp3238
(lp3239
s(S'hexabromocyclododecane'
p3240
S'HRAS MRNA'
p3241
S'increases'
p3242
tp3243
(lp3244
s(S'RUNX2'
p3245
S'KRAS'
p3246
S'increases'
p3247
tp3248
(lp3249
s(S'PGR'
p3250
S'CYP26A1'
p3251
S'increases'
p3252
tp3253
(lp3254
s(S'CYP26A1'
p3255
S'MAZ'
p3256
S'increases'
p3257
tp3258
(lp3259
s(S'RAC1/GTP'
p3260
S'AKT1'
p3261
S'adds_modification'
p3262
tp3263
(lp3264
s(S'FOXO3'
p3265
S'CYP26A1'
p3266
S'increases'
p3267
tp3268
(lp3269
s(S'MAX'
p3270
S'SRF'
p3271
S'increases'
p3272
tp3273
(lp3274
S'Synchrotron SAXS data were collected on beamline I911-4 at MAX-Lab, Lund (Sweden), beamline X33 at EMBL/DESY (Hamburg), and on the BM29 beamline at ESRF (Grenoble, France).'
p3275
aS'Synchrotron beamtime and excellent user support at MAX-Lab, EMBL/DESY, ESRF, and ISA are gratefully acknowledged.'
p3276
aS'The authors acknowledge beamline I711 at MAX-lab, and the SNBL beamline at the ESRF for the beamtime provided.'
p3277
as(S'RUNX2'
p3278
S'NRAS'
p3279
S'increases'
p3280
tp3281
(lp3282
s(S'HSF2'
p3283
S'CYP26A1'
p3284
S'increases'
p3285
tp3286
(lp3287
s(S'IL2/IL2R ALPHA/BETA/GAMMA/JAK1/LCK/JAK3/SHC/GRB2/SOS1/GAB2/SHP2'
p3288
S'PI3K'
p3289
S'binds'
p3290
tp3291
(lp3292
s(S'SPI1'
p3293
S'STAT5A'
p3294
S'increases'
p3295
tp3296
(lp3297
s(S'ZHX2'
p3298
S'MYC'
p3299
S'increases'
p3300
tp3301
(lp3302
s(S'RAF1-BRAF'
p3303
S'MEK1-2'
p3304
S'increases_activity'
p3305
tp3306
(lp3307
s(S'SHC'
p3308
S'GRB2'
p3309
S'binds'
p3310
tp3311
(lp3312
S'Upon activation of EGFR, adaptor proteins such as SH-2 containing protein (SHC) and growth-factor-receptor bound protein 2 (GRB2) recruit specific GEFs like son of sevenless homolog 1 (SOS1) to the cell membrane.'
p3313
aS'GRB2, SHC3, AKT3, ADCY7 and PRKCD are part of the TRKA signalling from the plasma membrane.'
p3314
as(S'RB1'
p3315
S'GATA1'
p3316
S'increases'
p3317
tp3318
(lp3319
s(S'TCF3'
p3320
S'FOXJ2'
p3321
S'increases'
p3322
tp3323
(lp3324
s(S'FOXJ2'
p3325
S'NRAS'
p3326
S'increases'
p3327
tp3328
(lp3329
s(S'REPIN1'
p3330
S'LEF1'
p3331
S'increases'
p3332
tp3333
(lp3334
s(S'Aflatoxin B1'
p3335
S'HRAS MRNA'
p3336
S'increases'
p3337
tp3338
(lp3339
s(S'PAX4'
p3340
S'MEIS1'
p3341
S'increases'
p3342
tp3343
(lp3344
s(S'FOXF2'
p3345
S'FOXD3'
p3346
S'increases'
p3347
tp3348
(lp3349
s(S'CBFA2T3'
p3350
S'RUNX1'
p3351
S'increases'
p3352
tp3353
(lp3354
s(S'FOXC1'
p3355
S'HOXA9'
p3356
S'increases'
p3357
tp3358
(lp3359
s(S'DBP'
p3360
S'CYP26A1'
p3361
S'increases'
p3362
tp3363
(lp3364
s(S'TGIF'
p3365
S'EN1'
p3366
S'increases'
p3367
tp3368
(lp3369
s(S'PI-3-4-5-P3'
p3370
S'P62DOK'
p3371
S'adds_modification'
p3372
tp3373
(lp3374
s(S'JUN'
p3375
S'TLX2'
p3376
S'increases'
p3377
tp3378
(lp3379
s(S'Benzo(a)pyrene'
p3380
S'HRAS MRNA'
p3381
S'increases'
p3382
tp3383
(lp3384
s(S'STAT4'
p3385
S'CYP26A1'
p3386
S'increases'
p3387
tp3388
(lp3389
s(S'EGFR/EGFR/EGF/EGF'
p3390
S'SRC'
p3391
S'adds_modification'
p3392
tp3393
(lp3394
s(S'FOXQ1'
p3395
S'FOXD3'
p3396
S'increases'
p3397
tp3398
(lp3399
s(S'FOXJ1'
p3400
S'NRAS'
p3401
S'increases'
p3402
tp3403
(lp3404
s(S'TCF3'
p3405
S'POU2F1'
p3406
S'increases'
p3407
tp3408
(lp3409
s(S'MYB'
p3410
S'CYP26A1'
p3411
S'increases'
p3412
tp3413
(lp3414
s(S'GATA4'
p3415
S'CYP26A1'
p3416
S'increases'
p3417
tp3418
(lp3419
s(S'ELK1'
p3420
S'STAT4'
p3421
S'increases'
p3422
tp3423
(lp3424
s(S'CYP26A1'
p3425
S'LEF1'
p3426
S'increases'
p3427
tp3428
(lp3429
s(S"Guanosine-5'-Diphosphate"
p3430
S'HRAS'
p3431
S'increases_activity'
p3432
tp3433
(lp3434
s(S'ETV4'
p3435
S'CYP26A1'
p3436
S'increases'
p3437
tp3438
(lp3439
s(S'EPHRIN B/EPHB2'
p3440
S'RASGAP'
p3441
S'binds'
p3442
tp3443
(lp3444
s(S'ESR1'
p3445
S'FOXF2'
p3446
S'increases'
p3447
tp3448
(lp3449
s(S'CDC5L'
p3450
S'FOXA1'
p3451
S'increases'
p3452
tp3453
(lp3454
s(S'MAZ'
p3455
S'HOXA9'
p3456
S'increases'
p3457
tp3458
(lp3459
s(S'HIF1A'
p3460
S'MAX'
p3461
S'increases'
p3462
tp3463
(lp3464
s(S'FOXN1'
p3465
S'HOXA9'
p3466
S'increases'
p3467
tp3468
(lp3469
s(S'LEF1'
p3470
S'BACH1'
p3471
S'increases'
p3472
tp3473
(lp3474
s(S'PDX1'
p3475
S'FOXO3'
p3476
S'increases'
p3477
tp3478
(lp3479
s(S'CBFA2T3'
p3480
S'CYP26A1'
p3481
S'increases'
p3482
tp3483
(lp3484
s(S'Rabex5'
p3485
S'HRAS/GTP'
p3486
S'adds_modification'
p3487
tp3488
(lp3489
s(S'CBFA2T3'
p3490
S'RUNX2'
p3491
S'increases'
p3492
tp3493
(lp3494
s(S'PI-3-4-5-P3'
p3495
S'ARAP3'
p3496
S'translocates'
p3497
tp3498
(lp3499
s(S'CART1'
p3500
S'CYP26A1'
p3501
S'increases'
p3502
tp3503
(lp3504
s(S'Arsenic'
p3505
S'NRAS MRNA'
p3506
S'increases'
p3507
tp3508
(lp3509
s(S'NRF1'
p3510
S'CDC5L'
p3511
S'increases'
p3512
tp3513
(lp3514
s(S'Quercetin'
p3515
S'HRAS PROTEIN'
p3516
S'decreases'
p3517
tp3518
(lp3519
s(S"N,N'-DIMETHYL-N-(ACETYL)-N'-(7-NITROBENZ-2-OXA-1,3-DIAZOL-4-YL)ETHYLENEDIAMINE"
p3520
S'HRAS'
p3521
S'increases_activity'
p3522
tp3523
(lp3524
s(S'TFDP1'
p3525
S'FOXD3'
p3526
S'increases'
p3527
tp3528
(lp3529
s(S'AR'
p3530
S'TLX2'
p3531
S'increases'
p3532
tp3533
(lp3534
s(S'hsa-miR-181c-5p'
p3535
S'KRAS'
p3536
S'decreases'
p3537
tp3538
(lp3539
s(S'SMAD3'
p3540
S'CBFA2T3'
p3541
S'increases'
p3542
tp3543
(lp3544
s(S'HOXA9'
p3545
S'NRAS'
p3546
S'increases'
p3547
tp3548
(lp3549
s(S'PITX2'
p3550
S'CYP26A1'
p3551
S'increases'
p3552
tp3553
(lp3554
s(S'ATF3'
p3555
S'CYP26A1'
p3556
S'increases'
p3557
tp3558
(lp3559
s(S'E2F1'
p3560
S'MAZ'
p3561
S'increases'
p3562
tp3563
(lp3564
s(S'Ethyl Methanesulfonate'
p3565
S'HRAS MRNA'
p3566
S'increases'
p3567
tp3568
(lp3569
s(S'LMO2'
p3570
S'FOXA1'
p3571
S'increases'
p3572
tp3573
(lp3574
s(S'FOXC1'
p3575
S'POU2F1'
p3576
S'increases'
p3577
tp3578
(lp3579
s(S'DDIT3'
p3580
S'CYP26A1'
p3581
S'increases'
p3582
tp3583
(lp3584
s(S'PAX8'
p3585
S'CYP26A1'
p3586
S'increases'
p3587
tp3588
(lp3589
s(S'LHX3'
p3590
S'EN1'
p3591
S'increases'
p3592
tp3593
(lp3594
s(S'KAT2B'
p3595
S'CYP26A1'
p3596
S'increases'
p3597
tp3598
(lp3599
s(S'P100'
p3600
S'MYB'
p3601
S'binds'
p3602
tp3603
(lp3604
s(S'SOX9'
p3605
S'FOXA1'
p3606
S'increases'
p3607
tp3608
(lp3609
s(S'HIF1A'
p3610
S'EN1'
p3611
S'increases'
p3612
tp3613
(lp3614
s(S'REPIN1'
p3615
S'RUNX1'
p3616
S'increases'
p3617
tp3618
(lp3619
s(S'MYOD1'
p3620
S'BACH1'
p3621
S'increases'
p3622
tp3623
(lp3624
s(S'EBF2'
p3625
S'REPIN1'
p3626
S'increases'
p3627
tp3628
(lp3629
s(S'bisphenol A'
p3630
S'HRAS MRNA'
p3631
S'increases'
p3632
tp3633
(lp3634
s(S'E2F1'
p3635
S'EN1'
p3636
S'increases'
p3637
tp3638
(lp3639
s(S'MYC/Max/MIZ-1'
p3640
S'GALECTIN-1'
p3641
S'decreases'
p3642
tp3643
(lp3644
s(S'PI-3-4-5-P3'
p3645
S'WAVE2/NAP1/SRA1/ABI1/HSPC300'
p3646
S'adds_modification'
p3647
tp3648
(lp3649
s(S'FOXF2'
p3650
S'FOXO3'
p3651
S'increases'
p3652
tp3653
(lp3654
s(S'REPIN1'
p3655
S'STAT5A'
p3656
S'increases'
p3657
tp3658
(lp3659
s(S'RUNX1'
p3660
S'NRAS'
p3661
S'increases'
p3662
tp3663
(lp3664
s(S'benzo(a)pyrene 7,8-dihydrodiol'
p3665
S'HRAS MRNA'
p3666
S'increases'
p3667
tp3668
(lp3669
s(S'RAC1/GTP'
p3670
S'PAK1 (DIMER)'
p3671
S'adds_modification'
p3672
tp3673
(lp3674
s(S'PAX4'
p3675
S'POU2F1'
p3676
S'increases'
p3677
tp3678
(lp3679
s(S'MYOD1'
p3680
S'CBFA2T3'
p3681
S'increases'
p3682
tp3683
(lp3684
s(S'STAT5A'
p3685
S'RUNX2'
p3686
S'increases'
p3687
tp3688
(lp3689
s(S'EBF2'
p3690
S'FOXJ2'
p3691
S'increases'
p3692
tp3693
(lp3694
s(S'Estradiol'
p3695
S'KRAS MRNA'
p3696
S'increases'
p3697
tp3698
(lp3699
s(S'RXRB'
p3700
S'CYP26A1'
p3701
S'increases'
p3702
tp3703
(lp3704
s(S'bisphenol A'
p3705
S'KRAS MRNA'
p3706
S'decreases'
p3707
tp3708
(lp3709
s(S'COMPLEX (GRB2/SOS)'
p3710
S'FGFR1-4'
p3711
S'binds'
p3712
tp3713
(lp3714
s(S'POU2F1'
p3715
S'RUNX1'
p3716
S'increases'
p3717
tp3718
(lp3719
s(S'TCF3'
p3720
S'TLX2'
p3721
S'increases'
p3722
tp3723
(lp3724
s(S'SPZ1'
p3725
S'POU2F1'
p3726
S'increases'
p3727
tp3728
(lp3729
s(S'TFAP4'
p3730
S'FOXO4'
p3731
S'increases'
p3732
tp3733
(lp3734
s(S'OR5I1'
p3735
S'MECOM'
p3736
S'increases'
p3737
tp3738
(lp3739
s(S'Rho Family GTPase-active'
p3740
S'JNK1'
p3741
S'adds_modification'
p3742
tp3743
(lp3744
s(S'TFDP1'
p3745
S'POU2F1'
p3746
S'increases'
p3747
tp3748
(lp3749
s(S'AHR'
p3750
S'MAX'
p3751
S'increases'
p3752
tp3753
(lp3754
s(S'BACH1'
p3755
S'CYP26A1'
p3756
S'increases'
p3757
tp3758
(lp3759
s(S'ZBTB14'
p3760
S'MAZ'
p3761
S'increases'
p3762
tp3763
(lp3764
s(S'TCF3'
p3765
S'FOXO4'
p3766
S'increases'
p3767
tp3768
(lp3769
s(S'MASTERMIND'
p3770
S'NICS'
p3771
S'binds'
p3772
tp3773
(lp3774
s(S'BPTF'
p3775
S'FOXO4'
p3776
S'increases'
p3777
tp3778
(lp3779
s(S'MYOD1'
p3780
S'RUNX1'
p3781
S'increases'
p3782
tp3783
(lp3784
s(S'JUN'
p3785
S'CYP26A1'
p3786
S'increases'
p3787
tp3788
(lp3789
s(S'BPTF'
p3790
S'CYP26A1'
p3791
S'increases'
p3792
tp3793
(lp3794
s(S'POU3F1'
p3795
S'CYP26A1'
p3796
S'increases'
p3797
tp3798
(lp3799
s(S'NRF1'
p3800
S'CYP26A1'
p3801
S'increases'
p3802
tp3803
(lp3804
s(S'TFAP2C'
p3805
S'POU3F2'
p3806
S'increases'
p3807
tp3808
(lp3809
s(S'NFAT1-C-4-INACTIVE2'
p3810
S'YWHAQ'
p3811
S'binds'
p3812
tp3813
(lp3814
s(S'STAT6'
p3815
S'ONECUT1'
p3816
S'increases'
p3817
tp3818
(lp3819
s(S'RUNX1'
p3820
S'RUNX2'
p3821
S'increases'
p3822
tp3823
(lp3824
s(S'ZIC3'
p3825
S'MYCN'
p3826
S'increases'
p3827
tp3828
(lp3829
s(S'CYP26A1'
p3830
S'MAX'
p3831
S'increases'
p3832
tp3833
(lp3834
s(S'ETS2'
p3835
S'FOXO4'
p3836
S'increases'
p3837
tp3838
(lp3839
s(S'GATA6'
p3840
S'FOXA1'
p3841
S'increases'
p3842
tp3843
(lp3844
s(S'Doxorubicin'
p3845
S'HRAS MRNA'
p3846
S'increases'
p3847
tp3848
(lp3849
s(S'PPARA'
p3850
S'HOXA9'
p3851
S'increases'
p3852
tp3853
(lp3854
s(S'REPIN1'
p3855
S'GABPB2'
p3856
S'increases'
p3857
tp3858
(lp3859
s(S'FOXN1'
p3860
S'FOXA1'
p3861
S'increases'
p3862
tp3863
(lp3864
s(S'Dronabinol'
p3865
S'KRAS MRNA'
p3866
S'increases'
p3867
tp3868
(lp3869
s(S'FOXO1'
p3870
S'RUNX1'
p3871
S'increases'
p3872
tp3873
(lp3874
s(S'SMAD4'
p3875
S'HOXA9'
p3876
S'increases'
p3877
tp3878
(lp3879
s(S'PAX4'
p3880
S'JUN'
p3881
S'increases'
p3882
tp3883
(lp3884
s(S'Raf-1'
p3885
S'MEK'
p3886
S'adds_modification'
p3887
tp3888
(lp3889
s(S'PIM1'
p3890
S'MYC/MAX'
p3891
S'binds'
p3892
tp3893
(lp3894
s(S'YY1'
p3895
S'MECOM'
p3896
S'increases'
p3897
tp3898
(lp3899
s(S'NRF1'
p3900
S'MAZ'
p3901
S'increases'
p3902
tp3903
(lp3904
s(S'GATA1'
p3905
S'MECOM'
p3906
S'increases'
p3907
tp3908
(lp3909
s(S'PDGF/PDGFRA'
p3910
S'SHC/GRB2/SOS1'
p3911
S'increases_activity'
p3912
tp3913
(lp3914
s(S'GRB2/SOS1'
p3915
S'FAK'
p3916
S'binds'
p3917
tp3918
(lp3919
s(S'HNF4A'
p3920
S'HOXA9'
p3921
S'increases'
p3922
tp3923
(lp3924
s(S'FOXA2'
p3925
S'CYP26A1'
p3926
S'increases'
p3927
tp3928
(lp3929
s(S'FOXI1'
p3930
S'CYP26A1'
p3931
S'increases'
p3932
tp3933
(lp3934
s(S'GRB2 BOUND TO TIE2'
p3935
S'SOS1'
p3936
S'binds'
p3937
tp3938
(lp3939
s(S'PHOSPHORYLATED BRF1 (SER54, SER92, SER203):MRNA COMPLEX'
p3940
S'YWHAB'
p3941
S'binds'
p3942
tp3943
(lp3944
s(S'COMPLEX (GRB2/SOS)'
p3945
S'GAB'
p3946
S'binds'
p3947
tp3948
(lp3949
s(S'NFE2'
p3950
S'TLX2'
p3951
S'increases'
p3952
tp3953
(lp3954
s(S'MAX'
p3955
S'FOXF2'
p3956
S'increases'
p3957
tp3958
(lp3959
s(S'GRB2:SOS1'
p3960
S'ACTIVATED FGFR:P-FRS2'
p3961
S'binds'
p3962
tp3963
(lp3964
s(S'FOXO4'
p3965
S'MECOM'
p3966
S'increases'
p3967
tp3968
(lp3969
s(S'TCF3'
p3970
S'LEF1'
p3971
S'increases'
p3972
tp3973
(lp3974
g1129
as(S'ZIC1'
p3975
S'LEF1'
p3976
S'increases'
p3977
tp3978
(lp3979
s(S'NFIL3'
p3980
S'CYP26A1'
p3981
S'increases'
p3982
tp3983
(lp3984
s(S'RAF1'
p3985
S'MEK1'
p3986
S'increases_activity'
p3987
tp3988
(lp3989
s(S'AR'
p3990
S'FOXA1'
p3991
S'increases'
p3992
tp3993
(lp3994
s(S'POU2F1'
p3995
S'POU3F2'
p3996
S'increases'
p3997
tp3998
(lp3999
s(S'PCBP1'
p4000
S'MAZ'
p4001
S'increases'
p4002
tp4003
(lp4004
s(S'LEF1'
p4005
S'HOXA9'
p4006
S'increases'
p4007
tp4008
(lp4009
s(S'NR6A1'
p4010
S'CYP26A1'
p4011
S'increases'
p4012
tp4013
(lp4014
s(S'PI3K'
p4015
S'BTK'
p4016
S'translocates'
p4017
tp4018
(lp4019
s(S'AHR'
p4020
S'RUNX1'
p4021
S'increases'
p4022
tp4023
(lp4024
s(S'NR1H4'
p4025
S'CYP26A1'
p4026
S'increases'
p4027
tp4028
(lp4029
s(S'NR2F2'
p4030
S'CYP26A1'
p4031
S'increases'
p4032
tp4033
(lp4034
s(S'GNB1/GNG2'
p4035
S'PI3K'
p4036
S'binds'
p4037
tp4038
(lp4039
s(S'RHOA/GTP'
p4040
S'PKN2'
p4041
S'increases_activity'
p4042
tp4043
(lp4044
s(S'MAZ'
p4045
S'LEF1'
p4046
S'increases'
p4047
tp4048
(lp4049
s(S'RFX1'
p4050
S'MECOM'
p4051
S'increases'
p4052
tp4053
(lp4054
s(S'RUNX1'
p4055
S'HOXA9'
p4056
S'increases'
p4057
tp4058
(lp4059
s(S'FOXL1'
p4060
S'POU2F1'
p4061
S'increases'
p4062
tp4063
(lp4064
s(S'GRB2:SOS1'
p4065
S'PHOSPHORYLATED ERBB2:EGFR HETERODIMERS'
p4066
S'binds'
p4067
tp4068
(lp4069
s(S'TFAP4'
p4070
S'MYCN'
p4071
S'increases'
p4072
tp4073
(lp4074
s(S'E2F1'
p4075
S'GATA1'
p4076
S'increases'
p4077
tp4078
(lp4079
s(S'PTF1A'
p4080
S'GATA6'
p4081
S'increases'
p4082
tp4083
(lp4084
s(S'REL'
p4085
S'CYP26A1'
p4086
S'increases'
p4087
tp4088
(lp4089
s(S'MTF1'
p4090
S'JUN'
p4091
S'increases'
p4092
tp4093
(lp4094
s(S'ZEB1'
p4095
S'REPIN1'
p4096
S'increases'
p4097
tp4098
(lp4099
s(S'IRF8'
p4100
S'GATA6'
p4101
S'increases'
p4102
tp4103
(lp4104
s(S'P-Y349,350-SHC1:PHOSPHORYLATED ERBB2 HETERODIMERS'
p4105
S'GRB2:SOS1'
p4106
S'binds'
p4107
tp4108
(lp4109
s(S'BACH2'
p4110
S'EN1'
p4111
S'increases'
p4112
tp4113
(lp4114
s(S'GFI1'
p4115
S'MEIS1'
p4116
S'increases'
p4117
tp4118
(lp4119
s(S'FOXN1'
p4120
S'LEF1'
p4121
S'increases'
p4122
tp4123
(lp4124
s(S'CYP26A1'
p4125
S'JUN'
p4126
S'increases'
p4127
tp4128
(lp4129
s(S'TCF3'
p4130
S'ONECUT1'
p4131
S'increases'
p4132
tp4133
(lp4134
s(S'FOXF2'
p4135
S'POU2F1'
p4136
S'increases'
p4137
tp4138
(lp4139
s(S'MAZ'
p4140
S'MAX'
p4141
S'increases'
p4142
tp4143
(lp4144
s(S'FOXN1'
p4145
S'CYP26A1'
p4146
S'increases'
p4147
tp4148
(lp4149
s(S'HNF1A'
p4150
S'FOXD3'
p4151
S'increases'
p4152
tp4153
(lp4154
s(S'EGR2'
p4155
S'RUNX1'
p4156
S'increases'
p4157
tp4158
(lp4159
s(S'MYC'
p4160
S'RUNX2'
p4161
S'increases'
p4162
tp4163
(lp4164
s(S'TFAP2A'
p4165
S'IRF1'
p4166
S'increases'
p4167
tp4168
(lp4169
s(S'FOXO4'
p4170
S'YY1'
p4171
S'increases'
p4172
tp4173
(lp4174
s(S'VEGFR2 (dimer)/VEGFA (dimer)'
p4175
S'SRC'
p4176
S'adds_modification'
p4177
tp4178
(lp4179
s(S'resveratrol'
p4180
S'KRAS MRNA'
p4181
S'decreases'
p4182
tp4183
(lp4184
s(S'FOXO4'
p4185
S'CYP26A1'
p4186
S'increases'
p4187
tp4188
(lp4189
s(S'STAT3'
p4190
S'FOXO4'
p4191
S'increases'
p4192
tp4193
(lp4194
s(S'GRB2/SOS1'
p4195
S'FRS2 FAMILY/SHP2'
p4196
S'binds'
p4197
tp4198
(lp4199
s(S'LEF1'
p4200
S'CYP26A1'
p4201
S'increases'
p4202
tp4203
(lp4204
s(S'GTF2A2'
p4205
S'SRF'
p4206
S'increases'
p4207
tp4208
(lp4209
s(S'PPARA'
p4210
S'STAT5A'
p4211
S'increases'
p4212
tp4213
(lp4214
s(S'hsa-miR-143-3p'
p4215
S'KRAS'
p4216
S'decreases'
p4217
tp4218
(lp4219
s(S'GFI1'
p4220
S'CYP26A1'
p4221
S'increases'
p4222
tp4223
(lp4224
s(S'RAC1/GTP'
p4225
S'MKK4-MKK7'
p4226
S'increases_activity'
p4227
tp4228
(lp4229
s(S'REPIN1'
p4230
S'ETS1'
p4231
S'increases'
p4232
tp4233
(lp4234
s(S'ZIC1'
p4235
S'GATA6'
p4236
S'increases'
p4237
tp4238
(lp4239
s(S'INTERLEUKIN RECEPTOR COMPLEXES WITH ACTIVATED SHC1'
p4240
S'GRB2:SOS1'
p4241
S'binds'
p4242
tp4243
(lp4244
s(S'Selenium'
p4245
S'HRAS MRNA'
p4246
S'increases'
p4247
tp4248
(lp4249
s(S'HOXA4'
p4250
S'CYP26A1'
p4251
S'increases'
p4252
tp4253
(lp4254
s(S'NKX2-1'
p4255
S'POU2F1'
p4256
S'increases'
p4257
tp4258
(lp4259
s(S'VSX1'
p4260
S'MAX'
p4261
S'increases'
p4262
tp4263
(lp4264
s(S'FOXD1'
p4265
S'FOXD3'
p4266
S'increases'
p4267
tp4268
(lp4269
s(S'MAX'
p4270
S'NRAS'
p4271
S'increases'
p4272
tp4273
(lp4274
s(S'HOXA9'
p4275
S'TCF3'
p4276
S'increases'
p4277
tp4278
(lp4279
s(S'IRF1'
p4280
S'CYP26A1'
p4281
S'increases'
p4282
tp4283
(lp4284
s(S'HRAS'
p4285
S'RAF1'
p4286
S'adds_modification'
p4287
tp4288
(lp4289
s(S'CUX1'
p4290
S'HOXA9'
p4291
S'increases'
p4292
tp4293
(lp4294
s(S'ZHX2'
p4295
S'FOXA1'
p4296
S'increases'
p4297
tp4298
(lp4299
s(S'TFDP1'
p4300
S'MYC'
p4301
S'increases'
p4302
tp4303
(lp4304
s(S'RAC1/GTP'
p4305
S'PAK1'
p4306
S'increases_activity'
p4307
tp4308
(lp4309
s(S'AHR'
p4310
S'MAZ'
p4311
S'increases'
p4312
tp4313
(lp4314
s(S'BRAF/14-3-3'
p4315
S'KSR/14-3-3 /MEK1-2'
p4316
S'increases_activity'
p4317
tp4318
(lp4319
s(S'PPARA'
p4320
S'CYP26A1'
p4321
S'increases'
p4322
tp4323
(lp4324
s(S'REPIN1'
p4325
S'SRF'
p4326
S'increases'
p4327
tp4328
(lp4329
s(S'PAX5'
p4330
S'SRF'
p4331
S'increases'
p4332
tp4333
(lp4334
s(S'PAX4'
p4335
S'FOXJ2'
p4336
S'increases'
p4337
tp4338
(lp4339
s(S'REPIN1'
p4340
S'MYCN'
p4341
S'increases'
p4342
tp4343
(lp4344
s(S'RALA/GTP'
p4345
S'SRC'
p4346
S'adds_modification'
p4347
tp4348
(lp4349
s(S'FOXO4'
p4350
S'ETS1'
p4351
S'increases'
p4352
tp4353
(lp4354
s(S'TFDP1'
p4355
S'CDC5L'
p4356
S'increases'
p4357
tp4358
(lp4359
s(S'TFDP1'
p4360
S'CYP26A1'
p4361
S'increases'
p4362
tp4363
(lp4364
s(S'GATA6'
p4365
S'RUNX2'
p4366
S'increases'
p4367
tp4368
(lp4369
s(S'FOXM1'
p4370
S'CYP26A1'
p4371
S'increases'
p4372
tp4373
(lp4374
s(S'sodium arsenite'
p4375
S'HRAS PROTEIN'
p4376
S'increases'
p4377
tp4378
(lp4379
s(S'STAT5A'
p4380
S'RUNX1'
p4381
S'increases'
p4382
tp4383
(lp4384
s(S'CEBPA'
p4385
S'EN1'
p4386
S'increases'
p4387
tp4388
(lp4389
s(S'MSX1'
p4390
S'POU2F1'
p4391
S'increases'
p4392
tp4393
(lp4394
s(S'NHLH1'
p4395
S'CBFA2T3'
p4396
S'increases'
p4397
tp4398
(lp4399
s(S'Parathion'
p4400
S'HRAS PROTEIN'
p4401
S'increases'
p4402
tp4403
(lp4404
s(S'SMAD4'
p4405
S'CYP26A1'
p4406
S'increases'
p4407
tp4408
(lp4409
s(S'E2F1'
p4410
S'MYC'
p4411
S'increases'
p4412
tp4413
(lp4414
s(S'CYP26A1'
p4415
S'FOXO3'
p4416
S'increases'
p4417
tp4418
(lp4419
s(S'TCF3'
p4420
S'CBFA2T3'
p4421
S'increases'
p4422
tp4423
(lp4424
s(S'ZHX2'
p4425
S'FOXF2'
p4426
S'increases'
p4427
tp4428
(lp4429
s(S'POU2F1'
p4430
S'MECOM'
p4431
S'increases'
p4432
tp4433
(lp4434
s(S'CYP26A1'
p4435
S'POU2F1'
p4436
S'increases'
p4437
tp4438
(lp4439
s(S'MYOD1'
p4440
S'CYP26A1'
p4441
S'increases'
p4442
tp4443
(lp4444
s(S'RAF'
p4445
S'COMPLEX (RAS/GTP)'
p4446
S'binds'
p4447
tp4448
(lp4449
s(S'RET51/GFRalpha1/GDNF/DOK1'
p4450
S'HRAS/GDP'
p4451
S'increases_activity'
p4452
tp4453
(lp4454
s(S'MAFG'
p4455
S'CYP26A1'
p4456
S'increases'
p4457
tp4458
(lp4459
s(S'CRX'
p4460
S'CYP26A1'
p4461
S'increases'
p4462
tp4463
(lp4464
s(S'hsa-miR-126-3p'
p4465
S'KRAS'
p4466
S'decreases'
p4467
tp4468
(lp4469
s(S'EBF2'
p4470
S'CYP26A1'
p4471
S'increases'
p4472
tp4473
(lp4474
s(S'RUNX1'
p4475
S'CYP26A1'
p4476
S'increases'
p4477
tp4478
(lp4479
s(S'HOXA5'
p4480
S'FOXA1'
p4481
S'increases'
p4482
tp4483
(lp4484
s(S'benzo(a)pyrene-3,6-quinone'
p4485
S'HRAS MRNA'
p4486
S'increases'
p4487
tp4488
(lp4489
s(S'K 7174'
p4490
S'HRAS MRNA'
p4491
S'decreases'
p4492
tp4493
(lp4494
s(S'LEF1'
p4495
S'NRAS'
p4496
S'increases'
p4497
tp4498
(lp4499
s(S'SPI1'
p4500
S'FOXA1'
p4501
S'increases'
p4502
tp4503
(lp4504
s(S'hsa-let-7b-5p'
p4505
S'NRAS'
p4506
S'decreases'
p4507
tp4508
(lp4509
s(S'CEBPA'
p4510
S'JUN'
p4511
S'increases'
p4512
tp4513
(lp4514
s(S'GABPB2'
p4515
S'CYP26A1'
p4516
S'increases'
p4517
tp4518
(lp4519
s(S'PI-3-4-5-P3'
p4520
S'MTOR'
p4521
S'increases_activity'
p4522
tp4523
(lp4524
s(S'GRB2:SOS1'
p4525
S'EGF:P-6Y-EGFR'
p4526
S'binds'
p4527
tp4528
(lp4529
s(S'HNF1A'
p4530
S'CYP26A1'
p4531
S'increases'
p4532
tp4533
(lp4534
s(S'HIF1A'
p4535
S'FOXO4'
p4536
S'increases'
p4537
tp4538
(lp4539
s(S'FOXJ1'
p4540
S'HOXA9'
p4541
S'increases'
p4542
tp4543
(lp4544
s(S'hsa-miR-96-5p'
p4545
S'KRAS'
p4546
S'decreases'
p4547
tp4548
(lp4549
s(S'SRC'
p4550
S'SYNDECAN-2/RASGAP'
p4551
S'binds'
p4552
tp4553
(lp4554
s(S'FOXA1'
p4555
S'MEIS1'
p4556
S'increases'
p4557
tp4558
(lp4559
s(S'LEF1'
p4560
S'MEIS1'
p4561
S'increases'
p4562
tp4563
(lp4564
s(S'PAX3'
p4565
S'CYP26A1'
p4566
S'increases'
p4567
tp4568
(lp4569
s(S'PAX4'
p4570
S'HOXA9'
p4571
S'increases'
p4572
tp4573
(lp4574
s(S'hsa-miR-18a-3p'
p4575
S'KRAS'
p4576
S'decreases'
p4577
tp4578
(lp4579
s(S'FOXF2'
p4580
S'EN1'
p4581
S'increases'
p4582
tp4583
(lp4584
s(S'Pyk2'
p4585
S'SRC FAMILY KINASES'
p4586
S'increases_activity'
p4587
tp4588
(lp4589
s(S'TP53'
p4590
S'HOXA9'
p4591
S'increases'
p4592
tp4593
(lp4594
s(S'Genistein'
p4595
S'KRAS MRNA'
p4596
S'decreases'
p4597
tp4598
(lp4599
s(S'POU1F1'
p4600
S'CYP26A1'
p4601
S'increases'
p4602
tp4603
(lp4604
s(S'manumycin'
p4605
S'KRAS PROTEIN'
p4606
S'decreases_activity'
p4607
tp4608
(lp4609
s(S'Ginkgo biloba extract 761'
p4610
S'GCLC PROTEIN'
p4611
S'increases'
p4612
tp4613
(lp4614
s(S'GATA1'
p4615
S'NRAS'
p4616
S'increases'
p4617
tp4618
(lp4619
s(S'CBFA2T3'
p4620
S'FOXF2'
p4621
S'increases'
p4622
tp4623
(lp4624
s(S'PCBP1'
p4625
S'ELK1'
p4626
S'increases'
p4627
tp4628
(lp4629
s(S'MYC'
p4630
S'FOXF2'
p4631
S'increases'
p4632
tp4633
(lp4634
s(S'hsa-mir-622'
p4635
S'KRAS'
p4636
S'decreases'
p4637
tp4638
(lp4639
s(S'TCF3'
p4640
S'MAZ'
p4641
S'increases'
p4642
tp4643
(lp4644
s(S'STAT2'
p4645
S'MEIS1'
p4646
S'increases'
p4647
tp4648
(lp4649
s(S'CYP26A1'
p4650
S'YY1'
p4651
S'increases'
p4652
tp4653
(lp4654
s(S'CYP26A1'
p4655
S'EN1'
p4656
S'increases'
p4657
tp4658
(lp4659
s(S'GRB2/SOS1'
p4660
S'SHC'
p4661
S'binds'
p4662
tp4663
(lp4664
s(S'BAD'
p4665
S'YWHAZ'
p4666
S'binds'
p4667
tp4668
(lp4669
s(S'SPI1'
p4670
S'MAX'
p4671
S'increases'
p4672
tp4673
(lp4674
s(S'PI-3-4-5-P3'
p4675
S'CENTA1'
p4676
S'translocates'
p4677
tp4678
(lp4679
s(S'XBP1'
p4680
S'CYP26A1'
p4681
S'increases'
p4682
tp4683
(lp4684
s(S'PAX4'
p4685
S'NRAS'
p4686
S'increases'
p4687
tp4688
(lp4689
s(S'PI3K'
p4690
S'EPHRIN A1/EPHA2'
p4691
S'binds'
p4692
tp4693
(lp4694
s(S'POU1F1'
p4695
S'MEIS1'
p4696
S'increases'
p4697
tp4698
(lp4699
s(S'NR3C1'
p4700
S'ETS1'
p4701
S'increases'
p4702
tp4703
(lp4704
s(S'MAZ'
p4705
S'POU3F2'
p4706
S'increases'
p4707
tp4708
(lp4709
s(S'Estradiol'
p4710
S'HRAS MRNA'
p4711
S'increases'
p4712
tp4713
(lp4714
s(S'Aflatoxin B1'
p4715
S'HRAS PROTEIN'
p4716
S'increases'
p4717
tp4718
(lp4719
s(S'ETV7'
p4720
S'STAT4'
p4721
S'increases'
p4722
tp4723
(lp4724
s(S'PBX1'
p4725
S'LEF1'
p4726
S'increases'
p4727
tp4728
(lp4729
s(S'CEBPB'
p4730
S'CYP26A1'
p4731
S'increases'
p4732
tp4733
(lp4734
s(S'MAZ'
p4735
S'JUN'
p4736
S'increases'
p4737
tp4738
(lp4739
S'According to the method, we identified 3 hub genes (PTEN, VEGFA and BCL2), 4 hub miRNAs (miR-103/16/92a/26b) and 9 hub TFs (EGR1, JUN, MAZ, NFIC, SP1, ZBTB7A, RFX5, ETS1 and YY1). '
p4740
as(S'FOXF2'
p4741
S'MYC'
p4742
S'increases'
p4743
tp4744
(lp4745
s(S'FOXJ2'
p4746
S'HOXA9'
p4747
S'increases'
p4748
tp4749
(lp4750
s(S'Capsaicin'
p4751
S'HRAS MRNA'
p4752
S'increases'
p4753
tp4754
(lp4755
s(S'POU3F1'
p4756
S'GATA6'
p4757
S'increases'
p4758
tp4759
(lp4760
s(S'EIF2A'
p4761
S'14-3-3 E'
p4762
S'binds'
p4763
tp4764
(lp4765
s(S'RAS family/GTP'
p4766
S'RAF1-BRAF'
p4767
S'increases_activity'
p4768
tp4769
(lp4770
s(S'GATA6'
p4771
S'GATA1'
p4772
S'increases'
p4773
tp4774
(lp4775
s(S'RASA1'
p4776
S'PHOSPHO PDGF BETA RECEPTOR: PDGF CHAIN B HOMODIMER'
p4777
S'binds'
p4778
tp4779
(lp4780
s(S'CART1'
p4781
S'POU2F1'
p4782
S'increases'
p4783
tp4784
(lp4785
s(S'ZIC3'
p4786
S'POU2F1'
p4787
S'increases'
p4788
tp4789
(lp4790
s(S'TCF4'
p4791
S'FOXA1'
p4792
S'increases'
p4793
tp4794
(lp4795
s(S'PKC theta'
p4796
S'RASGRP1'
p4797
S'adds_modification'
p4798
tp4799
(lp4800
s(S'PTF1A'
p4801
S'STAT5A'
p4802
S'increases'
p4803
tp4804
(lp4805
s(S'SPI1'
p4806
S'FOXO4'
p4807
S'increases'
p4808
tp4809
(lp4810
s(S'HNF1A'
p4811
S'GATA6'
p4812
S'increases'
p4813
tp4814
(lp4815
s(S'FOXJ1'
p4816
S'RUNX1'
p4817
S'increases'
p4818
tp4819
(lp4820
s(S'STAT2'
p4821
S'GATA6'
p4822
S'increases'
p4823
tp4824
(lp4825
s(S'RAS FAMILY/GTP'
p4826
S'PI3K'
p4827
S'binds'
p4828
tp4829
(lp4830
s(S'PAX4'
p4831
S'IRF1'
p4832
S'increases'
p4833
tp4834
(lp4835
s(S'PAX3'
p4836
S'HOXA9'
p4837
S'increases'
p4838
tp4839
(lp4840
s(S'MYB'
p4841
S'MAZ'
p4842
S'increases'
p4843
tp4844
(lp4845
s(S"Guanosine-5'-Triphosphate"
p4846
S'HRAS'
p4847
S'increases_activity'
p4848
tp4849
(lp4850
s(S'alpha9/beta1 Integrin/Tenascin C'
p4851
S'SRC'
p4852
S'adds_modification'
p4853
tp4854
(lp4855
s(S'RAF1'
p4856
S'MEK1'
p4857
S'adds_modification'
p4858
tp4859
(lp4860
s(S'JUN'
p4861
S'FOXA1'
p4862
S'increases'
p4863
tp4864
(lp4865
s(S'NFE2L2'
p4866
S'BACH1'
p4867
S'increases'
p4868
tp4869
(lp4870
s(S'CUX1'
p4871
S'FOXD3'
p4872
S'increases'
p4873
tp4874
(lp4875
s(S'JUN'
p4876
S'EN1'
p4877
S'increases'
p4878
tp4879
(lp4880
s(S'ESR1'
p4881
S'CYP26A1'
p4882
S'increases'
p4883
tp4884
(lp4885
s(S'ESRRA'
p4886
S'FOXA1'
p4887
S'increases'
p4888
tp4889
(lp4890
s(S'POU2F1'
p4891
S'MEIS1'
p4892
S'increases'
p4893
tp4894
(lp4895
s(S'TFCP2'
p4896
S'FOXA1'
p4897
S'increases'
p4898
tp4899
(lp4900
s(S'PI-3-4-5-P3'
p4901
S'PDK1'
p4902
S'increases_activity'
p4903
tp4904
(lp4905
s(S'TCF3'
p4906
S'FOXA1'
p4907
S'increases'
p4908
tp4909
(lp4910
s(S'STAT3'
p4911
S'CYP26A1'
p4912
S'increases'
p4913
tp4914
(lp4915
s(S'CYP26A1'
p4916
S'POU3F2'
p4917
S'increases'
p4918
tp4919
(lp4920
s(S'Curcumin'
p4921
S'KRAS MRNA'
p4922
S'decreases'
p4923
tp4924
(lp4925
s(S'STAT1'
p4926
S'CYP26A1'
p4927
S'increases'
p4928
tp4929
(lp4930
s(S'GFI1'
p4931
S'POU2F1'
p4932
S'increases'
p4933
tp4934
(lp4935
s(S'ZIC1'
p4936
S'POU2F1'
p4937
S'increases'
p4938
tp4939
(lp4940
s(S'PI-3-4-5-P3'
p4941
S'AKT3'
p4942
S'adds_modification'
p4943
tp4944
(lp4945
s(S'BACH1'
p4946
S'NRAS'
p4947
S'increases'
p4948
tp4949
(lp4950
s(S'SCF/KIT'
p4951
S'SHC/GRB2/SOS1'
p4952
S'increases_activity'
p4953
tp4954
(lp4955
s(S'CDX2'
p4956
S'CYP26A1'
p4957
S'increases'
p4958
tp4959
(lp4960
s(S'RET51/GFRalpha1/GDNF/DOK/RasGAP/NCK'
p4961
S'HRAS/GDP'
p4962
S'decreases_activity'
p4963
tp4964
(lp4965
s(S'BETAPIX'
p4966
S'RAC1/GTP'
p4967
S'binds'
p4968
tp4969
(lp4970
s(S'RHOA/GTP'
p4971
S'CITRON'
p4972
S'increases_activity'
p4973
tp4974
(lp4975
s(S'P-SHC1:GRB2:SOS'
p4976
S'P-5Y-LAT-2'
p4977
S'binds'
p4978
tp4979
(lp4980
s(S'PAX4'
p4981
S'CYP26A1'
p4982
S'increases'
p4983
tp4984
(lp4985
s(S'TCF3'
p4986
S'KRAS'
p4987
S'increases'
p4988
tp4989
(lp4990
s(S'GRB2:SOS1'
p4991
S'PHOSPHORYLATED ERBB2:ERBB4 HETERODIMERS'
p4992
S'binds'
p4993
tp4994
(lp4995
s(S'CDX2'
p4996
S'MEIS1'
p4997
S'increases'
p4998
tp4999
(lp5000
s(S'SP3'
p5001
S'RUNX1'
p5002
S'increases'
p5003
tp5004
(lp5005
s(S'REST'
p5006
S'CYP26A1'
p5007
S'increases'
p5008
tp5009
(lp5010
s(S'PTF1A'
p5011
S'CYP26A1'
p5012
S'increases'
p5013
tp5014
(lp5015
s(S'PI-3-4-5-P3'
p5016
S'PI3K/GAB1'
p5017
S'translocates'
p5018
tp5019
(lp5020
s(S'LMO2'
p5021
S'FOXO4'
p5022
S'increases'
p5023
tp5024
(lp5025
s(S'STAT4'
p5026
S'ETS1'
p5027
S'increases'
p5028
tp5029
(lp5030
s(S'GTF2A2'
p5031
S'HOXA9'
p5032
S'increases'
p5033
tp5034
(lp5035
s(S'FOXF2'
p5036
S'POU3F2'
p5037
S'increases'
p5038
tp5039
(lp5040
s(S'GATA1'
p5041
S'GABPB2'
p5042
S'increases'
p5043
tp5044
(lp5045
s(S'Polychlorinated Biphenyls'
p5046
S'KRAS MRNA'
p5047
S'decreases'
p5048
tp5049
(lp5050
s(S'GRB2/SOS1'
p5051
S'EGF/EGFR DIMER/SHC'
p5052
S'binds'
p5053
tp5054
(lp5055
s(S'CYP26A1'
p5056
S'FOXF2'
p5057
S'increases'
p5058
tp5059
(lp5060
s(S'EGR1'
p5061
S'CYP26A1'
p5062
S'increases'
p5063
tp5064
(lp5065
s(S'MAX'
p5066
S'FOXO3'
p5067
S'increases'
p5068
tp5069
(lp5070
s(S'T-DHT/AR/PELP1'
p5071
S'SRC'
p5072
S'binds'
p5073
tp5074
(lp5075
s(S'CUX1'
p5076
S'FOXF2'
p5077
S'increases'
p5078
tp5079
(lp5080
s(S'CEBPD'
p5081
S'CYP26A1'
p5082
S'increases'
p5083
tp5084
(lp5085
s(S'CBFA2T3'
p5086
S'NRAS'
p5087
S'increases'
p5088
tp5089
(lp5090
s(S'Cisplatin'
p5091
S'HRAS MRNA'
p5092
S'translocates'
p5093
tp5094
(lp5095
s(S'BAD/BCL-X(L)'
p5096
S'YWHAZ'
p5097
S'binds'
p5098
tp5099
(lp5100
s(S'GATA1'
p5101
S'FOXA1'
p5102
S'increases'
p5103
tp5104
(lp5105
s(S'RREB1'
p5106
S'CYP26A1'
p5107
S'increases'
p5108
tp5109
(lp5110
s(S'STAT4'
p5111
S'RUNX2'
p5112
S'increases'
p5113
tp5114
(lp5115
s(S'FOXD3'
p5116
S'NRAS'
p5117
S'increases'
p5118
tp5119
(lp5120
s(S'NDEL1'
p5121
S'14-3-3 E'
p5122
S'binds'
p5123
tp5124
(lp5125
s(S'CYP26A1'
p5126
S'REPIN1'
p5127
S'increases'
p5128
tp5129
(lp5130
s(S'MAF'
p5131
S'CDC5L'
p5132
S'increases'
p5133
tp5134
(lp5135
s(S'CYP26A1'
p5136
S'ELK1'
p5137
S'increases'
p5138
tp5139
(lp5140
s(S'MYC'
p5141
S'FOXD3'
p5142
S'increases'
p5143
tp5144
(lp5145
s(S'MAX'
p5146
S'FOXD3'
p5147
S'increases'
p5148
tp5149
(lp5150
s(S'POU1F1'
p5151
S'GATA6'
p5152
S'increases'
p5153
tp5154
(lp5155
s(S'POU2F1'
p5156
S'STAT4'
p5157
S'increases'
p5158
tp5159
(lp5160
s(S'GTF3A'
p5161
S'FOXO3'
p5162
S'increases'
p5163
tp5164
(lp5165
s(S'MYB'
p5166
S'FOXF2'
p5167
S'increases'
p5168
tp5169
(lp5170
s(S'ZIC3'
p5171
S'CYP26A1'
p5172
S'increases'
p5173
tp5174
(lp5175
s(S'POU2F1'
p5176
S'EN1'
p5177
S'increases'
p5178
tp5179
(lp5180
s(S'JUN'
p5181
S'STAT1'
p5182
S'increases'
p5183
tp5184
(lp5185
s(S'TEF'
p5186
S'CYP26A1'
p5187
S'increases'
p5188
tp5189
(lp5190
s(S'MAF'
p5191
S'CYP26A1'
p5192
S'increases'
p5193
tp5194
(lp5195
s(S'PAX4'
p5196
S'GATA6'
p5197
S'increases'
p5198
tp5199
(lp5200
s(S'ZIC2'
p5201
S'GATA6'
p5202
S'increases'
p5203
tp5204
(lp5205
s(S'hsa-miR-181d-5p'
p5206
S'HRAS'
p5207
S'decreases'
p5208
tp5209
(lp5210
s(S'BACH2'
p5211
S'CYP26A1'
p5212
S'increases'
p5213
tp5214
(lp5215
s(S'TCF12'
p5216
S'CYP26A1'
p5217
S'increases'
p5218
tp5219
(lp5220
s(S'GATA1'
p5221
S'FOXO4'
p5222
S'increases'
p5223
tp5224
(lp5225
s(S'RFX1'
p5226
S'FOXD3'
p5227
S'increases'
p5228
tp5229
(lp5230
s(S'FOXJ1'
p5231
S'CYP26A1'
p5232
S'increases'
p5233
tp5234
(lp5235
s(S'GTF2A2'
p5236
S'POU2F1'
p5237
S'increases'
p5238
tp5239
(lp5240
s(S'YY1'
p5241
S'SRF'
p5242
S'increases'
p5243
tp5244
(lp5245
s(S'AHR'
p5246
S'REPIN1'
p5247
S'increases'
p5248
tp5249
(lp5250
s(S'MAZ'
p5251
S'CYP26A1'
p5252
S'increases'
p5253
tp5254
(lp5255
s(S'Quercetin'
p5256
S'HRAS MRNA'
p5257
S'increases'
p5258
tp5259
(lp5260
s(S'ELK1'
p5261
S'NRAS'
p5262
S'increases'
p5263
tp5264
(lp5265
s(S'HIF1A'
p5266
S'ONECUT1'
p5267
S'increases'
p5268
tp5269
(lp5270
s(S'FOXF2'
p5271
S'CYP26A1'
p5272
S'increases'
p5273
tp5274
(lp5275
s(S'SOX9'
p5276
S'ETS1'
p5277
S'increases'
p5278
tp5279
(lp5280
s(S'HSF1'
p5281
S'JUN'
p5282
S'increases'
p5283
tp5284
(lp5285
s(S'CEBPA'
p5286
S'CYP26A1'
p5287
S'increases'
p5288
tp5289
(lp5290
s(S'NR1H4'
p5291
S'MEIS1'
p5292
S'increases'
p5293
tp5294
(lp5295
s(S'SMAD1'
p5296
S'GATA1'
p5297
S'increases'
p5298
tp5299
(lp5300
s(S'Quercetin'
p5301
S'HRAS MRNA'
p5302
S'decreases'
p5303
tp5304
(lp5305
s(S'Glycyrrhetinic Acid'
p5306
S'HRAS PROTEIN'
p5307
S'decreases'
p5308
tp5309
(lp5310
s(S'HOXA4'
p5311
S'POU2F1'
p5312
S'increases'
p5313
tp5314
(lp5315
s(S'FOXQ1'
p5316
S'CYP26A1'
p5317
S'increases'
p5318
tp5319
(lp5320
s(S'FOXI1'
p5321
S'CEBPA'
p5322
S'increases'
p5323
tp5324
(lp5325
s(S'GTF3A'
p5326
S'MYCN'
p5327
S'increases'
p5328
tp5329
(lp5330
s(S'LMO2'
p5331
S'IRF1'
p5332
S'increases'
p5333
tp5334
(lp5335
s(S'FOXO1'
p5336
S'CYP26A1'
p5337
S'increases'
p5338
tp5339
(lp5340
s(S'Copper Sulfate'
p5341
S'NRAS MRNA'
p5342
S'increases'
p5343
tp5344
(lp5345
s(S'TFAP2A'
p5346
S'CYP26A1'
p5347
S'increases'
p5348
tp5349
(lp5350
s(S'FOXJ1'
p5351
S'EN1'
p5352
S'increases'
p5353
tp5354
(lp5355
s(S'MEIS1'
p5356
S'RUNX1'
p5357
S'increases'
p5358
tp5359
(lp5360
s(S'MAZ'
p5361
S'FOXA1'
p5362
S'increases'
p5363
tp5364
(lp5365
s(S'ETS1'
p5366
S'FOXO4'
p5367
S'increases'
p5368
tp5369
(lp5370
s(S'ZBTB14'
p5371
S'FOXD3'
p5372
S'increases'
p5373
tp5374
(lp5375
s(S'FOXC1'
p5376
S'LEF1'
p5377
S'increases'
p5378
tp5379
(lp5380
s(S'IRF1'
p5381
S'EN1'
p5382
S'increases'
p5383
tp5384
(lp5385
s(S'NR3C1'
p5386
S'CYP26A1'
p5387
S'increases'
p5388
tp5389
(lp5390
s(S'VSX1'
p5391
S'BACH1'
p5392
S'increases'
p5393
tp5394
(lp5395
s(S'CYP26A1'
p5396
S'ETS1'
p5397
S'increases'
p5398
tp5399
(lp5400
s(S'CEBPA'
p5401
S'MEIS1'
p5402
S'increases'
p5403
tp5404
(lp5405
s(S'ELF1'
p5406
S'FOXO4'
p5407
S'increases'
p5408
tp5409
(lp5410
s(S'RXRA'
p5411
S'CYP26A1'
p5412
S'increases'
p5413
tp5414
(lp5415
s(S'CREB1'
p5416
S'CYP26A1'
p5417
S'increases'
p5418
tp5419
(lp5420
s(S'IRF7'
p5421
S'GATA6'
p5422
S'increases'
p5423
tp5424
(lp5425
s(S'ZEB1'
p5426
S'CYP26A1'
p5427
S'increases'
p5428
tp5429
(lp5430
s(S'AR'
p5431
S'CYP26A1'
p5432
S'increases'
p5433
tp5434
(lp5435
s(S'TFDP2'
p5436
S'MYC'
p5437
S'increases'
p5438
tp5439
(lp5440
s(S'hsa-mir-217'
p5441
S'KRAS'
p5442
S'decreases'
p5443
tp5444
(lp5445
s(S'MEK'
p5446
S'ERK'
p5447
S'adds_modification'
p5448
tp5449
(lp5450
S'BP: blocking peptide; CAD: caspase-activated DNAse; CDK: cyclin dependent kinase; CK: creatine kinase; CM: conditioned medium; DM: differentiating medium; DR5: death receptor 5; EGF: epidermal growth factor; ERK: extracellular signal-regulated kinase; FADD: Fas-associated protein with death domain; FGF: fibroblast growth factor; GM: growth medium; LIF: leukemia inhibitory factor; LIFR: leukemia inhibitor factor receptor; MRF: muscle regulatory factor; MYHC: myosin heavy chain; MEK: mitogen activated protein kinase and extracellular signal regulated kinase kinase;PI3K: phosphotidylinositol-3 kinase; NCM: non-conditioned medium; TA: tibialis anterior; TUNEL: terminal deoxynucleotidyl transferase mediated dUTP Nick End Labeling; XIAP: X-linked inhibitor of apoptosis protein'
p5451
aS'AST: Aspartate aminotransferase; CPK: Creatine phosphokinase; DMSO: Dimethyl sulfoxide; EDMD: Emery-Dreifuss muscular dystrophy; ERK: Extracellular signal-regulated kinase; LMNA: Lamin A/C gene; MEK: Mitogen-activated protein kinase/extracellular signal-regulated kinase kinase; RT-PCR: Reverse transcription-polymerase chain reaction.'
p5452
ag652
aS'Activated IRS also activates the MEK/ERK mitogen-activated protein (MAP) kinase pathway, which is involved in the regulation of many critical biological processes, including cell proliferation, differentiation, and death ['
p5453
aS'We further aimed to detect influences that these pathways have on JEG-3 invasion and proliferation by inhibiting ERK1/2 with U0126, a specific blocker of mitogen-activated protein kinase kinase (MEK) that phosphorylates ERK1/2.'
p5454
aS'Alternatively to the MEK inhibitor, JEG-3 cells were treated with predesigned small interfering RNA (siRNA) for ERK1/2 (Ambion).'
p5455
aS'As assessed by Western blotting, application of the MEK inhibitor U0126 almost completely blocks constitutive and LIF-induced ERK1/2 phosphorylation.'
p5456
aS'To demonstrate the role of ERK1/2 in the hypothermic attenuation of ICAM-1 induction, we administered U0126, a MEK inhibitor suppressing phosphorylation of ERK1/2, to the animals and measured the ICAM-1 level in the ischemic brain.'
p5457
aS'Arrowheads: KO2+ cells that express endoderm markers in self-renewal media, but not in the presence of the MEK/ERK inhibitor (U0126).'
p5458
aS'Overexpression of two different constitutively active ERK activator kinase 1 (MEK1) mutants, MEK1-R4F and MEK1'
p5459
ag653
aS'In this context, cooperation of EGFR with GLI1 and GLI2 depends on activation of MEK/ERK signaling while PI3K/AKT function is dispensable downstream of EGFR.'
p5460
aS'MEK/ERK induced phosphorylation and activation of the JUN/AP1 transcription factor is the critical event at the terminal end of the EGFR cascade, inducing binding of activated JUN and GLI to common HH-EGFR target promoters, thereby cooperatively regulating target gene expression and transformation '
p5461
aS'Besides the serum-free 2i medium supplemented with MEK/ERK pathway and GSK3 inhibitors and 3i medium additionally containing a FGF receptor inhibitor (Buehr et al.\n'
p5462
aS'Mutated BRAF causes overactive downstream signaling via MEK and ERK leading to excessive cell proliferation and survival.'
p5463
aS'The RAF/MEK/ERK signal transduction cascade is an important mediator of a number of cellular outcomes including growth, proliferation and survival.'
p5464
aS'MEK and PI3K inhibitors suppressed production of matrix metalloproteinase-3 (MMP-3), vascular endothelial growth factor (VEGF) and prostaglandin E2 (PGE2) by MH7A cells, suggesting that c-Met-MEK-ERK and c-Met-PI3K-AKT pathways are involved positively regulating MH7A cell function.'
p5465
aS'Although SU11274 suppressed MMP-3 and VEGF production it enhanced PGE2 production by MH7A cells suggesting that negative regulation by c-Met signaling, independent of the MEK-ERK and PI3K-AKT pathways, is involved in PGE2 production.'
p5466
aS'MEK/ERK and PI3-AKT signaling pathways can be activated by a variety of growth factors such as insulin and HGF (Dong et al. '
p5467
aS'To confirm the involvement of MEK-ERK and PI3-AKT signaling pathways in the production of MMP-3, VEGF and PGE2, we examined whether pretreatment with either MEK or PI3K inhibitors affected MMP-3, VEGF and PGE2 production.'
p5468
ag654
ag656
ag657
ag658
aS'Positive results of this trial will open avenues for future research on HCC management using monotherapy or a combination of anticancer agents targeting MEK/ERK signaling pathway and other kinases involved in tumor growth and angiogenesis.'
p5469
ag659
ag660
aS'We have recently uncovered that IAPs also control the RAF/MEK/ERK1/2 pathway and cell migration by directly regulating the stability of C-RAF kinase.'
p5470
aS'ACCH, Amot coiled-coil homology; AP-1, activator protein 1; BAR, Bin/Amphiphysin/Rvs; C1, cysteine-rich phorbol ester binding domain 1; CIP4, Cdc42-interacting protein 4; CLIC/GEEC, clathrin independent carriers/GPI-enriched endocytic compartments; CRIB, Cdc42/ Rac1 interactive binding domain; DH, Dbl homology; FAK, focal adhesion kinase; F-BAR, Fes/CIP4 homology Bin/ Amphiphysin/Rvs; FBP17, formin binding protein 17; GAP, GTPase activating protein; GDI, guanine nucleotide dissociation inhibitor; GEF, guaninenucleotide- exchange factor; GRAF, GTPase regulator associated with focal adhesion kinase-1; HR1, homology region 1; I-BAR, inverted-Bin/Amphiphysin/Rvs; IRSp53, insulin receptor substrate p53; MEKK1, mammalian MAP/ERK kinase kinase 1; MIM, missing in metastasis; Nwk, nervous wreck; PACSIN2, protein kinase C and casein kinase 2 substrate in neurons 2; PDGF, platelet derived growth factor; PH, pleckstrin homology; PSGAP, PH and SH3 domain-containing RhoGAP protein; PYK2, protein tyrosine kinase 2; SH3, Src homology 3; SH3BP1, SH3-domain binding protein 1; srGAP, slit-robo GAP; Toca-1, transducer of Cdc42-dependent actin assembly-1; WASP, Wiskott-Aldrich syndrome protein; WH2, Wiskott-Aldrich homology 2; WIP, WASP interacting protein; WRP, WAVE-associated Rac GAP'
p5471
aS'In cancer, the RAS/RAF/MEK/ERK pathway is often inappropriately activated.'
p5472
aS'MEK-ERK signaling can regulate the level of STAT3 (Y705) and its nuclear translocation ['
p5473
ag663
ag1753
aS'The expression of molecules involved in the MAPK pathway, including RAS, MEK1/2, and p-ERK1/2, in MCF-7/TAM cells was significantly up-regulated, compared with MCF-7 cells.'
p5474
aS'After the gefitinib treatment, the expression levels of MEK1/2 and p-ERK1/2 were significantly down-regulated.'
p5475
aS'Western blot results showed that the protein expression of molecules involved in the MAPK signalling pathway, including Ras, MEK1/2, and p-ERK1/2, was significantly enhanced in cells of the M/T group compared with the M0 group ('
p5476
aS'(A): The expression of Ras, MEK1/2, and p-ERK1/2 in the M/T group was significantly enhanced compared with the expression levels detected in the M0 group.'
p5477
aS'(B): Histograms of protein expression for Ras, MEK1/2, and p-ERK1/2.'
p5478
aS'Interestingly, mammary mouse tumors caused by expression of Notch4-ICD display high levels of pAKT and pMEK, and cell lines derived from these tumors require PI3K and ERK activities for anchorage-independent growth'
p5479
aS'ERK is activated through the phosphorylation of tyrosine and threonine residues by immediate upstream kinase MEK.'
p5480
aS'In the current study, ERK phosphorylation was inhibited by the blood-brain barrier-penetrating MEK inhibitor, SL327 (ENZO, Farmingdale, NY).'
p5481
aS'For example, it can regulate the MEK1/2-ERK1/2 and PI3K/AKT signaling pathways in ameliorating myocardial ischemia/reperfusion injury'
p5482
aS'Anti-phospho-ERK1/2 (T202/Y204), anti-phospho-MEK (S217/221), anti-ERK1/2, anti-cleaved PARP, anti-c-Myc, anti-BIM, anti-survivin, HRP-linked anti-mouse IgG, and HRP-linked anti-rabbit IgG were from Cell Signaling Technology (Danvers, MA).'
p5483
aS'Here, we examined the effect of macromolecular crowding on ERK MAPK phosphorylation by MEK MAPKK.'
p5484
aS'We have recently shown that Tyr and Thr residues within the activation loop of ERK MAP kinase were phosphorylated by MEK in a quasi-processive manner in mammalian cells'
p5485
aS'We have defined the processivity as a probability of two-step successive phosphorylation reactions from np-ERK to pY-ERK to pTpY-ERK by an identical MEK.'
p5486
aS'To formulate the processivity, we consider the situation where ERK has just been phosphorylated by MEK and converted to pY-ERK.'
p5487
aS'Particles of MEK and pY-ERK are treated as point-like particles.'
p5488
aS'In the quasi-processive phosphorylation model described in this study, the association and dissociation of ERK to MEK were neglected for the simplicity.'
p5489
aS'These models were consistent with experimental data supporting the processive ERK phosphorylation by MEK.'
p5490
aS'GST-ERK2KR and 12His-MEK1SDSE were prepared as described previously'
p5491
aS'(A) MEK (white) binds to and phosphorylates np-ERK (blue) at the tyrosine residue in the activation loop, and then dissociates from the product, pY-ERK (green).'
p5492
aS'Under the condition of macromolecular crowding, the diffusions of both MEK and pY-ERK are restricted by the cage effect of the crowder molecules (grey).'
p5493
aS'Thus, MEK rebinds to and phosphorylates pY-ERK with high probability.'
p5494
aS'Consequently, MEK phosphorylates ERK in a processive manner, and produces pTpY-ERK (red).'
p5495
aS'(A) ERK was phosphorylated by MEK at the indicated concentration of PEG-6000 (v/v).'
p5496
aS'(Left) MEK phosphorylates the tyrosine residue of ERK at t = 0.'
p5497
aS'Antibodies against KRAS, NRAS, BRAF, phosphor- and total MEK, phosphor- and total ERK1/2, phosphor- (T308) and total AKT, phosphor- and total S6, and GAPDH were obtained from Abcam.'
p5498
aS'The RAS/RAF/MEK/ERK pathway is critical in regulating cell proliferation, differentiation and apoptosis'
p5499
aS'Upon EGF binding to its receptor, the Ras-GTP recruits BRAF and induces its phosphorylation at Thr 599-Ser 602 residues and Lys63-linked polyubiquitination at Lys 578 within its kinase domain, which in turn mediates the activation of MEK-ERK and regulates downstream gene expression.'
p5500
aS'Therefore, several small chemical inhibitors targeting MEK and phosphoinositide-3 kinase (PI3K), the upstream activating kinases of ERK and AKT, were used in combination with SPION treatment ('
p5501
aS'The effects of XIAP are mediated by the mitogen-activated protein kinase (MEK)/extracellular signal-regulated kinases (ERKs) pathway since blocking this pathway completely prevents the neuritogenesis mediated by XIAP downregulation.'
p5502
ag664
aS'Sustained activation of MEK/ERK cascade is considered to be the main intracellular pathway involved in NGF-mediated neurogenesis'
p5503
ag665
aS'Activation of the RAF/MEK/ERK pathway induced by NGF is dependent on Trk receptor stimulation'
p5504
aS'It is well known that NGF-mediated neuritogenesis is dependent on MEK/ERK signalling and accordingly we have observed that pharmacological inhibition of MEK is able to block the neurite outgrowth mediated by shXIAP in NGF-treated PC12 cells.'
p5505
aS'These results indicate that the MEK/ERK pathway mediates the enhancement of NGF-induced neuritogenesis through shXIAP.'
p5506
ag666
aS'Recent studies have demonstrated that other anti-apoptotic proteins, such as FLIP, are able to support neurotrophin-mediated neurite outgrowth through the regulation of MEK/ERK via their interaction with TrkA or TrkB receptors'
p5507
ag667
aS'Taken together, we concluded that the combination of ATRA and staurosporine could overcome differentiation block via MEK/ERK signaling pathway in ATRA-resistant APL cell lines.'
p5508
aS'Moreover, MEK/ERK signaling pathway was demonstrated to be required for the combination-induced differentiation.'
p5509
aS'Our previous study demonstrated that the non-genomic effect, MEK/ERK signaling pathway could positively regulate ATRA-induced differentiation in APL cells (unpublished data).'
p5510
aS'To elucidate whether MEK/ERK signaling pathway was activated, the phosphorylated MEK and ERK1/2 were assessed by Western blot analysis in cells treated with ATRA or/and staurosporine for 24 hours.'
p5511
aS'Having shown that the combination phosphorylated MEK and ERK, we tested whether MEK/ERK activation was necessary for ATRA and staurosporine-mediated differentiation.'
p5512
aS'In conclusion, the combination of staurosporine and ATRA synergized to trigger differentiation in ATRA resistant APL cell lines by MEK/ERK signaling pathway.'
p5513
aS'The same membrane incubated with the phosphorylated Erk1/2 or MEK1/2 was stripped and followed by detection of MEK and ERK1/2.'
p5514
aS'The attenuation of MEK activation by U0126 (U) was measured by Western blot analysis of phosphorylated ERK1/2 in NB4-R1 and NB4-R2 cells with indicated treatments for 24 hours (a).'
p5515
aS'Selumetinib and PD0325901 are investigational drugs that inhibit the MEK 1 and 2 dual-specificity kinases that upregulate the RAS/RAF/MEK/ERK pathway in MEK-overexpressing tumors.'
p5516
aS'(B & C) Quantification of phospho-MEK1 (B) and phospho-ERK1/2 (C) normalized by total MEK1 and ERK1/2, respectively, in the presence/absence of PCA.'
p5517
ag2363
ag2364
aS'For experiments with mice lacking MEK1 or MEK2, which are the kinases upstream of ERK, we used '
p5518
aS'Considerable efforts have been spent on targeting MEK-ERK-MAPK pathway owing to its potential in promoting cell survival, proliferation and metastasis'
p5519
ag668
aS'Indeed, the PI3K/Akt pathway, but not the MEK/ERK pathway, has been shown to be critical for prostate cancer cell migration'
p5520
aS'To evaluate the involvement of the ERK/MAPK pathway on cell proliferation stimulated by PDE5 inhibition, SVZ-derived NSC cultures were treated with the MEK1/2 inhibitor, U0126.'
p5521
aS'SPC\n                              induces mesodermal differentiation of mouse ES cells\n                              and differentiation of  promyelocytic leukemia cells,\n                              by a mechanism being critically dependent on \n                              MEK-ERK signalling.'
p5522
aS'Western blot showed that conditioned medium of SSCs can activate mitogen-activated protein kinase (MAPK) signaling pathways by increasing the phosphorylation of mitogen-activated regulated protein kinase 1/2 (MEK) and extracellular-signal-regulated kinases 1/2 (ERK).'
p5523
aS'It increases cell migration and invasion through a constitutive activation of the MAPK kinase/ERK (MEK/ERK) pathway ['
p5524
aS'MEK ERK pathway inhibition by hIFN'
p5525
aS'In NF1-associated tumors, neurofibromin loss leads to Ras hyperactivation and increased signaling through the Ras downstream effector proteins, RAF/MEK (ERK pathway) and PI3-Kinase (PI3K)/AKT ('
p5526
aS'(b) Loss of neurofibromin function leads to increased RAS pathway (RAF/MEK/ERK or PI3K/AKT/mTOR) signaling as well as reduced cAMP generation.'
p5527
as(S'ZBTB18'
p5528
S'ONECUT1'
p5529
S'increases'
p5530
tp5531
(lp5532
s(S'TGIF'
p5533
S'MAX'
p5534
S'increases'
p5535
tp5536
(lp5537
s(S'ETS1'
p5538
S'NRAS'
p5539
S'increases'
p5540
tp5541
(lp5542
s(S'KLF12'
p5543
S'GATA1'
p5544
S'increases'
p5545
tp5546
(lp5547
s(S'HRAS/GTP'
p5548
S'PAK2'
p5549
S'increases_activity'
p5550
tp5551
(lp5552
s(S'CYP26A1'
p5553
S'FOXD3'
p5554
S'increases'
p5555
tp5556
(lp5557
s(S'LMO2'
p5558
S'RUNX1'
p5559
S'increases'
p5560
tp5561
(lp5562
s(S'MLK3'
p5563
S'MKK3/6'
p5564
S'adds_modification'
p5565
tp5566
(lp5567
s(S'TAK'
p5568
S'MKK3/6'
p5569
S'adds_modification'
p5570
tp5571
(lp5572
s(S'GRB2:SOS1'
p5573
S'HB-EGF:P-6Y-EGFR DIMER'
p5574
S'binds'
p5575
tp5576
(lp5577
s(S'FOXO4'
p5578
S'NRAS'
p5579
S'increases'
p5580
tp5581
(lp5582
s(S'MECOM'
p5583
S'NRAS'
p5584
S'increases'
p5585
tp5586
(lp5587
s(S'KLF12'
p5588
S'CYP26A1'
p5589
S'increases'
p5590
tp5591
(lp5592
s(S'RAS family/GTP/PI3K'
p5593
S'TRPV1'
p5594
S'adds_modification'
p5595
tp5596
(lp5597
s(S'hsa-let-7a-5p'
p5598
S'NRAS'
p5599
S'decreases'
p5600
tp5601
(lp5602
s(S'NF1'
p5603
S'HOXA9'
p5604
S'increases'
p5605
tp5606
(lp5607
s(S'REPIN1'
p5608
S'FOXD3'
p5609
S'increases'
p5610
tp5611
(lp5612
s(S'CYP26A1'
p5613
S'FOXJ2'
p5614
S'increases'
p5615
tp5616
(lp5617
s(S'FOXO4'
p5618
S'MEIS1'
p5619
S'increases'
p5620
tp5621
(lp5622
s(S'EBF2'
p5623
S'MECOM'
p5624
S'increases'
p5625
tp5626
(lp5627
s(S'ETS1'
p5628
S'FOXO3'
p5629
S'increases'
p5630
tp5631
(lp5632
s(S'SP3'
p5633
S'CYP26A1'
p5634
S'increases'
p5635
tp5636
(lp5637
s(S'LNXp80'
p5638
S'NUMB'
p5639
S'decreases'
p5640
tp5641
(lp5642
s(S'RUNX2'
p5643
S'CYP26A1'
p5644
S'increases'
p5645
tp5646
(lp5647
s(S'AHR'
p5648
S'FOXO3'
p5649
S'increases'
p5650
tp5651
(lp5652
s(S'VSX1'
p5653
S'FOXF2'
p5654
S'increases'
p5655
tp5656
(lp5657
s(S'BPTF'
p5658
S'RUNX1'
p5659
S'increases'
p5660
tp5661
(lp5662
s(S'7,8-Dihydro-7,8-dihydroxybenzo(a)pyrene 9,10-oxide'
p5663
S'HRAS PROTEIN'
p5664
S'increases'
p5665
tp5666
(lp5667
s(S'TCF3'
p5668
S'POU3F2'
p5669
S'increases'
p5670
tp5671
(lp5672
s(S'TCF3'
p5673
S'IRF1'
p5674
S'increases'
p5675
tp5676
(lp5677
s(S'SREBF1'
p5678
S'EN1'
p5679
S'increases'
p5680
tp5681
(lp5682
s(S'FOXO4'
p5683
S'RUNX2'
p5684
S'increases'
p5685
tp5686
(lp5687
s(S'hsa-miR-181a-5p'
p5688
S'HRAS'
p5689
S'decreases'
p5690
tp5691
(lp5692
s(S'Myb'
p5693
S'NRAS'
p5694
S'decreases'
p5695
tp5696
(lp5697
s(S'HSPA8'
p5698
S'ADP'
p5699
S'binds'
p5700
tp5701
(lp5702
s(S'SOCS3'
p5703
S'RASGAP'
p5704
S'binds'
p5705
tp5706
(lp5707
s(S'ONECUT1'
p5708
S'NRAS'
p5709
S'increases'
p5710
tp5711
(lp5712
s(S'PITX2'
p5713
S'EN1'
p5714
S'increases'
p5715
tp5716
(lp5717
s(S'HGF(dimer)/MET(dimer)'
p5718
S'SRC'
p5719
S'adds_modification'
p5720
tp5721
(lp5722
s(S'2-amino-1-methyl-6-phenylimidazo(4,5-b)pyridine'
p5723
S'HRAS PROTEIN'
p5724
S'increases'
p5725
tp5726
(lp5727
s(S'GFI1'
p5728
S'POU3F2'
p5729
S'increases'
p5730
tp5731
(lp5732
s(S'FARNESYL DIPHOSPHATE'
p5733
S'KRAS'
p5734
S'increases_activity'
p5735
tp5736
(lp5737
s(S'IL2/IL2R BETA/GAMMA/JAK1/LCK/JAK3'
p5738
S'PI3K'
p5739
S'binds'
p5740
tp5741
(lp5742
s(S'GTF3A'
p5743
S'MECOM'
p5744
S'increases'
p5745
tp5746
(lp5747
s(S'EGR2'
p5748
S'CYP26A1'
p5749
S'increases'
p5750
tp5751
(lp5752
s(S'RUNX1'
p5753
S'FOXF2'
p5754
S'increases'
p5755
tp5756
(lp5757
s(S'IL3/IL3RA/CSF2RB (DODECAMER)'
p5758
S'YWHAZ'
p5759
S'binds'
p5760
tp5761
(lp5762
s(S'RAF1'
p5763
S'BRAF'
p5764
S'binds'
p5765
tp5766
(lp5767
s(S'MYC'
p5768
S'CYP26A1'
p5769
S'increases'
p5770
tp5771
(lp5772
s(S'UBP1'
p5773
S'CYP26A1'
p5774
S'increases'
p5775
tp5776
(lp5777
s(S'MTF1'
p5778
S'REPIN1'
p5779
S'increases'
p5780
tp5781
(lp5782
s(S'HNF1A'
p5783
S'RUNX1'
p5784
S'increases'
p5785
tp5786
(lp5787
s(S'NHLH1'
p5788
S'FOXA1'
p5789
S'increases'
p5790
tp5791
(lp5792
s(S'HLF'
p5793
S'FOXA1'
p5794
S'increases'
p5795
tp5796
(lp5797
s(S'MEIS1'
p5798
S'GATA6'
p5799
S'increases'
p5800
tp5801
(lp5802
s(S'PDGF-BB/PDGFRB (DIMER)/SHP2'
p5803
S'GRB2/SOS1'
p5804
S'binds'
p5805
tp5806
(lp5807
s(S'ZBTB14'
p5808
S'EN1'
p5809
S'increases'
p5810
tp5811
(lp5812
s(S'alpha6/beta4 Integrin'
p5813
S'HRAS/GDP'
p5814
S'increases_activity'
p5815
tp5816
(lp5817
s(S'ErbB2'
p5818
S'HRAS/GDP'
p5819
S'increases_activity'
p5820
tp5821
(lp5822
s(S'MEIS1'
p5823
S'FOXO3'
p5824
S'increases'
p5825
tp5826
(lp5827
s(S'RELA'
p5828
S'IRF1'
p5829
S'increases'
p5830
tp5831
(lp5832
s(S'MYCN'
p5833
S'FOXO3'
p5834
S'increases'
p5835
tp5836
(lp5837
s(S'RHOA/GTP'
p5838
S'DIA'
p5839
S'increases_activity'
p5840
tp5841
(lp5842
s(S'Fluorouracil'
p5843
S'KRAS PROTEIN'
p5844
S'decreases'
p5845
tp5846
(lp5847
s(S'ATF2'
p5848
S'CYP26A1'
p5849
S'increases'
p5850
tp5851
(lp5852
s(S'GNAI2/GTP'
p5853
S'SRC FAMILY KINASES'
p5854
S'increases_activity'
p5855
tp5856
(lp5857
s(S'HAND1'
p5858
S'POU2F1'
p5859
S'increases'
p5860
tp5861
(lp5862
s(S'PI5K Type 1 family'
p5863
S'PI-4-P'
p5864
S'translocates'
p5865
tp5866
(lp5867
s(S'HSF1'
p5868
S'CBFA2T3'
p5869
S'increases'
p5870
tp5871
(lp5872
s(S'BACH1'
p5873
S'FOXA1'
p5874
S'increases'
p5875
tp5876
(lp5877
s(S'PI-3-4-5-P3'
p5878
S'SGK1'
p5879
S'adds_modification'
p5880
tp5881
(lp5882
s(S'hsa-miR-20a-5p'
p5883
S'NRAS'
p5884
S'decreases'
p5885
tp5886
(lp5887
s(S'CYP26A1'
p5888
S'MECOM'
p5889
S'increases'
p5890
tp5891
(lp5892
s(S'FOXF2'
p5893
S'RUNX1'
p5894
S'increases'
p5895
tp5896
(lp5897
s(S'EGR2'
p5898
S'SRF'
p5899
S'increases'
p5900
tp5901
(lp5902
s(S'LEF1'
p5903
S'FOXD3'
p5904
S'increases'
p5905
tp5906
(lp5907
s(S'TFAP2C'
p5908
S'MECOM'
p5909
S'increases'
p5910
tp5911
(lp5912
s(S'SHC'
p5913
S'GRB2/SOS1'
p5914
S'binds'
p5915
tp5916
(lp5917
s(S'CA2+'
p5918
S'CAM'
p5919
S'binds'
p5920
tp5921
(lp5922
s(S'MYC'
p5923
S'POU3F2'
p5924
S'increases'
p5925
tp5926
(lp5927
s(S'PAX8'
p5928
S'HOXA9'
p5929
S'increases'
p5930
tp5931
(lp5932
s(S'TFDP2'
p5933
S'CDC5L'
p5934
S'increases'
p5935
tp5936
(lp5937
s(S'RAF1/14-3-3'
p5938
S'KSR/14-3-3 /MEK1-2'
p5939
S'increases_activity'
p5940
tp5941
(lp5942
s(S'DDIT3'
p5943
S'MEIS1'
p5944
S'increases'
p5945
tp5946
(lp5947
s(S'GNB1/GNG2'
p5948
S'HRAS/GDP'
p5949
S'increases_activity'
p5950
tp5951
(lp5952
s(S'ACTIVATED FGFR MUTANTS:P-FRS2ALPHA'
p5953
S'GRB2:SOS1'
p5954
S'binds'
p5955
tp5956
(lp5957
s(S'HIF1A'
p5958
S'CYP26A1'
p5959
S'increases'
p5960
tp5961
(lp5962
s(S'RAF1-BRAF'
p5963
S'ERK1-2'
p5964
S'increases_activity'
p5965
tp5966
(lp5967
s(S'SMAD4'
p5968
S'CBFA2T3'
p5969
S'increases'
p5970
tp5971
(lp5972
s(S'resveratrol'
p5973
S'HRAS PROTEIN'
p5974
S'increases'
p5975
tp5976
(lp5977
s(S'Malathion'
p5978
S'HRAS MRNA'
p5979
S'increases'
p5980
tp5981
(lp5982
s(S'NRF1'
p5983
S'FOXO4'
p5984
S'increases'
p5985
tp5986
(lp5987
s(S'CREB1'
p5988
S'JUN'
p5989
S'increases'
p5990
tp5991
(lp5992
s(S'CDC5L'
p5993
S'HOXA9'
p5994
S'increases'
p5995
tp5996
(lp5997
s(S'CDX2'
p5998
S'HOXA9'
p5999
S'increases'
p6000
tp6001
(lp6002
s(S'HMGA1'
p6003
S'POU2F1'
p6004
S'increases'
p6005
tp6006
(lp6007
s(S'Coumestrol'
p6008
S'KRAS MRNA'
p6009
S'decreases'
p6010
tp6011
(lp6012
s(S'LEF1'
p6013
S'FOXO3'
p6014
S'increases'
p6015
tp6016
(lp6017
s(S'CYP26A1'
p6018
S'MEIS1'
p6019
S'increases'
p6020
tp6021
(lp6022
s(S'GTF2A2'
p6023
S'MEIS1'
p6024
S'increases'
p6025
tp6026
(lp6027
s(S'REPIN1'
p6028
S'CBFA2T3'
p6029
S'increases'
p6030
tp6031
(lp6032
s(S'hsa-miR-143-3p'
p6033
S'HRAS'
p6034
S'decreases'
p6035
tp6036
(lp6037
s(S'[(3,7,11-TRIMETHYL-DODECA-2,6,10-TRIENYLOXYCARBAMOYL)-METHYL]-PHOSPHONIC ACID'
p6038
S'KRAS'
p6039
S'increases_activity'
p6040
tp6041
(lp6042
s(S'TFDP1'
p6043
S'ONECUT1'
p6044
S'increases'
p6045
tp6046
(lp6047
s(S'YY1'
p6048
S'CYP26A1'
p6049
S'increases'
p6050
tp6051
(lp6052
s(S'PITX2'
p6053
S'RUNX1'
p6054
S'increases'
p6055
tp6056
(lp6057
s(S'STAT5A'
p6058
S'NRAS'
p6059
S'increases'
p6060
tp6061
(lp6062
s(S'Valproic Acid'
p6063
S'HRAS MRNA'
p6064
S'increases'
p6065
tp6066
(lp6067
s(S'Malathion'
p6068
S'HRAS PROTEIN'
p6069
S'increases'
p6070
tp6071
(lp6072
s(S'TFAP4'
p6073
S'CBFA2T3'
p6074
S'increases'
p6075
tp6076
(lp6077
s(S'TFAP4'
p6078
S'EN1'
p6079
S'increases'
p6080
tp6081
(lp6082
s(S'POU3F2'
p6083
S'CYP26A1'
p6084
S'increases'
p6085
tp6086
(lp6087
s(S'PAX3'
p6088
S'FOXD3'
p6089
S'increases'
p6090
tp6091
(lp6092
S'No expression of NSC marker SOX2 and of neural crest markers SNAI1, SOX10, FOXD3, and PAX3 was detected.'
p6093
aS'(D) At day 18, cells express neural crest markers SNAI1, SOX10, FOXD3, and PAX3.'
p6094
as(S'FOXA2'
p6095
S'RUNX2'
p6096
S'increases'
p6097
tp6098
(lp6099
s(S'MAX'
p6100
S'BACH1'
p6101
S'increases'
p6102
tp6103
(lp6104
s(S'PDX1'
p6105
S'CYP26A1'
p6106
S'increases'
p6107
tp6108
(lp6109
s(S'EPO/EPOR (dimer)/JAK2'
p6110
S'SHC/GRB2/SOS1'
p6111
S'increases_activity'
p6112
tp6113
(lp6114
s(S'E2F1'
p6115
S'MEIS1'
p6116
S'increases'
p6117
tp6118
(lp6119
s(S'FOXF2'
p6120
S'MEIS1'
p6121
S'increases'
p6122
tp6123
(lp6124
s(S'SPZ1'
p6125
S'FOXJ2'
p6126
S'increases'
p6127
tp6128
(lp6129
s(S'SRY'
p6130
S'NRAS'
p6131
S'increases'
p6132
tp6133
(lp6134
s(S'REPIN1'
p6135
S'CYP26A1'
p6136
S'increases'
p6137
tp6138
(lp6139
s(S'VEGFR3/VEGFC-D'
p6140
S'PKC'
p6141
S'increases_activity'
p6142
tp6143
(lp6144
s(S'MEIS1'
p6145
S'EN1'
p6146
S'increases'
p6147
tp6148
(lp6149
s(S'FOXJ1'
p6150
S'FOXD3'
p6151
S'increases'
p6152
tp6153
(lp6154
s(S'SPZ1'
p6155
S'FOXO4'
p6156
S'increases'
p6157
tp6158
(lp6159
s(S'RHOA/GTP'
p6160
S'ROCK1-ROCK2'
p6161
S'increases_activity'
p6162
tp6163
(lp6164
s(S'HMGA1'
p6165
S'ONECUT1'
p6166
S'increases'
p6167
tp6168
(lp6169
s(S'uPA/uPAR/alphav/beta3 Integrin/Vitronectin'
p6170
S'SRC'
p6171
S'adds_modification'
p6172
tp6173
(lp6174
s(S'ETS1'
p6175
S'CYP26A1'
p6176
S'increases'
p6177
tp6178
(lp6179
s(S'ESRRA'
p6180
S'TLX2'
p6181
S'increases'
p6182
tp6183
(lp6184
s(S'ROCK2'
p6185
S'RHO FAMILY GTPASE-ACTIVE'
p6186
S'binds'
p6187
tp6188
(lp6189
s(S'ATF4'
p6190
S'CYP26A1'
p6191
S'increases'
p6192
tp6193
(lp6194
s(S'OR5I1'
p6195
S'CYP26A1'
p6196
S'increases'
p6197
tp6198
(lp6199
s(S'PITX2'
p6200
S'GATA1'
p6201
S'increases'
p6202
tp6203
(lp6204
s(S'AHR'
p6205
S'ONECUT1'
p6206
S'increases'
p6207
tp6208
(lp6209
s(S'PTF1A'
p6210
S'MECOM'
p6211
S'increases'
p6212
tp6213
(lp6214
s(S'arsenic trioxide'
p6215
S'HRAS MRNA'
p6216
S'increases'
p6217
tp6218
(lp6219
s(S'TCF3'
p6220
S'REPIN1'
p6221
S'increases'
p6222
tp6223
(lp6224
s(S'STAT6'
p6225
S'FOXO3'
p6226
S'increases'
p6227
tp6228
(lp6229
s(S'POU1F1'
p6230
S'POU2F1'
p6231
S'increases'
p6232
tp6233
(lp6234
s(S'RHOA/GTP'
p6235
S'ROCK'
p6236
S'increases_activity'
p6237
tp6238
(lp6239
s(S'PITPNA'
p6240
S'PI-4-5-P2'
p6241
S'translocates'
p6242
tp6243
(lp6244
s(S'MDM-2'
p6245
S'P14/19 ARF'
p6246
S'binds'
p6247
tp6248
(lp6249
s(S'TEAD1'
p6250
S'FOXO3'
p6251
S'increases'
p6252
tp6253
(lp6254
s(S'MYC'
p6255
S'MAX'
p6256
S'increases'
p6257
tp6258
(lp6259
S'For example, C-MYC, when bound to its partner MAX, has been shown to induce the expression of cyclins D1 and D2 as well as CDK4, subsequently promoting G1 phase progression    ['
p6260
as(S'GRB2:SOS1'
p6261
S'EGF:PHOSPHO-EGFR:PHOSPHO-SHC'
p6262
S'binds'
p6263
tp6264
(lp6265
s(S'NF1'
p6266
S'RUNX1'
p6267
S'increases'
p6268
tp6269
(lp6270
s(S'ZEB1'
p6271
S'GATA6'
p6272
S'increases'
p6273
tp6274
(lp6275
s(S'TBP'
p6276
S'EN1'
p6277
S'increases'
p6278
tp6279
(lp6280
s(S'FOXA1'
p6281
S'FOXD3'
p6282
S'increases'
p6283
tp6284
(lp6285
s(S'CART1'
p6286
S'EN1'
p6287
S'increases'
p6288
tp6289
(lp6290
s(S'MAX'
p6291
S'CEBPA'
p6292
S'increases'
p6293
tp6294
(lp6295
s(S'GATA6'
p6296
S'NRAS'
p6297
S'increases'
p6298
tp6299
(lp6300
s(S'PTF1A'
p6301
S'FOXO3'
p6302
S'increases'
p6303
tp6304
(lp6305
s(S'LEF1'
p6306
S'FOXA1'
p6307
S'increases'
p6308
tp6309
(lp6310
s(S'hsa-let-7g-5p'
p6311
S'KRAS'
p6312
S'decreases'
p6313
tp6314
(lp6315
s(S'ZBTB14'
p6316
S'CYP26A1'
p6317
S'increases'
p6318
tp6319
(lp6320
s(S'POU1F1'
p6321
S'FOXO4'
p6322
S'increases'
p6323
tp6324
(lp6325
s(S'PI3K'
p6326
S'PI-4-5-P2'
p6327
S'translocates'
p6328
tp6329
(lp6330
s(S'GABPB2'
p6331
S'NRAS'
p6332
S'increases'
p6333
tp6334
(lp6335
s(S'ELK1'
p6336
S'LEF1'
p6337
S'increases'
p6338
tp6339
(lp6340
s(S'Estrogens'
p6341
S'HRAS MRNA'
p6342
S'increases'
p6343
tp6344
(lp6345
s(S'CYP26A1'
p6346
S'CEBPA'
p6347
S'increases'
p6348
tp6349
(lp6350
s(S'SPI1'
p6351
S'POU2F1'
p6352
S'increases'
p6353
tp6354
(lp6355
s(S'PPARG'
p6356
S'CYP26A1'
p6357
S'increases'
p6358
tp6359
(lp6360
s(S'Asbestos, Serpentine'
p6361
S'HRAS PROTEIN'
p6362
S'increases'
p6363
tp6364
(lp6365
s(S'RET51/GFRALPHA1/GDNF/DOK1'
p6366
S'RASGAP'
p6367
S'binds'
p6368
tp6369
(lp6370
s(S'FOXO1'
p6371
S'GATA6'
p6372
S'increases'
p6373
tp6374
(lp6375
s(S'Cadmium'
p6376
S'KRAS PROTEIN'
p6377
S'increases'
p6378
tp6379
(lp6380
s(S'MAX'
p6381
S'EN1'
p6382
S'increases'
p6383
tp6384
(lp6385
s(S'TLX2'
p6386
S'NRAS'
p6387
S'increases'
p6388
tp6389
(lp6390
s(S'SREBF1'
p6391
S'CYP26A1'
p6392
S'increases'
p6393
tp6394
(lp6395
s(S'SMAD3'
p6396
S'MEIS1'
p6397
S'increases'
p6398
tp6399
(lp6400
s(S'Acetaminophen'
p6401
S'NRAS MRNA'
p6402
S'decreases'
p6403
tp6404
(lp6405
s(S'LEF1'
p6406
S'ETS1'
p6407
S'increases'
p6408
tp6409
(lp6410
s(S'SRF'
p6411
S'MEIS1'
p6412
S'increases'
p6413
tp6414
(lp6415
s(S'BRAF'
p6416
S'MKK3-MKK6'
p6417
S'increases_activity'
p6418
tp6419
(lp6420
s(S'HRAS/GTP'
p6421
S'RAF1'
p6422
S'adds_modification'
p6423
tp6424
(lp6425
s(S'MSX1'
p6426
S'CYP26A1'
p6427
S'increases'
p6428
tp6429
(lp6430
s(S'GATA4'
p6431
S'ETS1'
p6432
S'increases'
p6433
tp6434
(lp6435
s(S'E4F1'
p6436
S'FOXA1'
p6437
S'increases'
p6438
tp6439
(lp6440
s(S'FOXD1'
p6441
S'LEF1'
p6442
S'increases'
p6443
tp6444
(lp6445
s(S'CUX1'
p6446
S'MAX'
p6447
S'increases'
p6448
tp6449
(lp6450
s(S'CYP26A1'
p6451
S'CBFA2T3'
p6452
S'increases'
p6453
tp6454
(lp6455
s(S'CAM/CA2+'
p6456
S'KRAS ISOFORM 4B/GTP'
p6457
S'binds'
p6458
tp6459
(lp6460
s(S'MYOG'
p6461
S'STAT5A'
p6462
S'increases'
p6463
tp6464
(lp6465
s(S'MYOD1'
p6466
S'STAT5A'
p6467
S'increases'
p6468
tp6469
(lp6470
s(S'HNF1A'
p6471
S'POU3F2'
p6472
S'increases'
p6473
tp6474
(lp6475
s(S'EPH'
p6476
S'EPHR'
p6477
S'binds'
p6478
tp6479
(lp6480
s(S'PDGF:PHOSPHO-PDGF RECEPTOR DIMER'
p6481
S'GRB2:SOS1'
p6482
S'binds'
p6483
tp6484
(lp6485
s(S'HRAS/GTP'
p6486
S'PI3K'
p6487
S'increases_activity'
p6488
tp6489
(lp6490
s(S'RUNX1'
p6491
S'TLX2'
p6492
S'increases'
p6493
tp6494
(lp6495
s(S'MYOG'
p6496
S'CYP26A1'
p6497
S'increases'
p6498
tp6499
(lp6500
s(S'PAX2'
p6501
S'EN1'
p6502
S'increases'
p6503
tp6504
(lp6505
s(S'TFCP2'
p6506
S'CYP26A1'
p6507
S'increases'
p6508
tp6509
(lp6510
s(S'hsa-miR-145-5p'
p6511
S'NRAS'
p6512
S'decreases'
p6513
tp6514
(lp6515
s(S'KAT2B'
p6516
S'GATA1'
p6517
S'increases'
p6518
tp6519
(lp6520
s(S'P-EGFR MUTANTS:P-Y349,350-SHC1'
p6521
S'GRB2:SOS1'
p6522
S'binds'
p6523
tp6524
(lp6525
s(S'E2F1'
p6526
S'MECOM'
p6527
S'increases'
p6528
tp6529
(lp6530
s(S'GNB1/GNG2'
p6531
S'SRC'
p6532
S'adds_modification'
p6533
tp6534
(lp6535
s(S'ZBTB14'
p6536
S'MAX'
p6537
S'increases'
p6538
tp6539
(lp6540
s(S'RALGDS'
p6541
S'P21 RAS:GTP'
p6542
S'binds'
p6543
tp6544
(lp6545
s(S'RHOA/GTP'
p6546
S'ROCK2'
p6547
S'increases_activity'
p6548
tp6549
(lp6550
s(S'NR1H3'
p6551
S'FOXD3'
p6552
S'increases'
p6553
tp6554
(lp6555
s(S'TFAP4'
p6556
S'GATA1'
p6557
S'increases'
p6558
tp6559
(lp6560
s(S'FOXA1'
p6561
S'GATA6'
p6562
S'increases'
p6563
tp6564
(lp6565
s(S'GRB2:SOS1'
p6566
S'P-SHC'
p6567
S'binds'
p6568
tp6569
(lp6570
s(S'E2F1'
p6571
S'FOXO3'
p6572
S'increases'
p6573
tp6574
(lp6575
s.