(dp0
(S'ZEB1'
p1
S'FOXA1'
p2
S'increases'
p3
tp4
(lp5
s(S'FOXJ1'
p6
S'GATA6'
p7
S'increases'
p8
tp9
(lp10
s(S'TFAP4'
p11
S'FOXD3'
p12
S'increases'
p13
tp14
(lp15
s(S'TBP'
p16
S'MEIS1'
p17
S'increases'
p18
tp19
(lp20
s(S'GCM1'
p21
S'GATA6'
p22
S'increases'
p23
tp24
(lp25
s(S'T-DHT'
p26
S'SRC'
p27
S'adds_modification'
p28
tp29
(lp30
s(S'MAZ'
p31
S'GABPB2'
p32
S'increases'
p33
tp34
(lp35
s(S'HMGA1'
p36
S'EN1'
p37
S'increases'
p38
tp39
(lp40
s(S'CYP26A1'
p41
S'NRAS'
p42
S'increases'
p43
tp44
(lp45
s(S'CUX1'
p46
S'MEIS1'
p47
S'increases'
p48
tp49
(lp50
s(S'REPIN1'
p51
S'BACH1'
p52
S'increases'
p53
tp54
(lp55
s(S'TFDP1'
p56
S'HOXA9'
p57
S'increases'
p58
tp59
(lp60
s(S'NFE2L1'
p61
S'CYP26A1'
p62
S'increases'
p63
tp64
(lp65
s(S'MAZ'
p66
S'GATA1'
p67
S'increases'
p68
tp69
(lp70
s(S'TCF12'
p71
S'GABPB2'
p72
S'increases'
p73
tp74
(lp75
s(S'ETS2'
p76
S'FOXO3'
p77
S'increases'
p78
tp79
(lp80
s(S'hsa-let-7c-5p'
p81
S'NRAS'
p82
S'decreases'
p83
tp84
(lp85
s(S'SPI1'
p86
S'CYP26A1'
p87
S'increases'
p88
tp89
(lp90
s(S'RAC1/GTP'
p91
S'MKK4'
p92
S'adds_modification'
p93
tp94
(lp95
s(S'Quercetin'
p96
S'KRAS MRNA'
p97
S'decreases'
p98
tp99
(lp100
s(S'INSULIN RECEPTOR/INSULIN/SHC'
p101
S'GRB2'
p102
S'binds'
p103
tp104
(lp105
s(S'TAp63a (tetramer)'
p106
S'PKC DELTA'
p107
S'increases'
p108
tp109
(lp110
s(S'FOXO1'
p111
S'POU2F1'
p112
S'increases'
p113
tp114
(lp115
s(S'FOXL1'
p116
S'EN1'
p117
S'increases'
p118
tp119
(lp120
s(S'TBP'
p121
S'CYP26A1'
p122
S'increases'
p123
tp124
(lp125
s(S'Heptachlor'
p126
S'HRAS MRNA'
p127
S'decreases'
p128
tp129
(lp130
s(S'PCBP1'
p131
S'CYP26A1'
p132
S'increases'
p133
tp134
(lp135
s(S'ZBTB18'
p136
S'CYP26A1'
p137
S'increases'
p138
tp139
(lp140
s(S'GATA2'
p141
S'CYP26A1'
p142
S'increases'
p143
tp144
(lp145
s(S'Cadmium'
p146
S'KRAS MRNA'
p147
S'increases'
p148
tp149
(lp150
s(S'HNF1A'
p151
S'POU2F1'
p152
S'increases'
p153
tp154
(lp155
s(S'ABT-100'
p156
S'HRAS PROTEIN'
p157
S'inhibits_modification'
p158
tp159
(lp160
s(S'ELF1'
p161
S'CYP26A1'
p162
S'increases'
p163
tp164
(lp165
s(S'LEF1'
p166
S'KRAS'
p167
S'increases'
p168
tp169
(lp170
s(S'NKX2-1'
p171
S'FOXD3'
p172
S'increases'
p173
tp174
(lp175
s(S'PI-3-4-5-P3'
p176
S'BTK-ITK'
p177
S'translocates'
p178
tp179
(lp180
s(S'POU6F1'
p181
S'HOXA9'
p182
S'increases'
p183
tp184
(lp185
s(S'Myb'
p186
S'MYB'
p187
S'increases'
p188
tp189
(lp190
s(S'PAX5'
p191
S'CYP26A1'
p192
S'increases'
p193
tp194
(lp195
s(S'FOXO4'
p196
S'FOXD3'
p197
S'increases'
p198
tp199
(lp200
s(S'CYP26A1'
p201
S'FOXO4'
p202
S'increases'
p203
tp204
(lp205
s(S'cell adhesion'
p206
S'HRAS/GDP'
p207
S'increases_activity'
p208
tp209
(lp210
s(S'IRF7'
p211
S'CYP26A1'
p212
S'increases'
p213
tp214
(lp215
s(S'7,8-Dihydro-7,8-dihydroxybenzo(a)pyrene 9,10-oxide'
p216
S'KRAS PROTEIN'
p217
S'increases'
p218
tp219
(lp220
s(S'PITX2'
p221
S'POU2F1'
p222
S'increases'
p223
tp224
(lp225
s(S'E2F1'
p226
S'CYP26A1'
p227
S'increases'
p228
tp229
(lp230
s(S'ATF1'
p231
S'CYP26A1'
p232
S'increases'
p233
tp234
(lp235
s(S'PI3K'
p236
S'PKC DELTA'
p237
S'adds_modification'
p238
tp239
(lp240
s(S'SOX5'
p241
S'HOXA9'
p242
S'increases'
p243
tp244
(lp245
s(S'FOXO4'
p246
S'POU2F1'
p247
S'increases'
p248
tp249
(lp250
s(S'FOXO4'
p251
S'GATA6'
p252
S'increases'
p253
tp254
(lp255
s(S'LEF1'
p256
S'FOXF2'
p257
S'increases'
p258
tp259
(lp260
s(S'Insulin Receptor/Insuli/IRS1/GRB2/SHC/Sos'
p261
S'HRAS/GDP'
p262
S'increases_activity'
p263
tp264
(lp265
s(S'TLX2'
p266
S'RUNX1'
p267
S'increases'
p268
tp269
(lp270
s(S'ALX4'
p271
S'JUN'
p272
S'increases'
p273
tp274
(lp275
s(S'RHOA/GTP'
p276
S'RHOGDI'
p277
S'binds'
p278
tp279
(lp280
s(S'GCM1'
p281
S'CYP26A1'
p282
S'increases'
p283
tp284
(lp285
s(S'RB1'
p286
S'ONECUT1'
p287
S'increases'
p288
tp289
(lp290
s(S'NHLH1'
p291
S'CYP26A1'
p292
S'increases'
p293
tp294
(lp295
s(S'NR3C1'
p296
S'BACH1'
p297
S'increases'
p298
tp299
(lp300
s(S'HNF4A'
p301
S'CYP26A1'
p302
S'increases'
p303
tp304
(lp305
s(S'YY1'
p306
S'FOXO3'
p307
S'increases'
p308
tp309
(lp310
s(S'GRB2:SOS1'
p311
S'P-EGFR MUTANTS DIMER'
p312
S'binds'
p313
tp314
(lp315
s(S'P-Y349,350-SHC1:P-ERBB4'
p316
S'GRB2:SOS1'
p317
S'binds'
p318
tp319
(lp320
s(S'FOXN1'
p321
S'ONECUT1'
p322
S'increases'
p323
tp324
(lp325
s(S'TFAP4'
p326
S'MYC'
p327
S'increases'
p328
tp329
(lp330
s(S'MYC'
p331
S'EN1'
p332
S'increases'
p333
tp334
(lp335
S'ACVR1B, BCL2, BIM, eNOS, FGFR3, JPH2, MEN1, MYC, p16, and ST7L are miR-24 targets that have been experimentally validated in human cells.'
p336
as(S'Antigen/IgE/Fc epsilon R1/LYN/SYK'
p337
S'SHC/GRB2/SOS1'
p338
S'increases_activity'
p339
tp340
(lp341
s(S'14-3-3 BETA, ZETA'
p342
S'GARNL4'
p343
S'binds'
p344
tp345
(lp346
s(S'SMAD1'
p347
S'EN1'
p348
S'increases'
p349
tp350
(lp351
s(S'Raf-1'
p352
S'MEK1-2'
p353
S'adds_modification'
p354
tp355
(lp356
s(S'POU2F1'
p357
S'FOXO3'
p358
S'increases'
p359
tp360
(lp361
s(S'NGF (dimer)/TRKA'
p362
S'RASGRF1'
p363
S'adds_modification'
p364
tp365
(lp366
s(S'TCF4'
p367
S'CYP26A1'
p368
S'increases'
p369
tp370
(lp371
s(S'STAT5B'
p372
S'TLX2'
p373
S'increases'
p374
tp375
(lp376
s(S'CYP26A1'
p377
S'SRF'
p378
S'increases'
p379
tp380
(lp381
s(S'STAT1'
p382
S'NRAS'
p383
S'increases'
p384
tp385
(lp386
s(S'TFDP1'
p387
S'GATA1'
p388
S'increases'
p389
tp390
(lp391
s(S'PI3K'
p392
S'ALPHA6/BETA4 INTEGRIN/LAMININ'
p393
S'binds'
p394
tp395
(lp396
s(S'FOXF2'
p397
S'NRAS'
p398
S'increases'
p399
tp400
(lp401
s(S'CUX1'
p402
S'POU2F1'
p403
S'increases'
p404
tp405
(lp406
s(S'ETS2'
p407
S'STAT4'
p408
S'increases'
p409
tp410
(lp411
s(S'EN1'
p412
S'CYP26A1'
p413
S'increases'
p414
tp415
(lp416
s(S'COMPLEX (RAS/GTP)'
p417
S'RAF'
p418
S'binds'
p419
tp420
(lp421
s(S'LEF1'
p422
S'EN1'
p423
S'increases'
p424
tp425
(lp426
s(S'FOXL1'
p427
S'NRAS'
p428
S'increases'
p429
tp430
(lp431
s(S'ELF2'
p432
S'CYP26A1'
p433
S'increases'
p434
tp435
(lp436
s(S'Src Family Kinases-active'
p437
S'EGF/EGFR'
p438
S'adds_modification'
p439
tp440
(lp441
s(S'RUNX1'
p442
S'POU2F1'
p443
S'increases'
p444
tp445
(lp446
s(S'RHOA/GTP'
p447
S'CITRON-N'
p448
S'increases_activity'
p449
tp450
(lp451
s(S'PAX4'
p452
S'SRF'
p453
S'increases'
p454
tp455
(lp456
s(S'Vitamin E'
p457
S'HRAS MRNA'
p458
S'increases'
p459
tp460
(lp461
s(S'CDX2'
p462
S'FOXD3'
p463
S'increases'
p464
tp465
(lp466
s(S'Plant Extracts'
p467
S'KEAP1 PROTEIN'
p468
S'decreases'
p469
tp470
(lp471
s(S'PAX4'
p472
S'CBFA2T3'
p473
S'increases'
p474
tp475
(lp476
s(S'FOXD1'
p477
S'CYP26A1'
p478
S'increases'
p479
tp480
(lp481
s(S'Antigen/IgE/Fc epsilon R1/LYN/SYK'
p482
S'VAV1'
p483
S'adds_modification'
p484
tp485
(lp486
s(S'PCBP1'
p487
S'MEIS1'
p488
S'increases'
p489
tp490
(lp491
s(S'FOXI1'
p492
S'FOXD3'
p493
S'increases'
p494
tp495
(lp496
s(S'GATA4'
p497
S'MEIS1'
p498
S'increases'
p499
tp500
(lp501
s(S'STAT5B'
p502
S'CEBPG'
p503
S'increases'
p504
tp505
(lp506
s(S'TFDP2'
p507
S'MAZ'
p508
S'increases'
p509
tp510
(lp511
s(S'PI3K'
p512
S'SHP2'
p513
S'binds'
p514
tp515
(lp516
S"The binding of leptin to its specific receptor activates various intracellular signaling pathways, including Janus kinase 2 (JAK2)/ signal transducer and activator of transcription 3 (STAT3), insulin receptor substrate (IRS)/phosphatidylinositol 3 kinase (PI3K), SH2-containing protein tyrosine phosphatase 2 (SHP2)/mitogen-activated protein kinase (MAPK), and 5' adenosine monophosphate-activated protein kinase (AMPK)/ acetyl-CoA carboxylase (ACC), in the central nervous system and peripheral tissues."
p517
aS'The binding of leptin to LepRb activates a number of signaling pathways, JAK2/STAT 3 and STAT5, IRS/PI3K, SHP2/MAPK, and AMPK/ACC ('
p518
as(S'SPI1'
p519
S'ONECUT1'
p520
S'increases'
p521
tp522
(lp523
s(S'STAT6'
p524
S'EN1'
p525
S'increases'
p526
tp527
(lp528
s(S'TLX2'
p529
S'CYP26A1'
p530
S'increases'
p531
tp532
(lp533
s(S'RAF1'
p534
S'MEK1-2'
p535
S'increases_activity'
p536
tp537
(lp538
s(S'STAT5A'
p539
S'IRF1'
p540
S'increases'
p541
tp542
(lp543
s(S'2-amino-1-methyl-6-phenylimidazo(4,5-b)pyridine'
p544
S'HRAS MRNA'
p545
S'increases'
p546
tp547
(lp548
s(S'MAZ'
p549
S'POU2F1'
p550
S'increases'
p551
tp552
(lp553
s(S'MAZ'
p554
S'SRF'
p555
S'increases'
p556
tp557
(lp558
s(S'GATA1'
p559
S'JUN'
p560
S'increases'
p561
tp562
(lp563
s(S'FOXA1'
p564
S'NRAS'
p565
S'increases'
p566
tp567
(lp568
s(S'STAT1'
p569
S'EN1'
p570
S'increases'
p571
tp572
(lp573
s(S'GTF2A2'
p574
S'MAX'
p575
S'increases'
p576
tp577
(lp578
s(S'LMO2'
p579
S'EN1'
p580
S'increases'
p581
tp582
(lp583
s(S'MYOD1'
p584
S'LEF1'
p585
S'increases'
p586
tp587
(lp588
s(S'ATF3'
p589
S'JUN'
p590
S'increases'
p591
tp592
(lp593
S'The major transcription factors of the UPR, both canonical and secondary, are bZIPs (ATF4, ATF6, XBP1, CHOP, JUN, ATF3, ATF5).'
p594
as(S'GRB2:SOS1'
p595
S'ACTIVATED FGFR:P-SHC1'
p596
S'binds'
p597
tp598
(lp599
s(S'MAFG'
p600
S'BACH1'
p601
S'increases'
p602
tp603
(lp604
s(S'POU3F2'
p605
S'POU2F1'
p606
S'increases'
p607
tp608
(lp609
s(S'K 7174'
p610
S'KRAS MRNA'
p611
S'increases'
p612
tp613
(lp614
s(S'POU1F1'
p615
S'RUNX1'
p616
S'increases'
p617
tp618
(lp619
s(S'HRAS protein'
p620
S'CCND1 MRNA'
p621
S'increases'
p622
tp623
(lp624
s(S'YY1'
p625
S'EN1'
p626
S'increases'
p627
tp628
(lp629
s(S'resveratrol'
p630
S'HRAS MRNA'
p631
S'increases'
p632
tp633
(lp634
s(S'NKX2-1'
p635
S'HOXA9'
p636
S'increases'
p637
tp638
(lp639
s(S'HSF1'
p640
S'CYP26A1'
p641
S'increases'
p642
tp643
(lp644
s(S'MYC'
p645
S'HOXA9'
p646
S'increases'
p647
tp648
(lp649
s(S'Raf'
p650
S'MEK'
p651
S'adds_modification'
p652
tp653
(lp654
S'With regard to the cellular role of MASL1, it is of interest that a subset of human leucine-rich repeat proteins function as pathogen responsive genes in primary macrophages, and MASL1 in particular was shown to regulate Toll-like receptor signalling and the Raf/MEK/ERK signalling pathway in CD34(+) cells ['
p655
aS'Research in glioma biology points to a major role of the Ras/Raf/MEK/ERK mitogen-activated protein kinase (MAPK) pathway, which is pivotal to the transduction of mitogenic stimuli from activated growth factor receptors during regulation of cell proliferation, survival, and differentiation '
p656
aS'Kinase suppressor of Ras 1 and 2 (KSR1 and KSR2) are scaffold proteins for the Raf/MEK/ERK Mitogen Activated Protein Kinase (MAPK) signaling pathway '
p657
aS'An obvious possibility is that Shh acutely transactivates the EGFR and as a consequence activates the Ras/Raf/MEK/ERK1/2 pathway involved in cell proliferation (Traverse et al., '
p658
aS'This event triggers the translocation of SOS to plasma membrane and activation of serine/threonine phosphorylation events that propagate insulin and IGFs signal through the Ras/Raf/MEK/ERK cascade.'
p659
aS'At a cellular level, nerve growth factor (NGF) up-regulates CGRP via the Ras/Raf/mitogen-activated protein kinase kinase-1 (MEK-1)/p42/p44 pathway ('
p660
aS'The Ras/Raf/MEK/MAPK is the second principal pathway associated with activation of IGF-IR.'
p661
aS'This downstream cascade includes the activation of the small G protein Ras followed by the activation of protein serine kinase Raf, which in turn activates the MEK/MAPK pathway (Figure '
p662
aS'Arrestins can act as adaptors for signaling molecules, for example cRaf1 and the ERK mitogen-activated protein kinase (MAPK), both of which can bind to MAPK/ERK kinase (MEK), and could therefore participate in MAPK activation ('
p663
aS'The authors identified NADPH oxidase activation and the Raf-MEK-ERK pathway to be crucial for NET formation (Hakkim et al., '
p664
aS'The first step of the NETotic cascade is stimulation of one or several receptors followed by activation of the Raf/MEK/ERK pathway that culminates in the assembly of the multimeric NADPH oxidase complex and the production of reactive oxygen species (ROS).'
p665
aS'Kinase suppressor of Ras 1 (KSR1) is a scaffolding protein that interacts with several components of the Raf-MEK-ERK cascade to co-ordinate the formation of localized multi-protein complexes that enable efficient signal transduction ('
p666
aS'Src sequentially recruits an intermediary protein Grb2 and the guanine nucleotide exchange factor SOS, initiating the GTP loading and activation of Ras and the activation of the Raf, MEK and ERK kinase cascade.'
p667
aS'Regulation of the Raf/MEK/ERK pathways in apoptosis is partly due to the post-translational phosphorylation of Bcl-2 family members including Bad, Bim, Mcl-1, and more controversially Bcl-2 ('
p668
aS'Structurally related to Perifosine, it inhibits Akt, but also impacts other signaling pathways (most prominently, Raf-MEK-ERK)'
p669
aS'Altogether, these studies highlight two important points regarding reovirus oncolysis: (1) although prior studies implicate the Ras/RalGEF/p38 pathway in the promotion of reovirus oncolysis independent of Raf and JNK signaling, MEK/ERK, and JNK appear to have roles in reovirus infectivity and reovirus-induced apoptosis, and (2) further understanding of the reovirus infectious cycle has demonstrated that '
p670
aS'Deregulation of the Ras/Raf/MEK/extracellular signal-regulated kinase pathway is a common event in childhood acute lymphoblastic leukemia and is caused by point mutation, gene deletion, and chromosomal translocation of a vast array of gene types, highlighting its importance in leukemia biology.'
p671
aS'The core of the signaling pathway comprises three dual-specific protein kinases Raf, MEK, ERK, and the G-protein Ras.'
p672
aS'Raf subsequently activates MEK1/2, which display restricted substrate specificity for ERK1/2.'
p673
aS'The Ras/Raf/MEK/ERK pathway (now abbreviated to Ras pathway) is also implicated in the regulation of apoptosis by enhancing gene expression of pro-survival Bcl-2 family proteins and targeting anti-apoptotic proteins for proteasomal degradation ('
p674
aS'An interesting study has teased apart the relative importance of Raf/MEK/ERK and PI3K/Akt/mTOR pathways in a mouse model of T lineage ALL and shown that both effector pathways are drivers of aberrant growth initiated by '
p675
aS'Perhaps, the most promising approach would be the dual inhibition of FLT3 and other pro-survival pathways, such as PI3K/AKT/mTOR, JAK/STAT5, or RAS/Raf/MEK/ERK inhibitors, and clinical trials investigating novel dual inhibitors (NCT02055781) or combining kinase inhibitors (NCT00819546) are underway'
p676
aS'Phosphorylation of the IRS adapter molecules on one hand triggers activation of the phosphoinositide 3-kinase (PI3K)/Akt signaling pathway, whereas, on the other hand, the Shc adapter activates signaling by the Ras/Raf/MEK/Erk signaling pathway ('
p677
aS'Besides the Ras/Raf/MEK/ERK pathway, inflammatory signal-related pathway also plays important role for pancreatic carcinogenesis.'
p678
aS'For instance, ERK exhibits a strong negative feedback to Raf-1 in response to EGF which alters the efficiency of MEK inhibition (Sturm et al., '
p679
aS'KSR interacts with, B-Raf, C-Raf, MEK1/2, and ERK1/2 coordinating the assembly of these components into a multiprotein complex (Therrien et al., '
p680
aS'Consider a set of 2 Raf, 5 MEK, and 10 ERK molecules (as shown in Figure '
p681
aS'Also, the ternary interaction of the scaffold KSR1 with B-Raf and MEK is highly dynamic.'
p682
aS'When docking of ERK is impaired by a mutation, the KSR1-MEK-B-Raf complex persists even 20 min after stimulation, where otherwise, almost all B-Raf has left the complex at this time.'
p683
aS'KSR1 can also route signals to the cytoplasm: in addition to binding Raf and MEK, KSR1 (but also other scaffolds such as Sef and IQGAP1) helps to assemble ERK1/2 dimers that are essential for interaction of ERK with cytoplasmic substrates (Casar et al., '
p684
aS'In theory, the three-tiered MAPK cascade comprising single phosphorylation of Raf and dual phosphorylation of MEK and ERK, is inherently ultrasensitive (Huang and Ferrell, '
p685
aS'The downstream Raf kinase activates MEK1/2 MAP kinase, which in turn activates extracellular signal-regulated protein kinases 1 and 2 (ERK1/2) (Dhingra et al., '
p686
aS'Both the PI 3-Kinase and the Ras/Raf/MEK signaling pathways are activated by other class I cytokines, including interleukin 6 (IL-6).'
p687
as(S'TFDP1'
p688
S'MAZ'
p689
S'increases'
p690
tp691
(lp692
s(S'SPRED1'
p693
S'HRAS'
p694
S'binds'
p695
tp696
(lp697
s(S'MYCN'
p698
S'CYP26A1'
p699
S'increases'
p700
tp701
(lp702
s(S'AHR'
p703
S'FOXD3'
p704
S'increases'
p705
tp706
(lp707
s(S'SF1'
p708
S'CYP26A1'
p709
S'increases'
p710
tp711
(lp712
s(S'MEIS1'
p713
S'ETS1'
p714
S'increases'
p715
tp716
(lp717
s(S'Copper Sulfate'
p718
S'HRAS MRNA'
p719
S'decreases'
p720
tp721
(lp722
s(S'MAZ'
p723
S'MYC'
p724
S'increases'
p725
tp726
(lp727
s(S'E4F1'
p728
S'HOXA9'
p729
S'increases'
p730
tp731
(lp732
s(S'GATA1'
p733
S'GATA6'
p734
S'increases'
p735
tp736
(lp737
s(S'RUNX2'
p738
S'POU2F1'
p739
S'increases'
p740
tp741
(lp742
s(S'CYP26A1'
p743
S'GATA6'
p744
S'increases'
p745
tp746
(lp747
s(S'PAX4'
p748
S'GATA1'
p749
S'increases'
p750
tp751
(lp752
s(S'ELF2'
p753
S'STAT5A'
p754
S'increases'
p755
tp756
(lp757
s(S'CART1'
p758
S'NRAS'
p759
S'increases'
p760
tp761
(lp762
s(S'IGF-1R heterotetramer/IGF1/GRB2/Sos/Shc'
p763
S'HRAS/GDP'
p764
S'increases_activity'
p765
tp766
(lp767
s(S'RB1'
p768
S'CYP26A1'
p769
S'increases'
p770
tp771
(lp772
s(S'CEBPG'
p773
S'HOXA9'
p774
S'increases'
p775
tp776
(lp777
s(S'GRB2/SOS1/SHC'
p778
S'IGF-1R HETEROTETRAMER/IGF1'
p779
S'binds'
p780
tp781
(lp782
s(S'PRRX2'
p783
S'CYP26A1'
p784
S'increases'
p785
tp786
(lp787
s(S'TEAD1'
p788
S'CYP26A1'
p789
S'increases'
p790
tp791
(lp792
s(S'STAT5A'
p793
S'FOXA1'
p794
S'increases'
p795
tp796
(lp797
s(S'ATF2'
p798
S'FOXD3'
p799
S'increases'
p800
tp801
(lp802
s(S'REPIN1'
p803
S'FOXO4'
p804
S'increases'
p805
tp806
(lp807
s(S'FOXF2'
p808
S'ETS1'
p809
S'increases'
p810
tp811
(lp812
s(S'ETV7'
p813
S'MEIS1'
p814
S'increases'
p815
tp816
(lp817
s(S'RUNX2'
p818
S'RUNX1'
p819
S'increases'
p820
tp821
(lp822
s(S'OR5I1'
p823
S'GATA1'
p824
S'increases'
p825
tp826
(lp827
s(S'MSX1'
p828
S'EN1'
p829
S'increases'
p830
tp831
(lp832
s(S'GTF3A'
p833
S'IRF1'
p834
S'increases'
p835
tp836
(lp837
s(S'POU2F1'
p838
S'SRF'
p839
S'increases'
p840
tp841
(lp842
s(S'PLC-GAMMA'
p843
S'COMPLEX (GADS/SLP-76)'
p844
S'binds'
p845
tp846
(lp847
s(S'STAT4'
p848
S'STAT5A'
p849
S'increases'
p850
tp851
(lp852
s(S'JUN'
p853
S'BACH1'
p854
S'increases'
p855
tp856
(lp857
s(S'POU1F1'
p858
S'HOXA9'
p859
S'increases'
p860
tp861
(lp862
s(S'docetaxel'
p863
S'HRAS PROTEIN'
p864
S'increases'
p865
tp866
(lp867
s(S'MAX'
p868
S'LEF1'
p869
S'increases'
p870
tp871
(lp872
s(S'FOXA1'
p873
S'CYP26A1'
p874
S'increases'
p875
tp876
(lp877
s(S'GATA4'
p878
S'FOXD3'
p879
S'increases'
p880
tp881
(lp882
s(S'ZBTB18'
p883
S'RUNX1'
p884
S'increases'
p885
tp886
(lp887
s(S'ATF3'
p888
S'RUNX1'
p889
S'increases'
p890
tp891
(lp892
s(S'NKX2-1'
p893
S'CYP26A1'
p894
S'increases'
p895
tp896
(lp897
s(S'NR3C1'
p898
S'FOXA1'
p899
S'increases'
p900
tp901
(lp902
s(S'RAS family/GTP'
p903
S'RIN1'
p904
S'increases_activity'
p905
tp906
(lp907
s(S'COMPLEX (RAS/GTP/ RAF)'
p908
S'MEK'
p909
S'binds'
p910
tp911
(lp912
s(S'CDC5L'
p913
S'NRAS'
p914
S'increases'
p915
tp916
(lp917
s(S'Vitamin E'
p918
S'NRAS MRNA'
p919
S'decreases'
p920
tp921
(lp922
s(S'NF1'
p923
S'LEF1'
p924
S'increases'
p925
tp926
(lp927
s(S'ETS1'
p928
S'EN1'
p929
S'increases'
p930
tp931
(lp932
s(S'CRAF'
p933
S'YWHAB'
p934
S'binds'
p935
tp936
(lp937
s(S'CEBPD'
p938
S'JUN'
p939
S'increases'
p940
tp941
(lp942
s(S'MAX'
p943
S'RUNX2'
p944
S'increases'
p945
tp946
(lp947
S'H358 cells harbor pathogenic mutations in CTNNB1, KRAS, LIMK1, MAX, MED12, MSH3, PML, RNF212, RUNX2, SATB2, SF3B1, SGK3, TP63, and USP2.'
p948
as(S'CEBPA'
p949
S'MECOM'
p950
S'increases'
p951
tp952
(lp953
s(S'PAX2'
p954
S'GATA1'
p955
S'increases'
p956
tp957
(lp958
s(S'CYP26A1'
p959
S'TLX2'
p960
S'increases'
p961
tp962
(lp963
s(S'GFI1'
p964
S'ETS1'
p965
S'increases'
p966
tp967
(lp968
s(S'14-3-3:P-S259,Y340,Y341,S621-RAF1:RAS:GTP'
p969
S'MEK'
p970
S'binds'
p971
tp972
(lp973
s(S'P-S,T-MEK2'
p974
S'ERK2'
p975
S'binds'
p976
tp977
(lp978
s(S'HRAS/GTP'
p979
S'RIN2'
p980
S'increases_activity'
p981
tp982
(lp983
s(S'Ras-GTP'
p984
S'P42/P44MAPKS'
p985
S'adds_modification'
p986
tp987
(lp988
s(S'SRF'
p989
S'CYP26A1'
p990
S'increases'
p991
tp992
(lp993
s(S'FOXL1'
p994
S'RUNX2'
p995
S'increases'
p996
tp997
(lp998
s(S'EGR4'
p999
S'LEF1'
p1000
S'increases'
p1001
tp1002
(lp1003
s(S'P-IRS1,2'
p1004
S'GRB2:SOS1'
p1005
S'binds'
p1006
tp1007
(lp1008
s(S'VEGFR2 (dimer)/VEGFA (dimer)/alphav/beta3 Integrin/Vitronectin'
p1009
S'SRC'
p1010
S'adds_modification'
p1011
tp1012
(lp1013
s(S'BACH2'
p1014
S'BACH1'
p1015
S'increases'
p1016
tp1017
(lp1018
s(S'ONECUT1'
p1019
S'RUNX1'
p1020
S'increases'
p1021
tp1022
(lp1023
s(S'FOXJ2'
p1024
S'RUNX2'
p1025
S'increases'
p1026
tp1027
(lp1028
s(S'PI-3-4-5-P3'
p1029
S'AKT1'
p1030
S'translocates'
p1031
tp1032
(lp1033
s(S'TFAP4'
p1034
S'BACH1'
p1035
S'increases'
p1036
tp1037
(lp1038
s(S'MEKK1/4'
p1039
S'MKK3/6'
p1040
S'adds_modification'
p1041
tp1042
(lp1043
s(S'VSX1'
p1044
S'MECOM'
p1045
S'increases'
p1046
tp1047
(lp1048
s(S'IRF1'
p1049
S'GATA6'
p1050
S'increases'
p1051
tp1052
(lp1053
s(S'MAX'
p1054
S'HOXA9'
p1055
S'increases'
p1056
tp1057
(lp1058
s(S'RB1'
p1059
S'MAZ'
p1060
S'increases'
p1061
tp1062
(lp1063
s(S'GATA1'
p1064
S'EN1'
p1065
S'increases'
p1066
tp1067
(lp1068
s(S'HIF1A'
p1069
S'SRF'
p1070
S'increases'
p1071
tp1072
(lp1073
s(S'IRF8'
p1074
S'CYP26A1'
p1075
S'increases'
p1076
tp1077
(lp1078
s(S'MTF1'
p1079
S'CYP26A1'
p1080
S'increases'
p1081
tp1082
(lp1083
s(S'PI-3-4-5-P3'
p1084
S'GAB1'
p1085
S'translocates'
p1086
tp1087
(lp1088
s(S'PI-3-4-5-P3'
p1089
S'AKT1'
p1090
S'adds_modification'
p1091
tp1092
(lp1093
s(S'RXRA'
p1094
S'HOXA9'
p1095
S'increases'
p1096
tp1097
(lp1098
s(S'AKT1'
p1099
S'RAF1'
p1100
S'binds'
p1101
tp1102
(lp1103
S'As a result, the top-ranked nodes are the usual suspects, such as AKT1, P53, and RAF1.'
p1104
as(S'HSF2'
p1105
S'JUN'
p1106
S'increases'
p1107
tp1108
(lp1109
s(S'PAX2'
p1110
S'CYP26A1'
p1111
S'increases'
p1112
tp1113
(lp1114
s(S'ETV7'
p1115
S'CYP26A1'
p1116
S'increases'
p1117
tp1118
(lp1119
s(S'FOXO3'
p1120
S'NRAS'
p1121
S'increases'
p1122
tp1123
(lp1124
s(S'TP53'
p1125
S'REPIN1'
p1126
S'increases'
p1127
tp1128
(lp1129
s(S'STAT6'
p1130
S'CYP26A1'
p1131
S'increases'
p1132
tp1133
(lp1134
s(S'JUN'
p1135
S'NRAS'
p1136
S'increases'
p1137
tp1138
(lp1139
s(S'MYCN'
p1140
S'NRAS'
p1141
S'increases'
p1142
tp1143
(lp1144
s(S'STAT3'
p1145
S'YY1'
p1146
S'increases'
p1147
tp1148
(lp1149
s(S'Methyl Methanesulfonate'
p1150
S'HRAS MRNA'
p1151
S'increases'
p1152
tp1153
(lp1154
s(S'RHOA/GTP'
p1155
S'PKN'
p1156
S'increases_activity'
p1157
tp1158
(lp1159
s(S'NHLH1'
p1160
S'FOXJ2'
p1161
S'increases'
p1162
tp1163
(lp1164
s(S'RAS family/GTP'
p1165
S'BRAF'
p1166
S'adds_modification'
p1167
tp1168
(lp1169
s(S'RELA'
p1170
S'FOXJ2'
p1171
S'increases'
p1172
tp1173
(lp1174
s(S'TCF3'
p1175
S'RUNX1'
p1176
S'increases'
p1177
tp1178
(lp1179
s(S'FOXF2'
p1180
S'FOXO4'
p1181
S'increases'
p1182
tp1183
(lp1184
s(S'ATF4'
p1185
S'FOXD3'
p1186
S'increases'
p1187
tp1188
(lp1189
s(S'HAND1'
p1190
S'MECOM'
p1191
S'increases'
p1192
tp1193
(lp1194
s(S'RHOA/GTP'
p1195
S'P27KIP1'
p1196
S'adds_modification'
p1197
tp1198
(lp1199
s(S'SRF'
p1200
S'NRAS'
p1201
S'increases'
p1202
tp1203
(lp1204
s(S'ESRRA'
p1205
S'POU3F2'
p1206
S'increases'
p1207
tp1208
(lp1209
s(S'BRAF'
p1210
S'MEK1'
p1211
S'adds_modification'
p1212
tp1213
(lp1214
s(S'Cadmium Chloride'
p1215
S'KRAS PROTEIN'
p1216
S'increases'
p1217
tp1218
(lp1219
s(S'PRRX2'
p1220
S'MEIS1'
p1221
S'increases'
p1222
tp1223
(lp1224
s(S'MYC'
p1225
S'NRAS'
p1226
S'increases'
p1227
tp1228
(lp1229
s(S'MAZ'
p1230
S'KRAS'
p1231
S'increases'
p1232
tp1233
(lp1234
s(S'Rho Family GTPase-active'
p1235
S'PI3K'
p1236
S'increases_activity'
p1237
tp1238
(lp1239
s(S'STAT2'
p1240
S'CYP26A1'
p1241
S'increases'
p1242
tp1243
(lp1244
s(S'hsa-let-7a-5p'
p1245
S'KRAS'
p1246
S'decreases'
p1247
tp1248
(lp1249
s(S'POU3F2'
p1250
S'NRAS'
p1251
S'increases'
p1252
tp1253
(lp1254
s(S'SRF'
p1255
S'FOXO4'
p1256
S'increases'
p1257
tp1258
(lp1259
s(S'S1P1/Sphingosine-1-phosphate/PDGF-BB/PDGFRB (dimer)'
p1260
S'SRC FAMILY KINASES'
p1261
S'increases_activity'
p1262
tp1263
(lp1264
s(S'MYC/Max'
p1265
S'ERBB2'
p1266
S'decreases'
p1267
tp1268
(lp1269
s(S'SREBF1'
p1270
S'CBFA2T3'
p1271
S'increases'
p1272
tp1273
(lp1274
s(S'PI3K'
p1275
S'GELSOLIN/PI-3-4-5-P3'
p1276
S'binds'
p1277
tp1278
(lp1279
s(S'NHLH1'
p1280
S'EN1'
p1281
S'increases'
p1282
tp1283
(lp1284
s(S'LMO2'
p1285
S'GATA6'
p1286
S'increases'
p1287
tp1288
(lp1289
s(S'POU1F1'
p1290
S'FOXD3'
p1291
S'increases'
p1292
tp1293
(lp1294
s(S'hsa-miR-148b-3p'
p1295
S'NRAS'
p1296
S'decreases'
p1297
tp1298
(lp1299
s(S'Quercetin'
p1300
S'KRAS PROTEIN'
p1301
S'decreases'
p1302
tp1303
(lp1304
s(S'PAK2'
p1305
S'MEKK1'
p1306
S'adds_modification'
p1307
tp1308
(lp1309
s(S'LMO2'
p1310
S'MAZ'
p1311
S'increases'
p1312
tp1313
(lp1314
s(S'FOXO1'
p1315
S'POU3F2'
p1316
S'increases'
p1317
tp1318
(lp1319
s(S'NKX2-1'
p1320
S'MAZ'
p1321
S'increases'
p1322
tp1323
(lp1324
s(S'GRB2/SOS1'
p1325
S'PDGF-BB/PDGFRB (DIMER)/P52 SHC'
p1326
S'binds'
p1327
tp1328
(lp1329
s(S'PI3K'
p1330
S'CRK/P130 CAS/PAXILLIN'
p1331
S'increases_activity'
p1332
tp1333
(lp1334
s(S'ATF1'
p1335
S'FOXD3'
p1336
S'increases'
p1337
tp1338
(lp1339
s(S'GATA1'
p1340
S'SRF'
p1341
S'increases'
p1342
tp1343
(lp1344
s(S'TFAP2C'
p1345
S'CYP26A1'
p1346
S'increases'
p1347
tp1348
(lp1349
s(S'AHR'
p1350
S'MEIS1'
p1351
S'increases'
p1352
tp1353
(lp1354
s(S'ETS2'
p1355
S'CYP26A1'
p1356
S'increases'
p1357
tp1358
(lp1359
s(S'Estradiol'
p1360
S'NRAS MRNA'
p1361
S'increases'
p1362
tp1363
(lp1364
s(S'E2F1'
p1365
S'HOXA9'
p1366
S'increases'
p1367
tp1368
(lp1369
s(S'PDGF-BB/PDGFRB (DIMER)'
p1370
S'RASGAP'
p1371
S'binds'
p1372
tp1373
(lp1374
s(S'E2F1'
p1375
S'GABPB2'
p1376
S'increases'
p1377
tp1378
(lp1379
s(S'FOXJ1'
p1380
S'POU3F2'
p1381
S'increases'
p1382
tp1383
(lp1384
s(S'VSX1'
p1385
S'CYP26A1'
p1386
S'increases'
p1387
tp1388
(lp1389
s(S'SPI1'
p1390
S'CDC5L'
p1391
S'increases'
p1392
tp1393
(lp1394
s(S'Gi family'
p1395
S'HRAS/GDP'
p1396
S'increases_activity'
p1397
tp1398
(lp1399
s(S'TCF3'
p1400
S'CYP26A1'
p1401
S'increases'
p1402
tp1403
(lp1404
s(S'IGF-1R HETEROTETRAMER/IGF1/IRS1'
p1405
S'GRB2/SOS1'
p1406
S'binds'
p1407
tp1408
(lp1409
s(S'RAS family/GTP'
p1410
S'RALGDS'
p1411
S'translocates'
p1412
tp1413
(lp1414
s(S'PI3K'
p1415
S'RAC1/GDP'
p1416
S'increases_activity'
p1417
tp1418
(lp1419
s(S'Ca2+'
p1420
S'PKC'
p1421
S'increases_activity'
p1422
tp1423
(lp1424
s(S'ZIC1'
p1425
S'CYP26A1'
p1426
S'increases'
p1427
tp1428
(lp1429
s(S'IRF7'
p1430
S'TLX2'
p1431
S'increases'
p1432
tp1433
(lp1434
s(S'SHC/SHIP'
p1435
S'HRAS/GDP'
p1436
S'decreases_activity'
p1437
tp1438
(lp1439
s(S'hsa-let-7a-5p'
p1440
S'HRAS'
p1441
S'decreases'
p1442
tp1443
(lp1444
s(S'GATA4'
p1445
S'MAZ'
p1446
S'increases'
p1447
tp1448
(lp1449
s(S'EN1'
p1450
S'NRAS'
p1451
S'increases'
p1452
tp1453
(lp1454
s(S'PI3K'
p1455
S'BAM32'
p1456
S'adds_modification'
p1457
tp1458
(lp1459
s(S'GABPB1'
p1460
S'CYP26A1'
p1461
S'increases'
p1462
tp1463
(lp1464
s(S'Trifluoroethanol'
p1465
S'HRAS'
p1466
S'increases_activity'
p1467
tp1468
(lp1469
s(S'SOX5'
p1470
S'CYP26A1'
p1471
S'increases'
p1472
tp1473
(lp1474
s(S'GRB2/SOS1'
p1475
S'HGF(DIMER)/MET(DIMER)/P52 SHC'
p1476
S'binds'
p1477
tp1478
(lp1479
s(S'TCF12'
p1480
S'EN1'
p1481
S'increases'
p1482
tp1483
(lp1484
s(S'SOX9'
p1485
S'MEIS1'
p1486
S'increases'
p1487
tp1488
(lp1489
s(S'RB1'
p1490
S'MYC'
p1491
S'increases'
p1492
tp1493
(lp1494
s(S'RXRA'
p1495
S'FOXA1'
p1496
S'increases'
p1497
tp1498
(lp1499
s(S'decitabine'
p1500
S'HRAS MRNA'
p1501
S'decreases'
p1502
tp1503
(lp1504
s(S'VSX1'
p1505
S'EN1'
p1506
S'increases'
p1507
tp1508
(lp1509
s(S'FOXL1'
p1510
S'CYP26A1'
p1511
S'increases'
p1512
tp1513
(lp1514
s(S'PAX2'
p1515
S'RUNX1'
p1516
S'increases'
p1517
tp1518
(lp1519
s(S'MEKK1/4'
p1520
S'MKK4/7'
p1521
S'adds_modification'
p1522
tp1523
(lp1524
s(S'HOXA9'
p1525
S'CYP26A1'
p1526
S'increases'
p1527
tp1528
(lp1529
s(S'TRKC'
p1530
S'NT3 (DIMER)'
p1531
S'binds'
p1532
tp1533
(lp1534
s(S'PTF1A'
p1535
S'REPIN1'
p1536
S'increases'
p1537
tp1538
(lp1539
s(S'TGIF'
p1540
S'CYP26A1'
p1541
S'increases'
p1542
tp1543
(lp1544
s(S'MYOD1'
p1545
S'MYC'
p1546
S'increases'
p1547
tp1548
(lp1549
s(S'PKCT'
p1550
S'KRAS ISO2'
p1551
S'adds_modification'
p1552
tp1553
(lp1554
s(S'RAS family/GTP'
p1555
S'BRAF'
p1556
S'increases_activity'
p1557
tp1558
(lp1559
s(S'SPZ1'
p1560
S'CYP26A1'
p1561
S'increases'
p1562
tp1563
(lp1564
s(S'HRAS/GTP'
p1565
S'GALECTIN-1'
p1566
S'binds'
p1567
tp1568
(lp1569
s(S'DBP'
p1570
S'FOXD3'
p1571
S'increases'
p1572
tp1573
(lp1574
s(S'E2F1'
p1575
S'POU2F1'
p1576
S'increases'
p1577
tp1578
(lp1579
s(S'MEIS1'
p1580
S'CYP26A1'
p1581
S'increases'
p1582
tp1583
(lp1584
s(S'YY1'
p1585
S'NRAS'
p1586
S'increases'
p1587
tp1588
(lp1589
s(S'RAS:RAF'
p1590
S'YWHAB'
p1591
S'binds'
p1592
tp1593
(lp1594
s(S'NFE2L2'
p1595
S'CYP26A1'
p1596
S'increases'
p1597
tp1598
(lp1599
s(S'FARNESYL'
p1600
S'KRAS'
p1601
S'increases_activity'
p1602
tp1603
(lp1604
s(S'MTF1'
p1605
S'MECOM'
p1606
S'increases'
p1607
tp1608
(lp1609
s(S'TLX2'
p1610
S'FOXD3'
p1611
S'increases'
p1612
tp1613
(lp1614
s(S'Insulin Receptor/Insulin/SHC/GRB2/Sos1'
p1615
S'HRAS/GDP'
p1616
S'increases_activity'
p1617
tp1618
(lp1619
s(S'MYC'
p1620
S'ELK1'
p1621
S'increases'
p1622
tp1623
(lp1624
s(S'ONECUT1'
p1625
S'POU2F1'
p1626
S'increases'
p1627
tp1628
(lp1629
s(S'Paraquat'
p1630
S'HRAS MRNA'
p1631
S'translocates'
p1632
tp1633
(lp1634
s(S'GRB2/SOS1'
p1635
S'PDGF-BB/PDGFRB (DIMER)/SHP2'
p1636
S'binds'
p1637
tp1638
(lp1639
s(S'ONECUT1'
p1640
S'CYP26A1'
p1641
S'increases'
p1642
tp1643
(lp1644
s(S'MYC'
p1645
S'FOXO3'
p1646
S'increases'
p1647
tp1648
(lp1649
S'FOXO3a, a transcription factor that is inhibited by the phosphatidylinositol 3-kinase/Akt pathway and is upregulated in hypoxia, has emerged as an important negative regulator of MYC function.'
p1650
aS'Recent studies have revealed that FOXO3a acts as a negative regulator of mitochondrial function through inhibition of MYC.'
p1651
aS'This review will focus on the antagonism between FOXO3a and MYC and discuss their role in cellular bioenergetics, reactive oxygen metabolism, and adaptation to hypoxia, raising questions about the role of FOXO proteins in cancer.'
p1652
aS'Two recent studies have demonstrated that the inhibition of nuclearly encoded mitochondrial genes by FOXO3a involves inhibition of MYC though multiple mechanisms (Figure '
p1653
aS'FOXO3a is also able to modulate MYC transcriptional activity by additional mechanisms to reduce ROS production in hypoxic cells.'
p1654
as(S'PAX3'
p1655
S'ELK1'
p1656
S'increases'
p1657
tp1658
(lp1659
s(S'DOK-R'
p1660
S'RASGAP'
p1661
S'binds'
p1662
tp1663
(lp1664
s(S'HOXA4'
p1665
S'HOXA9'
p1666
S'increases'
p1667
tp1668
(lp1669
s(S'MAX'
p1670
S'POU3F2'
p1671
S'increases'
p1672
tp1673
(lp1674
s(S'Estradiol'
p1675
S'KRAS MRNA'
p1676
S'decreases'
p1677
tp1678
(lp1679
s(S'KRAS ISOFORM 4B/GTP'
p1680
S'CAM/CA2+'
p1681
S'binds'
p1682
tp1683
(lp1684
s(S'MAZ'
p1685
S'FOXO4'
p1686
S'increases'
p1687
tp1688
(lp1689
s(S'hsa-miR-181a-5p'
p1690
S'KRAS'
p1691
S'decreases'
p1692
tp1693
(lp1694
s(S'GATA1'
p1695
S'CYP26A1'
p1696
S'increases'
p1697
tp1698
(lp1699
s(S'PGR'
p1700
S'ETS1'
p1701
S'increases'
p1702
tp1703
(lp1704
s(S'GATA1'
p1705
S'POU2F1'
p1706
S'increases'
p1707
tp1708
(lp1709
s(S'BRAF'
p1710
S'MEK1-2'
p1711
S'increases_activity'
p1712
tp1713
(lp1714
s(S'LEF1'
p1715
S'GABPB2'
p1716
S'increases'
p1717
tp1718
(lp1719
s(S'CYP26A1'
p1720
S'MYC'
p1721
S'increases'
p1722
tp1723
(lp1724
s(S'STAT1'
p1725
S'IRF1'
p1726
S'increases'
p1727
tp1728
(lp1729
S'Interestingly, the ISR8 promoter has sites for STAT1 and 2 as well as IRF1 and 2, suggesting that ISR8 could be a '
p1730
as(S'SMAD1'
p1731
S'RUNX2'
p1732
S'increases'
p1733
tp1734
(lp1735
s(S'ZEB1'
p1736
S'TLX2'
p1737
S'increases'
p1738
tp1739
(lp1740
s(S'STAT5B'
p1741
S'IRF1'
p1742
S'increases'
p1743
tp1744
(lp1745
s(S'POU6F1'
p1746
S'CYP26A1'
p1747
S'increases'
p1748
tp1749
(lp1750
s(S'Vincristine'
p1751
S'HRAS MRNA'
p1752
S'increases'
p1753
tp1754
(lp1755
s(S'DAG'
p1756
S'RASGRP1'
p1757
S'adds_modification'
p1758
tp1759
(lp1760
s(S'PI3K'
p1761
S'PDK1'
p1762
S'increases_activity'
p1763
tp1764
(lp1765
S'Phosphoinoisitide dependent kinase l (PDK1) phosphorylates a key threonine residue within the catalytic domain of a number of AGC family kinases, including diacylglycerol-regulated kinases of the protein kinase C (PKC) superfamily and phosphatidyl inositol-3 kinase (PI3K)-controlled serine kinases such as Akt/PKB and the 70-kilodalton ribosomal S6 kinase 1 (S6K1) '
p1766
aS'Mammalian target of rapamycin function is regulated by the activity state of several neuronal surface receptors and channels (i.e., TrkB, NMDAR, AMPA, D1R, D2R, mGluRs) and by diverse signaling cascades activated by these receptors, including PDK1, PI3K, Akt, and TSC1/2 (Averous and Proud, '
p1767
aS'Antibodies for the phospho-specific and total (recognizing both phosphorylated and non-phosphorylated protein) forms of Akt, ERK1/2, JAK2, and STAT5, horseradish peroxidase (HRP)-linked anti-rabbit IgG antibody, biotinylated molecular weight marker, anti-biotin-HRP antibody, mitogen-activated protein kinase kinase 1/2 (MEK1/2) inhibitor U0126 (MEK1 and 2 are directly responsible for the activation of ERK), PI3K inhibitor LY294002 [PI3K produces phosphatidylinositol phosphates that are critical for activation of Akt by phosphoinositide-dependent kinase 1 (PDK1)], and cell lysis buffer were all obtained from Cell Signaling Technology (Beverly, MA, USA).'
p1768
aS'In adipocytes and muscles PI3K-PDK1-Akt are the protein kinases that are activated in a cascade after insulin receptor stimulation and Rab8, Rab10, and Rab14 the small GTPases that drive GSV translocation to the cell surface.'
p1769
aS'Upon ligation of the T cell receptor (TCR) in the presence of co-stimulatory molecules, PI3K recruitment and activation leads to the production of lipid products which in turn recruit downstream PH-domain containing targets such as PDK1 and Akt (see '
p1770
aS'by inactivating PI3K or downstream proteins such as PDK1 or mTOR) or by increasing PI3K signaling (e.g.'
p1771
aS'The activation of PI3K stimulates the generation of phosphatidylinositol 3,4,5 trisphosphate at the cell membrane, which mediates the recruitment of PKB (also known as AKT) and phosphoinositide-dependent kinase 1 (PDK1).'
p1772
aS'Some TNFR family molecules in non-T cells appear to have the capacity to activate PI3K and Akt without signaling from other receptors, suggesting they may directly phosphorylate PI3K and/or recruit other kinases that can perform this function, and they may also recruit kinases such as PDK1 that phosphorylate Akt.'
p1773
aS'The serine/threonine kinase Akt is known to be regulated by phosphoinositide 3-kinase (PI3K) signaling via the activatory phosphorylation of Akt at its threonine (Thr 308) and its serine (Ser 473) residues by two phosphatidyl-dependant kinases, PDK1 and PDK2/rictor-mTOR, respectively (Scheid and Woodgett, '
p1774
aS'The signaling cascades triggered by PI3K, including PDK1, AKT, and SGK among others, promote cell growth and survival.'
p1775
aS'Indeed, targeting this pathway may cause MYC activation through PDK1-dependent MYC phosphorylation and MYC amplification, which is parallel to PIK3CA-dependent Akt and MAPK activation, thus attenuating the therapeutic effect of PI3K/Akt/mTOR inhibitors ('
p1776
as(S'ETS2'
p1777
S'PAX4'
p1778
S'increases'
p1779
tp1780
(lp1781
s(S'NR3C1'
p1782
S'ONECUT1'
p1783
S'increases'
p1784
tp1785
(lp1786
s(S'CUX1'
p1787
S'CYP26A1'
p1788
S'increases'
p1789
tp1790
(lp1791
s(S'ZEB1'
p1792
S'GATA1'
p1793
S'increases'
p1794
tp1795
(lp1796
s(S'NRF1'
p1797
S'POU2F1'
p1798
S'increases'
p1799
tp1800
(lp1801
s(S'FOXJ2'
p1802
S'MECOM'
p1803
S'increases'
p1804
tp1805
(lp1806
s(S'MAZ'
p1807
S'MYCN'
p1808
S'increases'
p1809
tp1810
(lp1811
s(S'Hydrogen Peroxide'
p1812
S'HRAS MRNA'
p1813
S'increases'
p1814
tp1815
(lp1816
s(S'RASA1'
p1817
S'P-EPHBS:EFNBS'
p1818
S'binds'
p1819
tp1820
(lp1821
s(S'SPI1'
p1822
S'CEBPG'
p1823
S'increases'
p1824
tp1825
(lp1826
s(S'EGR1'
p1827
S'LEF1'
p1828
S'increases'
p1829
tp1830
(lp1831
s(S'RET51/GFRALPHA1/GDNF'
p1832
S'P62DOK'
p1833
S'binds'
p1834
tp1835
(lp1836
s(S'TFDP2'
p1837
S'CYP26A1'
p1838
S'increases'
p1839
tp1840
(lp1841
s(S'matrine'
p1842
S'NRAS MRNA'
p1843
S'increases'
p1844
tp1845
(lp1846
s(S'Isotretinoin'
p1847
S'KRAS MRNA'
p1848
S'decreases'
p1849
tp1850
(lp1851
s(S'PITX2'
p1852
S'FOXF2'
p1853
S'increases'
p1854
tp1855
(lp1856
s(S'MYOD1'
p1857
S'POU2F1'
p1858
S'increases'
p1859
tp1860
(lp1861
s(S'sodium arsenite'
p1862
S'KRAS PROTEIN'
p1863
S'increases'
p1864
tp1865
(lp1866
s(S'TCF4'
p1867
S'CBFA2T3'
p1868
S'increases'
p1869
tp1870
(lp1871
s(S'CYP26A1'
p1872
S'FOXA1'
p1873
S'increases'
p1874
tp1875
(lp1876
s(S'TP53'
p1877
S'CYP26A1'
p1878
S'increases'
p1879
tp1880
(lp1881
s(S'ATF3'
p1882
S'FOXD3'
p1883
S'increases'
p1884
tp1885
(lp1886
s(S'POU2F1'
p1887
S'NRAS'
p1888
S'increases'
p1889
tp1890
(lp1891
s(S'NRF1'
p1892
S'GABPB2'
p1893
S'increases'
p1894
tp1895
(lp1896
s(S'PAX4'
p1897
S'TLX2'
p1898
S'increases'
p1899
tp1900
(lp1901
s(S'PITX2'
p1902
S'FOXA1'
p1903
S'increases'
p1904
tp1905
(lp1906
s(S'GTF3A'
p1907
S'POU2F1'
p1908
S'increases'
p1909
tp1910
(lp1911
s(S'HLF'
p1912
S'FOXO3'
p1913
S'increases'
p1914
tp1915
(lp1916
s(S'PAX4'
p1917
S'FOXO4'
p1918
S'increases'
p1919
tp1920
(lp1921
s(S'CEBPA'
p1922
S'FOXD3'
p1923
S'increases'
p1924
tp1925
(lp1926
s(S'NFE2'
p1927
S'CYP26A1'
p1928
S'increases'
p1929
tp1930
(lp1931
s(S'MYB'
p1932
S'GABPB2'
p1933
S'increases'
p1934
tp1935
(lp1936
s(S'MYC'
p1937
S'CEBPA'
p1938
S'increases'
p1939
tp1940
(lp1941
s(S'ELK1'
p1942
S'EN1'
p1943
S'increases'
p1944
tp1945
(lp1946
s(S'E2F1'
p1947
S'CDC5L'
p1948
S'increases'
p1949
tp1950
(lp1951
s(S'YWHAZ (DIMER)'
p1952
S'RAF1'
p1953
S'binds'
p1954
tp1955
(lp1956
s(S'ATF6'
p1957
S'CYP26A1'
p1958
S'increases'
p1959
tp1960
(lp1961
s(S'sodium arsenite'
p1962
S'HRAS MRNA'
p1963
S'increases'
p1964
tp1965
(lp1966
s(S'EGR3'
p1967
S'CYP26A1'
p1968
S'increases'
p1969
tp1970
(lp1971
s(S'lead acetate'
p1972
S'HRAS PROTEIN'
p1973
S'increases_activity'
p1974
tp1975
(lp1976
s(S'REPIN1'
p1977
S'MYC'
p1978
S'increases'
p1979
tp1980
(lp1981
s(S'CEBPA'
p1982
S'NRAS'
p1983
S'increases'
p1984
tp1985
(lp1986
s(S'Quercetin'
p1987
S'NRAS MRNA'
p1988
S'decreases'
p1989
tp1990
(lp1991
s(S'14-3-3 E'
p1992
S'TERT'
p1993
S'binds'
p1994
tp1995
(lp1996
s(S'Antigen/IgE/Fc epsilon R1/LYN/SYK'
p1997
S'BTK'
p1998
S'adds_modification'
p1999
tp2000
(lp2001
s(S'HSF2'
p2002
S'CBFA2T3'
p2003
S'increases'
p2004
tp2005
(lp2006
s(S'Fluorouracil'
p2007
S'HRAS MRNA'
p2008
S'increases'
p2009
tp2010
(lp2011
s(S'STAT4'
p2012
S'MECOM'
p2013
S'increases'
p2014
tp2015
(lp2016
s(S'ETS2'
p2017
S'ETS1'
p2018
S'increases'
p2019
tp2020
(lp2021
s(S'CEBPG'
p2022
S'CYP26A1'
p2023
S'increases'
p2024
tp2025
(lp2026
s(S'Complex (PDGF receptor A/PDGF receptor B)'
p2027
S'NCK'
p2028
S'adds_modification'
p2029
tp2030
(lp2031
s(S'Fog1'
p2032
S'MYB'
p2033
S'decreases'
p2034
tp2035
(lp2036
s(S'CREB1'
p2037
S'FOXD3'
p2038
S'increases'
p2039
tp2040
(lp2041
s(S'Numb'
p2042
S'NICS'
p2043
S'translocates'
p2044
tp2045
(lp2046
s(S'STAT6'
p2047
S'STAT5A'
p2048
S'increases'
p2049
tp2050
(lp2051
s(S'RAF1/14-3-3'
p2052
S'BRAF/14-3-3'
p2053
S'binds'
p2054
tp2055
(lp2056
s(S'B-cell antigen/BCR complex/LYN/SYK/BLNK'
p2057
S'SHC/GRB2/SOS1'
p2058
S'increases_activity'
p2059
tp2060
(lp2061
s(S'IRF2'
p2062
S'CYP26A1'
p2063
S'increases'
p2064
tp2065
(lp2066
s(S'GATA6'
p2067
S'CYP26A1'
p2068
S'increases'
p2069
tp2070
(lp2071
s(S'HMGA1'
p2072
S'CYP26A1'
p2073
S'increases'
p2074
tp2075
(lp2076
s(S'MTF1'
p2077
S'FOXO4'
p2078
S'increases'
p2079
tp2080
(lp2081
s(S'STAT1'
p2082
S'GABPB2'
p2083
S'increases'
p2084
tp2085
(lp2086
s(S'manumycin'
p2087
S'HRAS PROTEIN'
p2088
S'decreases'
p2089
tp2090
(lp2091
s(S'STAT5A'
p2092
S'ETS1'
p2093
S'increases'
p2094
tp2095
(lp2096
s(S'SPI1'
p2097
S'CBFA2T3'
p2098
S'increases'
p2099
tp2100
(lp2101
s(S'GMCSF/GMR ALPHA/CSF2RB/JAK2 (DODECAMER)/SHC'
p2102
S'GRB2/SOS1'
p2103
S'binds'
p2104
tp2105
(lp2106
s(S'7,8-Dihydro-7,8-dihydroxybenzo(a)pyrene 9,10-oxide'
p2107
S'NRAS PROTEIN'
p2108
S'increases'
p2109
tp2110
(lp2111
s(S'CDC5L'
p2112
S'CYP26A1'
p2113
S'increases'
p2114
tp2115
(lp2116
s(S'PAX4'
p2117
S'POU3F2'
p2118
S'increases'
p2119
tp2120
(lp2121
s(S'SPRED2'
p2122
S'HRAS'
p2123
S'binds'
p2124
tp2125
(lp2126
s(S'PITX2'
p2127
S'FOXO4'
p2128
S'increases'
p2129
tp2130
(lp2131
s(S'FOXD3'
p2132
S'CYP26A1'
p2133
S'increases'
p2134
tp2135
(lp2136
s(S'NFIL3'
p2137
S'FOXO3'
p2138
S'increases'
p2139
tp2140
(lp2141
s(S'MTF1'
p2142
S'POU2F1'
p2143
S'increases'
p2144
tp2145
(lp2146
s(S'TFCP2'
p2147
S'BACH1'
p2148
S'increases'
p2149
tp2150
(lp2151
s(S'NF1'
p2152
S'MECOM'
p2153
S'increases'
p2154
tp2155
(lp2156
s(S'FOXO3'
p2157
S'FOXD3'
p2158
S'increases'
p2159
tp2160
(lp2161
s(S'STAT5A'
p2162
S'TLX2'
p2163
S'increases'
p2164
tp2165
(lp2166
s(S'RIN1'
p2167
S'HRAS/GTP'
p2168
S'adds_modification'
p2169
tp2170
(lp2171
s(S'STAT5A'
p2172
S'CEBPG'
p2173
S'increases'
p2174
tp2175
(lp2176
s(S'DAG'
p2177
S'PKC'
p2178
S'increases_activity'
p2179
tp2180
(lp2181
S'The PKC activation induced by hyperglycemia is likely due to the increase in the 1,2-diacylglycerol (DAG) levels, a physiological activator of PKC, although other co-factors such as phosphatidylserine (PS) or phorbolester (PE) are also known stimulants.'
p2182
aS'Enhanced PKC activation, as a result of hyperglycemia-mediated DAG production and an increased rate of ceramide synthesis, is associated with impairment in renal functions.'
p2183
aS'In contrast, other work suggests that DAG can also activate a PKC-independent pathway.'
p2184
aS'A PKC-independent DAG-gated cation current was described in patch clamp recordings from cultured ORNs of '
p2185
aS'In recent years, it has become clear that DAG can activate targets other than PKC, some of which are important for vesicle fusion.'
p2186
aS'There are additional targets of the regulation of mucin secretion besides Synaptotagmin and Munc13 proteins, such as PKC that also binds DAG and calcium ('
p2187
aS'The regulatory domains of cPKCs contain a C1 domain that functions as diacylglycerol (DAG)/phorbol 12-myristat 13-acetat (PMA) binding motif and a C2 domain that binds anionic phospholipids in a calcium-dependent manner ('
p2188
aS'Unless it is post-translationally or co-translationally phosphorylated, PKCs are incapable of being activated by DAG or other cofactors ('
p2189
aS'New roles in regulation of microfilaments were recently ascribed tor cPKCs that are activated by DAG and by Ca'
p2190
aS'The importance of localized DAG, however, argued against a role for aPKCs, at least during the early phases of the response.'
p2191
aS'Although differential DAG affinity provides an elegant mechanism for modulating PKC recruitment, other results strongly suggest that there are additional contributing factors.'
p2192
aS'It is conceivable that polarity complexes are recruited to the IS by DAG and nPKC signaling.'
p2193
aS'Downstream to DAG, MTOC dynamics and polarization is driven by PKC isozymes recruited to the synaptic membrane.'
p2194
aS'Besides binding PKC DAG also binds to RAS-guanyl nucleotide-releasing protein (Ras-GRP).'
p2195
aS'Phorbol-esters such as PMA represent surrogates of the second messenger 1,2-diacylglycerol (DAG) and are less rapidly degraded, which makes them the preferred activators of PKC used in cell culture as well as in '
p2196
aS'Diacylglycerol (DAG) leads to PKC activation, whereas inositol triphosphate (IP3) triggers calcium (Ca'
p2197
aS'Unlike IP3, which is released into the spine cytoplasm, DAG is embedded in the membrane and recruits and activates DAG effectors (among them PKC), which have been involved in spine maintenance (Brose et al., '
p2198
aS'DAG activates PKC, which then attaches itself to the AMPA receptors and decreases the number of AMPA receptors by internalizing them.'
p2199
aS'Similarly the DAG upon activation diffuses into the cell fluid and docks on the PKC activating it.'
p2200
aS'This problem was particularly pronounced when voltage gated ion channels, the contribution of calcium to the increase in electron transport chain, uncoupling protein activation, DAG activation, PKC activation, and CaMKII activation were being modeled.'
p2201
aS'The main intracellular pathways activated by BDNF-TrkB signaling are the MEK-ERK, the PI3K-Akt-mTORC1, the PLCy-DAG-PKC/Ca'
p2202
as(S'HNF4A'
p2203
S'FOXA1'
p2204
S'increases'
p2205
tp2206
(lp2207
s(S'LEF1'
p2208
S'MAZ'
p2209
S'increases'
p2210
tp2211
(lp2212
s(S'hsa-miR-124-3p'
p2213
S'NRAS'
p2214
S'decreases'
p2215
tp2216
(lp2217
s(S'RAF1'
p2218
S'14-3-3 E'
p2219
S'binds'
p2220
tp2221
(lp2222
s(S'GATA1'
p2223
S'MYB'
p2224
S'decreases'
p2225
tp2226
(lp2227
s(S'LMO2'
p2228
S'GATA1'
p2229
S'increases'
p2230
tp2231
(lp2232
s(S'HRAS/GTP'
p2233
S'RAF1'
p2234
S'increases_activity'
p2235
tp2236
(lp2237
s(S'MYCN'
p2238
S'RUNX2'
p2239
S'increases'
p2240
tp2241
(lp2242
s(S'STAT5B'
p2243
S'CYP26A1'
p2244
S'increases'
p2245
tp2246
(lp2247
s(S'ZIC2'
p2248
S'MYCN'
p2249
S'increases'
p2250
tp2251
(lp2252
s(S'FOXL1'
p2253
S'FOXD3'
p2254
S'increases'
p2255
tp2256
(lp2257
s(S'ZBTB18'
p2258
S'CBFA2T3'
p2259
S'increases'
p2260
tp2261
(lp2262
s(S'HSF1'
p2263
S'IRF1'
p2264
S'increases'
p2265
tp2266
(lp2267
s(S'SPZ1'
p2268
S'MAZ'
p2269
S'increases'
p2270
tp2271
(lp2272
s(S'SRY'
p2273
S'CYP26A1'
p2274
S'increases'
p2275
tp2276
(lp2277
s(S'FOXO4'
p2278
S'HOXA9'
p2279
S'increases'
p2280
tp2281
(lp2282
s(S'IGF-1R heterotetramer/IGF1/IRS1/GRB2/Sos'
p2283
S'HRAS/GDP'
p2284
S'increases_activity'
p2285
tp2286
(lp2287
s(S'hsa-miR-615-3p'
p2288
S'HRAS'
p2289
S'decreases'
p2290
tp2291
(lp2292
s(S'ESRRA'
p2293
S'FOXD3'
p2294
S'increases'
p2295
tp2296
(lp2297
s(S'ELK1'
p2298
S'CYP26A1'
p2299
S'increases'
p2300
tp2301
(lp2302
s(S'Hexane-1,6-Diol'
p2303
S'HRAS'
p2304
S'increases_activity'
p2305
tp2306
(lp2307
s(S'MAZ'
p2308
S'NRAS'
p2309
S'increases'
p2310
tp2311
(lp2312
s(S'MIF'
p2313
S'CYP26A1'
p2314
S'increases'
p2315
tp2316
(lp2317
s(S'AHR'
p2318
S'POU2F1'
p2319
S'increases'
p2320
tp2321
(lp2322
s(S'SMAD3'
p2323
S'CYP26A1'
p2324
S'increases'
p2325
tp2326
(lp2327
s(S'PI-3-4-5-P3'
p2328
S'GELSOLIN'
p2329
S'binds'
p2330
tp2331
(lp2332
s(S'ADP'
p2333
S'P-S724-IRE1 DIMER'
p2334
S'binds'
p2335
tp2336
(lp2337
s(S'testosterone enanthate'
p2338
S'KRAS MRNA'
p2339
S'increases'
p2340
tp2341
(lp2342
s(S'CYP26A1'
p2343
S'ONECUT1'
p2344
S'increases'
p2345
tp2346
(lp2347
s(S'Valproic Acid'
p2348
S'NRAS MRNA'
p2349
S'decreases'
p2350
tp2351
(lp2352
s(S'GTF2A2'
p2353
S'CYP26A1'
p2354
S'increases'
p2355
tp2356
(lp2357
s(S'CEBPA'
p2358
S'FOXO3'
p2359
S'increases'
p2360
tp2361
(lp2362
s(S'GATA3'
p2363
S'POU2F1'
p2364
S'increases'
p2365
tp2366
(lp2367
s(S'PI3K'
p2368
S'RAC1B/GDP'
p2369
S'increases_activity'
p2370
tp2371
(lp2372
s(S'CDC25C'
p2373
S'YWHAB'
p2374
S'binds'
p2375
tp2376
(lp2377
s(S'RAC1/GTP'
p2378
S'PAK1/BETAPIX/PKL/NCK1-2'
p2379
S'increases_activity'
p2380
tp2381
(lp2382
s(S'SMAD1'
p2383
S'CYP26A1'
p2384
S'increases'
p2385
tp2386
(lp2387
s(S'PI3K'
p2388
S'FAK'
p2389
S'adds_modification'
p2390
tp2391
(lp2392
S'Tumstatin peptides exhibit endothelial cell-specific inhibitory effects on cap-dependent translation by negatively regulating activation of focal adhesion kinase (FAK), PI3K, Akt, mTOR and eukaryotic initiation factor 4E binding protein 1 ['
p2393
aS'Furthermore, integrins can also activate the FAK signaling cascade and promote PI3K kinase activity, which is essential to promote cancer invasion ('
p2394
aS'or block kinase signaling initiated by cell-matrix interactions (inhibitors of FAK, Src, PI3K, Akt, etc.).'
p2395
aS'Pathways covered include key signaling axis, EGF receptor family, PI3K, RAS-MAPK, Src/FAK, Rb/cell-cycle, and TGF and multiple DNA repair, cell-cycle, apoptosis, and epigenetic mechanisms that have all previously been implicated in drug resistant mechanisms in cancer.'
p2396
as(S'NRF1'
p2397
S'MAX'
p2398
S'increases'
p2399
tp2400
(lp2401
s(S'FOXI1'
p2402
S'RUNX2'
p2403
S'increases'
p2404
tp2405
(lp2406
s(S'7,8-Dihydro-7,8-dihydroxybenzo(a)pyrene 9,10-oxide'
p2407
S'HRAS MRNA'
p2408
S'increases'
p2409
tp2410
(lp2411
s(S'ETS1'
p2412
S'CBFA2T3'
p2413
S'increases'
p2414
tp2415
(lp2416
s(S'hsa-miR-98-5p'
p2417
S'NRAS'
p2418
S'decreases'
p2419
tp2420
(lp2421
s(S'PHOSPHORYLATED BRF1 (SER92, SER203):MRNA COMPLEX'
p2422
S'YWHAB'
p2423
S'binds'
p2424
tp2425
(lp2426
s(S'LMO2'
p2427
S'CYP26A1'
p2428
S'increases'
p2429
tp2430
(lp2431
s(S'SOS1'
p2432
S'GRB2:PFAK BOUND TO NCAM1:PFYN'
p2433
S'binds'
p2434
tp2435
(lp2436
s(S'GTF3A'
p2437
S'GATA6'
p2438
S'increases'
p2439
tp2440
(lp2441
s(S'ZIC2'
p2442
S'CYP26A1'
p2443
S'increases'
p2444
tp2445
(lp2446
s(S'PAX2'
p2447
S'POU3F2'
p2448
S'increases'
p2449
tp2450
(lp2451
s(S'CEBPD'
p2452
S'FOXO3'
p2453
S'increases'
p2454
tp2455
(lp2456
s(S'NF1'
p2457
S'CYP26A1'
p2458
S'increases'
p2459
tp2460
(lp2461
s(S'BRAF'
p2462
S'MEK2'
p2463
S'adds_modification'
p2464
tp2465
(lp2466
s(S'TFAP4'
p2467
S'RUNX1'
p2468
S'increases'
p2469
tp2470
(lp2471
s(S'FAK'
p2472
S'SOS'
p2473
S'binds'
p2474
tp2475
(lp2476
S'Ca, calcium; Cl, chloride; CTS, cardiotonic steroid; EGFR, epidermal growth factor receptor; EMT, epithelial-mesenchymal transformation; ERK, extracellular signal-regulated kinase; FAK, focal adhesion kinase; Fli-1, friend leukemia integration 1 transcription factor; GFR, glomerular filtration rate; Grb2, growth factor receptor-bound protein-2; MBG, marinobufagenin; Na, sodium; Na/K-ATPase, sodium potassium ATPase; NAC, N-acetyl cysteine; NHE3, sodium-hydrogen exchanger 3; PI(3)K, phosphoinositide 3-kinase; PKC, protein kinase C; PLC, phospholipase C; ROS, reactive oxygen species; SERCA, sarcoplasmic endoplasmic reticulum calcium ATPase; Shc, Src homology-2 domain containing protein; SOS, Son of Sevenless protein; TCB, telecinobufagin; TGF, transforming growth factor.'
p2477
as(S'EGR1'
p2478
S'RUNX1'
p2479
S'increases'
p2480
tp2481
(lp2482
s(S'TCF4'
p2483
S'FOXO4'
p2484
S'increases'
p2485
tp2486
(lp2487
s(S'MAZ'
p2488
S'CBFA2T3'
p2489
S'increases'
p2490
tp2491
(lp2492
s(S'MEIS1'
p2493
S'HRAS'
p2494
S'increases'
p2495
tp2496
(lp2497
s(S'RELA'
p2498
S'CYP26A1'
p2499
S'increases'
p2500
tp2501
(lp2502
s(S'hsa-miR-877-3p'
p2503
S'NRAS'
p2504
S'decreases'
p2505
tp2506
(lp2507
s(S'MYC'
p2508
S'LEF1'
p2509
S'increases'
p2510
tp2511
(lp2512
s(S'FOXO4'
p2513
S'RUNX1'
p2514
S'increases'
p2515
tp2516
(lp2517
s(S'LEF1'
p2518
S'RUNX1'
p2519
S'increases'
p2520
tp2521
(lp2522
s(S'TFDP2'
p2523
S'GATA1'
p2524
S'increases'
p2525
tp2526
(lp2527
s(S'AHR'
p2528
S'CYP26A1'
p2529
S'increases'
p2530
tp2531
(lp2532
s(S'4-Nitroquinoline-1-oxide'
p2533
S'PTGS2 MRNA'
p2534
S'increases'
p2535
tp2536
(lp2537
s(S'TGIF'
p2538
S'FOXO3'
p2539
S'increases'
p2540
tp2541
(lp2542
s(S'FOXF2'
p2543
S'CEBPA'
p2544
S'increases'
p2545
tp2546
(lp2547
s(S'NFE2L1'
p2548
S'POU2F1'
p2549
S'increases'
p2550
tp2551
(lp2552
s(S'LHX3'
p2553
S'CYP26A1'
p2554
S'increases'
p2555
tp2556
(lp2557
s(S'HMGA1'
p2558
S'MEIS1'
p2559
S'increases'
p2560
tp2561
(lp2562
s(S'POU2F1'
p2563
S'CYP26A1'
p2564
S'increases'
p2565
tp2566
(lp2567
s(S'PRRX2'
p2568
S'HOXA9'
p2569
S'increases'
p2570
tp2571
(lp2572
s(S'ETS2'
p2573
S'CEBPG'
p2574
S'increases'
p2575
tp2576
(lp2577
s(S'hsa-miR-193b-3p'
p2578
S'KRAS'
p2579
S'decreases'
p2580
tp2581
(lp2582
s(S'RREB1'
p2583
S'RUNX1'
p2584
S'increases'
p2585
tp2586
(lp2587
s(S'IL2/IL2R BETA/GAMMA/JAK1/FYN/JAK3'
p2588
S'PI3K'
p2589
S'binds'
p2590
tp2591
(lp2592
s(S'ELK1'
p2593
S'MEIS1'
p2594
S'increases'
p2595
tp2596
(lp2597
s(S'CYP26A1'
p2598
S'HOXA9'
p2599
S'increases'
p2600
tp2601
(lp2602
s(S'SPZ1'
p2603
S'HOXA9'
p2604
S'increases'
p2605
tp2606
(lp2607
s(S'ERK1'
p2608
S'P-S218,222-MEK1'
p2609
S'binds'
p2610
tp2611
(lp2612
s(S'NHLH1'
p2613
S'MYC'
p2614
S'increases'
p2615
tp2616
(lp2617
s(S'Daunorubicin'
p2618
S'NRAS MRNA'
p2619
S'increases'
p2620
tp2621
(lp2622
s(S'HNF1A'
p2623
S'FOXA1'
p2624
S'increases'
p2625
tp2626
(lp2627
s(S'MYC'
p2628
S'ONECUT1'
p2629
S'increases'
p2630
tp2631
(lp2632
s(S'Vanadates'
p2633
S'HRAS PROTEIN'
p2634
S'increases'
p2635
tp2636
(lp2637
s(S'Purine nucleotide'
p2638
S'H+'
p2639
S'translocates'
p2640
tp2641
(lp2642
s(S'NFE2'
p2643
S'BACH1'
p2644
S'increases'
p2645
tp2646
(lp2647
s(S'EGR4'
p2648
S'CYP26A1'
p2649
S'increases'
p2650
tp2651
(lp2652
s(S'NRF1'
p2653
S'ONECUT1'
p2654
S'increases'
p2655
tp2656
(lp2657
s(S'GFI1'
p2658
S'HOXA9'
p2659
S'increases'
p2660
tp2661
(lp2662
s(S'NR1H4'
p2663
S'FOXD3'
p2664
S'increases'
p2665
tp2666
(lp2667
s(S'STAT6'
p2668
S'FOXA1'
p2669
S'increases'
p2670
tp2671
(lp2672
s(S'INSULIN RECEPTOR/INSULI/IRS1/GRB2/SHC'
p2673
S'SOS1'
p2674
S'binds'
p2675
tp2676
(lp2677
s(S'Tetrachlorodibenzodioxin'
p2678
S'KRAS MRNA'
p2679
S'increases'
p2680
tp2681
(lp2682
s(S'TCF3'
p2683
S'MYC'
p2684
S'increases'
p2685
tp2686
(lp2687
s(S'BACH1'
p2688
S'EN1'
p2689
S'increases'
p2690
tp2691
(lp2692
s(S'RFX1'
p2693
S'CYP26A1'
p2694
S'increases'
p2695
tp2696
(lp2697
s(S'ZEB1'
p2698
S'FOXD3'
p2699
S'increases'
p2700
tp2701
(lp2702
s(S'IRF7'
p2703
S'EN1'
p2704
S'increases'
p2705
tp2706
(lp2707
s(S'GAB2/GRB2/SOS1'
p2708
S'IL2/IL2R ALPHA/BETA/GAMMA/JAK1/LCK/JAK3/SHC'
p2709
S'binds'
p2710
tp2711
(lp2712
s(S'GATA3'
p2713
S'FOXA1'
p2714
S'increases'
p2715
tp2716
(lp2717
S'Another ER interacting partner, GATA3, was found to be highly mutated in all the studies (10.8% of breast cancers in TCGA study), although GATA3 and FOXA1 mutations were mutually exclusive.'
p2718
as(S'TFAP4'
p2719
S'CYP26A1'
p2720
S'increases'
p2721
tp2722
(lp2723
s(S'FOXF2'
p2724
S'MECOM'
p2725
S'increases'
p2726
tp2727
(lp2728
s(S'NF1'
p2729
S'POU2F1'
p2730
S'increases'
p2731
tp2732
(lp2733
s(S'IRF1'
p2734
S'FOXA1'
p2735
S'increases'
p2736
tp2737
(lp2738
s(S'Rho Family GTPase-active'
p2739
S'PIP5K1A'
p2740
S'increases_activity'
p2741
tp2742
(lp2743
s(S'POU6F1'
p2744
S'EN1'
p2745
S'increases'
p2746
tp2747
(lp2748
s(S'TCF4'
p2749
S'LEF1'
p2750
S'increases'
p2751
tp2752
(lp2753
s(S'MAZ'
p2754
S'FOXO3'
p2755
S'increases'
p2756
tp2757
(lp2758
s(S'POU3F2'
p2759
S'MECOM'
p2760
S'increases'
p2761
tp2762
(lp2763
s(S'GTF3A'
p2764
S'CYP26A1'
p2765
S'increases'
p2766
tp2767
(lp2768
s(S'PI-3-4-5-P3'
p2769
S'AKT2'
p2770
S'adds_modification'
p2771
tp2772
(lp2773
s(S'VSX1'
p2774
S'POU2F1'
p2775
S'increases'
p2776
tp2777
(lp2778
s(S'PHOSPHORYLATED TTP:MRNA COMPLEX'
p2779
S'YWHAB'
p2780
S'binds'
p2781
tp2782
(lp2783
s(S'MEIS1'
p2784
S'MYC'
p2785
S'increases'
p2786
tp2787
(lp2788
s(S'Complex (PDGF receptor A/PDGF receptor B)'
p2789
S'RASGAP'
p2790
S'adds_modification'
p2791
tp2792
(lp2793
s(S'RORA'
p2794
S'CYP26A1'
p2795
S'increases'
p2796
tp2797
(lp2798
s(S'ATF4'
p2799
S'CDC5L'
p2800
S'increases'
p2801
tp2802
(lp2803
s(S'SHC/RasGAP'
p2804
S'RAS FAMILY/GTP'
p2805
S'increases_activity'
p2806
tp2807
(lp2808
s(S'NKX2-1'
p2809
S'MYC'
p2810
S'increases'
p2811
tp2812
(lp2813
s(S'NF1'
p2814
S'SRF'
p2815
S'increases'
p2816
tp2817
(lp2818
s(S'STAT4'
p2819
S'NRAS'
p2820
S'increases'
p2821
tp2822
(lp2823
s(S'POU6F1'
p2824
S'MEIS1'
p2825
S'increases'
p2826
tp2827
(lp2828
s(S'P-KIT COMPLEX'
p2829
S'GRB2:SOS1'
p2830
S'binds'
p2831
tp2832
(lp2833
s(S'MYCN'
p2834
S'MAX'
p2835
S'increases'
p2836
tp2837
(lp2838
S'Early models of transcriptional suppression associated with MYC and MYCN involve an indirect mechanism in which MYC/MAX dimers compete with other bHLH-Zip transcription factors for E-box binding to alter target gene activity.'
p2839
aS'MYCN, as well as c-MYC, can heterodimerize with its partner MAX and activate the transcription of several target genes containing E-Box sites in their promoter regions.'
p2840
as(S'STAT5A'
p2841
S'CYP26A1'
p2842
S'increases'
p2843
tp2844
(lp2845
s(S'GATA3'
p2846
S'EN1'
p2847
S'increases'
p2848
tp2849
(lp2850
s(S'E4F1'
p2851
S'FOXD3'
p2852
S'increases'
p2853
tp2854
(lp2855
s(S'MYB'
p2856
S'ONECUT1'
p2857
S'increases'
p2858
tp2859
(lp2860
s(S'Cadmium Chloride'
p2861
S'NRAS PROTEIN'
p2862
S'increases'
p2863
tp2864
(lp2865
s(S'Deoxycholic Acid'
p2866
S'HRAS PROTEIN'
p2867
S'increases_activity'
p2868
tp2869
(lp2870
s(S'HLF'
p2871
S'CYP26A1'
p2872
S'increases'
p2873
tp2874
(lp2875
s(S'GMCSF/GMR ALPHA/CSF2RB/JAK2 (DIMER)'
p2876
S'YWHAZ'
p2877
S'binds'
p2878
tp2879
(lp2880
s(S'HNF1A'
p2881
S'FOXF2'
p2882
S'increases'
p2883
tp2884
(lp2885
s(S'FOXF2'
p2886
S'GATA6'
p2887
S'increases'
p2888
tp2889
(lp2890
s(S'Arsenic'
p2891
S'GSS PROTEIN'
p2892
S'increases'
p2893
tp2894
(lp2895
s(S'COMPLEX (SOS/GRB2)'
p2896
S'FGFR1-4'
p2897
S'binds'
p2898
tp2899
(lp2900
s(S'MYOD1'
p2901
S'NRAS'
p2902
S'increases'
p2903
tp2904
(lp2905
s(S'MECOM'
p2906
S'CYP26A1'
p2907
S'increases'
p2908
tp2909
(lp2910
s(S'PBX1'
p2911
S'CYP26A1'
p2912
S'increases'
p2913
tp2914
(lp2915
s(S'MAZ'
p2916
S'MEIS1'
p2917
S'increases'
p2918
tp2919
(lp2920
s(S'PAX4'
p2921
S'ELK1'
p2922
S'increases'
p2923
tp2924
(lp2925
s(S'ESRRA'
p2926
S'MECOM'
p2927
S'increases'
p2928
tp2929
(lp2930
s(S'CEBPD'
p2931
S'TLX2'
p2932
S'increases'
p2933
tp2934
(lp2935
s(S'CRX'
p2936
S'FOXA1'
p2937
S'increases'
p2938
tp2939
(lp2940
s(S'GABPB1'
p2941
S'NRAS'
p2942
S'increases'
p2943
tp2944
(lp2945
s(S'CRX'
p2946
S'MEIS1'
p2947
S'increases'
p2948
tp2949
(lp2950
s(S'pirinixic acid/PPARA protein'
p2951
S'KRAS MRNA'
p2952
S'increases'
p2953
tp2954
(lp2955
s(S'BACH2'
p2956
S'FOXA1'
p2957
S'increases'
p2958
tp2959
(lp2960
s(S'JUN'
p2961
S'MECOM'
p2962
S'increases'
p2963
tp2964
(lp2965
s(S'7,8-Dihydro-7,8-dihydroxybenzo(a)pyrene 9,10-oxide'
p2966
S'KRAS MRNA'
p2967
S'decreases'
p2968
tp2969
(lp2970
s(S'SRY'
p2971
S'FOXO4'
p2972
S'increases'
p2973
tp2974
(lp2975
s(S'PI3K'
p2976
S'AKT1'
p2977
S'adds_modification'
p2978
tp2979
(lp2980
S'AKT1 is a downstream regulator of PI3K pathway and is activated by either loss of function of PTEN gene or mutations/amplifications of PIK3CA gene.'
p2981
as(S'GATA3'
p2982
S'CYP26A1'
p2983
S'increases'
p2984
tp2985
(lp2986
s(S'RAS:GTP'
p2987
S'P-EPHBS:EFNBS:RASA1'
p2988
S'binds'
p2989
tp2990
(lp2991
s(S'STAT5A'
p2992
S'MECOM'
p2993
S'increases'
p2994
tp2995
(lp2996
s(S'RAS family/GTP'
p2997
S'RAF1'
p2998
S'increases_activity'
p2999
tp3000
(lp3001
s(S'RHOA/GTP'
p3002
S'PLD1-2'
p3003
S'increases_activity'
p3004
tp3005
(lp3006
s(S'FOXJ2'
p3007
S'CYP26A1'
p3008
S'increases'
p3009
tp3010
(lp3011
s(S'LEF1'
p3012
S'MECOM'
p3013
S'increases'
p3014
tp3015
(lp3016
s(S'GABPB2'
p3017
S'CDC5L'
p3018
S'increases'
p3019
tp3020
(lp3021
s(S'ESRRA'
p3022
S'CYP26A1'
p3023
S'increases'
p3024
tp3025
(lp3026
s(S'PI-3-4-5-P3'
p3027
S'WAVE2/NAP1/SRA1/ABI1/HSPC300'
p3028
S'translocates'
p3029
tp3030
(lp3031
s(S'CUX1'
p3032
S'MECOM'
p3033
S'increases'
p3034
tp3035
(lp3036
s(S'MAX'
p3037
S'CYP26A1'
p3038
S'increases'
p3039
tp3040
(lp3041
s(S'RXRB'
p3042
S'FOXD3'
p3043
S'increases'
p3044
tp3045
(lp3046
s(S'IRF1'
p3047
S'NRAS'
p3048
S'increases'
p3049
tp3050
(lp3051
s(S'MECOM'
p3052
S'MAX'
p3053
S'increases'
p3054
tp3055
(lp3056
s(S'PAX6'
p3057
S'CYP26A1'
p3058
S'increases'
p3059
tp3060
(lp3061
s(S'GRB2/SOS1'
p3062
S'EGFR/EGFR/EGF/EGF/P46 SHC'
p3063
S'binds'
p3064
tp3065
(lp3066
s(S'POU6F1'
p3067
S'POU2F1'
p3068
S'increases'
p3069
tp3070
(lp3071
s(S'RUNX1'
p3072
S'MYOD1'
p3073
S'increases'
p3074
tp3075
(lp3076
s(S'COMPLEX (GRB2/SOS)'
p3077
S'EGFR'
p3078
S'binds'
p3079
tp3080
(lp3081
s(S'MAZ'
p3082
S'MECOM'
p3083
S'increases'
p3084
tp3085
(lp3086
s(S'REPIN1'
p3087
S'EN1'
p3088
S'increases'
p3089
tp3090
(lp3091
s(S'RAS family/GTP'
p3092
S'RAF1'
p3093
S'adds_modification'
p3094
tp3095
(lp3096
s(S'E4F1'
p3097
S'CYP26A1'
p3098
S'increases'
p3099
tp3100
(lp3101
s(S'Rac'
p3102
S'MEKK1-5'
p3103
S'adds_modification'
p3104
tp3105
(lp3106
s(S'HAND1'
p3107
S'CYP26A1'
p3108
S'increases'
p3109
tp3110
(lp3111
s(S'Quercetin'
p3112
S'NRAS PROTEIN'
p3113
S'decreases'
p3114
tp3115
(lp3116
s(S'HRAS:GTP'
p3117
S'CRAF'
p3118
S'binds'
p3119
tp3120
(lp3121
s(S'REPIN1'
p3122
S'FOXA1'
p3123
S'increases'
p3124
tp3125
(lp3126
s(S'hsa-miR-155-5p'
p3127
S'KRAS'
p3128
S'decreases'
p3129
tp3130
(lp3131
s(S'PAX4'
p3132
S'EN1'
p3133
S'increases'
p3134
tp3135
(lp3136
s(S'FOXN1'
p3137
S'JUN'
p3138
S'increases'
p3139
tp3140
(lp3141
s(S'TFCP2'
p3142
S'GATA1'
p3143
S'increases'
p3144
tp3145
(lp3146
s(S'SHC'
p3147
S'GRAP2'
p3148
S'binds'
p3149
tp3150
(lp3151
s(S'CEBPG'
p3152
S'NRAS'
p3153
S'increases'
p3154
tp3155
(lp3156
s(S'FOXN1'
p3157
S'FOXO4'
p3158
S'increases'
p3159
tp3160
(lp3161
s(S'IL2/IL2R ALPHA/BETA/GAMMA/JAK1/LCK/JAK3/IRS1-2'
p3162
S'PI3K'
p3163
S'binds'
p3164
tp3165
(lp3166
s(S'POU1F1'
p3167
S'EN1'
p3168
S'increases'
p3169
tp3170
(lp3171
s(S'FOXJ1'
p3172
S'POU2F1'
p3173
S'increases'
p3174
tp3175
(lp3176
s(S'YY1'
p3177
S'POU2F1'
p3178
S'increases'
p3179
tp3180
(lp3181
s(S'7,8-Dihydro-7,8-dihydroxybenzo(a)pyrene 9,10-oxide'
p3182
S'NRAS MRNA'
p3183
S'increases'
p3184
tp3185
(lp3186
s(S'EGF/EGFR'
p3187
S'HRAS/GDP'
p3188
S'increases_activity'
p3189
tp3190
(lp3191
s(S'TFAP4'
p3192
S'GABPB2'
p3193
S'increases'
p3194
tp3195
(lp3196
s(S'TFAP2A'
p3197
S'POU3F2'
p3198
S'increases'
p3199
tp3200
(lp3201
s(S'TCF12'
p3202
S'CBFA2T3'
p3203
S'increases'
p3204
tp3205
(lp3206
s(S'STAT3'
p3207
S'IRF1'
p3208
S'increases'
p3209
tp3210
(lp3211
s(S'MYOD1'
p3212
S'GATA1'
p3213
S'increases'
p3214
tp3215
(lp3216
s(S'REPIN1'
p3217
S'HRAS'
p3218
S'increases'
p3219
tp3220
(lp3221
s(S'PAX4'
p3222
S'MAX'
p3223
S'increases'
p3224
tp3225
(lp3226
s(S'PAX2'
p3227
S'FOXA1'
p3228
S'increases'
p3229
tp3230
(lp3231
s(S'Lipopolysaccharides'
p3232
S'HRAS PROTEIN'
p3233
S'increases_activity'
p3234
tp3235
(lp3236
s(S'7,8-Dihydro-7,8-dihydroxybenzo(a)pyrene 9,10-oxide'
p3237
S'KRAS MRNA'
p3238
S'increases'
p3239
tp3240
(lp3241
s(S'REPIN1'
p3242
S'GATA1'
p3243
S'increases'
p3244
tp3245
(lp3246
s(S'Formaldehyde'
p3247
S'HRAS MRNA'
p3248
S'increases'
p3249
tp3250
(lp3251
s(S'ESRRA'
p3252
S'STAT5A'
p3253
S'increases'
p3254
tp3255
(lp3256
s(S'farnesylthiosalicylic acid'
p3257
S'HRAS PROTEIN'
p3258
S'decreases'
p3259
tp3260
(lp3261
s(S'JUN'
p3262
S'RUNX1'
p3263
S'increases'
p3264
tp3265
(lp3266
s(S'FOXD3'
p3267
S'RUNX1'
p3268
S'increases'
p3269
tp3270
(lp3271
s(S'SOX9'
p3272
S'CYP26A1'
p3273
S'increases'
p3274
tp3275
(lp3276
s(S'hexabromocyclododecane'
p3277
S'HRAS MRNA'
p3278
S'increases'
p3279
tp3280
(lp3281
s(S'RUNX2'
p3282
S'KRAS'
p3283
S'increases'
p3284
tp3285
(lp3286
g948
as(S'PGR'
p3287
S'CYP26A1'
p3288
S'increases'
p3289
tp3290
(lp3291
s(S'CYP26A1'
p3292
S'MAZ'
p3293
S'increases'
p3294
tp3295
(lp3296
s(S'RAC1/GTP'
p3297
S'AKT1'
p3298
S'adds_modification'
p3299
tp3300
(lp3301
s(S'FOXO3'
p3302
S'CYP26A1'
p3303
S'increases'
p3304
tp3305
(lp3306
s(S'MAX'
p3307
S'SRF'
p3308
S'increases'
p3309
tp3310
(lp3311
s(S'RUNX2'
p3312
S'NRAS'
p3313
S'increases'
p3314
tp3315
(lp3316
s(S'HSF2'
p3317
S'CYP26A1'
p3318
S'increases'
p3319
tp3320
(lp3321
s(S'IL2/IL2R ALPHA/BETA/GAMMA/JAK1/LCK/JAK3/SHC/GRB2/SOS1/GAB2/SHP2'
p3322
S'PI3K'
p3323
S'binds'
p3324
tp3325
(lp3326
s(S'SPI1'
p3327
S'STAT5A'
p3328
S'increases'
p3329
tp3330
(lp3331
s(S'ZHX2'
p3332
S'MYC'
p3333
S'increases'
p3334
tp3335
(lp3336
s(S'RAF1-BRAF'
p3337
S'MEK1-2'
p3338
S'increases_activity'
p3339
tp3340
(lp3341
s(S'SHC'
p3342
S'GRB2'
p3343
S'binds'
p3344
tp3345
(lp3346
s(S'RB1'
p3347
S'GATA1'
p3348
S'increases'
p3349
tp3350
(lp3351
s(S'TCF3'
p3352
S'FOXJ2'
p3353
S'increases'
p3354
tp3355
(lp3356
s(S'FOXJ2'
p3357
S'NRAS'
p3358
S'increases'
p3359
tp3360
(lp3361
s(S'REPIN1'
p3362
S'LEF1'
p3363
S'increases'
p3364
tp3365
(lp3366
s(S'Aflatoxin B1'
p3367
S'HRAS MRNA'
p3368
S'increases'
p3369
tp3370
(lp3371
s(S'PAX4'
p3372
S'MEIS1'
p3373
S'increases'
p3374
tp3375
(lp3376
s(S'FOXF2'
p3377
S'FOXD3'
p3378
S'increases'
p3379
tp3380
(lp3381
s(S'CBFA2T3'
p3382
S'RUNX1'
p3383
S'increases'
p3384
tp3385
(lp3386
s(S'FOXC1'
p3387
S'HOXA9'
p3388
S'increases'
p3389
tp3390
(lp3391
s(S'DBP'
p3392
S'CYP26A1'
p3393
S'increases'
p3394
tp3395
(lp3396
s(S'TGIF'
p3397
S'EN1'
p3398
S'increases'
p3399
tp3400
(lp3401
s(S'PI-3-4-5-P3'
p3402
S'P62DOK'
p3403
S'adds_modification'
p3404
tp3405
(lp3406
s(S'JUN'
p3407
S'TLX2'
p3408
S'increases'
p3409
tp3410
(lp3411
s(S'Benzo(a)pyrene'
p3412
S'HRAS MRNA'
p3413
S'increases'
p3414
tp3415
(lp3416
s(S'STAT4'
p3417
S'CYP26A1'
p3418
S'increases'
p3419
tp3420
(lp3421
s(S'EGFR/EGFR/EGF/EGF'
p3422
S'SRC'
p3423
S'adds_modification'
p3424
tp3425
(lp3426
s(S'FOXQ1'
p3427
S'FOXD3'
p3428
S'increases'
p3429
tp3430
(lp3431
s(S'FOXJ1'
p3432
S'NRAS'
p3433
S'increases'
p3434
tp3435
(lp3436
s(S'TCF3'
p3437
S'POU2F1'
p3438
S'increases'
p3439
tp3440
(lp3441
s(S'MYB'
p3442
S'CYP26A1'
p3443
S'increases'
p3444
tp3445
(lp3446
s(S'GATA4'
p3447
S'CYP26A1'
p3448
S'increases'
p3449
tp3450
(lp3451
s(S'ELK1'
p3452
S'STAT4'
p3453
S'increases'
p3454
tp3455
(lp3456
s(S'CYP26A1'
p3457
S'LEF1'
p3458
S'increases'
p3459
tp3460
(lp3461
s(S"Guanosine-5'-Diphosphate"
p3462
S'HRAS'
p3463
S'increases_activity'
p3464
tp3465
(lp3466
s(S'ETV4'
p3467
S'CYP26A1'
p3468
S'increases'
p3469
tp3470
(lp3471
s(S'EPHRIN B/EPHB2'
p3472
S'RASGAP'
p3473
S'binds'
p3474
tp3475
(lp3476
s(S'ESR1'
p3477
S'FOXF2'
p3478
S'increases'
p3479
tp3480
(lp3481
s(S'CDC5L'
p3482
S'FOXA1'
p3483
S'increases'
p3484
tp3485
(lp3486
s(S'MAZ'
p3487
S'HOXA9'
p3488
S'increases'
p3489
tp3490
(lp3491
s(S'HIF1A'
p3492
S'MAX'
p3493
S'increases'
p3494
tp3495
(lp3496
s(S'FOXN1'
p3497
S'HOXA9'
p3498
S'increases'
p3499
tp3500
(lp3501
s(S'LEF1'
p3502
S'BACH1'
p3503
S'increases'
p3504
tp3505
(lp3506
s(S'PDX1'
p3507
S'FOXO3'
p3508
S'increases'
p3509
tp3510
(lp3511
s(S'CBFA2T3'
p3512
S'CYP26A1'
p3513
S'increases'
p3514
tp3515
(lp3516
s(S'Rabex5'
p3517
S'HRAS/GTP'
p3518
S'adds_modification'
p3519
tp3520
(lp3521
s(S'CBFA2T3'
p3522
S'RUNX2'
p3523
S'increases'
p3524
tp3525
(lp3526
s(S'PI-3-4-5-P3'
p3527
S'ARAP3'
p3528
S'translocates'
p3529
tp3530
(lp3531
s(S'CART1'
p3532
S'CYP26A1'
p3533
S'increases'
p3534
tp3535
(lp3536
s(S'Arsenic'
p3537
S'NRAS MRNA'
p3538
S'increases'
p3539
tp3540
(lp3541
s(S'NRF1'
p3542
S'CDC5L'
p3543
S'increases'
p3544
tp3545
(lp3546
s(S'Quercetin'
p3547
S'HRAS PROTEIN'
p3548
S'decreases'
p3549
tp3550
(lp3551
s(S"N,N'-DIMETHYL-N-(ACETYL)-N'-(7-NITROBENZ-2-OXA-1,3-DIAZOL-4-YL)ETHYLENEDIAMINE"
p3552
S'HRAS'
p3553
S'increases_activity'
p3554
tp3555
(lp3556
s(S'TFDP1'
p3557
S'FOXD3'
p3558
S'increases'
p3559
tp3560
(lp3561
s(S'AR'
p3562
S'TLX2'
p3563
S'increases'
p3564
tp3565
(lp3566
s(S'hsa-miR-181c-5p'
p3567
S'KRAS'
p3568
S'decreases'
p3569
tp3570
(lp3571
s(S'SMAD3'
p3572
S'CBFA2T3'
p3573
S'increases'
p3574
tp3575
(lp3576
s(S'HOXA9'
p3577
S'NRAS'
p3578
S'increases'
p3579
tp3580
(lp3581
s(S'PITX2'
p3582
S'CYP26A1'
p3583
S'increases'
p3584
tp3585
(lp3586
s(S'ATF3'
p3587
S'CYP26A1'
p3588
S'increases'
p3589
tp3590
(lp3591
s(S'E2F1'
p3592
S'MAZ'
p3593
S'increases'
p3594
tp3595
(lp3596
s(S'Ethyl Methanesulfonate'
p3597
S'HRAS MRNA'
p3598
S'increases'
p3599
tp3600
(lp3601
s(S'LMO2'
p3602
S'FOXA1'
p3603
S'increases'
p3604
tp3605
(lp3606
s(S'FOXC1'
p3607
S'POU2F1'
p3608
S'increases'
p3609
tp3610
(lp3611
s(S'DDIT3'
p3612
S'CYP26A1'
p3613
S'increases'
p3614
tp3615
(lp3616
s(S'PAX8'
p3617
S'CYP26A1'
p3618
S'increases'
p3619
tp3620
(lp3621
s(S'LHX3'
p3622
S'EN1'
p3623
S'increases'
p3624
tp3625
(lp3626
s(S'KAT2B'
p3627
S'CYP26A1'
p3628
S'increases'
p3629
tp3630
(lp3631
s(S'P100'
p3632
S'MYB'
p3633
S'binds'
p3634
tp3635
(lp3636
s(S'SOX9'
p3637
S'FOXA1'
p3638
S'increases'
p3639
tp3640
(lp3641
s(S'HIF1A'
p3642
S'EN1'
p3643
S'increases'
p3644
tp3645
(lp3646
s(S'REPIN1'
p3647
S'RUNX1'
p3648
S'increases'
p3649
tp3650
(lp3651
s(S'MYOD1'
p3652
S'BACH1'
p3653
S'increases'
p3654
tp3655
(lp3656
s(S'EBF2'
p3657
S'REPIN1'
p3658
S'increases'
p3659
tp3660
(lp3661
s(S'bisphenol A'
p3662
S'HRAS MRNA'
p3663
S'increases'
p3664
tp3665
(lp3666
s(S'E2F1'
p3667
S'EN1'
p3668
S'increases'
p3669
tp3670
(lp3671
s(S'MYC/Max/MIZ-1'
p3672
S'GALECTIN-1'
p3673
S'decreases'
p3674
tp3675
(lp3676
s(S'PI-3-4-5-P3'
p3677
S'WAVE2/NAP1/SRA1/ABI1/HSPC300'
p3678
S'adds_modification'
p3679
tp3680
(lp3681
s(S'FOXF2'
p3682
S'FOXO3'
p3683
S'increases'
p3684
tp3685
(lp3686
s(S'REPIN1'
p3687
S'STAT5A'
p3688
S'increases'
p3689
tp3690
(lp3691
s(S'RUNX1'
p3692
S'NRAS'
p3693
S'increases'
p3694
tp3695
(lp3696
s(S'benzo(a)pyrene 7,8-dihydrodiol'
p3697
S'HRAS MRNA'
p3698
S'increases'
p3699
tp3700
(lp3701
s(S'RAC1/GTP'
p3702
S'PAK1 (DIMER)'
p3703
S'adds_modification'
p3704
tp3705
(lp3706
s(S'PAX4'
p3707
S'POU2F1'
p3708
S'increases'
p3709
tp3710
(lp3711
s(S'MYOD1'
p3712
S'CBFA2T3'
p3713
S'increases'
p3714
tp3715
(lp3716
s(S'STAT5A'
p3717
S'RUNX2'
p3718
S'increases'
p3719
tp3720
(lp3721
s(S'EBF2'
p3722
S'FOXJ2'
p3723
S'increases'
p3724
tp3725
(lp3726
s(S'Estradiol'
p3727
S'KRAS MRNA'
p3728
S'increases'
p3729
tp3730
(lp3731
s(S'RXRB'
p3732
S'CYP26A1'
p3733
S'increases'
p3734
tp3735
(lp3736
s(S'bisphenol A'
p3737
S'KRAS MRNA'
p3738
S'decreases'
p3739
tp3740
(lp3741
s(S'COMPLEX (GRB2/SOS)'
p3742
S'FGFR1-4'
p3743
S'binds'
p3744
tp3745
(lp3746
s(S'POU2F1'
p3747
S'RUNX1'
p3748
S'increases'
p3749
tp3750
(lp3751
s(S'TCF3'
p3752
S'TLX2'
p3753
S'increases'
p3754
tp3755
(lp3756
s(S'SPZ1'
p3757
S'POU2F1'
p3758
S'increases'
p3759
tp3760
(lp3761
s(S'TFAP4'
p3762
S'FOXO4'
p3763
S'increases'
p3764
tp3765
(lp3766
s(S'OR5I1'
p3767
S'MECOM'
p3768
S'increases'
p3769
tp3770
(lp3771
s(S'Rho Family GTPase-active'
p3772
S'JNK1'
p3773
S'adds_modification'
p3774
tp3775
(lp3776
s(S'TFDP1'
p3777
S'POU2F1'
p3778
S'increases'
p3779
tp3780
(lp3781
s(S'AHR'
p3782
S'MAX'
p3783
S'increases'
p3784
tp3785
(lp3786
S'MYCMAX_03 (EBOX) and AHRARNT_02 (AHRR) commonly occurred together and this was attributed to the similarity of their matrices.'
p3787
as(S'BACH1'
p3788
S'CYP26A1'
p3789
S'increases'
p3790
tp3791
(lp3792
s(S'ZBTB14'
p3793
S'MAZ'
p3794
S'increases'
p3795
tp3796
(lp3797
s(S'TCF3'
p3798
S'FOXO4'
p3799
S'increases'
p3800
tp3801
(lp3802
s(S'MASTERMIND'
p3803
S'NICS'
p3804
S'binds'
p3805
tp3806
(lp3807
s(S'BPTF'
p3808
S'FOXO4'
p3809
S'increases'
p3810
tp3811
(lp3812
s(S'MYOD1'
p3813
S'RUNX1'
p3814
S'increases'
p3815
tp3816
(lp3817
s(S'JUN'
p3818
S'CYP26A1'
p3819
S'increases'
p3820
tp3821
(lp3822
s(S'BPTF'
p3823
S'CYP26A1'
p3824
S'increases'
p3825
tp3826
(lp3827
s(S'POU3F1'
p3828
S'CYP26A1'
p3829
S'increases'
p3830
tp3831
(lp3832
s(S'NRF1'
p3833
S'CYP26A1'
p3834
S'increases'
p3835
tp3836
(lp3837
s(S'TFAP2C'
p3838
S'POU3F2'
p3839
S'increases'
p3840
tp3841
(lp3842
s(S'NFAT1-C-4-INACTIVE2'
p3843
S'YWHAQ'
p3844
S'binds'
p3845
tp3846
(lp3847
s(S'STAT6'
p3848
S'ONECUT1'
p3849
S'increases'
p3850
tp3851
(lp3852
s(S'RUNX1'
p3853
S'RUNX2'
p3854
S'increases'
p3855
tp3856
(lp3857
s(S'ZIC3'
p3858
S'MYCN'
p3859
S'increases'
p3860
tp3861
(lp3862
s(S'CYP26A1'
p3863
S'MAX'
p3864
S'increases'
p3865
tp3866
(lp3867
s(S'ETS2'
p3868
S'FOXO4'
p3869
S'increases'
p3870
tp3871
(lp3872
s(S'GATA6'
p3873
S'FOXA1'
p3874
S'increases'
p3875
tp3876
(lp3877
s(S'Doxorubicin'
p3878
S'HRAS MRNA'
p3879
S'increases'
p3880
tp3881
(lp3882
s(S'PPARA'
p3883
S'HOXA9'
p3884
S'increases'
p3885
tp3886
(lp3887
s(S'REPIN1'
p3888
S'GABPB2'
p3889
S'increases'
p3890
tp3891
(lp3892
s(S'FOXN1'
p3893
S'FOXA1'
p3894
S'increases'
p3895
tp3896
(lp3897
s(S'Dronabinol'
p3898
S'KRAS MRNA'
p3899
S'increases'
p3900
tp3901
(lp3902
s(S'FOXO1'
p3903
S'RUNX1'
p3904
S'increases'
p3905
tp3906
(lp3907
s(S'SMAD4'
p3908
S'HOXA9'
p3909
S'increases'
p3910
tp3911
(lp3912
s(S'PAX4'
p3913
S'JUN'
p3914
S'increases'
p3915
tp3916
(lp3917
s(S'Raf-1'
p3918
S'MEK'
p3919
S'adds_modification'
p3920
tp3921
(lp3922
g679
as(S'PIM1'
p3923
S'MYC/MAX'
p3924
S'binds'
p3925
tp3926
(lp3927
s(S'YY1'
p3928
S'MECOM'
p3929
S'increases'
p3930
tp3931
(lp3932
s(S'NRF1'
p3933
S'MAZ'
p3934
S'increases'
p3935
tp3936
(lp3937
s(S'GATA1'
p3938
S'MECOM'
p3939
S'increases'
p3940
tp3941
(lp3942
s(S'PDGF/PDGFRA'
p3943
S'SHC/GRB2/SOS1'
p3944
S'increases_activity'
p3945
tp3946
(lp3947
s(S'GRB2/SOS1'
p3948
S'FAK'
p3949
S'binds'
p3950
tp3951
(lp3952
s(S'HNF4A'
p3953
S'HOXA9'
p3954
S'increases'
p3955
tp3956
(lp3957
s(S'FOXA2'
p3958
S'CYP26A1'
p3959
S'increases'
p3960
tp3961
(lp3962
s(S'FOXI1'
p3963
S'CYP26A1'
p3964
S'increases'
p3965
tp3966
(lp3967
s(S'GRB2 BOUND TO TIE2'
p3968
S'SOS1'
p3969
S'binds'
p3970
tp3971
(lp3972
s(S'PHOSPHORYLATED BRF1 (SER54, SER92, SER203):MRNA COMPLEX'
p3973
S'YWHAB'
p3974
S'binds'
p3975
tp3976
(lp3977
s(S'COMPLEX (GRB2/SOS)'
p3978
S'GAB'
p3979
S'binds'
p3980
tp3981
(lp3982
s(S'NFE2'
p3983
S'TLX2'
p3984
S'increases'
p3985
tp3986
(lp3987
s(S'MAX'
p3988
S'FOXF2'
p3989
S'increases'
p3990
tp3991
(lp3992
s(S'GRB2:SOS1'
p3993
S'ACTIVATED FGFR:P-FRS2'
p3994
S'binds'
p3995
tp3996
(lp3997
s(S'FOXO4'
p3998
S'MECOM'
p3999
S'increases'
p4000
tp4001
(lp4002
s(S'TCF3'
p4003
S'LEF1'
p4004
S'increases'
p4005
tp4006
(lp4007
s(S'ZIC1'
p4008
S'LEF1'
p4009
S'increases'
p4010
tp4011
(lp4012
s(S'NFIL3'
p4013
S'CYP26A1'
p4014
S'increases'
p4015
tp4016
(lp4017
s(S'RAF1'
p4018
S'MEK1'
p4019
S'increases_activity'
p4020
tp4021
(lp4022
s(S'AR'
p4023
S'FOXA1'
p4024
S'increases'
p4025
tp4026
(lp4027
S'Over the past few years, progress has been made in our understanding of how FOXA1 influences nuclear receptor function, with both common and distinct roles in the regulation of ER or AR.'
p4028
aS'Furthermore, there is evidence of somatic changes that influence the DNA sequence under FOXA1 binding regions, which may indirectly influence FOXA1-mediated regulation of ER and AR activity.'
p4029
aS'If AR driven prostate cancers readily acquire ligand independence, elevated FOXA1-AR activity would be an advantage to the tumor, supporting the observation that high FOXA1 is a marker of poor patient outcome.'
p4030
aS'It will be critical to determine the key ER and AR target gene changes at high and low FOXA1 levels and any differences in the associated AR/ER protein complexes.'
p4031
as(S'POU2F1'
p4032
S'POU3F2'
p4033
S'increases'
p4034
tp4035
(lp4036
s(S'PCBP1'
p4037
S'MAZ'
p4038
S'increases'
p4039
tp4040
(lp4041
s(S'LEF1'
p4042
S'HOXA9'
p4043
S'increases'
p4044
tp4045
(lp4046
s(S'NR6A1'
p4047
S'CYP26A1'
p4048
S'increases'
p4049
tp4050
(lp4051
s(S'PI3K'
p4052
S'BTK'
p4053
S'translocates'
p4054
tp4055
(lp4056
s(S'AHR'
p4057
S'RUNX1'
p4058
S'increases'
p4059
tp4060
(lp4061
s(S'NR1H4'
p4062
S'CYP26A1'
p4063
S'increases'
p4064
tp4065
(lp4066
s(S'NR2F2'
p4067
S'CYP26A1'
p4068
S'increases'
p4069
tp4070
(lp4071
s(S'GNB1/GNG2'
p4072
S'PI3K'
p4073
S'binds'
p4074
tp4075
(lp4076
s(S'RHOA/GTP'
p4077
S'PKN2'
p4078
S'increases_activity'
p4079
tp4080
(lp4081
s(S'MAZ'
p4082
S'LEF1'
p4083
S'increases'
p4084
tp4085
(lp4086
s(S'RFX1'
p4087
S'MECOM'
p4088
S'increases'
p4089
tp4090
(lp4091
s(S'RUNX1'
p4092
S'HOXA9'
p4093
S'increases'
p4094
tp4095
(lp4096
s(S'FOXL1'
p4097
S'POU2F1'
p4098
S'increases'
p4099
tp4100
(lp4101
s(S'GRB2:SOS1'
p4102
S'PHOSPHORYLATED ERBB2:EGFR HETERODIMERS'
p4103
S'binds'
p4104
tp4105
(lp4106
s(S'TFAP4'
p4107
S'MYCN'
p4108
S'increases'
p4109
tp4110
(lp4111
s(S'E2F1'
p4112
S'GATA1'
p4113
S'increases'
p4114
tp4115
(lp4116
s(S'PTF1A'
p4117
S'GATA6'
p4118
S'increases'
p4119
tp4120
(lp4121
s(S'REL'
p4122
S'CYP26A1'
p4123
S'increases'
p4124
tp4125
(lp4126
s(S'MTF1'
p4127
S'JUN'
p4128
S'increases'
p4129
tp4130
(lp4131
s(S'ZEB1'
p4132
S'REPIN1'
p4133
S'increases'
p4134
tp4135
(lp4136
s(S'IRF8'
p4137
S'GATA6'
p4138
S'increases'
p4139
tp4140
(lp4141
s(S'P-Y349,350-SHC1:PHOSPHORYLATED ERBB2 HETERODIMERS'
p4142
S'GRB2:SOS1'
p4143
S'binds'
p4144
tp4145
(lp4146
s(S'BACH2'
p4147
S'EN1'
p4148
S'increases'
p4149
tp4150
(lp4151
s(S'GFI1'
p4152
S'MEIS1'
p4153
S'increases'
p4154
tp4155
(lp4156
s(S'FOXN1'
p4157
S'LEF1'
p4158
S'increases'
p4159
tp4160
(lp4161
s(S'CYP26A1'
p4162
S'JUN'
p4163
S'increases'
p4164
tp4165
(lp4166
s(S'TCF3'
p4167
S'ONECUT1'
p4168
S'increases'
p4169
tp4170
(lp4171
s(S'FOXF2'
p4172
S'POU2F1'
p4173
S'increases'
p4174
tp4175
(lp4176
s(S'MAZ'
p4177
S'MAX'
p4178
S'increases'
p4179
tp4180
(lp4181
s(S'FOXN1'
p4182
S'CYP26A1'
p4183
S'increases'
p4184
tp4185
(lp4186
s(S'HNF1A'
p4187
S'FOXD3'
p4188
S'increases'
p4189
tp4190
(lp4191
s(S'EGR2'
p4192
S'RUNX1'
p4193
S'increases'
p4194
tp4195
(lp4196
s(S'MYC'
p4197
S'RUNX2'
p4198
S'increases'
p4199
tp4200
(lp4201
s(S'TFAP2A'
p4202
S'IRF1'
p4203
S'increases'
p4204
tp4205
(lp4206
s(S'FOXO4'
p4207
S'YY1'
p4208
S'increases'
p4209
tp4210
(lp4211
s(S'VEGFR2 (dimer)/VEGFA (dimer)'
p4212
S'SRC'
p4213
S'adds_modification'
p4214
tp4215
(lp4216
s(S'resveratrol'
p4217
S'KRAS MRNA'
p4218
S'decreases'
p4219
tp4220
(lp4221
s(S'FOXO4'
p4222
S'CYP26A1'
p4223
S'increases'
p4224
tp4225
(lp4226
s(S'STAT3'
p4227
S'FOXO4'
p4228
S'increases'
p4229
tp4230
(lp4231
s(S'GRB2/SOS1'
p4232
S'FRS2 FAMILY/SHP2'
p4233
S'binds'
p4234
tp4235
(lp4236
s(S'LEF1'
p4237
S'CYP26A1'
p4238
S'increases'
p4239
tp4240
(lp4241
s(S'GTF2A2'
p4242
S'SRF'
p4243
S'increases'
p4244
tp4245
(lp4246
s(S'PPARA'
p4247
S'STAT5A'
p4248
S'increases'
p4249
tp4250
(lp4251
s(S'hsa-miR-143-3p'
p4252
S'KRAS'
p4253
S'decreases'
p4254
tp4255
(lp4256
s(S'GFI1'
p4257
S'CYP26A1'
p4258
S'increases'
p4259
tp4260
(lp4261
s(S'RAC1/GTP'
p4262
S'MKK4-MKK7'
p4263
S'increases_activity'
p4264
tp4265
(lp4266
s(S'REPIN1'
p4267
S'ETS1'
p4268
S'increases'
p4269
tp4270
(lp4271
s(S'ZIC1'
p4272
S'GATA6'
p4273
S'increases'
p4274
tp4275
(lp4276
s(S'INTERLEUKIN RECEPTOR COMPLEXES WITH ACTIVATED SHC1'
p4277
S'GRB2:SOS1'
p4278
S'binds'
p4279
tp4280
(lp4281
s(S'Selenium'
p4282
S'HRAS MRNA'
p4283
S'increases'
p4284
tp4285
(lp4286
s(S'HOXA4'
p4287
S'CYP26A1'
p4288
S'increases'
p4289
tp4290
(lp4291
s(S'NKX2-1'
p4292
S'POU2F1'
p4293
S'increases'
p4294
tp4295
(lp4296
s(S'VSX1'
p4297
S'MAX'
p4298
S'increases'
p4299
tp4300
(lp4301
s(S'FOXD1'
p4302
S'FOXD3'
p4303
S'increases'
p4304
tp4305
(lp4306
s(S'MAX'
p4307
S'NRAS'
p4308
S'increases'
p4309
tp4310
(lp4311
s(S'HOXA9'
p4312
S'TCF3'
p4313
S'increases'
p4314
tp4315
(lp4316
s(S'IRF1'
p4317
S'CYP26A1'
p4318
S'increases'
p4319
tp4320
(lp4321
s(S'HRAS'
p4322
S'RAF1'
p4323
S'adds_modification'
p4324
tp4325
(lp4326
S'Whilst most prior sources are able to obtain significant results for HRAS, MAP2K1, MAPK1, and RAF1, significant results for half the prior sources for CDK5 and MAPK3 they struggle to provide meaningful information for inference of gene interactions in the context of colorectal cancer with the remaining two knock-downs (MAP2K2 and NGFR).'
p4327
aS'For the remaining four knock-downs, the best prior source is consistent for two out of the three data sets: PN for CDK5, MAP2K2, and RAF1 and GM2 for HRAS.'
p4328
as(S'CUX1'
p4329
S'HOXA9'
p4330
S'increases'
p4331
tp4332
(lp4333
s(S'ZHX2'
p4334
S'FOXA1'
p4335
S'increases'
p4336
tp4337
(lp4338
s(S'TFDP1'
p4339
S'MYC'
p4340
S'increases'
p4341
tp4342
(lp4343
s(S'RAC1/GTP'
p4344
S'PAK1'
p4345
S'increases_activity'
p4346
tp4347
(lp4348
s(S'AHR'
p4349
S'MAZ'
p4350
S'increases'
p4351
tp4352
(lp4353
s(S'BRAF/14-3-3'
p4354
S'KSR/14-3-3 /MEK1-2'
p4355
S'increases_activity'
p4356
tp4357
(lp4358
s(S'PPARA'
p4359
S'CYP26A1'
p4360
S'increases'
p4361
tp4362
(lp4363
s(S'REPIN1'
p4364
S'SRF'
p4365
S'increases'
p4366
tp4367
(lp4368
s(S'PAX5'
p4369
S'SRF'
p4370
S'increases'
p4371
tp4372
(lp4373
s(S'PAX4'
p4374
S'FOXJ2'
p4375
S'increases'
p4376
tp4377
(lp4378
s(S'REPIN1'
p4379
S'MYCN'
p4380
S'increases'
p4381
tp4382
(lp4383
s(S'RALA/GTP'
p4384
S'SRC'
p4385
S'adds_modification'
p4386
tp4387
(lp4388
s(S'FOXO4'
p4389
S'ETS1'
p4390
S'increases'
p4391
tp4392
(lp4393
s(S'TFDP1'
p4394
S'CDC5L'
p4395
S'increases'
p4396
tp4397
(lp4398
s(S'TFDP1'
p4399
S'CYP26A1'
p4400
S'increases'
p4401
tp4402
(lp4403
s(S'GATA6'
p4404
S'RUNX2'
p4405
S'increases'
p4406
tp4407
(lp4408
s(S'FOXM1'
p4409
S'CYP26A1'
p4410
S'increases'
p4411
tp4412
(lp4413
s(S'sodium arsenite'
p4414
S'HRAS PROTEIN'
p4415
S'increases'
p4416
tp4417
(lp4418
s(S'STAT5A'
p4419
S'RUNX1'
p4420
S'increases'
p4421
tp4422
(lp4423
s(S'CEBPA'
p4424
S'EN1'
p4425
S'increases'
p4426
tp4427
(lp4428
s(S'MSX1'
p4429
S'POU2F1'
p4430
S'increases'
p4431
tp4432
(lp4433
s(S'NHLH1'
p4434
S'CBFA2T3'
p4435
S'increases'
p4436
tp4437
(lp4438
s(S'Parathion'
p4439
S'HRAS PROTEIN'
p4440
S'increases'
p4441
tp4442
(lp4443
s(S'SMAD4'
p4444
S'CYP26A1'
p4445
S'increases'
p4446
tp4447
(lp4448
s(S'E2F1'
p4449
S'MYC'
p4450
S'increases'
p4451
tp4452
(lp4453
s(S'CYP26A1'
p4454
S'FOXO3'
p4455
S'increases'
p4456
tp4457
(lp4458
s(S'TCF3'
p4459
S'CBFA2T3'
p4460
S'increases'
p4461
tp4462
(lp4463
s(S'ZHX2'
p4464
S'FOXF2'
p4465
S'increases'
p4466
tp4467
(lp4468
s(S'POU2F1'
p4469
S'MECOM'
p4470
S'increases'
p4471
tp4472
(lp4473
s(S'CYP26A1'
p4474
S'POU2F1'
p4475
S'increases'
p4476
tp4477
(lp4478
s(S'MYOD1'
p4479
S'CYP26A1'
p4480
S'increases'
p4481
tp4482
(lp4483
s(S'RAF'
p4484
S'COMPLEX (RAS/GTP)'
p4485
S'binds'
p4486
tp4487
(lp4488
s(S'RET51/GFRalpha1/GDNF/DOK1'
p4489
S'HRAS/GDP'
p4490
S'increases_activity'
p4491
tp4492
(lp4493
s(S'MAFG'
p4494
S'CYP26A1'
p4495
S'increases'
p4496
tp4497
(lp4498
s(S'CRX'
p4499
S'CYP26A1'
p4500
S'increases'
p4501
tp4502
(lp4503
s(S'hsa-miR-126-3p'
p4504
S'KRAS'
p4505
S'decreases'
p4506
tp4507
(lp4508
s(S'EBF2'
p4509
S'CYP26A1'
p4510
S'increases'
p4511
tp4512
(lp4513
s(S'RUNX1'
p4514
S'CYP26A1'
p4515
S'increases'
p4516
tp4517
(lp4518
s(S'HOXA5'
p4519
S'FOXA1'
p4520
S'increases'
p4521
tp4522
(lp4523
s(S'benzo(a)pyrene-3,6-quinone'
p4524
S'HRAS MRNA'
p4525
S'increases'
p4526
tp4527
(lp4528
s(S'K 7174'
p4529
S'HRAS MRNA'
p4530
S'decreases'
p4531
tp4532
(lp4533
s(S'LEF1'
p4534
S'NRAS'
p4535
S'increases'
p4536
tp4537
(lp4538
s(S'SPI1'
p4539
S'FOXA1'
p4540
S'increases'
p4541
tp4542
(lp4543
s(S'hsa-let-7b-5p'
p4544
S'NRAS'
p4545
S'decreases'
p4546
tp4547
(lp4548
s(S'CEBPA'
p4549
S'JUN'
p4550
S'increases'
p4551
tp4552
(lp4553
s(S'GABPB2'
p4554
S'CYP26A1'
p4555
S'increases'
p4556
tp4557
(lp4558
s(S'PI-3-4-5-P3'
p4559
S'MTOR'
p4560
S'increases_activity'
p4561
tp4562
(lp4563
s(S'GRB2:SOS1'
p4564
S'EGF:P-6Y-EGFR'
p4565
S'binds'
p4566
tp4567
(lp4568
s(S'HNF1A'
p4569
S'CYP26A1'
p4570
S'increases'
p4571
tp4572
(lp4573
s(S'HIF1A'
p4574
S'FOXO4'
p4575
S'increases'
p4576
tp4577
(lp4578
s(S'FOXJ1'
p4579
S'HOXA9'
p4580
S'increases'
p4581
tp4582
(lp4583
s(S'hsa-miR-96-5p'
p4584
S'KRAS'
p4585
S'decreases'
p4586
tp4587
(lp4588
s(S'SRC'
p4589
S'SYNDECAN-2/RASGAP'
p4590
S'binds'
p4591
tp4592
(lp4593
s(S'FOXA1'
p4594
S'MEIS1'
p4595
S'increases'
p4596
tp4597
(lp4598
s(S'LEF1'
p4599
S'MEIS1'
p4600
S'increases'
p4601
tp4602
(lp4603
s(S'PAX3'
p4604
S'CYP26A1'
p4605
S'increases'
p4606
tp4607
(lp4608
s(S'PAX4'
p4609
S'HOXA9'
p4610
S'increases'
p4611
tp4612
(lp4613
s(S'hsa-miR-18a-3p'
p4614
S'KRAS'
p4615
S'decreases'
p4616
tp4617
(lp4618
s(S'FOXF2'
p4619
S'EN1'
p4620
S'increases'
p4621
tp4622
(lp4623
s(S'Pyk2'
p4624
S'SRC FAMILY KINASES'
p4625
S'increases_activity'
p4626
tp4627
(lp4628
s(S'TP53'
p4629
S'HOXA9'
p4630
S'increases'
p4631
tp4632
(lp4633
s(S'Genistein'
p4634
S'KRAS MRNA'
p4635
S'decreases'
p4636
tp4637
(lp4638
s(S'POU1F1'
p4639
S'CYP26A1'
p4640
S'increases'
p4641
tp4642
(lp4643
s(S'manumycin'
p4644
S'KRAS PROTEIN'
p4645
S'decreases_activity'
p4646
tp4647
(lp4648
s(S'Ginkgo biloba extract 761'
p4649
S'GCLC PROTEIN'
p4650
S'increases'
p4651
tp4652
(lp4653
s(S'GATA1'
p4654
S'NRAS'
p4655
S'increases'
p4656
tp4657
(lp4658
s(S'CBFA2T3'
p4659
S'FOXF2'
p4660
S'increases'
p4661
tp4662
(lp4663
s(S'PCBP1'
p4664
S'ELK1'
p4665
S'increases'
p4666
tp4667
(lp4668
s(S'MYC'
p4669
S'FOXF2'
p4670
S'increases'
p4671
tp4672
(lp4673
s(S'hsa-mir-622'
p4674
S'KRAS'
p4675
S'decreases'
p4676
tp4677
(lp4678
s(S'TCF3'
p4679
S'MAZ'
p4680
S'increases'
p4681
tp4682
(lp4683
s(S'STAT2'
p4684
S'MEIS1'
p4685
S'increases'
p4686
tp4687
(lp4688
s(S'CYP26A1'
p4689
S'YY1'
p4690
S'increases'
p4691
tp4692
(lp4693
s(S'CYP26A1'
p4694
S'EN1'
p4695
S'increases'
p4696
tp4697
(lp4698
s(S'GRB2/SOS1'
p4699
S'SHC'
p4700
S'binds'
p4701
tp4702
(lp4703
s(S'BAD'
p4704
S'YWHAZ'
p4705
S'binds'
p4706
tp4707
(lp4708
s(S'SPI1'
p4709
S'MAX'
p4710
S'increases'
p4711
tp4712
(lp4713
s(S'PI-3-4-5-P3'
p4714
S'CENTA1'
p4715
S'translocates'
p4716
tp4717
(lp4718
s(S'XBP1'
p4719
S'CYP26A1'
p4720
S'increases'
p4721
tp4722
(lp4723
s(S'PAX4'
p4724
S'NRAS'
p4725
S'increases'
p4726
tp4727
(lp4728
s(S'PI3K'
p4729
S'EPHRIN A1/EPHA2'
p4730
S'binds'
p4731
tp4732
(lp4733
s(S'POU1F1'
p4734
S'MEIS1'
p4735
S'increases'
p4736
tp4737
(lp4738
s(S'NR3C1'
p4739
S'ETS1'
p4740
S'increases'
p4741
tp4742
(lp4743
s(S'MAZ'
p4744
S'POU3F2'
p4745
S'increases'
p4746
tp4747
(lp4748
s(S'Estradiol'
p4749
S'HRAS MRNA'
p4750
S'increases'
p4751
tp4752
(lp4753
s(S'Aflatoxin B1'
p4754
S'HRAS PROTEIN'
p4755
S'increases'
p4756
tp4757
(lp4758
s(S'ETV7'
p4759
S'STAT4'
p4760
S'increases'
p4761
tp4762
(lp4763
s(S'PBX1'
p4764
S'LEF1'
p4765
S'increases'
p4766
tp4767
(lp4768
s(S'CEBPB'
p4769
S'CYP26A1'
p4770
S'increases'
p4771
tp4772
(lp4773
s(S'MAZ'
p4774
S'JUN'
p4775
S'increases'
p4776
tp4777
(lp4778
s(S'FOXF2'
p4779
S'MYC'
p4780
S'increases'
p4781
tp4782
(lp4783
s(S'FOXJ2'
p4784
S'HOXA9'
p4785
S'increases'
p4786
tp4787
(lp4788
s(S'Capsaicin'
p4789
S'HRAS MRNA'
p4790
S'increases'
p4791
tp4792
(lp4793
s(S'POU3F1'
p4794
S'GATA6'
p4795
S'increases'
p4796
tp4797
(lp4798
s(S'EIF2A'
p4799
S'14-3-3 E'
p4800
S'binds'
p4801
tp4802
(lp4803
s(S'RAS family/GTP'
p4804
S'RAF1-BRAF'
p4805
S'increases_activity'
p4806
tp4807
(lp4808
s(S'GATA6'
p4809
S'GATA1'
p4810
S'increases'
p4811
tp4812
(lp4813
s(S'RASA1'
p4814
S'PHOSPHO PDGF BETA RECEPTOR: PDGF CHAIN B HOMODIMER'
p4815
S'binds'
p4816
tp4817
(lp4818
s(S'CART1'
p4819
S'POU2F1'
p4820
S'increases'
p4821
tp4822
(lp4823
s(S'ZIC3'
p4824
S'POU2F1'
p4825
S'increases'
p4826
tp4827
(lp4828
s(S'TCF4'
p4829
S'FOXA1'
p4830
S'increases'
p4831
tp4832
(lp4833
s(S'PKC theta'
p4834
S'RASGRP1'
p4835
S'adds_modification'
p4836
tp4837
(lp4838
s(S'PTF1A'
p4839
S'STAT5A'
p4840
S'increases'
p4841
tp4842
(lp4843
s(S'SPI1'
p4844
S'FOXO4'
p4845
S'increases'
p4846
tp4847
(lp4848
s(S'HNF1A'
p4849
S'GATA6'
p4850
S'increases'
p4851
tp4852
(lp4853
s(S'FOXJ1'
p4854
S'RUNX1'
p4855
S'increases'
p4856
tp4857
(lp4858
s(S'STAT2'
p4859
S'GATA6'
p4860
S'increases'
p4861
tp4862
(lp4863
s(S'RAS FAMILY/GTP'
p4864
S'PI3K'
p4865
S'binds'
p4866
tp4867
(lp4868
s(S'PAX4'
p4869
S'IRF1'
p4870
S'increases'
p4871
tp4872
(lp4873
s(S'PAX3'
p4874
S'HOXA9'
p4875
S'increases'
p4876
tp4877
(lp4878
s(S'MYB'
p4879
S'MAZ'
p4880
S'increases'
p4881
tp4882
(lp4883
s(S"Guanosine-5'-Triphosphate"
p4884
S'HRAS'
p4885
S'increases_activity'
p4886
tp4887
(lp4888
s(S'alpha9/beta1 Integrin/Tenascin C'
p4889
S'SRC'
p4890
S'adds_modification'
p4891
tp4892
(lp4893
s(S'RAF1'
p4894
S'MEK1'
p4895
S'adds_modification'
p4896
tp4897
(lp4898
s(S'JUN'
p4899
S'FOXA1'
p4900
S'increases'
p4901
tp4902
(lp4903
s(S'NFE2L2'
p4904
S'BACH1'
p4905
S'increases'
p4906
tp4907
(lp4908
s(S'CUX1'
p4909
S'FOXD3'
p4910
S'increases'
p4911
tp4912
(lp4913
s(S'JUN'
p4914
S'EN1'
p4915
S'increases'
p4916
tp4917
(lp4918
s(S'ESR1'
p4919
S'CYP26A1'
p4920
S'increases'
p4921
tp4922
(lp4923
s(S'ESRRA'
p4924
S'FOXA1'
p4925
S'increases'
p4926
tp4927
(lp4928
s(S'POU2F1'
p4929
S'MEIS1'
p4930
S'increases'
p4931
tp4932
(lp4933
s(S'TFCP2'
p4934
S'FOXA1'
p4935
S'increases'
p4936
tp4937
(lp4938
s(S'PI-3-4-5-P3'
p4939
S'PDK1'
p4940
S'increases_activity'
p4941
tp4942
(lp4943
s(S'TCF3'
p4944
S'FOXA1'
p4945
S'increases'
p4946
tp4947
(lp4948
s(S'STAT3'
p4949
S'CYP26A1'
p4950
S'increases'
p4951
tp4952
(lp4953
s(S'CYP26A1'
p4954
S'POU3F2'
p4955
S'increases'
p4956
tp4957
(lp4958
s(S'Curcumin'
p4959
S'KRAS MRNA'
p4960
S'decreases'
p4961
tp4962
(lp4963
s(S'STAT1'
p4964
S'CYP26A1'
p4965
S'increases'
p4966
tp4967
(lp4968
s(S'GFI1'
p4969
S'POU2F1'
p4970
S'increases'
p4971
tp4972
(lp4973
s(S'ZIC1'
p4974
S'POU2F1'
p4975
S'increases'
p4976
tp4977
(lp4978
s(S'PI-3-4-5-P3'
p4979
S'AKT3'
p4980
S'adds_modification'
p4981
tp4982
(lp4983
s(S'BACH1'
p4984
S'NRAS'
p4985
S'increases'
p4986
tp4987
(lp4988
s(S'SCF/KIT'
p4989
S'SHC/GRB2/SOS1'
p4990
S'increases_activity'
p4991
tp4992
(lp4993
s(S'CDX2'
p4994
S'CYP26A1'
p4995
S'increases'
p4996
tp4997
(lp4998
s(S'RET51/GFRalpha1/GDNF/DOK/RasGAP/NCK'
p4999
S'HRAS/GDP'
p5000
S'decreases_activity'
p5001
tp5002
(lp5003
s(S'BETAPIX'
p5004
S'RAC1/GTP'
p5005
S'binds'
p5006
tp5007
(lp5008
s(S'RHOA/GTP'
p5009
S'CITRON'
p5010
S'increases_activity'
p5011
tp5012
(lp5013
s(S'P-SHC1:GRB2:SOS'
p5014
S'P-5Y-LAT-2'
p5015
S'binds'
p5016
tp5017
(lp5018
s(S'PAX4'
p5019
S'CYP26A1'
p5020
S'increases'
p5021
tp5022
(lp5023
s(S'TCF3'
p5024
S'KRAS'
p5025
S'increases'
p5026
tp5027
(lp5028
s(S'GRB2:SOS1'
p5029
S'PHOSPHORYLATED ERBB2:ERBB4 HETERODIMERS'
p5030
S'binds'
p5031
tp5032
(lp5033
s(S'CDX2'
p5034
S'MEIS1'
p5035
S'increases'
p5036
tp5037
(lp5038
s(S'SP3'
p5039
S'RUNX1'
p5040
S'increases'
p5041
tp5042
(lp5043
s(S'REST'
p5044
S'CYP26A1'
p5045
S'increases'
p5046
tp5047
(lp5048
s(S'PTF1A'
p5049
S'CYP26A1'
p5050
S'increases'
p5051
tp5052
(lp5053
s(S'PI-3-4-5-P3'
p5054
S'PI3K/GAB1'
p5055
S'translocates'
p5056
tp5057
(lp5058
s(S'LMO2'
p5059
S'FOXO4'
p5060
S'increases'
p5061
tp5062
(lp5063
s(S'STAT4'
p5064
S'ETS1'
p5065
S'increases'
p5066
tp5067
(lp5068
s(S'GTF2A2'
p5069
S'HOXA9'
p5070
S'increases'
p5071
tp5072
(lp5073
s(S'FOXF2'
p5074
S'POU3F2'
p5075
S'increases'
p5076
tp5077
(lp5078
s(S'GATA1'
p5079
S'GABPB2'
p5080
S'increases'
p5081
tp5082
(lp5083
s(S'Polychlorinated Biphenyls'
p5084
S'KRAS MRNA'
p5085
S'decreases'
p5086
tp5087
(lp5088
s(S'GRB2/SOS1'
p5089
S'EGF/EGFR DIMER/SHC'
p5090
S'binds'
p5091
tp5092
(lp5093
s(S'CYP26A1'
p5094
S'FOXF2'
p5095
S'increases'
p5096
tp5097
(lp5098
s(S'EGR1'
p5099
S'CYP26A1'
p5100
S'increases'
p5101
tp5102
(lp5103
s(S'MAX'
p5104
S'FOXO3'
p5105
S'increases'
p5106
tp5107
(lp5108
s(S'T-DHT/AR/PELP1'
p5109
S'SRC'
p5110
S'binds'
p5111
tp5112
(lp5113
s(S'CUX1'
p5114
S'FOXF2'
p5115
S'increases'
p5116
tp5117
(lp5118
s(S'CEBPD'
p5119
S'CYP26A1'
p5120
S'increases'
p5121
tp5122
(lp5123
s(S'CBFA2T3'
p5124
S'NRAS'
p5125
S'increases'
p5126
tp5127
(lp5128
s(S'Cisplatin'
p5129
S'HRAS MRNA'
p5130
S'translocates'
p5131
tp5132
(lp5133
s(S'BAD/BCL-X(L)'
p5134
S'YWHAZ'
p5135
S'binds'
p5136
tp5137
(lp5138
s(S'GATA1'
p5139
S'FOXA1'
p5140
S'increases'
p5141
tp5142
(lp5143
s(S'RREB1'
p5144
S'CYP26A1'
p5145
S'increases'
p5146
tp5147
(lp5148
s(S'STAT4'
p5149
S'RUNX2'
p5150
S'increases'
p5151
tp5152
(lp5153
s(S'FOXD3'
p5154
S'NRAS'
p5155
S'increases'
p5156
tp5157
(lp5158
s(S'NDEL1'
p5159
S'14-3-3 E'
p5160
S'binds'
p5161
tp5162
(lp5163
s(S'CYP26A1'
p5164
S'REPIN1'
p5165
S'increases'
p5166
tp5167
(lp5168
s(S'MAF'
p5169
S'CDC5L'
p5170
S'increases'
p5171
tp5172
(lp5173
s(S'CYP26A1'
p5174
S'ELK1'
p5175
S'increases'
p5176
tp5177
(lp5178
s(S'MYC'
p5179
S'FOXD3'
p5180
S'increases'
p5181
tp5182
(lp5183
s(S'MAX'
p5184
S'FOXD3'
p5185
S'increases'
p5186
tp5187
(lp5188
s(S'POU1F1'
p5189
S'GATA6'
p5190
S'increases'
p5191
tp5192
(lp5193
s(S'POU2F1'
p5194
S'STAT4'
p5195
S'increases'
p5196
tp5197
(lp5198
s(S'GTF3A'
p5199
S'FOXO3'
p5200
S'increases'
p5201
tp5202
(lp5203
s(S'MYB'
p5204
S'FOXF2'
p5205
S'increases'
p5206
tp5207
(lp5208
s(S'ZIC3'
p5209
S'CYP26A1'
p5210
S'increases'
p5211
tp5212
(lp5213
s(S'POU2F1'
p5214
S'EN1'
p5215
S'increases'
p5216
tp5217
(lp5218
s(S'JUN'
p5219
S'STAT1'
p5220
S'increases'
p5221
tp5222
(lp5223
s(S'TEF'
p5224
S'CYP26A1'
p5225
S'increases'
p5226
tp5227
(lp5228
s(S'MAF'
p5229
S'CYP26A1'
p5230
S'increases'
p5231
tp5232
(lp5233
s(S'PAX4'
p5234
S'GATA6'
p5235
S'increases'
p5236
tp5237
(lp5238
s(S'ZIC2'
p5239
S'GATA6'
p5240
S'increases'
p5241
tp5242
(lp5243
s(S'hsa-miR-181d-5p'
p5244
S'HRAS'
p5245
S'decreases'
p5246
tp5247
(lp5248
s(S'BACH2'
p5249
S'CYP26A1'
p5250
S'increases'
p5251
tp5252
(lp5253
s(S'TCF12'
p5254
S'CYP26A1'
p5255
S'increases'
p5256
tp5257
(lp5258
s(S'GATA1'
p5259
S'FOXO4'
p5260
S'increases'
p5261
tp5262
(lp5263
s(S'RFX1'
p5264
S'FOXD3'
p5265
S'increases'
p5266
tp5267
(lp5268
s(S'FOXJ1'
p5269
S'CYP26A1'
p5270
S'increases'
p5271
tp5272
(lp5273
s(S'GTF2A2'
p5274
S'POU2F1'
p5275
S'increases'
p5276
tp5277
(lp5278
s(S'YY1'
p5279
S'SRF'
p5280
S'increases'
p5281
tp5282
(lp5283
s(S'AHR'
p5284
S'REPIN1'
p5285
S'increases'
p5286
tp5287
(lp5288
s(S'MAZ'
p5289
S'CYP26A1'
p5290
S'increases'
p5291
tp5292
(lp5293
s(S'Quercetin'
p5294
S'HRAS MRNA'
p5295
S'increases'
p5296
tp5297
(lp5298
s(S'ELK1'
p5299
S'NRAS'
p5300
S'increases'
p5301
tp5302
(lp5303
s(S'HIF1A'
p5304
S'ONECUT1'
p5305
S'increases'
p5306
tp5307
(lp5308
s(S'FOXF2'
p5309
S'CYP26A1'
p5310
S'increases'
p5311
tp5312
(lp5313
s(S'SOX9'
p5314
S'ETS1'
p5315
S'increases'
p5316
tp5317
(lp5318
s(S'HSF1'
p5319
S'JUN'
p5320
S'increases'
p5321
tp5322
(lp5323
s(S'CEBPA'
p5324
S'CYP26A1'
p5325
S'increases'
p5326
tp5327
(lp5328
s(S'NR1H4'
p5329
S'MEIS1'
p5330
S'increases'
p5331
tp5332
(lp5333
s(S'SMAD1'
p5334
S'GATA1'
p5335
S'increases'
p5336
tp5337
(lp5338
s(S'Quercetin'
p5339
S'HRAS MRNA'
p5340
S'decreases'
p5341
tp5342
(lp5343
s(S'Glycyrrhetinic Acid'
p5344
S'HRAS PROTEIN'
p5345
S'decreases'
p5346
tp5347
(lp5348
s(S'HOXA4'
p5349
S'POU2F1'
p5350
S'increases'
p5351
tp5352
(lp5353
s(S'FOXQ1'
p5354
S'CYP26A1'
p5355
S'increases'
p5356
tp5357
(lp5358
s(S'FOXI1'
p5359
S'CEBPA'
p5360
S'increases'
p5361
tp5362
(lp5363
s(S'GTF3A'
p5364
S'MYCN'
p5365
S'increases'
p5366
tp5367
(lp5368
s(S'LMO2'
p5369
S'IRF1'
p5370
S'increases'
p5371
tp5372
(lp5373
s(S'FOXO1'
p5374
S'CYP26A1'
p5375
S'increases'
p5376
tp5377
(lp5378
s(S'Copper Sulfate'
p5379
S'NRAS MRNA'
p5380
S'increases'
p5381
tp5382
(lp5383
s(S'TFAP2A'
p5384
S'CYP26A1'
p5385
S'increases'
p5386
tp5387
(lp5388
s(S'FOXJ1'
p5389
S'EN1'
p5390
S'increases'
p5391
tp5392
(lp5393
s(S'MEIS1'
p5394
S'RUNX1'
p5395
S'increases'
p5396
tp5397
(lp5398
s(S'MAZ'
p5399
S'FOXA1'
p5400
S'increases'
p5401
tp5402
(lp5403
s(S'ETS1'
p5404
S'FOXO4'
p5405
S'increases'
p5406
tp5407
(lp5408
s(S'ZBTB14'
p5409
S'FOXD3'
p5410
S'increases'
p5411
tp5412
(lp5413
s(S'FOXC1'
p5414
S'LEF1'
p5415
S'increases'
p5416
tp5417
(lp5418
s(S'IRF1'
p5419
S'EN1'
p5420
S'increases'
p5421
tp5422
(lp5423
s(S'NR3C1'
p5424
S'CYP26A1'
p5425
S'increases'
p5426
tp5427
(lp5428
s(S'VSX1'
p5429
S'BACH1'
p5430
S'increases'
p5431
tp5432
(lp5433
s(S'CYP26A1'
p5434
S'ETS1'
p5435
S'increases'
p5436
tp5437
(lp5438
s(S'CEBPA'
p5439
S'MEIS1'
p5440
S'increases'
p5441
tp5442
(lp5443
s(S'ELF1'
p5444
S'FOXO4'
p5445
S'increases'
p5446
tp5447
(lp5448
s(S'RXRA'
p5449
S'CYP26A1'
p5450
S'increases'
p5451
tp5452
(lp5453
s(S'CREB1'
p5454
S'CYP26A1'
p5455
S'increases'
p5456
tp5457
(lp5458
s(S'IRF7'
p5459
S'GATA6'
p5460
S'increases'
p5461
tp5462
(lp5463
s(S'ZEB1'
p5464
S'CYP26A1'
p5465
S'increases'
p5466
tp5467
(lp5468
s(S'AR'
p5469
S'CYP26A1'
p5470
S'increases'
p5471
tp5472
(lp5473
s(S'TFDP2'
p5474
S'MYC'
p5475
S'increases'
p5476
tp5477
(lp5478
s(S'hsa-mir-217'
p5479
S'KRAS'
p5480
S'decreases'
p5481
tp5482
(lp5483
s(S'MEK'
p5484
S'ERK'
p5485
S'adds_modification'
p5486
tp5487
(lp5488
S'To refine the results of our large-scale siRNA screen, we performed an integrative analysis of our siRNA screen regulators by cross-referencing these regulators with a list of genes previously identified in melanoma, and a list of gene products phosphorylated downstream of MEK and ERK in melanoma.'
p5489
aS'The FAM129B gene was identified via integration of 3 datasets, including Wnt signaling modifiers, melanoma-associated genes and the MEK/ERK phosphoproteome.'
p5490
aS'FAM129B was the only gene that overlapped with all three datasets, making it a promising candidate for regulation of both Wnt and MEK/ERK pathways in melanoma.'
p5491
aS'The following steps are illustrated: (A) Binding of ERK1/2 with anchor proteins in resting cells; (B) stimulation is followed by phosphorylation of the TEY motif of ERK1/2 by MEK1/2, and detachment of ERK1/2 from their anchors; (C) phosphorylation of ERK1/2 on its SPS motif by CKII.'
p5492
aS'Our study implicates a distinct signaling pathway whereby FGF-2 acts to block Smad-mediated fibroblast activation through a MEK-ERK-dependent mechanism in valvular interstitial cells.'
p5493
aS'Regulation of ERK distribution by MEK, DUSP5 and DUSP6/MKP-3.'
p5494
aS'The figure illustrates how MEK, DUSP5 and DUSP6/MKP-3 cooperate to regulate ERK responses in the nucleus and cytoplasm, respectively.'
p5495
aS'The cytosolic kinase, MEK is the only known MKK for ERK and anchors ERK in the cytoplasm under basal conditions.'
p5496
aS'Activation of MEK by the RAF MAPK kinase kinase causes phosphorylation of ERK and dissociation of MEK.'
p5497
aS'The NES of DUSP6/MKP-3 and high affinity for ERK binding, irrespective of phosphorylation state enables competition with MEK and other ERK partners and substrates in the cytoplasm, causing sequestration of dephosphorylated ERK in this compartment.'
p5498
aS'It has been known for some time that sustained (but not transient) activation of MEK often causes nuclear accumulation of ERK in the dephosphorylated form and is coincident with ERK-dependent fate choices such as G'
p5499
ag655
ag656
aS'To determine whether the MAPK signalling pathway which is involved in the induction of MMP synthesis was activated in TFPI-2-up-regulated small cell lung cancer cells, we investigated phosphorylation of RAF, MEK1/2 and ERK1/2 proteins using immunoblotting.'
p5500
aS'bFGF and its downstream PI3K-AKT and MEK-ERK pathways are important for the self-renewal of human ESCs '
p5501
aS'Previous studies have demonstrated the critical roles of PI3K-AKT and MEK-ERK pathways in the self-renewal of human ESCs '
p5502
ag657
aS'The MAPK/ERK (MEK) signaling pathway is central in tumorigenesis and mutational activation has been suggested to have prognostic implications in ovarian cancer ['
p5503
aS'Inhibiting TSP1 activity reduced the elevated activation of MEK/ERK and expression of key fibrogenic proteins.'
p5504
aS'TSP1 also blocked platelet-derived growth factor (PDGF)-induced contractile activity and MEK/ERK activation.'
p5505
aS'TSP1 is a key mediator of matrix contraction of normal and systemic sclerosis fibroblasts, via MEK/ERK.'
p5506
aS"We have previously shown that the ras/MEK/ERK 'classical' MAP kinase cascade is important for several features of fibrogenesis."
p5507
aS'For example, MEK/ERK mediates the induction of CCN2 expression in normal mesenchymal cells ['
p5508
aS'is mediated by MEK/ERK and AP-1 processes (Lemaire-Ewing et al., '
p5509
aS'Ac-H3-histone, acetylated-H3-histone; DMSO, dimethyl sulfoxide; HATs, histone acetyltransferases; HDACs, histone deacetylases; MAPK/ERK, mitogen-activated protein kinase/extracellular signal-regulated kinase; NaB, sodium butyrate; PD98059, upstream ERK kinase MEK1 inhibitor; TFs, transcription factors.'
p5510
aS'Our findings suggest that it cannot be ERK itself; intra-LA infusion of the MEK inhibitor U0126, which would presumably affect ERK activation both pre- and post-synaptically, has no effect on training-induced elevations of EGR-1 in the MGm/PIN (Figure '
p5511
aS'In particular, it was shown that blockade of ERK phosphorylation with SL327, an inhibitor of MEK, reduced the development of dyskinesia (Santini et al., '
p5512
aS'To test the involvement of N-methyl-D-aspartate receptors (NMDARs) and the extracellular signal-regulated kinase (ERK) cascade in behavioral immunization, either D-AP5 or the MEK inhibitor U0126 was injected to the prelimbic (PL) or infralimbic (IL) mPFC prior to controllable stress exposure.'
p5513
aS'To test whether the ERK cascade is critical to the behavioral immunization phenomenon, rats were implanted with cannula for microinjection into the PL of the mitogen activated protein kinase kinase (MEK) inhibitor U0126.'
p5514
aS'U0126 is known to prevent phosphorylation of ERK1 and 2 by inhibition of both MEK-1 and MEK-2 kinases (Favata et al., '
p5515
aS'To determine whether the regionally specific phosphorylation of ERK in the PL was critical to behavioral immunization, the MEK inhibitor U0126 was administered to PL or IL before ES.'
p5516
aS'Furthermore, Act induced activation/phosphorylation of MAPK upstream factors MKK3/6, MKK4 and MAP/ERK kinase 1 (MEK1) as well as downstream transcription factor c-Jun (Galindo et al., '
p5517
aS'In the hippocampus, the activity (and/or the expression level) of several memory-related proteins has been shown to oscillate in the circadian manner (e.g., adenylyl cyclases, ERK/MAPK, Ras, MEK, and CREB) (Eckel-Mahan et al., '
p5518
ag658
aS'In order to establish how much of the mitogenic effect of Shh is mediated by the EGFR-dependent ERK1/2 pathway we tested the effect of inhibiting its activating-kinase, MEK, with PD98059 (Alessi et al., '
p5519
ag1768
aS'Furthermore, blockade of the ERK pathway with the MEK inhibitor, U0126, prevented GH-induced phosphorylation of ERK 1/2.'
p5520
aS'APS, adaptor with PH and SH2 domains; CAP, Cbl-associated protein; Cbl, Casitas B lineage lymphoma; DOK, downstream of kinase; ERK, extracellular signal-regulated kinase; Gab, Grb2-associated binder; IGF, insulin-like growth factor; IGFR, type 1 insulin-like growth factor receptor; IR, insulin receptor; IRS, insulin receptor substrate; MEK, MAPK/ERK kinase; PH, pleckstrin homology; PI3K, phosphoinositide 3-kinase; PTB, phosphotyrosine-binding; RTK, receptor tyrosine kinase; SH2, Src-homology-2.'
p5521
ag659
aS'This pro-inflammatory signaling pathway appeared to be independent from PI3K/AKT and RAS/BRAF/MEK/ERK pathways.'
p5522
aS'We demonstrated that Pref-1 rapidly induces Sox9 expression through activation of the MEK/ERK pathway ('
p5523
ag663
aS'This effect is exerted by the activated KIT tyrosine-kinase using as signal transducers both PI3K-AKT and MEK-ERK1/2 ('
p5524
aS'The MEK/ERK pathway was found also involved in ZEB1 up-regulation by IGF-I ('
p5525
aS'MEK1/2 are kinases that phosphorylate tyrosine and threonine residues on ERK1/2 kinases ('
p5526
aS'Resistance to BRAF inhibitors develops relatively rapidly because of BRAF-independent activation of MEK and ERK (Johannessen et al., '
p5527
aS'Abundant growth factors such as hCG, EGF, HGF, or IGF2 activate MAPK kinase (MEK)/extracellular regulated kinase (ERK) and phosphoinositide 3-kinase (PI3K)/AKT/mammalian target of rapamycin (mTOR) signaling, whereas prostaglandins were shown to act through the Rho-Rock pathway ('
p5528
aS'The top three nodes identified in this fashion in MAPK pathways, for example, are MEK2, JNK and ASK1, which reside on ERK1/2, JNK and p38 cascades respectively.'
p5529
aS'Activation of MAPK triggers the activation of the small GTPase Ras (Ras family) and a kinase cascade including MEK1 and 2 (STE Ser/Thr protein kinase family), ERKs (CMGC Ser/Thr protein kinase family), p90RSK (AGC Ser/Thr protein kinase family), and a transcription factor ELK1 (ETS family).'
p5530
ag664
ag665
aS'Another key signaling pathway that is activated by PA is the Ras/MEK/ERK signaling cascade ('
p5531
ag666
aS'Upon initial examination, the demonstrated role of ERK phosphorylation in mediating drug and alcohol dependence makes MEK/ERK blockade an attractive therapeutic strategy.'
p5532
ag667
aS'First, our data demonstrate that both the MEK/ERK1/2 and PI3K/Akt pathways are essential for proliferation of adult spinal cord NSPCs.'
p5533
aS'Collectively, these findings suggest that while the PI3K/Akt pathway may be distinctly pivotal for proliferation of ESCs and embryonic cortical progenitor cells, proliferation of adult neural stem and progenitor cells involves both the PI3K/Akt and MEK/ERK1/2 pathways in a non-overlapping manner (Table '
p5534
aS'It has been reported that ERK1/2 activation in neurons is regulated by cyclin-dependent kinase 5 (CDK5), which phosphorylates and inhibits the upstream kinase MEK1 (Sharma et al., '
p5535
aS'One calcium-responsive pathway that is vital for a number of synaptic processes and forms of plasticity, and therefore, may be an integral part of the homeostatic controller, is the MEK-ERK pathway.'
p5536
aS'The MEK-ERK pathway can regulate both transcription and translation in neurons via activation of different downstream targets (Kelleher et al., '
p5537
aS'Following activation of the signaling cascades that lead to MEK and ERK activation, phosphorylated ERK accumulates transiently in the nucleus, where it has important targets.'
p5538
aS'For example, ERK is activated by DARPP-32 through the inhibition of PP1, leading to activation of upstream modulators of ERK activity, such as mitogen-activated protein kinase kinase (MEK; Valjent et al., '
p5539
aS'Acute cocaine injections rapidly increase ERK phosphorylation in NAc MSNs and dorsal striatum that are blocked by MEK pharmacological inhibition (Valjent et al., '
p5540
aS'Arg3.1/Arc mobilization putatively occurs through brain-derived neurotrophic factor (BDNF)-mediated activation of the MEK-ERK signaling pathway (Ying et al., '
p5541
aS'Upon interaction with the effectors, downstream mitogen-activated protein (MAP) kinase kinases (MEKs) are activated, which in turn activate the MAP kinases extracellular signal-regulated kinases (ERKs) leading to phosphorylation of downstream targets that either positively or negatively influence apoptosis.'
p5542
ag668
aS'In addition to the above mechanisms of acquired resistance to BRAF inhibitors, RTK overexpression or activation has been shown to bypass mutant BRAF and reactivate ERK through CRAF-MEK or via ERK independent mechanisms by activating the PI3K/AKT pathways.'
p5543
aS'Should this be the case, it is noteworthy that several chemical inhibitors of MEK1 (the upstream regulator of ERK2) exist; thus, this strategy could be tested in clinic.'
p5544
aS'These include the canonical PI3K/AKT pathway, but also the RAS/MEK/ERK signaling axis (Yang et al., '
p5545
aS'The latter occurs by activation of cell proliferation via the MEK (mitogen-activated protein kinase)/ERK (extracellular signal-regulated kinase) pathway and the PI3K/Akt pathway (Banno et al., '
p5546
aS'It is hypothesized that signaling through redundant pathways involving the PI3-kinase (PI3K)/mammalian target of rapamycin (mTOR), VEGF, RAS/RAF/MEK/ERK, and EGFR pathways contributes to such drug resistance (Jang and Atkins, '
p5547
aS'MAPK or extracellular receptor kinase (ERK) is activated by MAPK/ERK kinase (MEK).'
p5548
aS'The second S6K2 characteristic is its higher reliance for activation on the MEK/ERK-mediated derepression from the pseudo-substrate domain.'
p5549
aS'Classically, the c-Jun phosphorylation at serine 63 and 73 believes through the ERKs signaling pathway because MEK inhibitors suppress the phosphorylation of c-Jun at serine 63 and 73 when cells are stimulated by growth factors such as EGF.'
p5550
aS'RAF proteins are kinases in RAS/RAF/MEK/ERK pathway.'
p5551
aS'The analysis is based on the kinetic model of Ras/RAF/MEK/ERK and PI3K/PTEN/AKT signaling developed in Ref.'
p5552
aS'The canonical pathway of mTOR activation depends on mitogen-driven signaling through PI3K/Akt, although alternative non-Akt dependent activation through the Ras/MEK/ERK pathway is now recognized ('
p5553
ag669
ag670
ag672
ag673
ag674
ag675
ag676
aS'In melanoma cells, constitutive BRAF/MEK/ERK signaling drives cell cycle entry and uncontrolled growth by increasing cyclin D1 expression.'
p5554
aS'As described above, hBVR binds to ERK1/2 and to its upstream activating kinases MEK1/2 (Lerner-Marmarosh et al., '
p5555
aS'Examination of the role of hBVR in activation of kinases, such as PKCs and MEK1/2, that function upstream of ERK1/2 has led to development of hBVR-based peptides that have introduced a new dimension to the regulation of ERK signaling.'
p5556
aS'ERK1/2 is directly activated by MAPK-kinase (MEK1/2).'
p5557
aS'The proteome array demonstrated that regardless of sensitivity, members of the Src kinases, pERK and pMEK were inhibited following exposure to PF-3758309 (data not shown).'
p5558
aS'In a second type of resistance mechanism, the effect of the drug is evaded by making irrelevant the function of the EGFR itself, while ensuring downstream signaling via the PI3K/aKT or RaS/RaF/MEK/ERK pathways.'
p5559
aS'Although the mechanism of crosstalk between PKA and ERK pathways has not yet been clarified, it is possible that PKA pathway facilitates MEK1/2 which activates the ERK1/2 pathway (Stork and Schmitt, '
p5560
aS'ERK1 and ERK2 are two closely related mitogen-activated protein kinases (MAP-kinases), which are activated by phosphorylation of their activation loop by MAP-kinase and ERK-kinase (MEK 1 and 2). '
p5561
aS'Upstream from MEK, ERK activation induced by cocaine involves the calcium-activated guanine nucleotide exchange factor Ras-GRF1 ('
p5562
aS'In the case of the BRAF program, a Novartis team was able to measure both phospho-MEK and phospho-ERK as biomarkers to indicate modulation of the BRAF'
p5563
aS'IGF-1 activates both its downstream signaling pathways, the MEK/ERK and PI3K/Akt pathways in the cochlea, which causes more efficient effects on HC protection than activation of a single signal cascade.'
p5564
ag2202
aS'A similar effect was observed upon pharmacological inhibition of MEK1, the kinase activating the mitogen-activated protein kinases (MAPK) ERK1/2, indicating that ERK1/2 mediates Myd88-dependent macrophages spreading.'
p5565
aS'We employed macrophages with genetic deletion of Myd88 and p38, and pharmacological inhibition of the ERK1/2 kinase MEK1, to determine the control of LPS-induced macrophage spreading by these molecules.'
p5566
ag678
ag679
ag680
ag681
ag683
ag684
ag685
aS'Since the MEK/ERK signaling pathway is involved in many cellular processes, several different, cooperating mechanisms are necessary to determine the final outcome (Shaul and Seger, '
p5567
aS'The initial literature based network was very limited and composed of bFGF/MEK/ERK/NANOG (Xu et al., '
p5568
aS'The BRAF gene found on chromosome 7q encodes a serine/threonine kinase, which is regulated by binding to RAS and also functions in the RAS-RAF-MEK-ERK-MAP kinase pathway (Koorstra et al., '
p5569
aS'Dramatic tumor shrinkage was noted in a recent mutated KRAS lung cancer model when treated with a combination of a dual PI3K/mTOR inhibitor and a MEK (MAP/ERK kinase) inhibitor (Engelman et al., '
p5570
aS'Villin protein expression was blocked in the presence of a specific inhibitor of MEK-1, an upstream mediator of the ERK1/2 MAPK signaling cascade, and in the presence of a casein kinase 1 (CK1) inhibitor, Wnt5a-enhanced villin expression was prevented.'
p5571
ag686
aS'Further examination of the regulation of histone acetylation in mammalian models has demonstrated that the observed training-related regulation of histone H3 acetylation is downstream of ERK/MAPK signaling, as the MEK inhibitor U0126 was found to impair the acetylation of H3 (Levenson et al., '
p5572
aS'Both light-induced phase delays and advances are partially blocked by inhibitors of p44 MAPK/ERK1 and MAPK kinase (MAPKK/MEK) transcription (Obrietan et al., '
p5573
as(S'ZBTB18'
p5574
S'ONECUT1'
p5575
S'increases'
p5576
tp5577
(lp5578
s(S'TGIF'
p5579
S'MAX'
p5580
S'increases'
p5581
tp5582
(lp5583
s(S'ETS1'
p5584
S'NRAS'
p5585
S'increases'
p5586
tp5587
(lp5588
s(S'KLF12'
p5589
S'GATA1'
p5590
S'increases'
p5591
tp5592
(lp5593
s(S'HRAS/GTP'
p5594
S'PAK2'
p5595
S'increases_activity'
p5596
tp5597
(lp5598
s(S'CYP26A1'
p5599
S'FOXD3'
p5600
S'increases'
p5601
tp5602
(lp5603
s(S'LMO2'
p5604
S'RUNX1'
p5605
S'increases'
p5606
tp5607
(lp5608
s(S'MLK3'
p5609
S'MKK3/6'
p5610
S'adds_modification'
p5611
tp5612
(lp5613
s(S'TAK'
p5614
S'MKK3/6'
p5615
S'adds_modification'
p5616
tp5617
(lp5618
s(S'GRB2:SOS1'
p5619
S'HB-EGF:P-6Y-EGFR DIMER'
p5620
S'binds'
p5621
tp5622
(lp5623
s(S'FOXO4'
p5624
S'NRAS'
p5625
S'increases'
p5626
tp5627
(lp5628
s(S'MECOM'
p5629
S'NRAS'
p5630
S'increases'
p5631
tp5632
(lp5633
s(S'KLF12'
p5634
S'CYP26A1'
p5635
S'increases'
p5636
tp5637
(lp5638
s(S'RAS family/GTP/PI3K'
p5639
S'TRPV1'
p5640
S'adds_modification'
p5641
tp5642
(lp5643
s(S'hsa-let-7a-5p'
p5644
S'NRAS'
p5645
S'decreases'
p5646
tp5647
(lp5648
s(S'NF1'
p5649
S'HOXA9'
p5650
S'increases'
p5651
tp5652
(lp5653
s(S'REPIN1'
p5654
S'FOXD3'
p5655
S'increases'
p5656
tp5657
(lp5658
s(S'CYP26A1'
p5659
S'FOXJ2'
p5660
S'increases'
p5661
tp5662
(lp5663
s(S'FOXO4'
p5664
S'MEIS1'
p5665
S'increases'
p5666
tp5667
(lp5668
s(S'EBF2'
p5669
S'MECOM'
p5670
S'increases'
p5671
tp5672
(lp5673
s(S'ETS1'
p5674
S'FOXO3'
p5675
S'increases'
p5676
tp5677
(lp5678
s(S'SP3'
p5679
S'CYP26A1'
p5680
S'increases'
p5681
tp5682
(lp5683
s(S'LNXp80'
p5684
S'NUMB'
p5685
S'decreases'
p5686
tp5687
(lp5688
s(S'RUNX2'
p5689
S'CYP26A1'
p5690
S'increases'
p5691
tp5692
(lp5693
s(S'AHR'
p5694
S'FOXO3'
p5695
S'increases'
p5696
tp5697
(lp5698
s(S'VSX1'
p5699
S'FOXF2'
p5700
S'increases'
p5701
tp5702
(lp5703
s(S'BPTF'
p5704
S'RUNX1'
p5705
S'increases'
p5706
tp5707
(lp5708
s(S'7,8-Dihydro-7,8-dihydroxybenzo(a)pyrene 9,10-oxide'
p5709
S'HRAS PROTEIN'
p5710
S'increases'
p5711
tp5712
(lp5713
s(S'TCF3'
p5714
S'POU3F2'
p5715
S'increases'
p5716
tp5717
(lp5718
s(S'TCF3'
p5719
S'IRF1'
p5720
S'increases'
p5721
tp5722
(lp5723
s(S'SREBF1'
p5724
S'EN1'
p5725
S'increases'
p5726
tp5727
(lp5728
s(S'FOXO4'
p5729
S'RUNX2'
p5730
S'increases'
p5731
tp5732
(lp5733
s(S'hsa-miR-181a-5p'
p5734
S'HRAS'
p5735
S'decreases'
p5736
tp5737
(lp5738
s(S'Myb'
p5739
S'NRAS'
p5740
S'decreases'
p5741
tp5742
(lp5743
s(S'HSPA8'
p5744
S'ADP'
p5745
S'binds'
p5746
tp5747
(lp5748
s(S'SOCS3'
p5749
S'RASGAP'
p5750
S'binds'
p5751
tp5752
(lp5753
s(S'ONECUT1'
p5754
S'NRAS'
p5755
S'increases'
p5756
tp5757
(lp5758
s(S'PITX2'
p5759
S'EN1'
p5760
S'increases'
p5761
tp5762
(lp5763
s(S'HGF(dimer)/MET(dimer)'
p5764
S'SRC'
p5765
S'adds_modification'
p5766
tp5767
(lp5768
s(S'2-amino-1-methyl-6-phenylimidazo(4,5-b)pyridine'
p5769
S'HRAS PROTEIN'
p5770
S'increases'
p5771
tp5772
(lp5773
s(S'GFI1'
p5774
S'POU3F2'
p5775
S'increases'
p5776
tp5777
(lp5778
s(S'FARNESYL DIPHOSPHATE'
p5779
S'KRAS'
p5780
S'increases_activity'
p5781
tp5782
(lp5783
s(S'IL2/IL2R BETA/GAMMA/JAK1/LCK/JAK3'
p5784
S'PI3K'
p5785
S'binds'
p5786
tp5787
(lp5788
s(S'GTF3A'
p5789
S'MECOM'
p5790
S'increases'
p5791
tp5792
(lp5793
s(S'EGR2'
p5794
S'CYP26A1'
p5795
S'increases'
p5796
tp5797
(lp5798
s(S'RUNX1'
p5799
S'FOXF2'
p5800
S'increases'
p5801
tp5802
(lp5803
s(S'IL3/IL3RA/CSF2RB (DODECAMER)'
p5804
S'YWHAZ'
p5805
S'binds'
p5806
tp5807
(lp5808
s(S'RAF1'
p5809
S'BRAF'
p5810
S'binds'
p5811
tp5812
(lp5813
s(S'MYC'
p5814
S'CYP26A1'
p5815
S'increases'
p5816
tp5817
(lp5818
s(S'UBP1'
p5819
S'CYP26A1'
p5820
S'increases'
p5821
tp5822
(lp5823
s(S'MTF1'
p5824
S'REPIN1'
p5825
S'increases'
p5826
tp5827
(lp5828
s(S'HNF1A'
p5829
S'RUNX1'
p5830
S'increases'
p5831
tp5832
(lp5833
s(S'NHLH1'
p5834
S'FOXA1'
p5835
S'increases'
p5836
tp5837
(lp5838
s(S'HLF'
p5839
S'FOXA1'
p5840
S'increases'
p5841
tp5842
(lp5843
s(S'MEIS1'
p5844
S'GATA6'
p5845
S'increases'
p5846
tp5847
(lp5848
s(S'PDGF-BB/PDGFRB (DIMER)/SHP2'
p5849
S'GRB2/SOS1'
p5850
S'binds'
p5851
tp5852
(lp5853
s(S'ZBTB14'
p5854
S'EN1'
p5855
S'increases'
p5856
tp5857
(lp5858
s(S'alpha6/beta4 Integrin'
p5859
S'HRAS/GDP'
p5860
S'increases_activity'
p5861
tp5862
(lp5863
s(S'ErbB2'
p5864
S'HRAS/GDP'
p5865
S'increases_activity'
p5866
tp5867
(lp5868
s(S'MEIS1'
p5869
S'FOXO3'
p5870
S'increases'
p5871
tp5872
(lp5873
s(S'RELA'
p5874
S'IRF1'
p5875
S'increases'
p5876
tp5877
(lp5878
s(S'MYCN'
p5879
S'FOXO3'
p5880
S'increases'
p5881
tp5882
(lp5883
s(S'RHOA/GTP'
p5884
S'DIA'
p5885
S'increases_activity'
p5886
tp5887
(lp5888
s(S'Fluorouracil'
p5889
S'KRAS PROTEIN'
p5890
S'decreases'
p5891
tp5892
(lp5893
s(S'ATF2'
p5894
S'CYP26A1'
p5895
S'increases'
p5896
tp5897
(lp5898
s(S'GNAI2/GTP'
p5899
S'SRC FAMILY KINASES'
p5900
S'increases_activity'
p5901
tp5902
(lp5903
s(S'HAND1'
p5904
S'POU2F1'
p5905
S'increases'
p5906
tp5907
(lp5908
s(S'PI5K Type 1 family'
p5909
S'PI-4-P'
p5910
S'translocates'
p5911
tp5912
(lp5913
s(S'HSF1'
p5914
S'CBFA2T3'
p5915
S'increases'
p5916
tp5917
(lp5918
s(S'BACH1'
p5919
S'FOXA1'
p5920
S'increases'
p5921
tp5922
(lp5923
s(S'PI-3-4-5-P3'
p5924
S'SGK1'
p5925
S'adds_modification'
p5926
tp5927
(lp5928
s(S'hsa-miR-20a-5p'
p5929
S'NRAS'
p5930
S'decreases'
p5931
tp5932
(lp5933
s(S'CYP26A1'
p5934
S'MECOM'
p5935
S'increases'
p5936
tp5937
(lp5938
s(S'FOXF2'
p5939
S'RUNX1'
p5940
S'increases'
p5941
tp5942
(lp5943
s(S'EGR2'
p5944
S'SRF'
p5945
S'increases'
p5946
tp5947
(lp5948
s(S'LEF1'
p5949
S'FOXD3'
p5950
S'increases'
p5951
tp5952
(lp5953
s(S'TFAP2C'
p5954
S'MECOM'
p5955
S'increases'
p5956
tp5957
(lp5958
s(S'SHC'
p5959
S'GRB2/SOS1'
p5960
S'binds'
p5961
tp5962
(lp5963
s(S'CA2+'
p5964
S'CAM'
p5965
S'binds'
p5966
tp5967
(lp5968
s(S'MYC'
p5969
S'POU3F2'
p5970
S'increases'
p5971
tp5972
(lp5973
s(S'PAX8'
p5974
S'HOXA9'
p5975
S'increases'
p5976
tp5977
(lp5978
s(S'TFDP2'
p5979
S'CDC5L'
p5980
S'increases'
p5981
tp5982
(lp5983
s(S'RAF1/14-3-3'
p5984
S'KSR/14-3-3 /MEK1-2'
p5985
S'increases_activity'
p5986
tp5987
(lp5988
s(S'DDIT3'
p5989
S'MEIS1'
p5990
S'increases'
p5991
tp5992
(lp5993
s(S'GNB1/GNG2'
p5994
S'HRAS/GDP'
p5995
S'increases_activity'
p5996
tp5997
(lp5998
s(S'ACTIVATED FGFR MUTANTS:P-FRS2ALPHA'
p5999
S'GRB2:SOS1'
p6000
S'binds'
p6001
tp6002
(lp6003
s(S'HIF1A'
p6004
S'CYP26A1'
p6005
S'increases'
p6006
tp6007
(lp6008
s(S'RAF1-BRAF'
p6009
S'ERK1-2'
p6010
S'increases_activity'
p6011
tp6012
(lp6013
s(S'SMAD4'
p6014
S'CBFA2T3'
p6015
S'increases'
p6016
tp6017
(lp6018
s(S'resveratrol'
p6019
S'HRAS PROTEIN'
p6020
S'increases'
p6021
tp6022
(lp6023
s(S'Malathion'
p6024
S'HRAS MRNA'
p6025
S'increases'
p6026
tp6027
(lp6028
s(S'NRF1'
p6029
S'FOXO4'
p6030
S'increases'
p6031
tp6032
(lp6033
s(S'CREB1'
p6034
S'JUN'
p6035
S'increases'
p6036
tp6037
(lp6038
s(S'CDC5L'
p6039
S'HOXA9'
p6040
S'increases'
p6041
tp6042
(lp6043
s(S'CDX2'
p6044
S'HOXA9'
p6045
S'increases'
p6046
tp6047
(lp6048
s(S'HMGA1'
p6049
S'POU2F1'
p6050
S'increases'
p6051
tp6052
(lp6053
s(S'Coumestrol'
p6054
S'KRAS MRNA'
p6055
S'decreases'
p6056
tp6057
(lp6058
s(S'LEF1'
p6059
S'FOXO3'
p6060
S'increases'
p6061
tp6062
(lp6063
s(S'CYP26A1'
p6064
S'MEIS1'
p6065
S'increases'
p6066
tp6067
(lp6068
s(S'GTF2A2'
p6069
S'MEIS1'
p6070
S'increases'
p6071
tp6072
(lp6073
s(S'REPIN1'
p6074
S'CBFA2T3'
p6075
S'increases'
p6076
tp6077
(lp6078
s(S'hsa-miR-143-3p'
p6079
S'HRAS'
p6080
S'decreases'
p6081
tp6082
(lp6083
s(S'[(3,7,11-TRIMETHYL-DODECA-2,6,10-TRIENYLOXYCARBAMOYL)-METHYL]-PHOSPHONIC ACID'
p6084
S'KRAS'
p6085
S'increases_activity'
p6086
tp6087
(lp6088
s(S'TFDP1'
p6089
S'ONECUT1'
p6090
S'increases'
p6091
tp6092
(lp6093
s(S'YY1'
p6094
S'CYP26A1'
p6095
S'increases'
p6096
tp6097
(lp6098
s(S'PITX2'
p6099
S'RUNX1'
p6100
S'increases'
p6101
tp6102
(lp6103
s(S'STAT5A'
p6104
S'NRAS'
p6105
S'increases'
p6106
tp6107
(lp6108
s(S'Valproic Acid'
p6109
S'HRAS MRNA'
p6110
S'increases'
p6111
tp6112
(lp6113
s(S'Malathion'
p6114
S'HRAS PROTEIN'
p6115
S'increases'
p6116
tp6117
(lp6118
s(S'TFAP4'
p6119
S'CBFA2T3'
p6120
S'increases'
p6121
tp6122
(lp6123
s(S'TFAP4'
p6124
S'EN1'
p6125
S'increases'
p6126
tp6127
(lp6128
s(S'POU3F2'
p6129
S'CYP26A1'
p6130
S'increases'
p6131
tp6132
(lp6133
s(S'PAX3'
p6134
S'FOXD3'
p6135
S'increases'
p6136
tp6137
(lp6138
s(S'FOXA2'
p6139
S'RUNX2'
p6140
S'increases'
p6141
tp6142
(lp6143
s(S'MAX'
p6144
S'BACH1'
p6145
S'increases'
p6146
tp6147
(lp6148
s(S'PDX1'
p6149
S'CYP26A1'
p6150
S'increases'
p6151
tp6152
(lp6153
s(S'EPO/EPOR (dimer)/JAK2'
p6154
S'SHC/GRB2/SOS1'
p6155
S'increases_activity'
p6156
tp6157
(lp6158
s(S'E2F1'
p6159
S'MEIS1'
p6160
S'increases'
p6161
tp6162
(lp6163
s(S'FOXF2'
p6164
S'MEIS1'
p6165
S'increases'
p6166
tp6167
(lp6168
s(S'SPZ1'
p6169
S'FOXJ2'
p6170
S'increases'
p6171
tp6172
(lp6173
s(S'SRY'
p6174
S'NRAS'
p6175
S'increases'
p6176
tp6177
(lp6178
s(S'REPIN1'
p6179
S'CYP26A1'
p6180
S'increases'
p6181
tp6182
(lp6183
s(S'VEGFR3/VEGFC-D'
p6184
S'PKC'
p6185
S'increases_activity'
p6186
tp6187
(lp6188
s(S'MEIS1'
p6189
S'EN1'
p6190
S'increases'
p6191
tp6192
(lp6193
s(S'FOXJ1'
p6194
S'FOXD3'
p6195
S'increases'
p6196
tp6197
(lp6198
s(S'SPZ1'
p6199
S'FOXO4'
p6200
S'increases'
p6201
tp6202
(lp6203
s(S'RHOA/GTP'
p6204
S'ROCK1-ROCK2'
p6205
S'increases_activity'
p6206
tp6207
(lp6208
s(S'HMGA1'
p6209
S'ONECUT1'
p6210
S'increases'
p6211
tp6212
(lp6213
s(S'uPA/uPAR/alphav/beta3 Integrin/Vitronectin'
p6214
S'SRC'
p6215
S'adds_modification'
p6216
tp6217
(lp6218
s(S'ETS1'
p6219
S'CYP26A1'
p6220
S'increases'
p6221
tp6222
(lp6223
s(S'ESRRA'
p6224
S'TLX2'
p6225
S'increases'
p6226
tp6227
(lp6228
s(S'ROCK2'
p6229
S'RHO FAMILY GTPASE-ACTIVE'
p6230
S'binds'
p6231
tp6232
(lp6233
s(S'ATF4'
p6234
S'CYP26A1'
p6235
S'increases'
p6236
tp6237
(lp6238
s(S'OR5I1'
p6239
S'CYP26A1'
p6240
S'increases'
p6241
tp6242
(lp6243
s(S'PITX2'
p6244
S'GATA1'
p6245
S'increases'
p6246
tp6247
(lp6248
s(S'AHR'
p6249
S'ONECUT1'
p6250
S'increases'
p6251
tp6252
(lp6253
s(S'PTF1A'
p6254
S'MECOM'
p6255
S'increases'
p6256
tp6257
(lp6258
s(S'arsenic trioxide'
p6259
S'HRAS MRNA'
p6260
S'increases'
p6261
tp6262
(lp6263
s(S'TCF3'
p6264
S'REPIN1'
p6265
S'increases'
p6266
tp6267
(lp6268
s(S'STAT6'
p6269
S'FOXO3'
p6270
S'increases'
p6271
tp6272
(lp6273
s(S'POU1F1'
p6274
S'POU2F1'
p6275
S'increases'
p6276
tp6277
(lp6278
s(S'RHOA/GTP'
p6279
S'ROCK'
p6280
S'increases_activity'
p6281
tp6282
(lp6283
s(S'PITPNA'
p6284
S'PI-4-5-P2'
p6285
S'translocates'
p6286
tp6287
(lp6288
s(S'MDM-2'
p6289
S'P14/19 ARF'
p6290
S'binds'
p6291
tp6292
(lp6293
s(S'TEAD1'
p6294
S'FOXO3'
p6295
S'increases'
p6296
tp6297
(lp6298
s(S'MYC'
p6299
S'MAX'
p6300
S'increases'
p6301
tp6302
(lp6303
g3787
aS'MYC proteins function as active heterodimers with MAX via their conserved bHLH-LZ domains to exert transcriptional activation via direct binding to E-Box motifs (CANNTG) within target gene promoters and the subsequent recruitment of multiple transcriptional coactivators.'
p6304
aS'Heterodimerization with MAX is required for direct binding of MYC proteins to DNA. '
p6305
aS'MYC is a member of a basic helix-loop-helix transcription-leucine zipper (bHLH-Zip) factor family whose members dimerize with MAX and bind to specific DNA sequences called E-boxes ('
p6306
ag2839
ag2840
as(S'GRB2:SOS1'
p6307
S'EGF:PHOSPHO-EGFR:PHOSPHO-SHC'
p6308
S'binds'
p6309
tp6310
(lp6311
s(S'NF1'
p6312
S'RUNX1'
p6313
S'increases'
p6314
tp6315
(lp6316
s(S'ZEB1'
p6317
S'GATA6'
p6318
S'increases'
p6319
tp6320
(lp6321
s(S'TBP'
p6322
S'EN1'
p6323
S'increases'
p6324
tp6325
(lp6326
s(S'FOXA1'
p6327
S'FOXD3'
p6328
S'increases'
p6329
tp6330
(lp6331
s(S'CART1'
p6332
S'EN1'
p6333
S'increases'
p6334
tp6335
(lp6336
s(S'MAX'
p6337
S'CEBPA'
p6338
S'increases'
p6339
tp6340
(lp6341
s(S'GATA6'
p6342
S'NRAS'
p6343
S'increases'
p6344
tp6345
(lp6346
s(S'PTF1A'
p6347
S'FOXO3'
p6348
S'increases'
p6349
tp6350
(lp6351
s(S'LEF1'
p6352
S'FOXA1'
p6353
S'increases'
p6354
tp6355
(lp6356
s(S'hsa-let-7g-5p'
p6357
S'KRAS'
p6358
S'decreases'
p6359
tp6360
(lp6361
s(S'ZBTB14'
p6362
S'CYP26A1'
p6363
S'increases'
p6364
tp6365
(lp6366
s(S'POU1F1'
p6367
S'FOXO4'
p6368
S'increases'
p6369
tp6370
(lp6371
s(S'PI3K'
p6372
S'PI-4-5-P2'
p6373
S'translocates'
p6374
tp6375
(lp6376
s(S'GABPB2'
p6377
S'NRAS'
p6378
S'increases'
p6379
tp6380
(lp6381
s(S'ELK1'
p6382
S'LEF1'
p6383
S'increases'
p6384
tp6385
(lp6386
s(S'Estrogens'
p6387
S'HRAS MRNA'
p6388
S'increases'
p6389
tp6390
(lp6391
s(S'CYP26A1'
p6392
S'CEBPA'
p6393
S'increases'
p6394
tp6395
(lp6396
s(S'SPI1'
p6397
S'POU2F1'
p6398
S'increases'
p6399
tp6400
(lp6401
s(S'PPARG'
p6402
S'CYP26A1'
p6403
S'increases'
p6404
tp6405
(lp6406
s(S'Asbestos, Serpentine'
p6407
S'HRAS PROTEIN'
p6408
S'increases'
p6409
tp6410
(lp6411
s(S'RET51/GFRALPHA1/GDNF/DOK1'
p6412
S'RASGAP'
p6413
S'binds'
p6414
tp6415
(lp6416
s(S'FOXO1'
p6417
S'GATA6'
p6418
S'increases'
p6419
tp6420
(lp6421
s(S'Cadmium'
p6422
S'KRAS PROTEIN'
p6423
S'increases'
p6424
tp6425
(lp6426
s(S'MAX'
p6427
S'EN1'
p6428
S'increases'
p6429
tp6430
(lp6431
s(S'TLX2'
p6432
S'NRAS'
p6433
S'increases'
p6434
tp6435
(lp6436
s(S'SREBF1'
p6437
S'CYP26A1'
p6438
S'increases'
p6439
tp6440
(lp6441
s(S'SMAD3'
p6442
S'MEIS1'
p6443
S'increases'
p6444
tp6445
(lp6446
s(S'Acetaminophen'
p6447
S'NRAS MRNA'
p6448
S'decreases'
p6449
tp6450
(lp6451
s(S'LEF1'
p6452
S'ETS1'
p6453
S'increases'
p6454
tp6455
(lp6456
s(S'SRF'
p6457
S'MEIS1'
p6458
S'increases'
p6459
tp6460
(lp6461
s(S'BRAF'
p6462
S'MKK3-MKK6'
p6463
S'increases_activity'
p6464
tp6465
(lp6466
s(S'HRAS/GTP'
p6467
S'RAF1'
p6468
S'adds_modification'
p6469
tp6470
(lp6471
s(S'MSX1'
p6472
S'CYP26A1'
p6473
S'increases'
p6474
tp6475
(lp6476
s(S'GATA4'
p6477
S'ETS1'
p6478
S'increases'
p6479
tp6480
(lp6481
s(S'E4F1'
p6482
S'FOXA1'
p6483
S'increases'
p6484
tp6485
(lp6486
s(S'FOXD1'
p6487
S'LEF1'
p6488
S'increases'
p6489
tp6490
(lp6491
s(S'CUX1'
p6492
S'MAX'
p6493
S'increases'
p6494
tp6495
(lp6496
s(S'CYP26A1'
p6497
S'CBFA2T3'
p6498
S'increases'
p6499
tp6500
(lp6501
s(S'CAM/CA2+'
p6502
S'KRAS ISOFORM 4B/GTP'
p6503
S'binds'
p6504
tp6505
(lp6506
s(S'MYOG'
p6507
S'STAT5A'
p6508
S'increases'
p6509
tp6510
(lp6511
s(S'MYOD1'
p6512
S'STAT5A'
p6513
S'increases'
p6514
tp6515
(lp6516
s(S'HNF1A'
p6517
S'POU3F2'
p6518
S'increases'
p6519
tp6520
(lp6521
s(S'EPH'
p6522
S'EPHR'
p6523
S'binds'
p6524
tp6525
(lp6526
S'We determined anti-endothelial cell antibody (AECA) bioactivity in protein A-elutes of baseline plasma in 305 participants in the VA NEPHRON-D study, a randomized trial of angiotensin receptor blocker (ARB) or dual ARB plus angiotensin-converting enzyme inhibitor therapy in type 2 diabetes with proteinuric nephropathy.'
p6527
aS'A VA NEPHRON-D primary endpoint [end-stage renal disease (ESRD), significant reduction in estimated glomerular filtration rate, or death] was experienced by 58 individuals.'
p6528
aS'The study population for VA NEPHRON-D has been previously described.'
p6529
aS'Investigators for the VA NEPHRON-D (Site Primary Investigators, Drs): K. Servilla, S. Seliger, N. Purohit, J. Kaufman, J. Lohr, M. Lopes-Virella, R. Miller, J. Othersen, R. Reilly, W. Kourany, S. Quinn, D. Leehey, A. Lteif, B. Dixon, A. Goel, M. Krause, J. McMillan, B.'
p6530
as(S'PDGF:PHOSPHO-PDGF RECEPTOR DIMER'
p6531
S'GRB2:SOS1'
p6532
S'binds'
p6533
tp6534
(lp6535
s(S'HRAS/GTP'
p6536
S'PI3K'
p6537
S'increases_activity'
p6538
tp6539
(lp6540
s(S'RUNX1'
p6541
S'TLX2'
p6542
S'increases'
p6543
tp6544
(lp6545
s(S'MYOG'
p6546
S'CYP26A1'
p6547
S'increases'
p6548
tp6549
(lp6550
s(S'PAX2'
p6551
S'EN1'
p6552
S'increases'
p6553
tp6554
(lp6555
s(S'TFCP2'
p6556
S'CYP26A1'
p6557
S'increases'
p6558
tp6559
(lp6560
s(S'hsa-miR-145-5p'
p6561
S'NRAS'
p6562
S'decreases'
p6563
tp6564
(lp6565
s(S'KAT2B'
p6566
S'GATA1'
p6567
S'increases'
p6568
tp6569
(lp6570
s(S'P-EGFR MUTANTS:P-Y349,350-SHC1'
p6571
S'GRB2:SOS1'
p6572
S'binds'
p6573
tp6574
(lp6575
s(S'E2F1'
p6576
S'MECOM'
p6577
S'increases'
p6578
tp6579
(lp6580
s(S'GNB1/GNG2'
p6581
S'SRC'
p6582
S'adds_modification'
p6583
tp6584
(lp6585
s(S'ZBTB14'
p6586
S'MAX'
p6587
S'increases'
p6588
tp6589
(lp6590
s(S'RALGDS'
p6591
S'P21 RAS:GTP'
p6592
S'binds'
p6593
tp6594
(lp6595
s(S'RHOA/GTP'
p6596
S'ROCK2'
p6597
S'increases_activity'
p6598
tp6599
(lp6600
s(S'NR1H3'
p6601
S'FOXD3'
p6602
S'increases'
p6603
tp6604
(lp6605
s(S'TFAP4'
p6606
S'GATA1'
p6607
S'increases'
p6608
tp6609
(lp6610
s(S'FOXA1'
p6611
S'GATA6'
p6612
S'increases'
p6613
tp6614
(lp6615
s(S'GRB2:SOS1'
p6616
S'P-SHC'
p6617
S'binds'
p6618
tp6619
(lp6620
s(S'E2F1'
p6621
S'FOXO3'
p6622
S'increases'
p6623
tp6624
(lp6625
s.