(dp0
(S'ZEB1'
p1
S'FOXA1'
p2
S'increases'
p3
tp4
(lp5
s(S'FOXJ1'
p6
S'GATA6'
p7
S'increases'
p8
tp9
(lp10
s(S'TFAP4'
p11
S'FOXD3'
p12
S'increases'
p13
tp14
(lp15
s(S'TBP'
p16
S'MEIS1'
p17
S'increases'
p18
tp19
(lp20
s(S'GCM1'
p21
S'GATA6'
p22
S'increases'
p23
tp24
(lp25
s(S'T-DHT'
p26
S'SRC'
p27
S'adds_modification'
p28
tp29
(lp30
s(S'MAZ'
p31
S'GABPB2'
p32
S'increases'
p33
tp34
(lp35
s(S'HMGA1'
p36
S'EN1'
p37
S'increases'
p38
tp39
(lp40
s(S'CYP26A1'
p41
S'NRAS'
p42
S'increases'
p43
tp44
(lp45
s(S'CUX1'
p46
S'MEIS1'
p47
S'increases'
p48
tp49
(lp50
s(S'REPIN1'
p51
S'BACH1'
p52
S'increases'
p53
tp54
(lp55
s(S'TFDP1'
p56
S'HOXA9'
p57
S'increases'
p58
tp59
(lp60
s(S'NFE2L1'
p61
S'CYP26A1'
p62
S'increases'
p63
tp64
(lp65
s(S'MAZ'
p66
S'GATA1'
p67
S'increases'
p68
tp69
(lp70
s(S'TCF12'
p71
S'GABPB2'
p72
S'increases'
p73
tp74
(lp75
s(S'ETS2'
p76
S'FOXO3'
p77
S'increases'
p78
tp79
(lp80
s(S'hsa-let-7c-5p'
p81
S'NRAS'
p82
S'decreases'
p83
tp84
(lp85
s(S'SPI1'
p86
S'CYP26A1'
p87
S'increases'
p88
tp89
(lp90
s(S'RAC1/GTP'
p91
S'MKK4'
p92
S'adds_modification'
p93
tp94
(lp95
s(S'Quercetin'
p96
S'KRAS MRNA'
p97
S'decreases'
p98
tp99
(lp100
s(S'INSULIN RECEPTOR/INSULIN/SHC'
p101
S'GRB2'
p102
S'binds'
p103
tp104
(lp105
s(S'TAp63a (tetramer)'
p106
S'PKC DELTA'
p107
S'increases'
p108
tp109
(lp110
s(S'FOXO1'
p111
S'POU2F1'
p112
S'increases'
p113
tp114
(lp115
s(S'FOXL1'
p116
S'EN1'
p117
S'increases'
p118
tp119
(lp120
s(S'TBP'
p121
S'CYP26A1'
p122
S'increases'
p123
tp124
(lp125
s(S'Heptachlor'
p126
S'HRAS MRNA'
p127
S'decreases'
p128
tp129
(lp130
s(S'PCBP1'
p131
S'CYP26A1'
p132
S'increases'
p133
tp134
(lp135
s(S'ZBTB18'
p136
S'CYP26A1'
p137
S'increases'
p138
tp139
(lp140
s(S'GATA2'
p141
S'CYP26A1'
p142
S'increases'
p143
tp144
(lp145
s(S'Cadmium'
p146
S'KRAS MRNA'
p147
S'increases'
p148
tp149
(lp150
s(S'HNF1A'
p151
S'POU2F1'
p152
S'increases'
p153
tp154
(lp155
s(S'ABT-100'
p156
S'HRAS PROTEIN'
p157
S'inhibits_modification'
p158
tp159
(lp160
s(S'ELF1'
p161
S'CYP26A1'
p162
S'increases'
p163
tp164
(lp165
s(S'LEF1'
p166
S'KRAS'
p167
S'increases'
p168
tp169
(lp170
s(S'NKX2-1'
p171
S'FOXD3'
p172
S'increases'
p173
tp174
(lp175
s(S'PI-3-4-5-P3'
p176
S'BTK-ITK'
p177
S'translocates'
p178
tp179
(lp180
s(S'POU6F1'
p181
S'HOXA9'
p182
S'increases'
p183
tp184
(lp185
s(S'Myb'
p186
S'MYB'
p187
S'increases'
p188
tp189
(lp190
s(S'PAX5'
p191
S'CYP26A1'
p192
S'increases'
p193
tp194
(lp195
s(S'FOXO4'
p196
S'FOXD3'
p197
S'increases'
p198
tp199
(lp200
s(S'CYP26A1'
p201
S'FOXO4'
p202
S'increases'
p203
tp204
(lp205
s(S'cell adhesion'
p206
S'HRAS/GDP'
p207
S'increases_activity'
p208
tp209
(lp210
s(S'IRF7'
p211
S'CYP26A1'
p212
S'increases'
p213
tp214
(lp215
s(S'7,8-Dihydro-7,8-dihydroxybenzo(a)pyrene 9,10-oxide'
p216
S'KRAS PROTEIN'
p217
S'increases'
p218
tp219
(lp220
s(S'PITX2'
p221
S'POU2F1'
p222
S'increases'
p223
tp224
(lp225
s(S'E2F1'
p226
S'CYP26A1'
p227
S'increases'
p228
tp229
(lp230
s(S'ATF1'
p231
S'CYP26A1'
p232
S'increases'
p233
tp234
(lp235
s(S'PI3K'
p236
S'PKC DELTA'
p237
S'adds_modification'
p238
tp239
(lp240
s(S'SOX5'
p241
S'HOXA9'
p242
S'increases'
p243
tp244
(lp245
s(S'FOXO4'
p246
S'POU2F1'
p247
S'increases'
p248
tp249
(lp250
s(S'FOXO4'
p251
S'GATA6'
p252
S'increases'
p253
tp254
(lp255
s(S'LEF1'
p256
S'FOXF2'
p257
S'increases'
p258
tp259
(lp260
s(S'Insulin Receptor/Insuli/IRS1/GRB2/SHC/Sos'
p261
S'HRAS/GDP'
p262
S'increases_activity'
p263
tp264
(lp265
s(S'TLX2'
p266
S'RUNX1'
p267
S'increases'
p268
tp269
(lp270
s(S'ALX4'
p271
S'JUN'
p272
S'increases'
p273
tp274
(lp275
s(S'RHOA/GTP'
p276
S'RHOGDI'
p277
S'binds'
p278
tp279
(lp280
s(S'GCM1'
p281
S'CYP26A1'
p282
S'increases'
p283
tp284
(lp285
s(S'RB1'
p286
S'ONECUT1'
p287
S'increases'
p288
tp289
(lp290
s(S'NHLH1'
p291
S'CYP26A1'
p292
S'increases'
p293
tp294
(lp295
s(S'NR3C1'
p296
S'BACH1'
p297
S'increases'
p298
tp299
(lp300
s(S'HNF4A'
p301
S'CYP26A1'
p302
S'increases'
p303
tp304
(lp305
s(S'YY1'
p306
S'FOXO3'
p307
S'increases'
p308
tp309
(lp310
s(S'GRB2:SOS1'
p311
S'P-EGFR MUTANTS DIMER'
p312
S'binds'
p313
tp314
(lp315
s(S'P-Y349,350-SHC1:P-ERBB4'
p316
S'GRB2:SOS1'
p317
S'binds'
p318
tp319
(lp320
s(S'FOXN1'
p321
S'ONECUT1'
p322
S'increases'
p323
tp324
(lp325
s(S'TFAP4'
p326
S'MYC'
p327
S'increases'
p328
tp329
(lp330
s(S'MYC'
p331
S'EN1'
p332
S'increases'
p333
tp334
(lp335
s(S'Antigen/IgE/Fc epsilon R1/LYN/SYK'
p336
S'SHC/GRB2/SOS1'
p337
S'increases_activity'
p338
tp339
(lp340
s(S'14-3-3 BETA, ZETA'
p341
S'GARNL4'
p342
S'binds'
p343
tp344
(lp345
s(S'SMAD1'
p346
S'EN1'
p347
S'increases'
p348
tp349
(lp350
s(S'Raf-1'
p351
S'MEK1-2'
p352
S'adds_modification'
p353
tp354
(lp355
s(S'POU2F1'
p356
S'FOXO3'
p357
S'increases'
p358
tp359
(lp360
s(S'NGF (dimer)/TRKA'
p361
S'RASGRF1'
p362
S'adds_modification'
p363
tp364
(lp365
s(S'TCF4'
p366
S'CYP26A1'
p367
S'increases'
p368
tp369
(lp370
s(S'STAT5B'
p371
S'TLX2'
p372
S'increases'
p373
tp374
(lp375
s(S'CYP26A1'
p376
S'SRF'
p377
S'increases'
p378
tp379
(lp380
s(S'STAT1'
p381
S'NRAS'
p382
S'increases'
p383
tp384
(lp385
s(S'TFDP1'
p386
S'GATA1'
p387
S'increases'
p388
tp389
(lp390
s(S'PI3K'
p391
S'ALPHA6/BETA4 INTEGRIN/LAMININ'
p392
S'binds'
p393
tp394
(lp395
s(S'FOXF2'
p396
S'NRAS'
p397
S'increases'
p398
tp399
(lp400
s(S'CUX1'
p401
S'POU2F1'
p402
S'increases'
p403
tp404
(lp405
s(S'ETS2'
p406
S'STAT4'
p407
S'increases'
p408
tp409
(lp410
s(S'EN1'
p411
S'CYP26A1'
p412
S'increases'
p413
tp414
(lp415
s(S'COMPLEX (RAS/GTP)'
p416
S'RAF'
p417
S'binds'
p418
tp419
(lp420
s(S'LEF1'
p421
S'EN1'
p422
S'increases'
p423
tp424
(lp425
s(S'FOXL1'
p426
S'NRAS'
p427
S'increases'
p428
tp429
(lp430
s(S'ELF2'
p431
S'CYP26A1'
p432
S'increases'
p433
tp434
(lp435
s(S'Src Family Kinases-active'
p436
S'EGF/EGFR'
p437
S'adds_modification'
p438
tp439
(lp440
s(S'RUNX1'
p441
S'POU2F1'
p442
S'increases'
p443
tp444
(lp445
s(S'RHOA/GTP'
p446
S'CITRON-N'
p447
S'increases_activity'
p448
tp449
(lp450
s(S'PAX4'
p451
S'SRF'
p452
S'increases'
p453
tp454
(lp455
s(S'Vitamin E'
p456
S'HRAS MRNA'
p457
S'increases'
p458
tp459
(lp460
s(S'CDX2'
p461
S'FOXD3'
p462
S'increases'
p463
tp464
(lp465
s(S'Plant Extracts'
p466
S'KEAP1 PROTEIN'
p467
S'decreases'
p468
tp469
(lp470
s(S'PAX4'
p471
S'CBFA2T3'
p472
S'increases'
p473
tp474
(lp475
s(S'FOXD1'
p476
S'CYP26A1'
p477
S'increases'
p478
tp479
(lp480
s(S'Antigen/IgE/Fc epsilon R1/LYN/SYK'
p481
S'VAV1'
p482
S'adds_modification'
p483
tp484
(lp485
s(S'PCBP1'
p486
S'MEIS1'
p487
S'increases'
p488
tp489
(lp490
s(S'FOXI1'
p491
S'FOXD3'
p492
S'increases'
p493
tp494
(lp495
s(S'GATA4'
p496
S'MEIS1'
p497
S'increases'
p498
tp499
(lp500
s(S'STAT5B'
p501
S'CEBPG'
p502
S'increases'
p503
tp504
(lp505
s(S'TFDP2'
p506
S'MAZ'
p507
S'increases'
p508
tp509
(lp510
s(S'PI3K'
p511
S'SHP2'
p512
S'binds'
p513
tp514
(lp515
s(S'SPI1'
p516
S'ONECUT1'
p517
S'increases'
p518
tp519
(lp520
s(S'STAT6'
p521
S'EN1'
p522
S'increases'
p523
tp524
(lp525
s(S'TLX2'
p526
S'CYP26A1'
p527
S'increases'
p528
tp529
(lp530
s(S'RAF1'
p531
S'MEK1-2'
p532
S'increases_activity'
p533
tp534
(lp535
s(S'STAT5A'
p536
S'IRF1'
p537
S'increases'
p538
tp539
(lp540
s(S'2-amino-1-methyl-6-phenylimidazo(4,5-b)pyridine'
p541
S'HRAS MRNA'
p542
S'increases'
p543
tp544
(lp545
s(S'MAZ'
p546
S'POU2F1'
p547
S'increases'
p548
tp549
(lp550
s(S'MAZ'
p551
S'SRF'
p552
S'increases'
p553
tp554
(lp555
s(S'GATA1'
p556
S'JUN'
p557
S'increases'
p558
tp559
(lp560
s(S'FOXA1'
p561
S'NRAS'
p562
S'increases'
p563
tp564
(lp565
s(S'STAT1'
p566
S'EN1'
p567
S'increases'
p568
tp569
(lp570
s(S'GTF2A2'
p571
S'MAX'
p572
S'increases'
p573
tp574
(lp575
s(S'LMO2'
p576
S'EN1'
p577
S'increases'
p578
tp579
(lp580
s(S'MYOD1'
p581
S'LEF1'
p582
S'increases'
p583
tp584
(lp585
s(S'ATF3'
p586
S'JUN'
p587
S'increases'
p588
tp589
(lp590
s(S'GRB2:SOS1'
p591
S'ACTIVATED FGFR:P-SHC1'
p592
S'binds'
p593
tp594
(lp595
s(S'MAFG'
p596
S'BACH1'
p597
S'increases'
p598
tp599
(lp600
s(S'POU3F2'
p601
S'POU2F1'
p602
S'increases'
p603
tp604
(lp605
s(S'K 7174'
p606
S'KRAS MRNA'
p607
S'increases'
p608
tp609
(lp610
s(S'POU1F1'
p611
S'RUNX1'
p612
S'increases'
p613
tp614
(lp615
s(S'HRAS protein'
p616
S'CCND1 MRNA'
p617
S'increases'
p618
tp619
(lp620
s(S'YY1'
p621
S'EN1'
p622
S'increases'
p623
tp624
(lp625
s(S'resveratrol'
p626
S'HRAS MRNA'
p627
S'increases'
p628
tp629
(lp630
s(S'NKX2-1'
p631
S'HOXA9'
p632
S'increases'
p633
tp634
(lp635
s(S'HSF1'
p636
S'CYP26A1'
p637
S'increases'
p638
tp639
(lp640
s(S'MYC'
p641
S'HOXA9'
p642
S'increases'
p643
tp644
(lp645
s(S'Raf'
p646
S'MEK'
p647
S'adds_modification'
p648
tp649
(lp650
s(S'TFDP1'
p651
S'MAZ'
p652
S'increases'
p653
tp654
(lp655
s(S'SPRED1'
p656
S'HRAS'
p657
S'binds'
p658
tp659
(lp660
s(S'MYCN'
p661
S'CYP26A1'
p662
S'increases'
p663
tp664
(lp665
s(S'AHR'
p666
S'FOXD3'
p667
S'increases'
p668
tp669
(lp670
s(S'SF1'
p671
S'CYP26A1'
p672
S'increases'
p673
tp674
(lp675
s(S'MEIS1'
p676
S'ETS1'
p677
S'increases'
p678
tp679
(lp680
s(S'Copper Sulfate'
p681
S'HRAS MRNA'
p682
S'decreases'
p683
tp684
(lp685
s(S'MAZ'
p686
S'MYC'
p687
S'increases'
p688
tp689
(lp690
s(S'E4F1'
p691
S'HOXA9'
p692
S'increases'
p693
tp694
(lp695
s(S'GATA1'
p696
S'GATA6'
p697
S'increases'
p698
tp699
(lp700
s(S'RUNX2'
p701
S'POU2F1'
p702
S'increases'
p703
tp704
(lp705
s(S'CYP26A1'
p706
S'GATA6'
p707
S'increases'
p708
tp709
(lp710
s(S'PAX4'
p711
S'GATA1'
p712
S'increases'
p713
tp714
(lp715
s(S'ELF2'
p716
S'STAT5A'
p717
S'increases'
p718
tp719
(lp720
s(S'CART1'
p721
S'NRAS'
p722
S'increases'
p723
tp724
(lp725
s(S'IGF-1R heterotetramer/IGF1/GRB2/Sos/Shc'
p726
S'HRAS/GDP'
p727
S'increases_activity'
p728
tp729
(lp730
s(S'RB1'
p731
S'CYP26A1'
p732
S'increases'
p733
tp734
(lp735
s(S'CEBPG'
p736
S'HOXA9'
p737
S'increases'
p738
tp739
(lp740
s(S'GRB2/SOS1/SHC'
p741
S'IGF-1R HETEROTETRAMER/IGF1'
p742
S'binds'
p743
tp744
(lp745
s(S'PRRX2'
p746
S'CYP26A1'
p747
S'increases'
p748
tp749
(lp750
s(S'TEAD1'
p751
S'CYP26A1'
p752
S'increases'
p753
tp754
(lp755
s(S'STAT5A'
p756
S'FOXA1'
p757
S'increases'
p758
tp759
(lp760
s(S'ATF2'
p761
S'FOXD3'
p762
S'increases'
p763
tp764
(lp765
s(S'REPIN1'
p766
S'FOXO4'
p767
S'increases'
p768
tp769
(lp770
s(S'FOXF2'
p771
S'ETS1'
p772
S'increases'
p773
tp774
(lp775
s(S'ETV7'
p776
S'MEIS1'
p777
S'increases'
p778
tp779
(lp780
s(S'RUNX2'
p781
S'RUNX1'
p782
S'increases'
p783
tp784
(lp785
s(S'OR5I1'
p786
S'GATA1'
p787
S'increases'
p788
tp789
(lp790
s(S'MSX1'
p791
S'EN1'
p792
S'increases'
p793
tp794
(lp795
s(S'GTF3A'
p796
S'IRF1'
p797
S'increases'
p798
tp799
(lp800
s(S'POU2F1'
p801
S'SRF'
p802
S'increases'
p803
tp804
(lp805
s(S'PLC-GAMMA'
p806
S'COMPLEX (GADS/SLP-76)'
p807
S'binds'
p808
tp809
(lp810
s(S'STAT4'
p811
S'STAT5A'
p812
S'increases'
p813
tp814
(lp815
s(S'JUN'
p816
S'BACH1'
p817
S'increases'
p818
tp819
(lp820
s(S'POU1F1'
p821
S'HOXA9'
p822
S'increases'
p823
tp824
(lp825
s(S'docetaxel'
p826
S'HRAS PROTEIN'
p827
S'increases'
p828
tp829
(lp830
s(S'MAX'
p831
S'LEF1'
p832
S'increases'
p833
tp834
(lp835
s(S'FOXA1'
p836
S'CYP26A1'
p837
S'increases'
p838
tp839
(lp840
s(S'GATA4'
p841
S'FOXD3'
p842
S'increases'
p843
tp844
(lp845
s(S'ZBTB18'
p846
S'RUNX1'
p847
S'increases'
p848
tp849
(lp850
s(S'ATF3'
p851
S'RUNX1'
p852
S'increases'
p853
tp854
(lp855
s(S'NKX2-1'
p856
S'CYP26A1'
p857
S'increases'
p858
tp859
(lp860
s(S'NR3C1'
p861
S'FOXA1'
p862
S'increases'
p863
tp864
(lp865
s(S'RAS family/GTP'
p866
S'RIN1'
p867
S'increases_activity'
p868
tp869
(lp870
s(S'COMPLEX (RAS/GTP/ RAF)'
p871
S'MEK'
p872
S'binds'
p873
tp874
(lp875
s(S'CDC5L'
p876
S'NRAS'
p877
S'increases'
p878
tp879
(lp880
s(S'Vitamin E'
p881
S'NRAS MRNA'
p882
S'decreases'
p883
tp884
(lp885
s(S'NF1'
p886
S'LEF1'
p887
S'increases'
p888
tp889
(lp890
s(S'ETS1'
p891
S'EN1'
p892
S'increases'
p893
tp894
(lp895
s(S'CRAF'
p896
S'YWHAB'
p897
S'binds'
p898
tp899
(lp900
s(S'CEBPD'
p901
S'JUN'
p902
S'increases'
p903
tp904
(lp905
s(S'MAX'
p906
S'RUNX2'
p907
S'increases'
p908
tp909
(lp910
s(S'CEBPA'
p911
S'MECOM'
p912
S'increases'
p913
tp914
(lp915
s(S'PAX2'
p916
S'GATA1'
p917
S'increases'
p918
tp919
(lp920
s(S'CYP26A1'
p921
S'TLX2'
p922
S'increases'
p923
tp924
(lp925
s(S'GFI1'
p926
S'ETS1'
p927
S'increases'
p928
tp929
(lp930
s(S'14-3-3:P-S259,Y340,Y341,S621-RAF1:RAS:GTP'
p931
S'MEK'
p932
S'binds'
p933
tp934
(lp935
s(S'P-S,T-MEK2'
p936
S'ERK2'
p937
S'binds'
p938
tp939
(lp940
s(S'HRAS/GTP'
p941
S'RIN2'
p942
S'increases_activity'
p943
tp944
(lp945
s(S'Ras-GTP'
p946
S'P42/P44MAPKS'
p947
S'adds_modification'
p948
tp949
(lp950
s(S'SRF'
p951
S'CYP26A1'
p952
S'increases'
p953
tp954
(lp955
s(S'FOXL1'
p956
S'RUNX2'
p957
S'increases'
p958
tp959
(lp960
s(S'EGR4'
p961
S'LEF1'
p962
S'increases'
p963
tp964
(lp965
s(S'P-IRS1,2'
p966
S'GRB2:SOS1'
p967
S'binds'
p968
tp969
(lp970
s(S'VEGFR2 (dimer)/VEGFA (dimer)/alphav/beta3 Integrin/Vitronectin'
p971
S'SRC'
p972
S'adds_modification'
p973
tp974
(lp975
s(S'BACH2'
p976
S'BACH1'
p977
S'increases'
p978
tp979
(lp980
s(S'ONECUT1'
p981
S'RUNX1'
p982
S'increases'
p983
tp984
(lp985
s(S'FOXJ2'
p986
S'RUNX2'
p987
S'increases'
p988
tp989
(lp990
s(S'PI-3-4-5-P3'
p991
S'AKT1'
p992
S'translocates'
p993
tp994
(lp995
s(S'TFAP4'
p996
S'BACH1'
p997
S'increases'
p998
tp999
(lp1000
s(S'MEKK1/4'
p1001
S'MKK3/6'
p1002
S'adds_modification'
p1003
tp1004
(lp1005
s(S'VSX1'
p1006
S'MECOM'
p1007
S'increases'
p1008
tp1009
(lp1010
s(S'IRF1'
p1011
S'GATA6'
p1012
S'increases'
p1013
tp1014
(lp1015
s(S'MAX'
p1016
S'HOXA9'
p1017
S'increases'
p1018
tp1019
(lp1020
s(S'RB1'
p1021
S'MAZ'
p1022
S'increases'
p1023
tp1024
(lp1025
s(S'GATA1'
p1026
S'EN1'
p1027
S'increases'
p1028
tp1029
(lp1030
s(S'HIF1A'
p1031
S'SRF'
p1032
S'increases'
p1033
tp1034
(lp1035
s(S'IRF8'
p1036
S'CYP26A1'
p1037
S'increases'
p1038
tp1039
(lp1040
s(S'MTF1'
p1041
S'CYP26A1'
p1042
S'increases'
p1043
tp1044
(lp1045
s(S'PI-3-4-5-P3'
p1046
S'GAB1'
p1047
S'translocates'
p1048
tp1049
(lp1050
s(S'PI-3-4-5-P3'
p1051
S'AKT1'
p1052
S'adds_modification'
p1053
tp1054
(lp1055
s(S'RXRA'
p1056
S'HOXA9'
p1057
S'increases'
p1058
tp1059
(lp1060
s(S'AKT1'
p1061
S'RAF1'
p1062
S'binds'
p1063
tp1064
(lp1065
s(S'HSF2'
p1066
S'JUN'
p1067
S'increases'
p1068
tp1069
(lp1070
s(S'PAX2'
p1071
S'CYP26A1'
p1072
S'increases'
p1073
tp1074
(lp1075
s(S'ETV7'
p1076
S'CYP26A1'
p1077
S'increases'
p1078
tp1079
(lp1080
s(S'FOXO3'
p1081
S'NRAS'
p1082
S'increases'
p1083
tp1084
(lp1085
s(S'TP53'
p1086
S'REPIN1'
p1087
S'increases'
p1088
tp1089
(lp1090
s(S'STAT6'
p1091
S'CYP26A1'
p1092
S'increases'
p1093
tp1094
(lp1095
s(S'JUN'
p1096
S'NRAS'
p1097
S'increases'
p1098
tp1099
(lp1100
s(S'MYCN'
p1101
S'NRAS'
p1102
S'increases'
p1103
tp1104
(lp1105
s(S'STAT3'
p1106
S'YY1'
p1107
S'increases'
p1108
tp1109
(lp1110
s(S'Methyl Methanesulfonate'
p1111
S'HRAS MRNA'
p1112
S'increases'
p1113
tp1114
(lp1115
s(S'RHOA/GTP'
p1116
S'PKN'
p1117
S'increases_activity'
p1118
tp1119
(lp1120
s(S'NHLH1'
p1121
S'FOXJ2'
p1122
S'increases'
p1123
tp1124
(lp1125
s(S'RAS family/GTP'
p1126
S'BRAF'
p1127
S'adds_modification'
p1128
tp1129
(lp1130
s(S'RELA'
p1131
S'FOXJ2'
p1132
S'increases'
p1133
tp1134
(lp1135
s(S'TCF3'
p1136
S'RUNX1'
p1137
S'increases'
p1138
tp1139
(lp1140
s(S'FOXF2'
p1141
S'FOXO4'
p1142
S'increases'
p1143
tp1144
(lp1145
s(S'ATF4'
p1146
S'FOXD3'
p1147
S'increases'
p1148
tp1149
(lp1150
s(S'HAND1'
p1151
S'MECOM'
p1152
S'increases'
p1153
tp1154
(lp1155
s(S'RHOA/GTP'
p1156
S'P27KIP1'
p1157
S'adds_modification'
p1158
tp1159
(lp1160
s(S'SRF'
p1161
S'NRAS'
p1162
S'increases'
p1163
tp1164
(lp1165
s(S'ESRRA'
p1166
S'POU3F2'
p1167
S'increases'
p1168
tp1169
(lp1170
s(S'BRAF'
p1171
S'MEK1'
p1172
S'adds_modification'
p1173
tp1174
(lp1175
s(S'Cadmium Chloride'
p1176
S'KRAS PROTEIN'
p1177
S'increases'
p1178
tp1179
(lp1180
s(S'PRRX2'
p1181
S'MEIS1'
p1182
S'increases'
p1183
tp1184
(lp1185
s(S'MYC'
p1186
S'NRAS'
p1187
S'increases'
p1188
tp1189
(lp1190
s(S'MAZ'
p1191
S'KRAS'
p1192
S'increases'
p1193
tp1194
(lp1195
s(S'Rho Family GTPase-active'
p1196
S'PI3K'
p1197
S'increases_activity'
p1198
tp1199
(lp1200
s(S'STAT2'
p1201
S'CYP26A1'
p1202
S'increases'
p1203
tp1204
(lp1205
s(S'hsa-let-7a-5p'
p1206
S'KRAS'
p1207
S'decreases'
p1208
tp1209
(lp1210
s(S'POU3F2'
p1211
S'NRAS'
p1212
S'increases'
p1213
tp1214
(lp1215
s(S'SRF'
p1216
S'FOXO4'
p1217
S'increases'
p1218
tp1219
(lp1220
s(S'S1P1/Sphingosine-1-phosphate/PDGF-BB/PDGFRB (dimer)'
p1221
S'SRC FAMILY KINASES'
p1222
S'increases_activity'
p1223
tp1224
(lp1225
s(S'MYC/Max'
p1226
S'ERBB2'
p1227
S'decreases'
p1228
tp1229
(lp1230
s(S'SREBF1'
p1231
S'CBFA2T3'
p1232
S'increases'
p1233
tp1234
(lp1235
s(S'PI3K'
p1236
S'GELSOLIN/PI-3-4-5-P3'
p1237
S'binds'
p1238
tp1239
(lp1240
s(S'NHLH1'
p1241
S'EN1'
p1242
S'increases'
p1243
tp1244
(lp1245
s(S'LMO2'
p1246
S'GATA6'
p1247
S'increases'
p1248
tp1249
(lp1250
s(S'POU1F1'
p1251
S'FOXD3'
p1252
S'increases'
p1253
tp1254
(lp1255
s(S'hsa-miR-148b-3p'
p1256
S'NRAS'
p1257
S'decreases'
p1258
tp1259
(lp1260
s(S'Quercetin'
p1261
S'KRAS PROTEIN'
p1262
S'decreases'
p1263
tp1264
(lp1265
s(S'PAK2'
p1266
S'MEKK1'
p1267
S'adds_modification'
p1268
tp1269
(lp1270
s(S'LMO2'
p1271
S'MAZ'
p1272
S'increases'
p1273
tp1274
(lp1275
s(S'FOXO1'
p1276
S'POU3F2'
p1277
S'increases'
p1278
tp1279
(lp1280
s(S'NKX2-1'
p1281
S'MAZ'
p1282
S'increases'
p1283
tp1284
(lp1285
s(S'GRB2/SOS1'
p1286
S'PDGF-BB/PDGFRB (DIMER)/P52 SHC'
p1287
S'binds'
p1288
tp1289
(lp1290
s(S'PI3K'
p1291
S'CRK/P130 CAS/PAXILLIN'
p1292
S'increases_activity'
p1293
tp1294
(lp1295
s(S'ATF1'
p1296
S'FOXD3'
p1297
S'increases'
p1298
tp1299
(lp1300
s(S'GATA1'
p1301
S'SRF'
p1302
S'increases'
p1303
tp1304
(lp1305
s(S'TFAP2C'
p1306
S'CYP26A1'
p1307
S'increases'
p1308
tp1309
(lp1310
s(S'AHR'
p1311
S'MEIS1'
p1312
S'increases'
p1313
tp1314
(lp1315
s(S'ETS2'
p1316
S'CYP26A1'
p1317
S'increases'
p1318
tp1319
(lp1320
s(S'Estradiol'
p1321
S'NRAS MRNA'
p1322
S'increases'
p1323
tp1324
(lp1325
s(S'E2F1'
p1326
S'HOXA9'
p1327
S'increases'
p1328
tp1329
(lp1330
s(S'PDGF-BB/PDGFRB (DIMER)'
p1331
S'RASGAP'
p1332
S'binds'
p1333
tp1334
(lp1335
s(S'E2F1'
p1336
S'GABPB2'
p1337
S'increases'
p1338
tp1339
(lp1340
s(S'FOXJ1'
p1341
S'POU3F2'
p1342
S'increases'
p1343
tp1344
(lp1345
s(S'VSX1'
p1346
S'CYP26A1'
p1347
S'increases'
p1348
tp1349
(lp1350
s(S'SPI1'
p1351
S'CDC5L'
p1352
S'increases'
p1353
tp1354
(lp1355
s(S'Gi family'
p1356
S'HRAS/GDP'
p1357
S'increases_activity'
p1358
tp1359
(lp1360
s(S'TCF3'
p1361
S'CYP26A1'
p1362
S'increases'
p1363
tp1364
(lp1365
s(S'IGF-1R HETEROTETRAMER/IGF1/IRS1'
p1366
S'GRB2/SOS1'
p1367
S'binds'
p1368
tp1369
(lp1370
s(S'RAS family/GTP'
p1371
S'RALGDS'
p1372
S'translocates'
p1373
tp1374
(lp1375
s(S'PI3K'
p1376
S'RAC1/GDP'
p1377
S'increases_activity'
p1378
tp1379
(lp1380
s(S'Ca2+'
p1381
S'PKC'
p1382
S'increases_activity'
p1383
tp1384
(lp1385
s(S'ZIC1'
p1386
S'CYP26A1'
p1387
S'increases'
p1388
tp1389
(lp1390
s(S'IRF7'
p1391
S'TLX2'
p1392
S'increases'
p1393
tp1394
(lp1395
s(S'SHC/SHIP'
p1396
S'HRAS/GDP'
p1397
S'decreases_activity'
p1398
tp1399
(lp1400
s(S'hsa-let-7a-5p'
p1401
S'HRAS'
p1402
S'decreases'
p1403
tp1404
(lp1405
s(S'GATA4'
p1406
S'MAZ'
p1407
S'increases'
p1408
tp1409
(lp1410
s(S'EN1'
p1411
S'NRAS'
p1412
S'increases'
p1413
tp1414
(lp1415
s(S'PI3K'
p1416
S'BAM32'
p1417
S'adds_modification'
p1418
tp1419
(lp1420
s(S'GABPB1'
p1421
S'CYP26A1'
p1422
S'increases'
p1423
tp1424
(lp1425
s(S'Trifluoroethanol'
p1426
S'HRAS'
p1427
S'increases_activity'
p1428
tp1429
(lp1430
s(S'SOX5'
p1431
S'CYP26A1'
p1432
S'increases'
p1433
tp1434
(lp1435
s(S'GRB2/SOS1'
p1436
S'HGF(DIMER)/MET(DIMER)/P52 SHC'
p1437
S'binds'
p1438
tp1439
(lp1440
s(S'TCF12'
p1441
S'EN1'
p1442
S'increases'
p1443
tp1444
(lp1445
s(S'SOX9'
p1446
S'MEIS1'
p1447
S'increases'
p1448
tp1449
(lp1450
s(S'RB1'
p1451
S'MYC'
p1452
S'increases'
p1453
tp1454
(lp1455
s(S'RXRA'
p1456
S'FOXA1'
p1457
S'increases'
p1458
tp1459
(lp1460
s(S'decitabine'
p1461
S'HRAS MRNA'
p1462
S'decreases'
p1463
tp1464
(lp1465
s(S'VSX1'
p1466
S'EN1'
p1467
S'increases'
p1468
tp1469
(lp1470
s(S'FOXL1'
p1471
S'CYP26A1'
p1472
S'increases'
p1473
tp1474
(lp1475
s(S'PAX2'
p1476
S'RUNX1'
p1477
S'increases'
p1478
tp1479
(lp1480
s(S'MEKK1/4'
p1481
S'MKK4/7'
p1482
S'adds_modification'
p1483
tp1484
(lp1485
s(S'HOXA9'
p1486
S'CYP26A1'
p1487
S'increases'
p1488
tp1489
(lp1490
s(S'TRKC'
p1491
S'NT3 (DIMER)'
p1492
S'binds'
p1493
tp1494
(lp1495
s(S'PTF1A'
p1496
S'REPIN1'
p1497
S'increases'
p1498
tp1499
(lp1500
s(S'TGIF'
p1501
S'CYP26A1'
p1502
S'increases'
p1503
tp1504
(lp1505
s(S'MYOD1'
p1506
S'MYC'
p1507
S'increases'
p1508
tp1509
(lp1510
s(S'PKCT'
p1511
S'KRAS ISO2'
p1512
S'adds_modification'
p1513
tp1514
(lp1515
s(S'RAS family/GTP'
p1516
S'BRAF'
p1517
S'increases_activity'
p1518
tp1519
(lp1520
s(S'SPZ1'
p1521
S'CYP26A1'
p1522
S'increases'
p1523
tp1524
(lp1525
s(S'HRAS/GTP'
p1526
S'GALECTIN-1'
p1527
S'binds'
p1528
tp1529
(lp1530
s(S'DBP'
p1531
S'FOXD3'
p1532
S'increases'
p1533
tp1534
(lp1535
s(S'E2F1'
p1536
S'POU2F1'
p1537
S'increases'
p1538
tp1539
(lp1540
s(S'MEIS1'
p1541
S'CYP26A1'
p1542
S'increases'
p1543
tp1544
(lp1545
s(S'YY1'
p1546
S'NRAS'
p1547
S'increases'
p1548
tp1549
(lp1550
s(S'RAS:RAF'
p1551
S'YWHAB'
p1552
S'binds'
p1553
tp1554
(lp1555
s(S'NFE2L2'
p1556
S'CYP26A1'
p1557
S'increases'
p1558
tp1559
(lp1560
s(S'FARNESYL'
p1561
S'KRAS'
p1562
S'increases_activity'
p1563
tp1564
(lp1565
s(S'MTF1'
p1566
S'MECOM'
p1567
S'increases'
p1568
tp1569
(lp1570
s(S'TLX2'
p1571
S'FOXD3'
p1572
S'increases'
p1573
tp1574
(lp1575
s(S'Insulin Receptor/Insulin/SHC/GRB2/Sos1'
p1576
S'HRAS/GDP'
p1577
S'increases_activity'
p1578
tp1579
(lp1580
s(S'MYC'
p1581
S'ELK1'
p1582
S'increases'
p1583
tp1584
(lp1585
s(S'ONECUT1'
p1586
S'POU2F1'
p1587
S'increases'
p1588
tp1589
(lp1590
s(S'Paraquat'
p1591
S'HRAS MRNA'
p1592
S'translocates'
p1593
tp1594
(lp1595
s(S'GRB2/SOS1'
p1596
S'PDGF-BB/PDGFRB (DIMER)/SHP2'
p1597
S'binds'
p1598
tp1599
(lp1600
s(S'ONECUT1'
p1601
S'CYP26A1'
p1602
S'increases'
p1603
tp1604
(lp1605
s(S'MYC'
p1606
S'FOXO3'
p1607
S'increases'
p1608
tp1609
(lp1610
s(S'PAX3'
p1611
S'ELK1'
p1612
S'increases'
p1613
tp1614
(lp1615
s(S'DOK-R'
p1616
S'RASGAP'
p1617
S'binds'
p1618
tp1619
(lp1620
s(S'HOXA4'
p1621
S'HOXA9'
p1622
S'increases'
p1623
tp1624
(lp1625
s(S'MAX'
p1626
S'POU3F2'
p1627
S'increases'
p1628
tp1629
(lp1630
s(S'Estradiol'
p1631
S'KRAS MRNA'
p1632
S'decreases'
p1633
tp1634
(lp1635
s(S'KRAS ISOFORM 4B/GTP'
p1636
S'CAM/CA2+'
p1637
S'binds'
p1638
tp1639
(lp1640
s(S'MAZ'
p1641
S'FOXO4'
p1642
S'increases'
p1643
tp1644
(lp1645
s(S'hsa-miR-181a-5p'
p1646
S'KRAS'
p1647
S'decreases'
p1648
tp1649
(lp1650
s(S'GATA1'
p1651
S'CYP26A1'
p1652
S'increases'
p1653
tp1654
(lp1655
s(S'PGR'
p1656
S'ETS1'
p1657
S'increases'
p1658
tp1659
(lp1660
s(S'GATA1'
p1661
S'POU2F1'
p1662
S'increases'
p1663
tp1664
(lp1665
s(S'BRAF'
p1666
S'MEK1-2'
p1667
S'increases_activity'
p1668
tp1669
(lp1670
s(S'LEF1'
p1671
S'GABPB2'
p1672
S'increases'
p1673
tp1674
(lp1675
s(S'CYP26A1'
p1676
S'MYC'
p1677
S'increases'
p1678
tp1679
(lp1680
s(S'STAT1'
p1681
S'IRF1'
p1682
S'increases'
p1683
tp1684
(lp1685
s(S'SMAD1'
p1686
S'RUNX2'
p1687
S'increases'
p1688
tp1689
(lp1690
s(S'ZEB1'
p1691
S'TLX2'
p1692
S'increases'
p1693
tp1694
(lp1695
s(S'STAT5B'
p1696
S'IRF1'
p1697
S'increases'
p1698
tp1699
(lp1700
s(S'POU6F1'
p1701
S'CYP26A1'
p1702
S'increases'
p1703
tp1704
(lp1705
s(S'Vincristine'
p1706
S'HRAS MRNA'
p1707
S'increases'
p1708
tp1709
(lp1710
s(S'DAG'
p1711
S'RASGRP1'
p1712
S'adds_modification'
p1713
tp1714
(lp1715
s(S'PI3K'
p1716
S'PDK1'
p1717
S'increases_activity'
p1718
tp1719
(lp1720
s(S'ETS2'
p1721
S'PAX4'
p1722
S'increases'
p1723
tp1724
(lp1725
s(S'NR3C1'
p1726
S'ONECUT1'
p1727
S'increases'
p1728
tp1729
(lp1730
s(S'CUX1'
p1731
S'CYP26A1'
p1732
S'increases'
p1733
tp1734
(lp1735
s(S'ZEB1'
p1736
S'GATA1'
p1737
S'increases'
p1738
tp1739
(lp1740
s(S'NRF1'
p1741
S'POU2F1'
p1742
S'increases'
p1743
tp1744
(lp1745
s(S'FOXJ2'
p1746
S'MECOM'
p1747
S'increases'
p1748
tp1749
(lp1750
s(S'MAZ'
p1751
S'MYCN'
p1752
S'increases'
p1753
tp1754
(lp1755
s(S'Hydrogen Peroxide'
p1756
S'HRAS MRNA'
p1757
S'increases'
p1758
tp1759
(lp1760
s(S'RASA1'
p1761
S'P-EPHBS:EFNBS'
p1762
S'binds'
p1763
tp1764
(lp1765
s(S'SPI1'
p1766
S'CEBPG'
p1767
S'increases'
p1768
tp1769
(lp1770
s(S'EGR1'
p1771
S'LEF1'
p1772
S'increases'
p1773
tp1774
(lp1775
s(S'RET51/GFRALPHA1/GDNF'
p1776
S'P62DOK'
p1777
S'binds'
p1778
tp1779
(lp1780
s(S'TFDP2'
p1781
S'CYP26A1'
p1782
S'increases'
p1783
tp1784
(lp1785
s(S'matrine'
p1786
S'NRAS MRNA'
p1787
S'increases'
p1788
tp1789
(lp1790
s(S'Isotretinoin'
p1791
S'KRAS MRNA'
p1792
S'decreases'
p1793
tp1794
(lp1795
s(S'PITX2'
p1796
S'FOXF2'
p1797
S'increases'
p1798
tp1799
(lp1800
s(S'MYOD1'
p1801
S'POU2F1'
p1802
S'increases'
p1803
tp1804
(lp1805
s(S'sodium arsenite'
p1806
S'KRAS PROTEIN'
p1807
S'increases'
p1808
tp1809
(lp1810
s(S'TCF4'
p1811
S'CBFA2T3'
p1812
S'increases'
p1813
tp1814
(lp1815
s(S'CYP26A1'
p1816
S'FOXA1'
p1817
S'increases'
p1818
tp1819
(lp1820
s(S'TP53'
p1821
S'CYP26A1'
p1822
S'increases'
p1823
tp1824
(lp1825
s(S'ATF3'
p1826
S'FOXD3'
p1827
S'increases'
p1828
tp1829
(lp1830
s(S'POU2F1'
p1831
S'NRAS'
p1832
S'increases'
p1833
tp1834
(lp1835
s(S'NRF1'
p1836
S'GABPB2'
p1837
S'increases'
p1838
tp1839
(lp1840
s(S'PAX4'
p1841
S'TLX2'
p1842
S'increases'
p1843
tp1844
(lp1845
s(S'PITX2'
p1846
S'FOXA1'
p1847
S'increases'
p1848
tp1849
(lp1850
s(S'GTF3A'
p1851
S'POU2F1'
p1852
S'increases'
p1853
tp1854
(lp1855
s(S'HLF'
p1856
S'FOXO3'
p1857
S'increases'
p1858
tp1859
(lp1860
s(S'PAX4'
p1861
S'FOXO4'
p1862
S'increases'
p1863
tp1864
(lp1865
s(S'CEBPA'
p1866
S'FOXD3'
p1867
S'increases'
p1868
tp1869
(lp1870
s(S'NFE2'
p1871
S'CYP26A1'
p1872
S'increases'
p1873
tp1874
(lp1875
s(S'MYB'
p1876
S'GABPB2'
p1877
S'increases'
p1878
tp1879
(lp1880
s(S'MYC'
p1881
S'CEBPA'
p1882
S'increases'
p1883
tp1884
(lp1885
s(S'ELK1'
p1886
S'EN1'
p1887
S'increases'
p1888
tp1889
(lp1890
s(S'E2F1'
p1891
S'CDC5L'
p1892
S'increases'
p1893
tp1894
(lp1895
s(S'YWHAZ (DIMER)'
p1896
S'RAF1'
p1897
S'binds'
p1898
tp1899
(lp1900
s(S'ATF6'
p1901
S'CYP26A1'
p1902
S'increases'
p1903
tp1904
(lp1905
s(S'sodium arsenite'
p1906
S'HRAS MRNA'
p1907
S'increases'
p1908
tp1909
(lp1910
s(S'EGR3'
p1911
S'CYP26A1'
p1912
S'increases'
p1913
tp1914
(lp1915
s(S'lead acetate'
p1916
S'HRAS PROTEIN'
p1917
S'increases_activity'
p1918
tp1919
(lp1920
s(S'REPIN1'
p1921
S'MYC'
p1922
S'increases'
p1923
tp1924
(lp1925
s(S'CEBPA'
p1926
S'NRAS'
p1927
S'increases'
p1928
tp1929
(lp1930
s(S'Quercetin'
p1931
S'NRAS MRNA'
p1932
S'decreases'
p1933
tp1934
(lp1935
s(S'14-3-3 E'
p1936
S'TERT'
p1937
S'binds'
p1938
tp1939
(lp1940
s(S'Antigen/IgE/Fc epsilon R1/LYN/SYK'
p1941
S'BTK'
p1942
S'adds_modification'
p1943
tp1944
(lp1945
s(S'HSF2'
p1946
S'CBFA2T3'
p1947
S'increases'
p1948
tp1949
(lp1950
s(S'Fluorouracil'
p1951
S'HRAS MRNA'
p1952
S'increases'
p1953
tp1954
(lp1955
s(S'STAT4'
p1956
S'MECOM'
p1957
S'increases'
p1958
tp1959
(lp1960
s(S'ETS2'
p1961
S'ETS1'
p1962
S'increases'
p1963
tp1964
(lp1965
s(S'CEBPG'
p1966
S'CYP26A1'
p1967
S'increases'
p1968
tp1969
(lp1970
s(S'Complex (PDGF receptor A/PDGF receptor B)'
p1971
S'NCK'
p1972
S'adds_modification'
p1973
tp1974
(lp1975
s(S'Fog1'
p1976
S'MYB'
p1977
S'decreases'
p1978
tp1979
(lp1980
s(S'CREB1'
p1981
S'FOXD3'
p1982
S'increases'
p1983
tp1984
(lp1985
s(S'Numb'
p1986
S'NICS'
p1987
S'translocates'
p1988
tp1989
(lp1990
s(S'STAT6'
p1991
S'STAT5A'
p1992
S'increases'
p1993
tp1994
(lp1995
s(S'RAF1/14-3-3'
p1996
S'BRAF/14-3-3'
p1997
S'binds'
p1998
tp1999
(lp2000
s(S'B-cell antigen/BCR complex/LYN/SYK/BLNK'
p2001
S'SHC/GRB2/SOS1'
p2002
S'increases_activity'
p2003
tp2004
(lp2005
s(S'IRF2'
p2006
S'CYP26A1'
p2007
S'increases'
p2008
tp2009
(lp2010
s(S'GATA6'
p2011
S'CYP26A1'
p2012
S'increases'
p2013
tp2014
(lp2015
s(S'HMGA1'
p2016
S'CYP26A1'
p2017
S'increases'
p2018
tp2019
(lp2020
s(S'MTF1'
p2021
S'FOXO4'
p2022
S'increases'
p2023
tp2024
(lp2025
s(S'STAT1'
p2026
S'GABPB2'
p2027
S'increases'
p2028
tp2029
(lp2030
s(S'manumycin'
p2031
S'HRAS PROTEIN'
p2032
S'decreases'
p2033
tp2034
(lp2035
s(S'STAT5A'
p2036
S'ETS1'
p2037
S'increases'
p2038
tp2039
(lp2040
s(S'SPI1'
p2041
S'CBFA2T3'
p2042
S'increases'
p2043
tp2044
(lp2045
s(S'GMCSF/GMR ALPHA/CSF2RB/JAK2 (DODECAMER)/SHC'
p2046
S'GRB2/SOS1'
p2047
S'binds'
p2048
tp2049
(lp2050
s(S'7,8-Dihydro-7,8-dihydroxybenzo(a)pyrene 9,10-oxide'
p2051
S'NRAS PROTEIN'
p2052
S'increases'
p2053
tp2054
(lp2055
s(S'CDC5L'
p2056
S'CYP26A1'
p2057
S'increases'
p2058
tp2059
(lp2060
s(S'PAX4'
p2061
S'POU3F2'
p2062
S'increases'
p2063
tp2064
(lp2065
s(S'SPRED2'
p2066
S'HRAS'
p2067
S'binds'
p2068
tp2069
(lp2070
s(S'PITX2'
p2071
S'FOXO4'
p2072
S'increases'
p2073
tp2074
(lp2075
s(S'FOXD3'
p2076
S'CYP26A1'
p2077
S'increases'
p2078
tp2079
(lp2080
s(S'NFIL3'
p2081
S'FOXO3'
p2082
S'increases'
p2083
tp2084
(lp2085
s(S'MTF1'
p2086
S'POU2F1'
p2087
S'increases'
p2088
tp2089
(lp2090
s(S'TFCP2'
p2091
S'BACH1'
p2092
S'increases'
p2093
tp2094
(lp2095
s(S'NF1'
p2096
S'MECOM'
p2097
S'increases'
p2098
tp2099
(lp2100
s(S'FOXO3'
p2101
S'FOXD3'
p2102
S'increases'
p2103
tp2104
(lp2105
s(S'STAT5A'
p2106
S'TLX2'
p2107
S'increases'
p2108
tp2109
(lp2110
s(S'RIN1'
p2111
S'HRAS/GTP'
p2112
S'adds_modification'
p2113
tp2114
(lp2115
s(S'STAT5A'
p2116
S'CEBPG'
p2117
S'increases'
p2118
tp2119
(lp2120
s(S'DAG'
p2121
S'PKC'
p2122
S'increases_activity'
p2123
tp2124
(lp2125
s(S'HNF4A'
p2126
S'FOXA1'
p2127
S'increases'
p2128
tp2129
(lp2130
s(S'LEF1'
p2131
S'MAZ'
p2132
S'increases'
p2133
tp2134
(lp2135
s(S'hsa-miR-124-3p'
p2136
S'NRAS'
p2137
S'decreases'
p2138
tp2139
(lp2140
s(S'RAF1'
p2141
S'14-3-3 E'
p2142
S'binds'
p2143
tp2144
(lp2145
s(S'GATA1'
p2146
S'MYB'
p2147
S'decreases'
p2148
tp2149
(lp2150
s(S'LMO2'
p2151
S'GATA1'
p2152
S'increases'
p2153
tp2154
(lp2155
s(S'HRAS/GTP'
p2156
S'RAF1'
p2157
S'increases_activity'
p2158
tp2159
(lp2160
s(S'MYCN'
p2161
S'RUNX2'
p2162
S'increases'
p2163
tp2164
(lp2165
s(S'STAT5B'
p2166
S'CYP26A1'
p2167
S'increases'
p2168
tp2169
(lp2170
s(S'ZIC2'
p2171
S'MYCN'
p2172
S'increases'
p2173
tp2174
(lp2175
s(S'FOXL1'
p2176
S'FOXD3'
p2177
S'increases'
p2178
tp2179
(lp2180
s(S'ZBTB18'
p2181
S'CBFA2T3'
p2182
S'increases'
p2183
tp2184
(lp2185
s(S'HSF1'
p2186
S'IRF1'
p2187
S'increases'
p2188
tp2189
(lp2190
s(S'SPZ1'
p2191
S'MAZ'
p2192
S'increases'
p2193
tp2194
(lp2195
s(S'SRY'
p2196
S'CYP26A1'
p2197
S'increases'
p2198
tp2199
(lp2200
s(S'FOXO4'
p2201
S'HOXA9'
p2202
S'increases'
p2203
tp2204
(lp2205
s(S'IGF-1R heterotetramer/IGF1/IRS1/GRB2/Sos'
p2206
S'HRAS/GDP'
p2207
S'increases_activity'
p2208
tp2209
(lp2210
s(S'hsa-miR-615-3p'
p2211
S'HRAS'
p2212
S'decreases'
p2213
tp2214
(lp2215
s(S'ESRRA'
p2216
S'FOXD3'
p2217
S'increases'
p2218
tp2219
(lp2220
s(S'ELK1'
p2221
S'CYP26A1'
p2222
S'increases'
p2223
tp2224
(lp2225
s(S'Hexane-1,6-Diol'
p2226
S'HRAS'
p2227
S'increases_activity'
p2228
tp2229
(lp2230
s(S'MAZ'
p2231
S'NRAS'
p2232
S'increases'
p2233
tp2234
(lp2235
s(S'MIF'
p2236
S'CYP26A1'
p2237
S'increases'
p2238
tp2239
(lp2240
s(S'AHR'
p2241
S'POU2F1'
p2242
S'increases'
p2243
tp2244
(lp2245
s(S'SMAD3'
p2246
S'CYP26A1'
p2247
S'increases'
p2248
tp2249
(lp2250
s(S'PI-3-4-5-P3'
p2251
S'GELSOLIN'
p2252
S'binds'
p2253
tp2254
(lp2255
s(S'ADP'
p2256
S'P-S724-IRE1 DIMER'
p2257
S'binds'
p2258
tp2259
(lp2260
s(S'testosterone enanthate'
p2261
S'KRAS MRNA'
p2262
S'increases'
p2263
tp2264
(lp2265
s(S'CYP26A1'
p2266
S'ONECUT1'
p2267
S'increases'
p2268
tp2269
(lp2270
s(S'Valproic Acid'
p2271
S'NRAS MRNA'
p2272
S'decreases'
p2273
tp2274
(lp2275
s(S'GTF2A2'
p2276
S'CYP26A1'
p2277
S'increases'
p2278
tp2279
(lp2280
s(S'CEBPA'
p2281
S'FOXO3'
p2282
S'increases'
p2283
tp2284
(lp2285
s(S'GATA3'
p2286
S'POU2F1'
p2287
S'increases'
p2288
tp2289
(lp2290
s(S'PI3K'
p2291
S'RAC1B/GDP'
p2292
S'increases_activity'
p2293
tp2294
(lp2295
s(S'CDC25C'
p2296
S'YWHAB'
p2297
S'binds'
p2298
tp2299
(lp2300
s(S'RAC1/GTP'
p2301
S'PAK1/BETAPIX/PKL/NCK1-2'
p2302
S'increases_activity'
p2303
tp2304
(lp2305
s(S'SMAD1'
p2306
S'CYP26A1'
p2307
S'increases'
p2308
tp2309
(lp2310
s(S'PI3K'
p2311
S'FAK'
p2312
S'adds_modification'
p2313
tp2314
(lp2315
s(S'NRF1'
p2316
S'MAX'
p2317
S'increases'
p2318
tp2319
(lp2320
s(S'FOXI1'
p2321
S'RUNX2'
p2322
S'increases'
p2323
tp2324
(lp2325
s(S'7,8-Dihydro-7,8-dihydroxybenzo(a)pyrene 9,10-oxide'
p2326
S'HRAS MRNA'
p2327
S'increases'
p2328
tp2329
(lp2330
s(S'ETS1'
p2331
S'CBFA2T3'
p2332
S'increases'
p2333
tp2334
(lp2335
s(S'hsa-miR-98-5p'
p2336
S'NRAS'
p2337
S'decreases'
p2338
tp2339
(lp2340
s(S'PHOSPHORYLATED BRF1 (SER92, SER203):MRNA COMPLEX'
p2341
S'YWHAB'
p2342
S'binds'
p2343
tp2344
(lp2345
s(S'LMO2'
p2346
S'CYP26A1'
p2347
S'increases'
p2348
tp2349
(lp2350
s(S'SOS1'
p2351
S'GRB2:PFAK BOUND TO NCAM1:PFYN'
p2352
S'binds'
p2353
tp2354
(lp2355
s(S'GTF3A'
p2356
S'GATA6'
p2357
S'increases'
p2358
tp2359
(lp2360
s(S'ZIC2'
p2361
S'CYP26A1'
p2362
S'increases'
p2363
tp2364
(lp2365
s(S'PAX2'
p2366
S'POU3F2'
p2367
S'increases'
p2368
tp2369
(lp2370
s(S'CEBPD'
p2371
S'FOXO3'
p2372
S'increases'
p2373
tp2374
(lp2375
s(S'NF1'
p2376
S'CYP26A1'
p2377
S'increases'
p2378
tp2379
(lp2380
s(S'BRAF'
p2381
S'MEK2'
p2382
S'adds_modification'
p2383
tp2384
(lp2385
s(S'TFAP4'
p2386
S'RUNX1'
p2387
S'increases'
p2388
tp2389
(lp2390
s(S'FAK'
p2391
S'SOS'
p2392
S'binds'
p2393
tp2394
(lp2395
s(S'EGR1'
p2396
S'RUNX1'
p2397
S'increases'
p2398
tp2399
(lp2400
s(S'TCF4'
p2401
S'FOXO4'
p2402
S'increases'
p2403
tp2404
(lp2405
s(S'MAZ'
p2406
S'CBFA2T3'
p2407
S'increases'
p2408
tp2409
(lp2410
s(S'MEIS1'
p2411
S'HRAS'
p2412
S'increases'
p2413
tp2414
(lp2415
s(S'RELA'
p2416
S'CYP26A1'
p2417
S'increases'
p2418
tp2419
(lp2420
s(S'hsa-miR-877-3p'
p2421
S'NRAS'
p2422
S'decreases'
p2423
tp2424
(lp2425
s(S'MYC'
p2426
S'LEF1'
p2427
S'increases'
p2428
tp2429
(lp2430
s(S'FOXO4'
p2431
S'RUNX1'
p2432
S'increases'
p2433
tp2434
(lp2435
s(S'LEF1'
p2436
S'RUNX1'
p2437
S'increases'
p2438
tp2439
(lp2440
s(S'TFDP2'
p2441
S'GATA1'
p2442
S'increases'
p2443
tp2444
(lp2445
s(S'AHR'
p2446
S'CYP26A1'
p2447
S'increases'
p2448
tp2449
(lp2450
s(S'4-Nitroquinoline-1-oxide'
p2451
S'PTGS2 MRNA'
p2452
S'increases'
p2453
tp2454
(lp2455
s(S'TGIF'
p2456
S'FOXO3'
p2457
S'increases'
p2458
tp2459
(lp2460
s(S'FOXF2'
p2461
S'CEBPA'
p2462
S'increases'
p2463
tp2464
(lp2465
s(S'NFE2L1'
p2466
S'POU2F1'
p2467
S'increases'
p2468
tp2469
(lp2470
s(S'LHX3'
p2471
S'CYP26A1'
p2472
S'increases'
p2473
tp2474
(lp2475
s(S'HMGA1'
p2476
S'MEIS1'
p2477
S'increases'
p2478
tp2479
(lp2480
s(S'POU2F1'
p2481
S'CYP26A1'
p2482
S'increases'
p2483
tp2484
(lp2485
s(S'PRRX2'
p2486
S'HOXA9'
p2487
S'increases'
p2488
tp2489
(lp2490
s(S'ETS2'
p2491
S'CEBPG'
p2492
S'increases'
p2493
tp2494
(lp2495
s(S'hsa-miR-193b-3p'
p2496
S'KRAS'
p2497
S'decreases'
p2498
tp2499
(lp2500
s(S'RREB1'
p2501
S'RUNX1'
p2502
S'increases'
p2503
tp2504
(lp2505
s(S'IL2/IL2R BETA/GAMMA/JAK1/FYN/JAK3'
p2506
S'PI3K'
p2507
S'binds'
p2508
tp2509
(lp2510
s(S'ELK1'
p2511
S'MEIS1'
p2512
S'increases'
p2513
tp2514
(lp2515
s(S'CYP26A1'
p2516
S'HOXA9'
p2517
S'increases'
p2518
tp2519
(lp2520
s(S'SPZ1'
p2521
S'HOXA9'
p2522
S'increases'
p2523
tp2524
(lp2525
s(S'ERK1'
p2526
S'P-S218,222-MEK1'
p2527
S'binds'
p2528
tp2529
(lp2530
s(S'NHLH1'
p2531
S'MYC'
p2532
S'increases'
p2533
tp2534
(lp2535
s(S'Daunorubicin'
p2536
S'NRAS MRNA'
p2537
S'increases'
p2538
tp2539
(lp2540
s(S'HNF1A'
p2541
S'FOXA1'
p2542
S'increases'
p2543
tp2544
(lp2545
s(S'MYC'
p2546
S'ONECUT1'
p2547
S'increases'
p2548
tp2549
(lp2550
s(S'Vanadates'
p2551
S'HRAS PROTEIN'
p2552
S'increases'
p2553
tp2554
(lp2555
s(S'Purine nucleotide'
p2556
S'H+'
p2557
S'translocates'
p2558
tp2559
(lp2560
s(S'NFE2'
p2561
S'BACH1'
p2562
S'increases'
p2563
tp2564
(lp2565
s(S'EGR4'
p2566
S'CYP26A1'
p2567
S'increases'
p2568
tp2569
(lp2570
s(S'NRF1'
p2571
S'ONECUT1'
p2572
S'increases'
p2573
tp2574
(lp2575
s(S'GFI1'
p2576
S'HOXA9'
p2577
S'increases'
p2578
tp2579
(lp2580
s(S'NR1H4'
p2581
S'FOXD3'
p2582
S'increases'
p2583
tp2584
(lp2585
s(S'STAT6'
p2586
S'FOXA1'
p2587
S'increases'
p2588
tp2589
(lp2590
s(S'INSULIN RECEPTOR/INSULI/IRS1/GRB2/SHC'
p2591
S'SOS1'
p2592
S'binds'
p2593
tp2594
(lp2595
s(S'Tetrachlorodibenzodioxin'
p2596
S'KRAS MRNA'
p2597
S'increases'
p2598
tp2599
(lp2600
s(S'TCF3'
p2601
S'MYC'
p2602
S'increases'
p2603
tp2604
(lp2605
s(S'BACH1'
p2606
S'EN1'
p2607
S'increases'
p2608
tp2609
(lp2610
s(S'RFX1'
p2611
S'CYP26A1'
p2612
S'increases'
p2613
tp2614
(lp2615
s(S'ZEB1'
p2616
S'FOXD3'
p2617
S'increases'
p2618
tp2619
(lp2620
s(S'IRF7'
p2621
S'EN1'
p2622
S'increases'
p2623
tp2624
(lp2625
s(S'GAB2/GRB2/SOS1'
p2626
S'IL2/IL2R ALPHA/BETA/GAMMA/JAK1/LCK/JAK3/SHC'
p2627
S'binds'
p2628
tp2629
(lp2630
s(S'GATA3'
p2631
S'FOXA1'
p2632
S'increases'
p2633
tp2634
(lp2635
s(S'TFAP4'
p2636
S'CYP26A1'
p2637
S'increases'
p2638
tp2639
(lp2640
s(S'FOXF2'
p2641
S'MECOM'
p2642
S'increases'
p2643
tp2644
(lp2645
s(S'NF1'
p2646
S'POU2F1'
p2647
S'increases'
p2648
tp2649
(lp2650
s(S'IRF1'
p2651
S'FOXA1'
p2652
S'increases'
p2653
tp2654
(lp2655
s(S'Rho Family GTPase-active'
p2656
S'PIP5K1A'
p2657
S'increases_activity'
p2658
tp2659
(lp2660
s(S'POU6F1'
p2661
S'EN1'
p2662
S'increases'
p2663
tp2664
(lp2665
s(S'TCF4'
p2666
S'LEF1'
p2667
S'increases'
p2668
tp2669
(lp2670
s(S'MAZ'
p2671
S'FOXO3'
p2672
S'increases'
p2673
tp2674
(lp2675
s(S'POU3F2'
p2676
S'MECOM'
p2677
S'increases'
p2678
tp2679
(lp2680
s(S'GTF3A'
p2681
S'CYP26A1'
p2682
S'increases'
p2683
tp2684
(lp2685
s(S'PI-3-4-5-P3'
p2686
S'AKT2'
p2687
S'adds_modification'
p2688
tp2689
(lp2690
s(S'VSX1'
p2691
S'POU2F1'
p2692
S'increases'
p2693
tp2694
(lp2695
s(S'PHOSPHORYLATED TTP:MRNA COMPLEX'
p2696
S'YWHAB'
p2697
S'binds'
p2698
tp2699
(lp2700
s(S'MEIS1'
p2701
S'MYC'
p2702
S'increases'
p2703
tp2704
(lp2705
s(S'Complex (PDGF receptor A/PDGF receptor B)'
p2706
S'RASGAP'
p2707
S'adds_modification'
p2708
tp2709
(lp2710
s(S'RORA'
p2711
S'CYP26A1'
p2712
S'increases'
p2713
tp2714
(lp2715
s(S'ATF4'
p2716
S'CDC5L'
p2717
S'increases'
p2718
tp2719
(lp2720
s(S'SHC/RasGAP'
p2721
S'RAS FAMILY/GTP'
p2722
S'increases_activity'
p2723
tp2724
(lp2725
s(S'NKX2-1'
p2726
S'MYC'
p2727
S'increases'
p2728
tp2729
(lp2730
s(S'NF1'
p2731
S'SRF'
p2732
S'increases'
p2733
tp2734
(lp2735
s(S'STAT4'
p2736
S'NRAS'
p2737
S'increases'
p2738
tp2739
(lp2740
s(S'POU6F1'
p2741
S'MEIS1'
p2742
S'increases'
p2743
tp2744
(lp2745
s(S'P-KIT COMPLEX'
p2746
S'GRB2:SOS1'
p2747
S'binds'
p2748
tp2749
(lp2750
s(S'MYCN'
p2751
S'MAX'
p2752
S'increases'
p2753
tp2754
(lp2755
s(S'STAT5A'
p2756
S'CYP26A1'
p2757
S'increases'
p2758
tp2759
(lp2760
s(S'GATA3'
p2761
S'EN1'
p2762
S'increases'
p2763
tp2764
(lp2765
s(S'E4F1'
p2766
S'FOXD3'
p2767
S'increases'
p2768
tp2769
(lp2770
s(S'MYB'
p2771
S'ONECUT1'
p2772
S'increases'
p2773
tp2774
(lp2775
s(S'Cadmium Chloride'
p2776
S'NRAS PROTEIN'
p2777
S'increases'
p2778
tp2779
(lp2780
s(S'Deoxycholic Acid'
p2781
S'HRAS PROTEIN'
p2782
S'increases_activity'
p2783
tp2784
(lp2785
s(S'HLF'
p2786
S'CYP26A1'
p2787
S'increases'
p2788
tp2789
(lp2790
s(S'GMCSF/GMR ALPHA/CSF2RB/JAK2 (DIMER)'
p2791
S'YWHAZ'
p2792
S'binds'
p2793
tp2794
(lp2795
s(S'HNF1A'
p2796
S'FOXF2'
p2797
S'increases'
p2798
tp2799
(lp2800
s(S'FOXF2'
p2801
S'GATA6'
p2802
S'increases'
p2803
tp2804
(lp2805
s(S'Arsenic'
p2806
S'GSS PROTEIN'
p2807
S'increases'
p2808
tp2809
(lp2810
s(S'COMPLEX (SOS/GRB2)'
p2811
S'FGFR1-4'
p2812
S'binds'
p2813
tp2814
(lp2815
s(S'MYOD1'
p2816
S'NRAS'
p2817
S'increases'
p2818
tp2819
(lp2820
s(S'MECOM'
p2821
S'CYP26A1'
p2822
S'increases'
p2823
tp2824
(lp2825
s(S'PBX1'
p2826
S'CYP26A1'
p2827
S'increases'
p2828
tp2829
(lp2830
s(S'MAZ'
p2831
S'MEIS1'
p2832
S'increases'
p2833
tp2834
(lp2835
s(S'PAX4'
p2836
S'ELK1'
p2837
S'increases'
p2838
tp2839
(lp2840
s(S'ESRRA'
p2841
S'MECOM'
p2842
S'increases'
p2843
tp2844
(lp2845
s(S'CEBPD'
p2846
S'TLX2'
p2847
S'increases'
p2848
tp2849
(lp2850
s(S'CRX'
p2851
S'FOXA1'
p2852
S'increases'
p2853
tp2854
(lp2855
s(S'GABPB1'
p2856
S'NRAS'
p2857
S'increases'
p2858
tp2859
(lp2860
s(S'CRX'
p2861
S'MEIS1'
p2862
S'increases'
p2863
tp2864
(lp2865
s(S'pirinixic acid/PPARA protein'
p2866
S'KRAS MRNA'
p2867
S'increases'
p2868
tp2869
(lp2870
s(S'BACH2'
p2871
S'FOXA1'
p2872
S'increases'
p2873
tp2874
(lp2875
s(S'JUN'
p2876
S'MECOM'
p2877
S'increases'
p2878
tp2879
(lp2880
s(S'7,8-Dihydro-7,8-dihydroxybenzo(a)pyrene 9,10-oxide'
p2881
S'KRAS MRNA'
p2882
S'decreases'
p2883
tp2884
(lp2885
s(S'SRY'
p2886
S'FOXO4'
p2887
S'increases'
p2888
tp2889
(lp2890
s(S'PI3K'
p2891
S'AKT1'
p2892
S'adds_modification'
p2893
tp2894
(lp2895
s(S'GATA3'
p2896
S'CYP26A1'
p2897
S'increases'
p2898
tp2899
(lp2900
s(S'RAS:GTP'
p2901
S'P-EPHBS:EFNBS:RASA1'
p2902
S'binds'
p2903
tp2904
(lp2905
s(S'STAT5A'
p2906
S'MECOM'
p2907
S'increases'
p2908
tp2909
(lp2910
s(S'RAS family/GTP'
p2911
S'RAF1'
p2912
S'increases_activity'
p2913
tp2914
(lp2915
s(S'RHOA/GTP'
p2916
S'PLD1-2'
p2917
S'increases_activity'
p2918
tp2919
(lp2920
s(S'FOXJ2'
p2921
S'CYP26A1'
p2922
S'increases'
p2923
tp2924
(lp2925
s(S'LEF1'
p2926
S'MECOM'
p2927
S'increases'
p2928
tp2929
(lp2930
s(S'GABPB2'
p2931
S'CDC5L'
p2932
S'increases'
p2933
tp2934
(lp2935
s(S'ESRRA'
p2936
S'CYP26A1'
p2937
S'increases'
p2938
tp2939
(lp2940
s(S'PI-3-4-5-P3'
p2941
S'WAVE2/NAP1/SRA1/ABI1/HSPC300'
p2942
S'translocates'
p2943
tp2944
(lp2945
s(S'CUX1'
p2946
S'MECOM'
p2947
S'increases'
p2948
tp2949
(lp2950
s(S'MAX'
p2951
S'CYP26A1'
p2952
S'increases'
p2953
tp2954
(lp2955
s(S'RXRB'
p2956
S'FOXD3'
p2957
S'increases'
p2958
tp2959
(lp2960
s(S'IRF1'
p2961
S'NRAS'
p2962
S'increases'
p2963
tp2964
(lp2965
s(S'MECOM'
p2966
S'MAX'
p2967
S'increases'
p2968
tp2969
(lp2970
s(S'PAX6'
p2971
S'CYP26A1'
p2972
S'increases'
p2973
tp2974
(lp2975
s(S'GRB2/SOS1'
p2976
S'EGFR/EGFR/EGF/EGF/P46 SHC'
p2977
S'binds'
p2978
tp2979
(lp2980
s(S'POU6F1'
p2981
S'POU2F1'
p2982
S'increases'
p2983
tp2984
(lp2985
s(S'RUNX1'
p2986
S'MYOD1'
p2987
S'increases'
p2988
tp2989
(lp2990
s(S'COMPLEX (GRB2/SOS)'
p2991
S'EGFR'
p2992
S'binds'
p2993
tp2994
(lp2995
s(S'MAZ'
p2996
S'MECOM'
p2997
S'increases'
p2998
tp2999
(lp3000
s(S'REPIN1'
p3001
S'EN1'
p3002
S'increases'
p3003
tp3004
(lp3005
s(S'RAS family/GTP'
p3006
S'RAF1'
p3007
S'adds_modification'
p3008
tp3009
(lp3010
s(S'E4F1'
p3011
S'CYP26A1'
p3012
S'increases'
p3013
tp3014
(lp3015
s(S'Rac'
p3016
S'MEKK1-5'
p3017
S'adds_modification'
p3018
tp3019
(lp3020
s(S'HAND1'
p3021
S'CYP26A1'
p3022
S'increases'
p3023
tp3024
(lp3025
s(S'Quercetin'
p3026
S'NRAS PROTEIN'
p3027
S'decreases'
p3028
tp3029
(lp3030
s(S'HRAS:GTP'
p3031
S'CRAF'
p3032
S'binds'
p3033
tp3034
(lp3035
s(S'REPIN1'
p3036
S'FOXA1'
p3037
S'increases'
p3038
tp3039
(lp3040
s(S'hsa-miR-155-5p'
p3041
S'KRAS'
p3042
S'decreases'
p3043
tp3044
(lp3045
s(S'PAX4'
p3046
S'EN1'
p3047
S'increases'
p3048
tp3049
(lp3050
s(S'FOXN1'
p3051
S'JUN'
p3052
S'increases'
p3053
tp3054
(lp3055
s(S'TFCP2'
p3056
S'GATA1'
p3057
S'increases'
p3058
tp3059
(lp3060
s(S'SHC'
p3061
S'GRAP2'
p3062
S'binds'
p3063
tp3064
(lp3065
s(S'CEBPG'
p3066
S'NRAS'
p3067
S'increases'
p3068
tp3069
(lp3070
s(S'FOXN1'
p3071
S'FOXO4'
p3072
S'increases'
p3073
tp3074
(lp3075
s(S'IL2/IL2R ALPHA/BETA/GAMMA/JAK1/LCK/JAK3/IRS1-2'
p3076
S'PI3K'
p3077
S'binds'
p3078
tp3079
(lp3080
s(S'POU1F1'
p3081
S'EN1'
p3082
S'increases'
p3083
tp3084
(lp3085
s(S'FOXJ1'
p3086
S'POU2F1'
p3087
S'increases'
p3088
tp3089
(lp3090
s(S'YY1'
p3091
S'POU2F1'
p3092
S'increases'
p3093
tp3094
(lp3095
s(S'7,8-Dihydro-7,8-dihydroxybenzo(a)pyrene 9,10-oxide'
p3096
S'NRAS MRNA'
p3097
S'increases'
p3098
tp3099
(lp3100
s(S'EGF/EGFR'
p3101
S'HRAS/GDP'
p3102
S'increases_activity'
p3103
tp3104
(lp3105
s(S'TFAP4'
p3106
S'GABPB2'
p3107
S'increases'
p3108
tp3109
(lp3110
s(S'TFAP2A'
p3111
S'POU3F2'
p3112
S'increases'
p3113
tp3114
(lp3115
s(S'TCF12'
p3116
S'CBFA2T3'
p3117
S'increases'
p3118
tp3119
(lp3120
s(S'STAT3'
p3121
S'IRF1'
p3122
S'increases'
p3123
tp3124
(lp3125
s(S'MYOD1'
p3126
S'GATA1'
p3127
S'increases'
p3128
tp3129
(lp3130
s(S'REPIN1'
p3131
S'HRAS'
p3132
S'increases'
p3133
tp3134
(lp3135
s(S'PAX4'
p3136
S'MAX'
p3137
S'increases'
p3138
tp3139
(lp3140
s(S'PAX2'
p3141
S'FOXA1'
p3142
S'increases'
p3143
tp3144
(lp3145
s(S'Lipopolysaccharides'
p3146
S'HRAS PROTEIN'
p3147
S'increases_activity'
p3148
tp3149
(lp3150
s(S'7,8-Dihydro-7,8-dihydroxybenzo(a)pyrene 9,10-oxide'
p3151
S'KRAS MRNA'
p3152
S'increases'
p3153
tp3154
(lp3155
s(S'REPIN1'
p3156
S'GATA1'
p3157
S'increases'
p3158
tp3159
(lp3160
s(S'Formaldehyde'
p3161
S'HRAS MRNA'
p3162
S'increases'
p3163
tp3164
(lp3165
s(S'ESRRA'
p3166
S'STAT5A'
p3167
S'increases'
p3168
tp3169
(lp3170
s(S'farnesylthiosalicylic acid'
p3171
S'HRAS PROTEIN'
p3172
S'decreases'
p3173
tp3174
(lp3175
s(S'JUN'
p3176
S'RUNX1'
p3177
S'increases'
p3178
tp3179
(lp3180
s(S'FOXD3'
p3181
S'RUNX1'
p3182
S'increases'
p3183
tp3184
(lp3185
s(S'SOX9'
p3186
S'CYP26A1'
p3187
S'increases'
p3188
tp3189
(lp3190
s(S'hexabromocyclododecane'
p3191
S'HRAS MRNA'
p3192
S'increases'
p3193
tp3194
(lp3195
s(S'RUNX2'
p3196
S'KRAS'
p3197
S'increases'
p3198
tp3199
(lp3200
s(S'PGR'
p3201
S'CYP26A1'
p3202
S'increases'
p3203
tp3204
(lp3205
s(S'CYP26A1'
p3206
S'MAZ'
p3207
S'increases'
p3208
tp3209
(lp3210
s(S'RAC1/GTP'
p3211
S'AKT1'
p3212
S'adds_modification'
p3213
tp3214
(lp3215
s(S'FOXO3'
p3216
S'CYP26A1'
p3217
S'increases'
p3218
tp3219
(lp3220
s(S'MAX'
p3221
S'SRF'
p3222
S'increases'
p3223
tp3224
(lp3225
s(S'RUNX2'
p3226
S'NRAS'
p3227
S'increases'
p3228
tp3229
(lp3230
s(S'HSF2'
p3231
S'CYP26A1'
p3232
S'increases'
p3233
tp3234
(lp3235
s(S'IL2/IL2R ALPHA/BETA/GAMMA/JAK1/LCK/JAK3/SHC/GRB2/SOS1/GAB2/SHP2'
p3236
S'PI3K'
p3237
S'binds'
p3238
tp3239
(lp3240
s(S'SPI1'
p3241
S'STAT5A'
p3242
S'increases'
p3243
tp3244
(lp3245
s(S'ZHX2'
p3246
S'MYC'
p3247
S'increases'
p3248
tp3249
(lp3250
s(S'RAF1-BRAF'
p3251
S'MEK1-2'
p3252
S'increases_activity'
p3253
tp3254
(lp3255
s(S'SHC'
p3256
S'GRB2'
p3257
S'binds'
p3258
tp3259
(lp3260
s(S'RB1'
p3261
S'GATA1'
p3262
S'increases'
p3263
tp3264
(lp3265
s(S'TCF3'
p3266
S'FOXJ2'
p3267
S'increases'
p3268
tp3269
(lp3270
s(S'FOXJ2'
p3271
S'NRAS'
p3272
S'increases'
p3273
tp3274
(lp3275
s(S'REPIN1'
p3276
S'LEF1'
p3277
S'increases'
p3278
tp3279
(lp3280
s(S'Aflatoxin B1'
p3281
S'HRAS MRNA'
p3282
S'increases'
p3283
tp3284
(lp3285
s(S'PAX4'
p3286
S'MEIS1'
p3287
S'increases'
p3288
tp3289
(lp3290
s(S'FOXF2'
p3291
S'FOXD3'
p3292
S'increases'
p3293
tp3294
(lp3295
s(S'CBFA2T3'
p3296
S'RUNX1'
p3297
S'increases'
p3298
tp3299
(lp3300
s(S'FOXC1'
p3301
S'HOXA9'
p3302
S'increases'
p3303
tp3304
(lp3305
s(S'DBP'
p3306
S'CYP26A1'
p3307
S'increases'
p3308
tp3309
(lp3310
s(S'TGIF'
p3311
S'EN1'
p3312
S'increases'
p3313
tp3314
(lp3315
s(S'PI-3-4-5-P3'
p3316
S'P62DOK'
p3317
S'adds_modification'
p3318
tp3319
(lp3320
s(S'JUN'
p3321
S'TLX2'
p3322
S'increases'
p3323
tp3324
(lp3325
s(S'Benzo(a)pyrene'
p3326
S'HRAS MRNA'
p3327
S'increases'
p3328
tp3329
(lp3330
s(S'STAT4'
p3331
S'CYP26A1'
p3332
S'increases'
p3333
tp3334
(lp3335
s(S'EGFR/EGFR/EGF/EGF'
p3336
S'SRC'
p3337
S'adds_modification'
p3338
tp3339
(lp3340
s(S'FOXQ1'
p3341
S'FOXD3'
p3342
S'increases'
p3343
tp3344
(lp3345
s(S'FOXJ1'
p3346
S'NRAS'
p3347
S'increases'
p3348
tp3349
(lp3350
s(S'TCF3'
p3351
S'POU2F1'
p3352
S'increases'
p3353
tp3354
(lp3355
s(S'MYB'
p3356
S'CYP26A1'
p3357
S'increases'
p3358
tp3359
(lp3360
s(S'GATA4'
p3361
S'CYP26A1'
p3362
S'increases'
p3363
tp3364
(lp3365
s(S'ELK1'
p3366
S'STAT4'
p3367
S'increases'
p3368
tp3369
(lp3370
s(S'CYP26A1'
p3371
S'LEF1'
p3372
S'increases'
p3373
tp3374
(lp3375
s(S"Guanosine-5'-Diphosphate"
p3376
S'HRAS'
p3377
S'increases_activity'
p3378
tp3379
(lp3380
s(S'ETV4'
p3381
S'CYP26A1'
p3382
S'increases'
p3383
tp3384
(lp3385
s(S'EPHRIN B/EPHB2'
p3386
S'RASGAP'
p3387
S'binds'
p3388
tp3389
(lp3390
s(S'ESR1'
p3391
S'FOXF2'
p3392
S'increases'
p3393
tp3394
(lp3395
s(S'CDC5L'
p3396
S'FOXA1'
p3397
S'increases'
p3398
tp3399
(lp3400
s(S'MAZ'
p3401
S'HOXA9'
p3402
S'increases'
p3403
tp3404
(lp3405
s(S'HIF1A'
p3406
S'MAX'
p3407
S'increases'
p3408
tp3409
(lp3410
s(S'FOXN1'
p3411
S'HOXA9'
p3412
S'increases'
p3413
tp3414
(lp3415
s(S'LEF1'
p3416
S'BACH1'
p3417
S'increases'
p3418
tp3419
(lp3420
s(S'PDX1'
p3421
S'FOXO3'
p3422
S'increases'
p3423
tp3424
(lp3425
s(S'CBFA2T3'
p3426
S'CYP26A1'
p3427
S'increases'
p3428
tp3429
(lp3430
s(S'Rabex5'
p3431
S'HRAS/GTP'
p3432
S'adds_modification'
p3433
tp3434
(lp3435
s(S'CBFA2T3'
p3436
S'RUNX2'
p3437
S'increases'
p3438
tp3439
(lp3440
s(S'PI-3-4-5-P3'
p3441
S'ARAP3'
p3442
S'translocates'
p3443
tp3444
(lp3445
s(S'CART1'
p3446
S'CYP26A1'
p3447
S'increases'
p3448
tp3449
(lp3450
s(S'Arsenic'
p3451
S'NRAS MRNA'
p3452
S'increases'
p3453
tp3454
(lp3455
s(S'NRF1'
p3456
S'CDC5L'
p3457
S'increases'
p3458
tp3459
(lp3460
s(S'Quercetin'
p3461
S'HRAS PROTEIN'
p3462
S'decreases'
p3463
tp3464
(lp3465
s(S"N,N'-DIMETHYL-N-(ACETYL)-N'-(7-NITROBENZ-2-OXA-1,3-DIAZOL-4-YL)ETHYLENEDIAMINE"
p3466
S'HRAS'
p3467
S'increases_activity'
p3468
tp3469
(lp3470
s(S'TFDP1'
p3471
S'FOXD3'
p3472
S'increases'
p3473
tp3474
(lp3475
s(S'AR'
p3476
S'TLX2'
p3477
S'increases'
p3478
tp3479
(lp3480
s(S'hsa-miR-181c-5p'
p3481
S'KRAS'
p3482
S'decreases'
p3483
tp3484
(lp3485
s(S'SMAD3'
p3486
S'CBFA2T3'
p3487
S'increases'
p3488
tp3489
(lp3490
s(S'HOXA9'
p3491
S'NRAS'
p3492
S'increases'
p3493
tp3494
(lp3495
s(S'PITX2'
p3496
S'CYP26A1'
p3497
S'increases'
p3498
tp3499
(lp3500
s(S'ATF3'
p3501
S'CYP26A1'
p3502
S'increases'
p3503
tp3504
(lp3505
s(S'E2F1'
p3506
S'MAZ'
p3507
S'increases'
p3508
tp3509
(lp3510
s(S'Ethyl Methanesulfonate'
p3511
S'HRAS MRNA'
p3512
S'increases'
p3513
tp3514
(lp3515
s(S'LMO2'
p3516
S'FOXA1'
p3517
S'increases'
p3518
tp3519
(lp3520
s(S'FOXC1'
p3521
S'POU2F1'
p3522
S'increases'
p3523
tp3524
(lp3525
s(S'DDIT3'
p3526
S'CYP26A1'
p3527
S'increases'
p3528
tp3529
(lp3530
s(S'PAX8'
p3531
S'CYP26A1'
p3532
S'increases'
p3533
tp3534
(lp3535
s(S'LHX3'
p3536
S'EN1'
p3537
S'increases'
p3538
tp3539
(lp3540
s(S'KAT2B'
p3541
S'CYP26A1'
p3542
S'increases'
p3543
tp3544
(lp3545
s(S'P100'
p3546
S'MYB'
p3547
S'binds'
p3548
tp3549
(lp3550
s(S'SOX9'
p3551
S'FOXA1'
p3552
S'increases'
p3553
tp3554
(lp3555
s(S'HIF1A'
p3556
S'EN1'
p3557
S'increases'
p3558
tp3559
(lp3560
s(S'REPIN1'
p3561
S'RUNX1'
p3562
S'increases'
p3563
tp3564
(lp3565
s(S'MYOD1'
p3566
S'BACH1'
p3567
S'increases'
p3568
tp3569
(lp3570
s(S'EBF2'
p3571
S'REPIN1'
p3572
S'increases'
p3573
tp3574
(lp3575
s(S'bisphenol A'
p3576
S'HRAS MRNA'
p3577
S'increases'
p3578
tp3579
(lp3580
s(S'E2F1'
p3581
S'EN1'
p3582
S'increases'
p3583
tp3584
(lp3585
s(S'MYC/Max/MIZ-1'
p3586
S'GALECTIN-1'
p3587
S'decreases'
p3588
tp3589
(lp3590
s(S'PI-3-4-5-P3'
p3591
S'WAVE2/NAP1/SRA1/ABI1/HSPC300'
p3592
S'adds_modification'
p3593
tp3594
(lp3595
s(S'FOXF2'
p3596
S'FOXO3'
p3597
S'increases'
p3598
tp3599
(lp3600
s(S'REPIN1'
p3601
S'STAT5A'
p3602
S'increases'
p3603
tp3604
(lp3605
s(S'RUNX1'
p3606
S'NRAS'
p3607
S'increases'
p3608
tp3609
(lp3610
s(S'benzo(a)pyrene 7,8-dihydrodiol'
p3611
S'HRAS MRNA'
p3612
S'increases'
p3613
tp3614
(lp3615
s(S'RAC1/GTP'
p3616
S'PAK1 (DIMER)'
p3617
S'adds_modification'
p3618
tp3619
(lp3620
s(S'PAX4'
p3621
S'POU2F1'
p3622
S'increases'
p3623
tp3624
(lp3625
s(S'MYOD1'
p3626
S'CBFA2T3'
p3627
S'increases'
p3628
tp3629
(lp3630
s(S'STAT5A'
p3631
S'RUNX2'
p3632
S'increases'
p3633
tp3634
(lp3635
s(S'EBF2'
p3636
S'FOXJ2'
p3637
S'increases'
p3638
tp3639
(lp3640
s(S'Estradiol'
p3641
S'KRAS MRNA'
p3642
S'increases'
p3643
tp3644
(lp3645
s(S'RXRB'
p3646
S'CYP26A1'
p3647
S'increases'
p3648
tp3649
(lp3650
s(S'bisphenol A'
p3651
S'KRAS MRNA'
p3652
S'decreases'
p3653
tp3654
(lp3655
s(S'COMPLEX (GRB2/SOS)'
p3656
S'FGFR1-4'
p3657
S'binds'
p3658
tp3659
(lp3660
s(S'POU2F1'
p3661
S'RUNX1'
p3662
S'increases'
p3663
tp3664
(lp3665
s(S'TCF3'
p3666
S'TLX2'
p3667
S'increases'
p3668
tp3669
(lp3670
s(S'SPZ1'
p3671
S'POU2F1'
p3672
S'increases'
p3673
tp3674
(lp3675
s(S'TFAP4'
p3676
S'FOXO4'
p3677
S'increases'
p3678
tp3679
(lp3680
s(S'OR5I1'
p3681
S'MECOM'
p3682
S'increases'
p3683
tp3684
(lp3685
s(S'Rho Family GTPase-active'
p3686
S'JNK1'
p3687
S'adds_modification'
p3688
tp3689
(lp3690
s(S'TFDP1'
p3691
S'POU2F1'
p3692
S'increases'
p3693
tp3694
(lp3695
s(S'AHR'
p3696
S'MAX'
p3697
S'increases'
p3698
tp3699
(lp3700
s(S'BACH1'
p3701
S'CYP26A1'
p3702
S'increases'
p3703
tp3704
(lp3705
s(S'ZBTB14'
p3706
S'MAZ'
p3707
S'increases'
p3708
tp3709
(lp3710
s(S'TCF3'
p3711
S'FOXO4'
p3712
S'increases'
p3713
tp3714
(lp3715
s(S'MASTERMIND'
p3716
S'NICS'
p3717
S'binds'
p3718
tp3719
(lp3720
s(S'BPTF'
p3721
S'FOXO4'
p3722
S'increases'
p3723
tp3724
(lp3725
s(S'MYOD1'
p3726
S'RUNX1'
p3727
S'increases'
p3728
tp3729
(lp3730
s(S'JUN'
p3731
S'CYP26A1'
p3732
S'increases'
p3733
tp3734
(lp3735
s(S'BPTF'
p3736
S'CYP26A1'
p3737
S'increases'
p3738
tp3739
(lp3740
s(S'POU3F1'
p3741
S'CYP26A1'
p3742
S'increases'
p3743
tp3744
(lp3745
s(S'NRF1'
p3746
S'CYP26A1'
p3747
S'increases'
p3748
tp3749
(lp3750
s(S'TFAP2C'
p3751
S'POU3F2'
p3752
S'increases'
p3753
tp3754
(lp3755
s(S'NFAT1-C-4-INACTIVE2'
p3756
S'YWHAQ'
p3757
S'binds'
p3758
tp3759
(lp3760
s(S'STAT6'
p3761
S'ONECUT1'
p3762
S'increases'
p3763
tp3764
(lp3765
s(S'RUNX1'
p3766
S'RUNX2'
p3767
S'increases'
p3768
tp3769
(lp3770
s(S'ZIC3'
p3771
S'MYCN'
p3772
S'increases'
p3773
tp3774
(lp3775
s(S'CYP26A1'
p3776
S'MAX'
p3777
S'increases'
p3778
tp3779
(lp3780
s(S'ETS2'
p3781
S'FOXO4'
p3782
S'increases'
p3783
tp3784
(lp3785
s(S'GATA6'
p3786
S'FOXA1'
p3787
S'increases'
p3788
tp3789
(lp3790
s(S'Doxorubicin'
p3791
S'HRAS MRNA'
p3792
S'increases'
p3793
tp3794
(lp3795
s(S'PPARA'
p3796
S'HOXA9'
p3797
S'increases'
p3798
tp3799
(lp3800
s(S'REPIN1'
p3801
S'GABPB2'
p3802
S'increases'
p3803
tp3804
(lp3805
s(S'FOXN1'
p3806
S'FOXA1'
p3807
S'increases'
p3808
tp3809
(lp3810
s(S'Dronabinol'
p3811
S'KRAS MRNA'
p3812
S'increases'
p3813
tp3814
(lp3815
s(S'FOXO1'
p3816
S'RUNX1'
p3817
S'increases'
p3818
tp3819
(lp3820
s(S'SMAD4'
p3821
S'HOXA9'
p3822
S'increases'
p3823
tp3824
(lp3825
s(S'PAX4'
p3826
S'JUN'
p3827
S'increases'
p3828
tp3829
(lp3830
s(S'Raf-1'
p3831
S'MEK'
p3832
S'adds_modification'
p3833
tp3834
(lp3835
s(S'PIM1'
p3836
S'MYC/MAX'
p3837
S'binds'
p3838
tp3839
(lp3840
s(S'YY1'
p3841
S'MECOM'
p3842
S'increases'
p3843
tp3844
(lp3845
s(S'NRF1'
p3846
S'MAZ'
p3847
S'increases'
p3848
tp3849
(lp3850
s(S'GATA1'
p3851
S'MECOM'
p3852
S'increases'
p3853
tp3854
(lp3855
s(S'PDGF/PDGFRA'
p3856
S'SHC/GRB2/SOS1'
p3857
S'increases_activity'
p3858
tp3859
(lp3860
s(S'GRB2/SOS1'
p3861
S'FAK'
p3862
S'binds'
p3863
tp3864
(lp3865
s(S'HNF4A'
p3866
S'HOXA9'
p3867
S'increases'
p3868
tp3869
(lp3870
s(S'FOXA2'
p3871
S'CYP26A1'
p3872
S'increases'
p3873
tp3874
(lp3875
s(S'FOXI1'
p3876
S'CYP26A1'
p3877
S'increases'
p3878
tp3879
(lp3880
s(S'GRB2 BOUND TO TIE2'
p3881
S'SOS1'
p3882
S'binds'
p3883
tp3884
(lp3885
s(S'PHOSPHORYLATED BRF1 (SER54, SER92, SER203):MRNA COMPLEX'
p3886
S'YWHAB'
p3887
S'binds'
p3888
tp3889
(lp3890
s(S'COMPLEX (GRB2/SOS)'
p3891
S'GAB'
p3892
S'binds'
p3893
tp3894
(lp3895
s(S'NFE2'
p3896
S'TLX2'
p3897
S'increases'
p3898
tp3899
(lp3900
s(S'MAX'
p3901
S'FOXF2'
p3902
S'increases'
p3903
tp3904
(lp3905
s(S'GRB2:SOS1'
p3906
S'ACTIVATED FGFR:P-FRS2'
p3907
S'binds'
p3908
tp3909
(lp3910
s(S'FOXO4'
p3911
S'MECOM'
p3912
S'increases'
p3913
tp3914
(lp3915
s(S'TCF3'
p3916
S'LEF1'
p3917
S'increases'
p3918
tp3919
(lp3920
s(S'ZIC1'
p3921
S'LEF1'
p3922
S'increases'
p3923
tp3924
(lp3925
s(S'NFIL3'
p3926
S'CYP26A1'
p3927
S'increases'
p3928
tp3929
(lp3930
s(S'RAF1'
p3931
S'MEK1'
p3932
S'increases_activity'
p3933
tp3934
(lp3935
s(S'AR'
p3936
S'FOXA1'
p3937
S'increases'
p3938
tp3939
(lp3940
s(S'POU2F1'
p3941
S'POU3F2'
p3942
S'increases'
p3943
tp3944
(lp3945
s(S'PCBP1'
p3946
S'MAZ'
p3947
S'increases'
p3948
tp3949
(lp3950
s(S'LEF1'
p3951
S'HOXA9'
p3952
S'increases'
p3953
tp3954
(lp3955
s(S'NR6A1'
p3956
S'CYP26A1'
p3957
S'increases'
p3958
tp3959
(lp3960
s(S'PI3K'
p3961
S'BTK'
p3962
S'translocates'
p3963
tp3964
(lp3965
s(S'AHR'
p3966
S'RUNX1'
p3967
S'increases'
p3968
tp3969
(lp3970
s(S'NR1H4'
p3971
S'CYP26A1'
p3972
S'increases'
p3973
tp3974
(lp3975
s(S'NR2F2'
p3976
S'CYP26A1'
p3977
S'increases'
p3978
tp3979
(lp3980
s(S'GNB1/GNG2'
p3981
S'PI3K'
p3982
S'binds'
p3983
tp3984
(lp3985
s(S'RHOA/GTP'
p3986
S'PKN2'
p3987
S'increases_activity'
p3988
tp3989
(lp3990
s(S'MAZ'
p3991
S'LEF1'
p3992
S'increases'
p3993
tp3994
(lp3995
s(S'RFX1'
p3996
S'MECOM'
p3997
S'increases'
p3998
tp3999
(lp4000
s(S'RUNX1'
p4001
S'HOXA9'
p4002
S'increases'
p4003
tp4004
(lp4005
s(S'FOXL1'
p4006
S'POU2F1'
p4007
S'increases'
p4008
tp4009
(lp4010
s(S'GRB2:SOS1'
p4011
S'PHOSPHORYLATED ERBB2:EGFR HETERODIMERS'
p4012
S'binds'
p4013
tp4014
(lp4015
s(S'TFAP4'
p4016
S'MYCN'
p4017
S'increases'
p4018
tp4019
(lp4020
s(S'E2F1'
p4021
S'GATA1'
p4022
S'increases'
p4023
tp4024
(lp4025
s(S'PTF1A'
p4026
S'GATA6'
p4027
S'increases'
p4028
tp4029
(lp4030
s(S'REL'
p4031
S'CYP26A1'
p4032
S'increases'
p4033
tp4034
(lp4035
s(S'MTF1'
p4036
S'JUN'
p4037
S'increases'
p4038
tp4039
(lp4040
s(S'ZEB1'
p4041
S'REPIN1'
p4042
S'increases'
p4043
tp4044
(lp4045
s(S'IRF8'
p4046
S'GATA6'
p4047
S'increases'
p4048
tp4049
(lp4050
s(S'P-Y349,350-SHC1:PHOSPHORYLATED ERBB2 HETERODIMERS'
p4051
S'GRB2:SOS1'
p4052
S'binds'
p4053
tp4054
(lp4055
s(S'BACH2'
p4056
S'EN1'
p4057
S'increases'
p4058
tp4059
(lp4060
s(S'GFI1'
p4061
S'MEIS1'
p4062
S'increases'
p4063
tp4064
(lp4065
s(S'FOXN1'
p4066
S'LEF1'
p4067
S'increases'
p4068
tp4069
(lp4070
s(S'CYP26A1'
p4071
S'JUN'
p4072
S'increases'
p4073
tp4074
(lp4075
s(S'TCF3'
p4076
S'ONECUT1'
p4077
S'increases'
p4078
tp4079
(lp4080
s(S'FOXF2'
p4081
S'POU2F1'
p4082
S'increases'
p4083
tp4084
(lp4085
s(S'MAZ'
p4086
S'MAX'
p4087
S'increases'
p4088
tp4089
(lp4090
s(S'FOXN1'
p4091
S'CYP26A1'
p4092
S'increases'
p4093
tp4094
(lp4095
s(S'HNF1A'
p4096
S'FOXD3'
p4097
S'increases'
p4098
tp4099
(lp4100
s(S'EGR2'
p4101
S'RUNX1'
p4102
S'increases'
p4103
tp4104
(lp4105
s(S'MYC'
p4106
S'RUNX2'
p4107
S'increases'
p4108
tp4109
(lp4110
s(S'TFAP2A'
p4111
S'IRF1'
p4112
S'increases'
p4113
tp4114
(lp4115
s(S'FOXO4'
p4116
S'YY1'
p4117
S'increases'
p4118
tp4119
(lp4120
s(S'VEGFR2 (dimer)/VEGFA (dimer)'
p4121
S'SRC'
p4122
S'adds_modification'
p4123
tp4124
(lp4125
s(S'resveratrol'
p4126
S'KRAS MRNA'
p4127
S'decreases'
p4128
tp4129
(lp4130
s(S'FOXO4'
p4131
S'CYP26A1'
p4132
S'increases'
p4133
tp4134
(lp4135
s(S'STAT3'
p4136
S'FOXO4'
p4137
S'increases'
p4138
tp4139
(lp4140
s(S'GRB2/SOS1'
p4141
S'FRS2 FAMILY/SHP2'
p4142
S'binds'
p4143
tp4144
(lp4145
s(S'LEF1'
p4146
S'CYP26A1'
p4147
S'increases'
p4148
tp4149
(lp4150
s(S'GTF2A2'
p4151
S'SRF'
p4152
S'increases'
p4153
tp4154
(lp4155
s(S'PPARA'
p4156
S'STAT5A'
p4157
S'increases'
p4158
tp4159
(lp4160
s(S'hsa-miR-143-3p'
p4161
S'KRAS'
p4162
S'decreases'
p4163
tp4164
(lp4165
s(S'GFI1'
p4166
S'CYP26A1'
p4167
S'increases'
p4168
tp4169
(lp4170
s(S'RAC1/GTP'
p4171
S'MKK4-MKK7'
p4172
S'increases_activity'
p4173
tp4174
(lp4175
s(S'REPIN1'
p4176
S'ETS1'
p4177
S'increases'
p4178
tp4179
(lp4180
s(S'ZIC1'
p4181
S'GATA6'
p4182
S'increases'
p4183
tp4184
(lp4185
s(S'INTERLEUKIN RECEPTOR COMPLEXES WITH ACTIVATED SHC1'
p4186
S'GRB2:SOS1'
p4187
S'binds'
p4188
tp4189
(lp4190
s(S'Selenium'
p4191
S'HRAS MRNA'
p4192
S'increases'
p4193
tp4194
(lp4195
s(S'HOXA4'
p4196
S'CYP26A1'
p4197
S'increases'
p4198
tp4199
(lp4200
s(S'NKX2-1'
p4201
S'POU2F1'
p4202
S'increases'
p4203
tp4204
(lp4205
s(S'VSX1'
p4206
S'MAX'
p4207
S'increases'
p4208
tp4209
(lp4210
s(S'FOXD1'
p4211
S'FOXD3'
p4212
S'increases'
p4213
tp4214
(lp4215
s(S'MAX'
p4216
S'NRAS'
p4217
S'increases'
p4218
tp4219
(lp4220
s(S'HOXA9'
p4221
S'TCF3'
p4222
S'increases'
p4223
tp4224
(lp4225
s(S'IRF1'
p4226
S'CYP26A1'
p4227
S'increases'
p4228
tp4229
(lp4230
s(S'HRAS'
p4231
S'RAF1'
p4232
S'adds_modification'
p4233
tp4234
(lp4235
s(S'CUX1'
p4236
S'HOXA9'
p4237
S'increases'
p4238
tp4239
(lp4240
s(S'ZHX2'
p4241
S'FOXA1'
p4242
S'increases'
p4243
tp4244
(lp4245
s(S'TFDP1'
p4246
S'MYC'
p4247
S'increases'
p4248
tp4249
(lp4250
s(S'RAC1/GTP'
p4251
S'PAK1'
p4252
S'increases_activity'
p4253
tp4254
(lp4255
s(S'AHR'
p4256
S'MAZ'
p4257
S'increases'
p4258
tp4259
(lp4260
s(S'BRAF/14-3-3'
p4261
S'KSR/14-3-3 /MEK1-2'
p4262
S'increases_activity'
p4263
tp4264
(lp4265
s(S'PPARA'
p4266
S'CYP26A1'
p4267
S'increases'
p4268
tp4269
(lp4270
s(S'REPIN1'
p4271
S'SRF'
p4272
S'increases'
p4273
tp4274
(lp4275
s(S'PAX5'
p4276
S'SRF'
p4277
S'increases'
p4278
tp4279
(lp4280
s(S'PAX4'
p4281
S'FOXJ2'
p4282
S'increases'
p4283
tp4284
(lp4285
s(S'REPIN1'
p4286
S'MYCN'
p4287
S'increases'
p4288
tp4289
(lp4290
s(S'RALA/GTP'
p4291
S'SRC'
p4292
S'adds_modification'
p4293
tp4294
(lp4295
s(S'FOXO4'
p4296
S'ETS1'
p4297
S'increases'
p4298
tp4299
(lp4300
s(S'TFDP1'
p4301
S'CDC5L'
p4302
S'increases'
p4303
tp4304
(lp4305
s(S'TFDP1'
p4306
S'CYP26A1'
p4307
S'increases'
p4308
tp4309
(lp4310
s(S'GATA6'
p4311
S'RUNX2'
p4312
S'increases'
p4313
tp4314
(lp4315
s(S'FOXM1'
p4316
S'CYP26A1'
p4317
S'increases'
p4318
tp4319
(lp4320
s(S'sodium arsenite'
p4321
S'HRAS PROTEIN'
p4322
S'increases'
p4323
tp4324
(lp4325
s(S'STAT5A'
p4326
S'RUNX1'
p4327
S'increases'
p4328
tp4329
(lp4330
s(S'CEBPA'
p4331
S'EN1'
p4332
S'increases'
p4333
tp4334
(lp4335
s(S'MSX1'
p4336
S'POU2F1'
p4337
S'increases'
p4338
tp4339
(lp4340
s(S'NHLH1'
p4341
S'CBFA2T3'
p4342
S'increases'
p4343
tp4344
(lp4345
s(S'Parathion'
p4346
S'HRAS PROTEIN'
p4347
S'increases'
p4348
tp4349
(lp4350
s(S'SMAD4'
p4351
S'CYP26A1'
p4352
S'increases'
p4353
tp4354
(lp4355
s(S'E2F1'
p4356
S'MYC'
p4357
S'increases'
p4358
tp4359
(lp4360
s(S'CYP26A1'
p4361
S'FOXO3'
p4362
S'increases'
p4363
tp4364
(lp4365
s(S'TCF3'
p4366
S'CBFA2T3'
p4367
S'increases'
p4368
tp4369
(lp4370
s(S'ZHX2'
p4371
S'FOXF2'
p4372
S'increases'
p4373
tp4374
(lp4375
s(S'POU2F1'
p4376
S'MECOM'
p4377
S'increases'
p4378
tp4379
(lp4380
s(S'CYP26A1'
p4381
S'POU2F1'
p4382
S'increases'
p4383
tp4384
(lp4385
s(S'MYOD1'
p4386
S'CYP26A1'
p4387
S'increases'
p4388
tp4389
(lp4390
s(S'RAF'
p4391
S'COMPLEX (RAS/GTP)'
p4392
S'binds'
p4393
tp4394
(lp4395
s(S'RET51/GFRalpha1/GDNF/DOK1'
p4396
S'HRAS/GDP'
p4397
S'increases_activity'
p4398
tp4399
(lp4400
s(S'MAFG'
p4401
S'CYP26A1'
p4402
S'increases'
p4403
tp4404
(lp4405
s(S'CRX'
p4406
S'CYP26A1'
p4407
S'increases'
p4408
tp4409
(lp4410
s(S'hsa-miR-126-3p'
p4411
S'KRAS'
p4412
S'decreases'
p4413
tp4414
(lp4415
s(S'EBF2'
p4416
S'CYP26A1'
p4417
S'increases'
p4418
tp4419
(lp4420
s(S'RUNX1'
p4421
S'CYP26A1'
p4422
S'increases'
p4423
tp4424
(lp4425
s(S'HOXA5'
p4426
S'FOXA1'
p4427
S'increases'
p4428
tp4429
(lp4430
s(S'benzo(a)pyrene-3,6-quinone'
p4431
S'HRAS MRNA'
p4432
S'increases'
p4433
tp4434
(lp4435
s(S'K 7174'
p4436
S'HRAS MRNA'
p4437
S'decreases'
p4438
tp4439
(lp4440
s(S'LEF1'
p4441
S'NRAS'
p4442
S'increases'
p4443
tp4444
(lp4445
s(S'SPI1'
p4446
S'FOXA1'
p4447
S'increases'
p4448
tp4449
(lp4450
s(S'hsa-let-7b-5p'
p4451
S'NRAS'
p4452
S'decreases'
p4453
tp4454
(lp4455
s(S'CEBPA'
p4456
S'JUN'
p4457
S'increases'
p4458
tp4459
(lp4460
s(S'GABPB2'
p4461
S'CYP26A1'
p4462
S'increases'
p4463
tp4464
(lp4465
s(S'PI-3-4-5-P3'
p4466
S'MTOR'
p4467
S'increases_activity'
p4468
tp4469
(lp4470
s(S'GRB2:SOS1'
p4471
S'EGF:P-6Y-EGFR'
p4472
S'binds'
p4473
tp4474
(lp4475
s(S'HNF1A'
p4476
S'CYP26A1'
p4477
S'increases'
p4478
tp4479
(lp4480
s(S'HIF1A'
p4481
S'FOXO4'
p4482
S'increases'
p4483
tp4484
(lp4485
s(S'FOXJ1'
p4486
S'HOXA9'
p4487
S'increases'
p4488
tp4489
(lp4490
s(S'hsa-miR-96-5p'
p4491
S'KRAS'
p4492
S'decreases'
p4493
tp4494
(lp4495
s(S'SRC'
p4496
S'SYNDECAN-2/RASGAP'
p4497
S'binds'
p4498
tp4499
(lp4500
s(S'FOXA1'
p4501
S'MEIS1'
p4502
S'increases'
p4503
tp4504
(lp4505
s(S'LEF1'
p4506
S'MEIS1'
p4507
S'increases'
p4508
tp4509
(lp4510
s(S'PAX3'
p4511
S'CYP26A1'
p4512
S'increases'
p4513
tp4514
(lp4515
s(S'PAX4'
p4516
S'HOXA9'
p4517
S'increases'
p4518
tp4519
(lp4520
s(S'hsa-miR-18a-3p'
p4521
S'KRAS'
p4522
S'decreases'
p4523
tp4524
(lp4525
s(S'FOXF2'
p4526
S'EN1'
p4527
S'increases'
p4528
tp4529
(lp4530
s(S'Pyk2'
p4531
S'SRC FAMILY KINASES'
p4532
S'increases_activity'
p4533
tp4534
(lp4535
s(S'TP53'
p4536
S'HOXA9'
p4537
S'increases'
p4538
tp4539
(lp4540
s(S'Genistein'
p4541
S'KRAS MRNA'
p4542
S'decreases'
p4543
tp4544
(lp4545
s(S'POU1F1'
p4546
S'CYP26A1'
p4547
S'increases'
p4548
tp4549
(lp4550
s(S'manumycin'
p4551
S'KRAS PROTEIN'
p4552
S'decreases_activity'
p4553
tp4554
(lp4555
s(S'Ginkgo biloba extract 761'
p4556
S'GCLC PROTEIN'
p4557
S'increases'
p4558
tp4559
(lp4560
s(S'GATA1'
p4561
S'NRAS'
p4562
S'increases'
p4563
tp4564
(lp4565
s(S'CBFA2T3'
p4566
S'FOXF2'
p4567
S'increases'
p4568
tp4569
(lp4570
s(S'PCBP1'
p4571
S'ELK1'
p4572
S'increases'
p4573
tp4574
(lp4575
s(S'MYC'
p4576
S'FOXF2'
p4577
S'increases'
p4578
tp4579
(lp4580
s(S'hsa-mir-622'
p4581
S'KRAS'
p4582
S'decreases'
p4583
tp4584
(lp4585
s(S'TCF3'
p4586
S'MAZ'
p4587
S'increases'
p4588
tp4589
(lp4590
s(S'STAT2'
p4591
S'MEIS1'
p4592
S'increases'
p4593
tp4594
(lp4595
s(S'CYP26A1'
p4596
S'YY1'
p4597
S'increases'
p4598
tp4599
(lp4600
s(S'CYP26A1'
p4601
S'EN1'
p4602
S'increases'
p4603
tp4604
(lp4605
s(S'GRB2/SOS1'
p4606
S'SHC'
p4607
S'binds'
p4608
tp4609
(lp4610
s(S'BAD'
p4611
S'YWHAZ'
p4612
S'binds'
p4613
tp4614
(lp4615
s(S'SPI1'
p4616
S'MAX'
p4617
S'increases'
p4618
tp4619
(lp4620
s(S'PI-3-4-5-P3'
p4621
S'CENTA1'
p4622
S'translocates'
p4623
tp4624
(lp4625
s(S'XBP1'
p4626
S'CYP26A1'
p4627
S'increases'
p4628
tp4629
(lp4630
s(S'PAX4'
p4631
S'NRAS'
p4632
S'increases'
p4633
tp4634
(lp4635
s(S'PI3K'
p4636
S'EPHRIN A1/EPHA2'
p4637
S'binds'
p4638
tp4639
(lp4640
s(S'POU1F1'
p4641
S'MEIS1'
p4642
S'increases'
p4643
tp4644
(lp4645
s(S'NR3C1'
p4646
S'ETS1'
p4647
S'increases'
p4648
tp4649
(lp4650
s(S'MAZ'
p4651
S'POU3F2'
p4652
S'increases'
p4653
tp4654
(lp4655
s(S'Estradiol'
p4656
S'HRAS MRNA'
p4657
S'increases'
p4658
tp4659
(lp4660
s(S'Aflatoxin B1'
p4661
S'HRAS PROTEIN'
p4662
S'increases'
p4663
tp4664
(lp4665
s(S'ETV7'
p4666
S'STAT4'
p4667
S'increases'
p4668
tp4669
(lp4670
s(S'PBX1'
p4671
S'LEF1'
p4672
S'increases'
p4673
tp4674
(lp4675
s(S'CEBPB'
p4676
S'CYP26A1'
p4677
S'increases'
p4678
tp4679
(lp4680
s(S'MAZ'
p4681
S'JUN'
p4682
S'increases'
p4683
tp4684
(lp4685
s(S'FOXF2'
p4686
S'MYC'
p4687
S'increases'
p4688
tp4689
(lp4690
s(S'FOXJ2'
p4691
S'HOXA9'
p4692
S'increases'
p4693
tp4694
(lp4695
s(S'Capsaicin'
p4696
S'HRAS MRNA'
p4697
S'increases'
p4698
tp4699
(lp4700
s(S'POU3F1'
p4701
S'GATA6'
p4702
S'increases'
p4703
tp4704
(lp4705
s(S'EIF2A'
p4706
S'14-3-3 E'
p4707
S'binds'
p4708
tp4709
(lp4710
s(S'RAS family/GTP'
p4711
S'RAF1-BRAF'
p4712
S'increases_activity'
p4713
tp4714
(lp4715
s(S'GATA6'
p4716
S'GATA1'
p4717
S'increases'
p4718
tp4719
(lp4720
s(S'RASA1'
p4721
S'PHOSPHO PDGF BETA RECEPTOR: PDGF CHAIN B HOMODIMER'
p4722
S'binds'
p4723
tp4724
(lp4725
s(S'CART1'
p4726
S'POU2F1'
p4727
S'increases'
p4728
tp4729
(lp4730
s(S'ZIC3'
p4731
S'POU2F1'
p4732
S'increases'
p4733
tp4734
(lp4735
s(S'TCF4'
p4736
S'FOXA1'
p4737
S'increases'
p4738
tp4739
(lp4740
s(S'PKC theta'
p4741
S'RASGRP1'
p4742
S'adds_modification'
p4743
tp4744
(lp4745
s(S'PTF1A'
p4746
S'STAT5A'
p4747
S'increases'
p4748
tp4749
(lp4750
s(S'SPI1'
p4751
S'FOXO4'
p4752
S'increases'
p4753
tp4754
(lp4755
s(S'HNF1A'
p4756
S'GATA6'
p4757
S'increases'
p4758
tp4759
(lp4760
s(S'FOXJ1'
p4761
S'RUNX1'
p4762
S'increases'
p4763
tp4764
(lp4765
s(S'STAT2'
p4766
S'GATA6'
p4767
S'increases'
p4768
tp4769
(lp4770
s(S'RAS FAMILY/GTP'
p4771
S'PI3K'
p4772
S'binds'
p4773
tp4774
(lp4775
s(S'PAX4'
p4776
S'IRF1'
p4777
S'increases'
p4778
tp4779
(lp4780
s(S'PAX3'
p4781
S'HOXA9'
p4782
S'increases'
p4783
tp4784
(lp4785
s(S'MYB'
p4786
S'MAZ'
p4787
S'increases'
p4788
tp4789
(lp4790
s(S"Guanosine-5'-Triphosphate"
p4791
S'HRAS'
p4792
S'increases_activity'
p4793
tp4794
(lp4795
s(S'alpha9/beta1 Integrin/Tenascin C'
p4796
S'SRC'
p4797
S'adds_modification'
p4798
tp4799
(lp4800
s(S'RAF1'
p4801
S'MEK1'
p4802
S'adds_modification'
p4803
tp4804
(lp4805
s(S'JUN'
p4806
S'FOXA1'
p4807
S'increases'
p4808
tp4809
(lp4810
s(S'NFE2L2'
p4811
S'BACH1'
p4812
S'increases'
p4813
tp4814
(lp4815
s(S'CUX1'
p4816
S'FOXD3'
p4817
S'increases'
p4818
tp4819
(lp4820
s(S'JUN'
p4821
S'EN1'
p4822
S'increases'
p4823
tp4824
(lp4825
s(S'ESR1'
p4826
S'CYP26A1'
p4827
S'increases'
p4828
tp4829
(lp4830
s(S'ESRRA'
p4831
S'FOXA1'
p4832
S'increases'
p4833
tp4834
(lp4835
s(S'POU2F1'
p4836
S'MEIS1'
p4837
S'increases'
p4838
tp4839
(lp4840
s(S'TFCP2'
p4841
S'FOXA1'
p4842
S'increases'
p4843
tp4844
(lp4845
s(S'PI-3-4-5-P3'
p4846
S'PDK1'
p4847
S'increases_activity'
p4848
tp4849
(lp4850
s(S'TCF3'
p4851
S'FOXA1'
p4852
S'increases'
p4853
tp4854
(lp4855
s(S'STAT3'
p4856
S'CYP26A1'
p4857
S'increases'
p4858
tp4859
(lp4860
s(S'CYP26A1'
p4861
S'POU3F2'
p4862
S'increases'
p4863
tp4864
(lp4865
s(S'Curcumin'
p4866
S'KRAS MRNA'
p4867
S'decreases'
p4868
tp4869
(lp4870
s(S'STAT1'
p4871
S'CYP26A1'
p4872
S'increases'
p4873
tp4874
(lp4875
s(S'GFI1'
p4876
S'POU2F1'
p4877
S'increases'
p4878
tp4879
(lp4880
s(S'ZIC1'
p4881
S'POU2F1'
p4882
S'increases'
p4883
tp4884
(lp4885
s(S'PI-3-4-5-P3'
p4886
S'AKT3'
p4887
S'adds_modification'
p4888
tp4889
(lp4890
s(S'BACH1'
p4891
S'NRAS'
p4892
S'increases'
p4893
tp4894
(lp4895
s(S'SCF/KIT'
p4896
S'SHC/GRB2/SOS1'
p4897
S'increases_activity'
p4898
tp4899
(lp4900
s(S'CDX2'
p4901
S'CYP26A1'
p4902
S'increases'
p4903
tp4904
(lp4905
s(S'RET51/GFRalpha1/GDNF/DOK/RasGAP/NCK'
p4906
S'HRAS/GDP'
p4907
S'decreases_activity'
p4908
tp4909
(lp4910
s(S'BETAPIX'
p4911
S'RAC1/GTP'
p4912
S'binds'
p4913
tp4914
(lp4915
s(S'RHOA/GTP'
p4916
S'CITRON'
p4917
S'increases_activity'
p4918
tp4919
(lp4920
s(S'P-SHC1:GRB2:SOS'
p4921
S'P-5Y-LAT-2'
p4922
S'binds'
p4923
tp4924
(lp4925
s(S'PAX4'
p4926
S'CYP26A1'
p4927
S'increases'
p4928
tp4929
(lp4930
s(S'TCF3'
p4931
S'KRAS'
p4932
S'increases'
p4933
tp4934
(lp4935
s(S'GRB2:SOS1'
p4936
S'PHOSPHORYLATED ERBB2:ERBB4 HETERODIMERS'
p4937
S'binds'
p4938
tp4939
(lp4940
s(S'CDX2'
p4941
S'MEIS1'
p4942
S'increases'
p4943
tp4944
(lp4945
s(S'SP3'
p4946
S'RUNX1'
p4947
S'increases'
p4948
tp4949
(lp4950
s(S'REST'
p4951
S'CYP26A1'
p4952
S'increases'
p4953
tp4954
(lp4955
s(S'PTF1A'
p4956
S'CYP26A1'
p4957
S'increases'
p4958
tp4959
(lp4960
s(S'PI-3-4-5-P3'
p4961
S'PI3K/GAB1'
p4962
S'translocates'
p4963
tp4964
(lp4965
s(S'LMO2'
p4966
S'FOXO4'
p4967
S'increases'
p4968
tp4969
(lp4970
s(S'STAT4'
p4971
S'ETS1'
p4972
S'increases'
p4973
tp4974
(lp4975
s(S'GTF2A2'
p4976
S'HOXA9'
p4977
S'increases'
p4978
tp4979
(lp4980
s(S'FOXF2'
p4981
S'POU3F2'
p4982
S'increases'
p4983
tp4984
(lp4985
s(S'GATA1'
p4986
S'GABPB2'
p4987
S'increases'
p4988
tp4989
(lp4990
s(S'Polychlorinated Biphenyls'
p4991
S'KRAS MRNA'
p4992
S'decreases'
p4993
tp4994
(lp4995
s(S'GRB2/SOS1'
p4996
S'EGF/EGFR DIMER/SHC'
p4997
S'binds'
p4998
tp4999
(lp5000
s(S'CYP26A1'
p5001
S'FOXF2'
p5002
S'increases'
p5003
tp5004
(lp5005
s(S'EGR1'
p5006
S'CYP26A1'
p5007
S'increases'
p5008
tp5009
(lp5010
s(S'MAX'
p5011
S'FOXO3'
p5012
S'increases'
p5013
tp5014
(lp5015
s(S'T-DHT/AR/PELP1'
p5016
S'SRC'
p5017
S'binds'
p5018
tp5019
(lp5020
s(S'CUX1'
p5021
S'FOXF2'
p5022
S'increases'
p5023
tp5024
(lp5025
s(S'CEBPD'
p5026
S'CYP26A1'
p5027
S'increases'
p5028
tp5029
(lp5030
s(S'CBFA2T3'
p5031
S'NRAS'
p5032
S'increases'
p5033
tp5034
(lp5035
s(S'Cisplatin'
p5036
S'HRAS MRNA'
p5037
S'translocates'
p5038
tp5039
(lp5040
s(S'BAD/BCL-X(L)'
p5041
S'YWHAZ'
p5042
S'binds'
p5043
tp5044
(lp5045
s(S'GATA1'
p5046
S'FOXA1'
p5047
S'increases'
p5048
tp5049
(lp5050
s(S'RREB1'
p5051
S'CYP26A1'
p5052
S'increases'
p5053
tp5054
(lp5055
s(S'STAT4'
p5056
S'RUNX2'
p5057
S'increases'
p5058
tp5059
(lp5060
s(S'FOXD3'
p5061
S'NRAS'
p5062
S'increases'
p5063
tp5064
(lp5065
s(S'NDEL1'
p5066
S'14-3-3 E'
p5067
S'binds'
p5068
tp5069
(lp5070
s(S'CYP26A1'
p5071
S'REPIN1'
p5072
S'increases'
p5073
tp5074
(lp5075
s(S'MAF'
p5076
S'CDC5L'
p5077
S'increases'
p5078
tp5079
(lp5080
s(S'CYP26A1'
p5081
S'ELK1'
p5082
S'increases'
p5083
tp5084
(lp5085
s(S'MYC'
p5086
S'FOXD3'
p5087
S'increases'
p5088
tp5089
(lp5090
s(S'MAX'
p5091
S'FOXD3'
p5092
S'increases'
p5093
tp5094
(lp5095
s(S'POU1F1'
p5096
S'GATA6'
p5097
S'increases'
p5098
tp5099
(lp5100
s(S'POU2F1'
p5101
S'STAT4'
p5102
S'increases'
p5103
tp5104
(lp5105
s(S'GTF3A'
p5106
S'FOXO3'
p5107
S'increases'
p5108
tp5109
(lp5110
s(S'MYB'
p5111
S'FOXF2'
p5112
S'increases'
p5113
tp5114
(lp5115
s(S'ZIC3'
p5116
S'CYP26A1'
p5117
S'increases'
p5118
tp5119
(lp5120
s(S'POU2F1'
p5121
S'EN1'
p5122
S'increases'
p5123
tp5124
(lp5125
s(S'JUN'
p5126
S'STAT1'
p5127
S'increases'
p5128
tp5129
(lp5130
s(S'TEF'
p5131
S'CYP26A1'
p5132
S'increases'
p5133
tp5134
(lp5135
s(S'MAF'
p5136
S'CYP26A1'
p5137
S'increases'
p5138
tp5139
(lp5140
s(S'PAX4'
p5141
S'GATA6'
p5142
S'increases'
p5143
tp5144
(lp5145
s(S'ZIC2'
p5146
S'GATA6'
p5147
S'increases'
p5148
tp5149
(lp5150
s(S'hsa-miR-181d-5p'
p5151
S'HRAS'
p5152
S'decreases'
p5153
tp5154
(lp5155
s(S'BACH2'
p5156
S'CYP26A1'
p5157
S'increases'
p5158
tp5159
(lp5160
s(S'TCF12'
p5161
S'CYP26A1'
p5162
S'increases'
p5163
tp5164
(lp5165
s(S'GATA1'
p5166
S'FOXO4'
p5167
S'increases'
p5168
tp5169
(lp5170
s(S'RFX1'
p5171
S'FOXD3'
p5172
S'increases'
p5173
tp5174
(lp5175
s(S'FOXJ1'
p5176
S'CYP26A1'
p5177
S'increases'
p5178
tp5179
(lp5180
s(S'GTF2A2'
p5181
S'POU2F1'
p5182
S'increases'
p5183
tp5184
(lp5185
s(S'YY1'
p5186
S'SRF'
p5187
S'increases'
p5188
tp5189
(lp5190
s(S'AHR'
p5191
S'REPIN1'
p5192
S'increases'
p5193
tp5194
(lp5195
s(S'MAZ'
p5196
S'CYP26A1'
p5197
S'increases'
p5198
tp5199
(lp5200
s(S'Quercetin'
p5201
S'HRAS MRNA'
p5202
S'increases'
p5203
tp5204
(lp5205
s(S'ELK1'
p5206
S'NRAS'
p5207
S'increases'
p5208
tp5209
(lp5210
s(S'HIF1A'
p5211
S'ONECUT1'
p5212
S'increases'
p5213
tp5214
(lp5215
s(S'FOXF2'
p5216
S'CYP26A1'
p5217
S'increases'
p5218
tp5219
(lp5220
s(S'SOX9'
p5221
S'ETS1'
p5222
S'increases'
p5223
tp5224
(lp5225
s(S'HSF1'
p5226
S'JUN'
p5227
S'increases'
p5228
tp5229
(lp5230
s(S'CEBPA'
p5231
S'CYP26A1'
p5232
S'increases'
p5233
tp5234
(lp5235
s(S'NR1H4'
p5236
S'MEIS1'
p5237
S'increases'
p5238
tp5239
(lp5240
s(S'SMAD1'
p5241
S'GATA1'
p5242
S'increases'
p5243
tp5244
(lp5245
s(S'Quercetin'
p5246
S'HRAS MRNA'
p5247
S'decreases'
p5248
tp5249
(lp5250
s(S'Glycyrrhetinic Acid'
p5251
S'HRAS PROTEIN'
p5252
S'decreases'
p5253
tp5254
(lp5255
s(S'HOXA4'
p5256
S'POU2F1'
p5257
S'increases'
p5258
tp5259
(lp5260
s(S'FOXQ1'
p5261
S'CYP26A1'
p5262
S'increases'
p5263
tp5264
(lp5265
s(S'FOXI1'
p5266
S'CEBPA'
p5267
S'increases'
p5268
tp5269
(lp5270
s(S'GTF3A'
p5271
S'MYCN'
p5272
S'increases'
p5273
tp5274
(lp5275
s(S'LMO2'
p5276
S'IRF1'
p5277
S'increases'
p5278
tp5279
(lp5280
s(S'FOXO1'
p5281
S'CYP26A1'
p5282
S'increases'
p5283
tp5284
(lp5285
s(S'Copper Sulfate'
p5286
S'NRAS MRNA'
p5287
S'increases'
p5288
tp5289
(lp5290
s(S'TFAP2A'
p5291
S'CYP26A1'
p5292
S'increases'
p5293
tp5294
(lp5295
s(S'FOXJ1'
p5296
S'EN1'
p5297
S'increases'
p5298
tp5299
(lp5300
s(S'MEIS1'
p5301
S'RUNX1'
p5302
S'increases'
p5303
tp5304
(lp5305
s(S'MAZ'
p5306
S'FOXA1'
p5307
S'increases'
p5308
tp5309
(lp5310
s(S'ETS1'
p5311
S'FOXO4'
p5312
S'increases'
p5313
tp5314
(lp5315
s(S'ZBTB14'
p5316
S'FOXD3'
p5317
S'increases'
p5318
tp5319
(lp5320
s(S'FOXC1'
p5321
S'LEF1'
p5322
S'increases'
p5323
tp5324
(lp5325
s(S'IRF1'
p5326
S'EN1'
p5327
S'increases'
p5328
tp5329
(lp5330
s(S'NR3C1'
p5331
S'CYP26A1'
p5332
S'increases'
p5333
tp5334
(lp5335
s(S'VSX1'
p5336
S'BACH1'
p5337
S'increases'
p5338
tp5339
(lp5340
s(S'CYP26A1'
p5341
S'ETS1'
p5342
S'increases'
p5343
tp5344
(lp5345
s(S'CEBPA'
p5346
S'MEIS1'
p5347
S'increases'
p5348
tp5349
(lp5350
s(S'ELF1'
p5351
S'FOXO4'
p5352
S'increases'
p5353
tp5354
(lp5355
s(S'RXRA'
p5356
S'CYP26A1'
p5357
S'increases'
p5358
tp5359
(lp5360
s(S'CREB1'
p5361
S'CYP26A1'
p5362
S'increases'
p5363
tp5364
(lp5365
s(S'IRF7'
p5366
S'GATA6'
p5367
S'increases'
p5368
tp5369
(lp5370
s(S'ZEB1'
p5371
S'CYP26A1'
p5372
S'increases'
p5373
tp5374
(lp5375
s(S'AR'
p5376
S'CYP26A1'
p5377
S'increases'
p5378
tp5379
(lp5380
s(S'TFDP2'
p5381
S'MYC'
p5382
S'increases'
p5383
tp5384
(lp5385
s(S'hsa-mir-217'
p5386
S'KRAS'
p5387
S'decreases'
p5388
tp5389
(lp5390
s(S'MEK'
p5391
S'ERK'
p5392
S'adds_modification'
p5393
tp5394
(lp5395
s(S'ZBTB18'
p5396
S'ONECUT1'
p5397
S'increases'
p5398
tp5399
(lp5400
s(S'TGIF'
p5401
S'MAX'
p5402
S'increases'
p5403
tp5404
(lp5405
s(S'ETS1'
p5406
S'NRAS'
p5407
S'increases'
p5408
tp5409
(lp5410
s(S'KLF12'
p5411
S'GATA1'
p5412
S'increases'
p5413
tp5414
(lp5415
s(S'HRAS/GTP'
p5416
S'PAK2'
p5417
S'increases_activity'
p5418
tp5419
(lp5420
s(S'CYP26A1'
p5421
S'FOXD3'
p5422
S'increases'
p5423
tp5424
(lp5425
s(S'LMO2'
p5426
S'RUNX1'
p5427
S'increases'
p5428
tp5429
(lp5430
s(S'MLK3'
p5431
S'MKK3/6'
p5432
S'adds_modification'
p5433
tp5434
(lp5435
s(S'TAK'
p5436
S'MKK3/6'
p5437
S'adds_modification'
p5438
tp5439
(lp5440
s(S'GRB2:SOS1'
p5441
S'HB-EGF:P-6Y-EGFR DIMER'
p5442
S'binds'
p5443
tp5444
(lp5445
s(S'FOXO4'
p5446
S'NRAS'
p5447
S'increases'
p5448
tp5449
(lp5450
s(S'MECOM'
p5451
S'NRAS'
p5452
S'increases'
p5453
tp5454
(lp5455
s(S'KLF12'
p5456
S'CYP26A1'
p5457
S'increases'
p5458
tp5459
(lp5460
s(S'RAS family/GTP/PI3K'
p5461
S'TRPV1'
p5462
S'adds_modification'
p5463
tp5464
(lp5465
s(S'hsa-let-7a-5p'
p5466
S'NRAS'
p5467
S'decreases'
p5468
tp5469
(lp5470
s(S'NF1'
p5471
S'HOXA9'
p5472
S'increases'
p5473
tp5474
(lp5475
s(S'REPIN1'
p5476
S'FOXD3'
p5477
S'increases'
p5478
tp5479
(lp5480
s(S'CYP26A1'
p5481
S'FOXJ2'
p5482
S'increases'
p5483
tp5484
(lp5485
s(S'FOXO4'
p5486
S'MEIS1'
p5487
S'increases'
p5488
tp5489
(lp5490
s(S'EBF2'
p5491
S'MECOM'
p5492
S'increases'
p5493
tp5494
(lp5495
s(S'ETS1'
p5496
S'FOXO3'
p5497
S'increases'
p5498
tp5499
(lp5500
s(S'SP3'
p5501
S'CYP26A1'
p5502
S'increases'
p5503
tp5504
(lp5505
s(S'LNXp80'
p5506
S'NUMB'
p5507
S'decreases'
p5508
tp5509
(lp5510
s(S'RUNX2'
p5511
S'CYP26A1'
p5512
S'increases'
p5513
tp5514
(lp5515
s(S'AHR'
p5516
S'FOXO3'
p5517
S'increases'
p5518
tp5519
(lp5520
s(S'VSX1'
p5521
S'FOXF2'
p5522
S'increases'
p5523
tp5524
(lp5525
s(S'BPTF'
p5526
S'RUNX1'
p5527
S'increases'
p5528
tp5529
(lp5530
s(S'7,8-Dihydro-7,8-dihydroxybenzo(a)pyrene 9,10-oxide'
p5531
S'HRAS PROTEIN'
p5532
S'increases'
p5533
tp5534
(lp5535
s(S'TCF3'
p5536
S'POU3F2'
p5537
S'increases'
p5538
tp5539
(lp5540
s(S'TCF3'
p5541
S'IRF1'
p5542
S'increases'
p5543
tp5544
(lp5545
s(S'SREBF1'
p5546
S'EN1'
p5547
S'increases'
p5548
tp5549
(lp5550
s(S'FOXO4'
p5551
S'RUNX2'
p5552
S'increases'
p5553
tp5554
(lp5555
s(S'hsa-miR-181a-5p'
p5556
S'HRAS'
p5557
S'decreases'
p5558
tp5559
(lp5560
s(S'Myb'
p5561
S'NRAS'
p5562
S'decreases'
p5563
tp5564
(lp5565
s(S'HSPA8'
p5566
S'ADP'
p5567
S'binds'
p5568
tp5569
(lp5570
s(S'SOCS3'
p5571
S'RASGAP'
p5572
S'binds'
p5573
tp5574
(lp5575
s(S'ONECUT1'
p5576
S'NRAS'
p5577
S'increases'
p5578
tp5579
(lp5580
s(S'PITX2'
p5581
S'EN1'
p5582
S'increases'
p5583
tp5584
(lp5585
s(S'HGF(dimer)/MET(dimer)'
p5586
S'SRC'
p5587
S'adds_modification'
p5588
tp5589
(lp5590
s(S'2-amino-1-methyl-6-phenylimidazo(4,5-b)pyridine'
p5591
S'HRAS PROTEIN'
p5592
S'increases'
p5593
tp5594
(lp5595
s(S'GFI1'
p5596
S'POU3F2'
p5597
S'increases'
p5598
tp5599
(lp5600
s(S'FARNESYL DIPHOSPHATE'
p5601
S'KRAS'
p5602
S'increases_activity'
p5603
tp5604
(lp5605
s(S'IL2/IL2R BETA/GAMMA/JAK1/LCK/JAK3'
p5606
S'PI3K'
p5607
S'binds'
p5608
tp5609
(lp5610
s(S'GTF3A'
p5611
S'MECOM'
p5612
S'increases'
p5613
tp5614
(lp5615
s(S'EGR2'
p5616
S'CYP26A1'
p5617
S'increases'
p5618
tp5619
(lp5620
s(S'RUNX1'
p5621
S'FOXF2'
p5622
S'increases'
p5623
tp5624
(lp5625
s(S'IL3/IL3RA/CSF2RB (DODECAMER)'
p5626
S'YWHAZ'
p5627
S'binds'
p5628
tp5629
(lp5630
s(S'RAF1'
p5631
S'BRAF'
p5632
S'binds'
p5633
tp5634
(lp5635
s(S'MYC'
p5636
S'CYP26A1'
p5637
S'increases'
p5638
tp5639
(lp5640
s(S'UBP1'
p5641
S'CYP26A1'
p5642
S'increases'
p5643
tp5644
(lp5645
s(S'MTF1'
p5646
S'REPIN1'
p5647
S'increases'
p5648
tp5649
(lp5650
s(S'HNF1A'
p5651
S'RUNX1'
p5652
S'increases'
p5653
tp5654
(lp5655
s(S'NHLH1'
p5656
S'FOXA1'
p5657
S'increases'
p5658
tp5659
(lp5660
s(S'HLF'
p5661
S'FOXA1'
p5662
S'increases'
p5663
tp5664
(lp5665
s(S'MEIS1'
p5666
S'GATA6'
p5667
S'increases'
p5668
tp5669
(lp5670
s(S'PDGF-BB/PDGFRB (DIMER)/SHP2'
p5671
S'GRB2/SOS1'
p5672
S'binds'
p5673
tp5674
(lp5675
s(S'ZBTB14'
p5676
S'EN1'
p5677
S'increases'
p5678
tp5679
(lp5680
s(S'alpha6/beta4 Integrin'
p5681
S'HRAS/GDP'
p5682
S'increases_activity'
p5683
tp5684
(lp5685
s(S'ErbB2'
p5686
S'HRAS/GDP'
p5687
S'increases_activity'
p5688
tp5689
(lp5690
s(S'MEIS1'
p5691
S'FOXO3'
p5692
S'increases'
p5693
tp5694
(lp5695
s(S'RELA'
p5696
S'IRF1'
p5697
S'increases'
p5698
tp5699
(lp5700
s(S'MYCN'
p5701
S'FOXO3'
p5702
S'increases'
p5703
tp5704
(lp5705
s(S'RHOA/GTP'
p5706
S'DIA'
p5707
S'increases_activity'
p5708
tp5709
(lp5710
s(S'Fluorouracil'
p5711
S'KRAS PROTEIN'
p5712
S'decreases'
p5713
tp5714
(lp5715
s(S'ATF2'
p5716
S'CYP26A1'
p5717
S'increases'
p5718
tp5719
(lp5720
s(S'GNAI2/GTP'
p5721
S'SRC FAMILY KINASES'
p5722
S'increases_activity'
p5723
tp5724
(lp5725
s(S'HAND1'
p5726
S'POU2F1'
p5727
S'increases'
p5728
tp5729
(lp5730
s(S'PI5K Type 1 family'
p5731
S'PI-4-P'
p5732
S'translocates'
p5733
tp5734
(lp5735
s(S'HSF1'
p5736
S'CBFA2T3'
p5737
S'increases'
p5738
tp5739
(lp5740
s(S'BACH1'
p5741
S'FOXA1'
p5742
S'increases'
p5743
tp5744
(lp5745
s(S'PI-3-4-5-P3'
p5746
S'SGK1'
p5747
S'adds_modification'
p5748
tp5749
(lp5750
s(S'hsa-miR-20a-5p'
p5751
S'NRAS'
p5752
S'decreases'
p5753
tp5754
(lp5755
s(S'CYP26A1'
p5756
S'MECOM'
p5757
S'increases'
p5758
tp5759
(lp5760
s(S'FOXF2'
p5761
S'RUNX1'
p5762
S'increases'
p5763
tp5764
(lp5765
s(S'EGR2'
p5766
S'SRF'
p5767
S'increases'
p5768
tp5769
(lp5770
s(S'LEF1'
p5771
S'FOXD3'
p5772
S'increases'
p5773
tp5774
(lp5775
s(S'TFAP2C'
p5776
S'MECOM'
p5777
S'increases'
p5778
tp5779
(lp5780
s(S'SHC'
p5781
S'GRB2/SOS1'
p5782
S'binds'
p5783
tp5784
(lp5785
s(S'CA2+'
p5786
S'CAM'
p5787
S'binds'
p5788
tp5789
(lp5790
s(S'MYC'
p5791
S'POU3F2'
p5792
S'increases'
p5793
tp5794
(lp5795
s(S'PAX8'
p5796
S'HOXA9'
p5797
S'increases'
p5798
tp5799
(lp5800
s(S'TFDP2'
p5801
S'CDC5L'
p5802
S'increases'
p5803
tp5804
(lp5805
s(S'RAF1/14-3-3'
p5806
S'KSR/14-3-3 /MEK1-2'
p5807
S'increases_activity'
p5808
tp5809
(lp5810
s(S'DDIT3'
p5811
S'MEIS1'
p5812
S'increases'
p5813
tp5814
(lp5815
s(S'GNB1/GNG2'
p5816
S'HRAS/GDP'
p5817
S'increases_activity'
p5818
tp5819
(lp5820
s(S'ACTIVATED FGFR MUTANTS:P-FRS2ALPHA'
p5821
S'GRB2:SOS1'
p5822
S'binds'
p5823
tp5824
(lp5825
s(S'HIF1A'
p5826
S'CYP26A1'
p5827
S'increases'
p5828
tp5829
(lp5830
s(S'RAF1-BRAF'
p5831
S'ERK1-2'
p5832
S'increases_activity'
p5833
tp5834
(lp5835
s(S'SMAD4'
p5836
S'CBFA2T3'
p5837
S'increases'
p5838
tp5839
(lp5840
s(S'resveratrol'
p5841
S'HRAS PROTEIN'
p5842
S'increases'
p5843
tp5844
(lp5845
s(S'Malathion'
p5846
S'HRAS MRNA'
p5847
S'increases'
p5848
tp5849
(lp5850
s(S'NRF1'
p5851
S'FOXO4'
p5852
S'increases'
p5853
tp5854
(lp5855
s(S'CREB1'
p5856
S'JUN'
p5857
S'increases'
p5858
tp5859
(lp5860
s(S'CDC5L'
p5861
S'HOXA9'
p5862
S'increases'
p5863
tp5864
(lp5865
s(S'CDX2'
p5866
S'HOXA9'
p5867
S'increases'
p5868
tp5869
(lp5870
s(S'HMGA1'
p5871
S'POU2F1'
p5872
S'increases'
p5873
tp5874
(lp5875
s(S'Coumestrol'
p5876
S'KRAS MRNA'
p5877
S'decreases'
p5878
tp5879
(lp5880
s(S'LEF1'
p5881
S'FOXO3'
p5882
S'increases'
p5883
tp5884
(lp5885
s(S'CYP26A1'
p5886
S'MEIS1'
p5887
S'increases'
p5888
tp5889
(lp5890
s(S'GTF2A2'
p5891
S'MEIS1'
p5892
S'increases'
p5893
tp5894
(lp5895
s(S'REPIN1'
p5896
S'CBFA2T3'
p5897
S'increases'
p5898
tp5899
(lp5900
s(S'hsa-miR-143-3p'
p5901
S'HRAS'
p5902
S'decreases'
p5903
tp5904
(lp5905
s(S'[(3,7,11-TRIMETHYL-DODECA-2,6,10-TRIENYLOXYCARBAMOYL)-METHYL]-PHOSPHONIC ACID'
p5906
S'KRAS'
p5907
S'increases_activity'
p5908
tp5909
(lp5910
s(S'TFDP1'
p5911
S'ONECUT1'
p5912
S'increases'
p5913
tp5914
(lp5915
s(S'YY1'
p5916
S'CYP26A1'
p5917
S'increases'
p5918
tp5919
(lp5920
s(S'PITX2'
p5921
S'RUNX1'
p5922
S'increases'
p5923
tp5924
(lp5925
s(S'STAT5A'
p5926
S'NRAS'
p5927
S'increases'
p5928
tp5929
(lp5930
s(S'Valproic Acid'
p5931
S'HRAS MRNA'
p5932
S'increases'
p5933
tp5934
(lp5935
s(S'Malathion'
p5936
S'HRAS PROTEIN'
p5937
S'increases'
p5938
tp5939
(lp5940
s(S'TFAP4'
p5941
S'CBFA2T3'
p5942
S'increases'
p5943
tp5944
(lp5945
s(S'TFAP4'
p5946
S'EN1'
p5947
S'increases'
p5948
tp5949
(lp5950
s(S'POU3F2'
p5951
S'CYP26A1'
p5952
S'increases'
p5953
tp5954
(lp5955
s(S'PAX3'
p5956
S'FOXD3'
p5957
S'increases'
p5958
tp5959
(lp5960
s(S'FOXA2'
p5961
S'RUNX2'
p5962
S'increases'
p5963
tp5964
(lp5965
s(S'MAX'
p5966
S'BACH1'
p5967
S'increases'
p5968
tp5969
(lp5970
s(S'PDX1'
p5971
S'CYP26A1'
p5972
S'increases'
p5973
tp5974
(lp5975
s(S'EPO/EPOR (dimer)/JAK2'
p5976
S'SHC/GRB2/SOS1'
p5977
S'increases_activity'
p5978
tp5979
(lp5980
s(S'E2F1'
p5981
S'MEIS1'
p5982
S'increases'
p5983
tp5984
(lp5985
s(S'FOXF2'
p5986
S'MEIS1'
p5987
S'increases'
p5988
tp5989
(lp5990
s(S'SPZ1'
p5991
S'FOXJ2'
p5992
S'increases'
p5993
tp5994
(lp5995
s(S'SRY'
p5996
S'NRAS'
p5997
S'increases'
p5998
tp5999
(lp6000
s(S'REPIN1'
p6001
S'CYP26A1'
p6002
S'increases'
p6003
tp6004
(lp6005
s(S'VEGFR3/VEGFC-D'
p6006
S'PKC'
p6007
S'increases_activity'
p6008
tp6009
(lp6010
s(S'MEIS1'
p6011
S'EN1'
p6012
S'increases'
p6013
tp6014
(lp6015
s(S'FOXJ1'
p6016
S'FOXD3'
p6017
S'increases'
p6018
tp6019
(lp6020
s(S'SPZ1'
p6021
S'FOXO4'
p6022
S'increases'
p6023
tp6024
(lp6025
s(S'RHOA/GTP'
p6026
S'ROCK1-ROCK2'
p6027
S'increases_activity'
p6028
tp6029
(lp6030
s(S'HMGA1'
p6031
S'ONECUT1'
p6032
S'increases'
p6033
tp6034
(lp6035
s(S'uPA/uPAR/alphav/beta3 Integrin/Vitronectin'
p6036
S'SRC'
p6037
S'adds_modification'
p6038
tp6039
(lp6040
s(S'ETS1'
p6041
S'CYP26A1'
p6042
S'increases'
p6043
tp6044
(lp6045
s(S'ESRRA'
p6046
S'TLX2'
p6047
S'increases'
p6048
tp6049
(lp6050
s(S'ROCK2'
p6051
S'RHO FAMILY GTPASE-ACTIVE'
p6052
S'binds'
p6053
tp6054
(lp6055
s(S'ATF4'
p6056
S'CYP26A1'
p6057
S'increases'
p6058
tp6059
(lp6060
s(S'OR5I1'
p6061
S'CYP26A1'
p6062
S'increases'
p6063
tp6064
(lp6065
s(S'PITX2'
p6066
S'GATA1'
p6067
S'increases'
p6068
tp6069
(lp6070
s(S'AHR'
p6071
S'ONECUT1'
p6072
S'increases'
p6073
tp6074
(lp6075
s(S'PTF1A'
p6076
S'MECOM'
p6077
S'increases'
p6078
tp6079
(lp6080
s(S'arsenic trioxide'
p6081
S'HRAS MRNA'
p6082
S'increases'
p6083
tp6084
(lp6085
s(S'TCF3'
p6086
S'REPIN1'
p6087
S'increases'
p6088
tp6089
(lp6090
s(S'STAT6'
p6091
S'FOXO3'
p6092
S'increases'
p6093
tp6094
(lp6095
s(S'POU1F1'
p6096
S'POU2F1'
p6097
S'increases'
p6098
tp6099
(lp6100
s(S'RHOA/GTP'
p6101
S'ROCK'
p6102
S'increases_activity'
p6103
tp6104
(lp6105
s(S'PITPNA'
p6106
S'PI-4-5-P2'
p6107
S'translocates'
p6108
tp6109
(lp6110
s(S'MDM-2'
p6111
S'P14/19 ARF'
p6112
S'binds'
p6113
tp6114
(lp6115
s(S'TEAD1'
p6116
S'FOXO3'
p6117
S'increases'
p6118
tp6119
(lp6120
s(S'MYC'
p6121
S'MAX'
p6122
S'increases'
p6123
tp6124
(lp6125
s(S'GRB2:SOS1'
p6126
S'EGF:PHOSPHO-EGFR:PHOSPHO-SHC'
p6127
S'binds'
p6128
tp6129
(lp6130
s(S'NF1'
p6131
S'RUNX1'
p6132
S'increases'
p6133
tp6134
(lp6135
s(S'ZEB1'
p6136
S'GATA6'
p6137
S'increases'
p6138
tp6139
(lp6140
s(S'TBP'
p6141
S'EN1'
p6142
S'increases'
p6143
tp6144
(lp6145
s(S'FOXA1'
p6146
S'FOXD3'
p6147
S'increases'
p6148
tp6149
(lp6150
s(S'CART1'
p6151
S'EN1'
p6152
S'increases'
p6153
tp6154
(lp6155
s(S'MAX'
p6156
S'CEBPA'
p6157
S'increases'
p6158
tp6159
(lp6160
s(S'GATA6'
p6161
S'NRAS'
p6162
S'increases'
p6163
tp6164
(lp6165
s(S'PTF1A'
p6166
S'FOXO3'
p6167
S'increases'
p6168
tp6169
(lp6170
s(S'LEF1'
p6171
S'FOXA1'
p6172
S'increases'
p6173
tp6174
(lp6175
s(S'hsa-let-7g-5p'
p6176
S'KRAS'
p6177
S'decreases'
p6178
tp6179
(lp6180
s(S'ZBTB14'
p6181
S'CYP26A1'
p6182
S'increases'
p6183
tp6184
(lp6185
s(S'POU1F1'
p6186
S'FOXO4'
p6187
S'increases'
p6188
tp6189
(lp6190
s(S'PI3K'
p6191
S'PI-4-5-P2'
p6192
S'translocates'
p6193
tp6194
(lp6195
s(S'GABPB2'
p6196
S'NRAS'
p6197
S'increases'
p6198
tp6199
(lp6200
s(S'ELK1'
p6201
S'LEF1'
p6202
S'increases'
p6203
tp6204
(lp6205
s(S'Estrogens'
p6206
S'HRAS MRNA'
p6207
S'increases'
p6208
tp6209
(lp6210
s(S'CYP26A1'
p6211
S'CEBPA'
p6212
S'increases'
p6213
tp6214
(lp6215
s(S'SPI1'
p6216
S'POU2F1'
p6217
S'increases'
p6218
tp6219
(lp6220
s(S'PPARG'
p6221
S'CYP26A1'
p6222
S'increases'
p6223
tp6224
(lp6225
s(S'Asbestos, Serpentine'
p6226
S'HRAS PROTEIN'
p6227
S'increases'
p6228
tp6229
(lp6230
s(S'RET51/GFRALPHA1/GDNF/DOK1'
p6231
S'RASGAP'
p6232
S'binds'
p6233
tp6234
(lp6235
s(S'FOXO1'
p6236
S'GATA6'
p6237
S'increases'
p6238
tp6239
(lp6240
s(S'Cadmium'
p6241
S'KRAS PROTEIN'
p6242
S'increases'
p6243
tp6244
(lp6245
s(S'MAX'
p6246
S'EN1'
p6247
S'increases'
p6248
tp6249
(lp6250
s(S'TLX2'
p6251
S'NRAS'
p6252
S'increases'
p6253
tp6254
(lp6255
s(S'SREBF1'
p6256
S'CYP26A1'
p6257
S'increases'
p6258
tp6259
(lp6260
s(S'SMAD3'
p6261
S'MEIS1'
p6262
S'increases'
p6263
tp6264
(lp6265
s(S'Acetaminophen'
p6266
S'NRAS MRNA'
p6267
S'decreases'
p6268
tp6269
(lp6270
s(S'LEF1'
p6271
S'ETS1'
p6272
S'increases'
p6273
tp6274
(lp6275
s(S'SRF'
p6276
S'MEIS1'
p6277
S'increases'
p6278
tp6279
(lp6280
s(S'BRAF'
p6281
S'MKK3-MKK6'
p6282
S'increases_activity'
p6283
tp6284
(lp6285
s(S'HRAS/GTP'
p6286
S'RAF1'
p6287
S'adds_modification'
p6288
tp6289
(lp6290
s(S'MSX1'
p6291
S'CYP26A1'
p6292
S'increases'
p6293
tp6294
(lp6295
s(S'GATA4'
p6296
S'ETS1'
p6297
S'increases'
p6298
tp6299
(lp6300
s(S'E4F1'
p6301
S'FOXA1'
p6302
S'increases'
p6303
tp6304
(lp6305
s(S'FOXD1'
p6306
S'LEF1'
p6307
S'increases'
p6308
tp6309
(lp6310
s(S'CUX1'
p6311
S'MAX'
p6312
S'increases'
p6313
tp6314
(lp6315
s(S'CYP26A1'
p6316
S'CBFA2T3'
p6317
S'increases'
p6318
tp6319
(lp6320
s(S'CAM/CA2+'
p6321
S'KRAS ISOFORM 4B/GTP'
p6322
S'binds'
p6323
tp6324
(lp6325
s(S'MYOG'
p6326
S'STAT5A'
p6327
S'increases'
p6328
tp6329
(lp6330
s(S'MYOD1'
p6331
S'STAT5A'
p6332
S'increases'
p6333
tp6334
(lp6335
s(S'HNF1A'
p6336
S'POU3F2'
p6337
S'increases'
p6338
tp6339
(lp6340
s(S'EPH'
p6341
S'EPHR'
p6342
S'binds'
p6343
tp6344
(lp6345
s(S'PDGF:PHOSPHO-PDGF RECEPTOR DIMER'
p6346
S'GRB2:SOS1'
p6347
S'binds'
p6348
tp6349
(lp6350
s(S'HRAS/GTP'
p6351
S'PI3K'
p6352
S'increases_activity'
p6353
tp6354
(lp6355
s(S'RUNX1'
p6356
S'TLX2'
p6357
S'increases'
p6358
tp6359
(lp6360
s(S'MYOG'
p6361
S'CYP26A1'
p6362
S'increases'
p6363
tp6364
(lp6365
s(S'PAX2'
p6366
S'EN1'
p6367
S'increases'
p6368
tp6369
(lp6370
s(S'TFCP2'
p6371
S'CYP26A1'
p6372
S'increases'
p6373
tp6374
(lp6375
s(S'hsa-miR-145-5p'
p6376
S'NRAS'
p6377
S'decreases'
p6378
tp6379
(lp6380
s(S'KAT2B'
p6381
S'GATA1'
p6382
S'increases'
p6383
tp6384
(lp6385
s(S'P-EGFR MUTANTS:P-Y349,350-SHC1'
p6386
S'GRB2:SOS1'
p6387
S'binds'
p6388
tp6389
(lp6390
s(S'E2F1'
p6391
S'MECOM'
p6392
S'increases'
p6393
tp6394
(lp6395
s(S'GNB1/GNG2'
p6396
S'SRC'
p6397
S'adds_modification'
p6398
tp6399
(lp6400
s(S'ZBTB14'
p6401
S'MAX'
p6402
S'increases'
p6403
tp6404
(lp6405
s(S'RALGDS'
p6406
S'P21 RAS:GTP'
p6407
S'binds'
p6408
tp6409
(lp6410
s(S'RHOA/GTP'
p6411
S'ROCK2'
p6412
S'increases_activity'
p6413
tp6414
(lp6415
s(S'NR1H3'
p6416
S'FOXD3'
p6417
S'increases'
p6418
tp6419
(lp6420
s(S'TFAP4'
p6421
S'GATA1'
p6422
S'increases'
p6423
tp6424
(lp6425
s(S'FOXA1'
p6426
S'GATA6'
p6427
S'increases'
p6428
tp6429
(lp6430
s(S'GRB2:SOS1'
p6431
S'P-SHC'
p6432
S'binds'
p6433
tp6434
(lp6435
s(S'E2F1'
p6436
S'FOXO3'
p6437
S'increases'
p6438
tp6439
(lp6440
s.