(dp0
(S'ZEB1'
p1
S'FOXA1'
p2
S'increases'
p3
tp4
(lp5
s(S'FOXJ1'
p6
S'GATA6'
p7
S'increases'
p8
tp9
(lp10
s(S'TFAP4'
p11
S'FOXD3'
p12
S'increases'
p13
tp14
(lp15
s(S'TBP'
p16
S'MEIS1'
p17
S'increases'
p18
tp19
(lp20
s(S'GCM1'
p21
S'GATA6'
p22
S'increases'
p23
tp24
(lp25
s(S'T-DHT'
p26
S'SRC'
p27
S'adds_modification'
p28
tp29
(lp30
s(S'MAZ'
p31
S'GABPB2'
p32
S'increases'
p33
tp34
(lp35
s(S'HMGA1'
p36
S'EN1'
p37
S'increases'
p38
tp39
(lp40
s(S'CYP26A1'
p41
S'NRAS'
p42
S'increases'
p43
tp44
(lp45
s(S'CUX1'
p46
S'MEIS1'
p47
S'increases'
p48
tp49
(lp50
s(S'REPIN1'
p51
S'BACH1'
p52
S'increases'
p53
tp54
(lp55
s(S'TFDP1'
p56
S'HOXA9'
p57
S'increases'
p58
tp59
(lp60
s(S'NFE2L1'
p61
S'CYP26A1'
p62
S'increases'
p63
tp64
(lp65
s(S'MAZ'
p66
S'GATA1'
p67
S'increases'
p68
tp69
(lp70
s(S'TCF12'
p71
S'GABPB2'
p72
S'increases'
p73
tp74
(lp75
s(S'ETS2'
p76
S'FOXO3'
p77
S'increases'
p78
tp79
(lp80
s(S'hsa-let-7c-5p'
p81
S'NRAS'
p82
S'decreases'
p83
tp84
(lp85
s(S'SPI1'
p86
S'CYP26A1'
p87
S'increases'
p88
tp89
(lp90
s(S'RAC1/GTP'
p91
S'MKK4'
p92
S'adds_modification'
p93
tp94
(lp95
s(S'Quercetin'
p96
S'KRAS MRNA'
p97
S'decreases'
p98
tp99
(lp100
s(S'INSULIN RECEPTOR/INSULIN/SHC'
p101
S'GRB2'
p102
S'binds'
p103
tp104
(lp105
s(S'TAp63a (tetramer)'
p106
S'PKC DELTA'
p107
S'increases'
p108
tp109
(lp110
s(S'FOXO1'
p111
S'POU2F1'
p112
S'increases'
p113
tp114
(lp115
s(S'FOXL1'
p116
S'EN1'
p117
S'increases'
p118
tp119
(lp120
s(S'TBP'
p121
S'CYP26A1'
p122
S'increases'
p123
tp124
(lp125
s(S'Heptachlor'
p126
S'HRAS MRNA'
p127
S'decreases'
p128
tp129
(lp130
s(S'PCBP1'
p131
S'CYP26A1'
p132
S'increases'
p133
tp134
(lp135
s(S'ZBTB18'
p136
S'CYP26A1'
p137
S'increases'
p138
tp139
(lp140
s(S'GATA2'
p141
S'CYP26A1'
p142
S'increases'
p143
tp144
(lp145
s(S'Cadmium'
p146
S'KRAS MRNA'
p147
S'increases'
p148
tp149
(lp150
s(S'HNF1A'
p151
S'POU2F1'
p152
S'increases'
p153
tp154
(lp155
s(S'ABT-100'
p156
S'HRAS PROTEIN'
p157
S'inhibits_modification'
p158
tp159
(lp160
s(S'ELF1'
p161
S'CYP26A1'
p162
S'increases'
p163
tp164
(lp165
s(S'LEF1'
p166
S'KRAS'
p167
S'increases'
p168
tp169
(lp170
s(S'NKX2-1'
p171
S'FOXD3'
p172
S'increases'
p173
tp174
(lp175
s(S'PI-3-4-5-P3'
p176
S'BTK-ITK'
p177
S'translocates'
p178
tp179
(lp180
s(S'POU6F1'
p181
S'HOXA9'
p182
S'increases'
p183
tp184
(lp185
s(S'Myb'
p186
S'MYB'
p187
S'increases'
p188
tp189
(lp190
s(S'PAX5'
p191
S'CYP26A1'
p192
S'increases'
p193
tp194
(lp195
s(S'FOXO4'
p196
S'FOXD3'
p197
S'increases'
p198
tp199
(lp200
s(S'CYP26A1'
p201
S'FOXO4'
p202
S'increases'
p203
tp204
(lp205
s(S'cell adhesion'
p206
S'HRAS/GDP'
p207
S'increases_activity'
p208
tp209
(lp210
s(S'IRF7'
p211
S'CYP26A1'
p212
S'increases'
p213
tp214
(lp215
s(S'7,8-Dihydro-7,8-dihydroxybenzo(a)pyrene 9,10-oxide'
p216
S'KRAS PROTEIN'
p217
S'increases'
p218
tp219
(lp220
s(S'PITX2'
p221
S'POU2F1'
p222
S'increases'
p223
tp224
(lp225
s(S'E2F1'
p226
S'CYP26A1'
p227
S'increases'
p228
tp229
(lp230
s(S'ATF1'
p231
S'CYP26A1'
p232
S'increases'
p233
tp234
(lp235
s(S'PI3K'
p236
S'PKC DELTA'
p237
S'adds_modification'
p238
tp239
(lp240
s(S'SOX5'
p241
S'HOXA9'
p242
S'increases'
p243
tp244
(lp245
s(S'FOXO4'
p246
S'POU2F1'
p247
S'increases'
p248
tp249
(lp250
s(S'FOXO4'
p251
S'GATA6'
p252
S'increases'
p253
tp254
(lp255
s(S'LEF1'
p256
S'FOXF2'
p257
S'increases'
p258
tp259
(lp260
s(S'Insulin Receptor/Insuli/IRS1/GRB2/SHC/Sos'
p261
S'HRAS/GDP'
p262
S'increases_activity'
p263
tp264
(lp265
s(S'TLX2'
p266
S'RUNX1'
p267
S'increases'
p268
tp269
(lp270
s(S'ALX4'
p271
S'JUN'
p272
S'increases'
p273
tp274
(lp275
s(S'RHOA/GTP'
p276
S'RHOGDI'
p277
S'binds'
p278
tp279
(lp280
s(S'GCM1'
p281
S'CYP26A1'
p282
S'increases'
p283
tp284
(lp285
s(S'RB1'
p286
S'ONECUT1'
p287
S'increases'
p288
tp289
(lp290
s(S'NHLH1'
p291
S'CYP26A1'
p292
S'increases'
p293
tp294
(lp295
s(S'NR3C1'
p296
S'BACH1'
p297
S'increases'
p298
tp299
(lp300
s(S'HNF4A'
p301
S'CYP26A1'
p302
S'increases'
p303
tp304
(lp305
s(S'YY1'
p306
S'FOXO3'
p307
S'increases'
p308
tp309
(lp310
s(S'GRB2:SOS1'
p311
S'P-EGFR MUTANTS DIMER'
p312
S'binds'
p313
tp314
(lp315
s(S'P-Y349,350-SHC1:P-ERBB4'
p316
S'GRB2:SOS1'
p317
S'binds'
p318
tp319
(lp320
s(S'FOXN1'
p321
S'ONECUT1'
p322
S'increases'
p323
tp324
(lp325
s(S'TFAP4'
p326
S'MYC'
p327
S'increases'
p328
tp329
(lp330
s(S'MYC'
p331
S'EN1'
p332
S'increases'
p333
tp334
(lp335
s(S'Antigen/IgE/Fc epsilon R1/LYN/SYK'
p336
S'SHC/GRB2/SOS1'
p337
S'increases_activity'
p338
tp339
(lp340
s(S'14-3-3 BETA, ZETA'
p341
S'GARNL4'
p342
S'binds'
p343
tp344
(lp345
s(S'SMAD1'
p346
S'EN1'
p347
S'increases'
p348
tp349
(lp350
s(S'Raf-1'
p351
S'MEK1-2'
p352
S'adds_modification'
p353
tp354
(lp355
s(S'POU2F1'
p356
S'FOXO3'
p357
S'increases'
p358
tp359
(lp360
s(S'NGF (dimer)/TRKA'
p361
S'RASGRF1'
p362
S'adds_modification'
p363
tp364
(lp365
s(S'TCF4'
p366
S'CYP26A1'
p367
S'increases'
p368
tp369
(lp370
s(S'STAT5B'
p371
S'TLX2'
p372
S'increases'
p373
tp374
(lp375
s(S'CYP26A1'
p376
S'SRF'
p377
S'increases'
p378
tp379
(lp380
s(S'STAT1'
p381
S'NRAS'
p382
S'increases'
p383
tp384
(lp385
s(S'TFDP1'
p386
S'GATA1'
p387
S'increases'
p388
tp389
(lp390
s(S'PI3K'
p391
S'ALPHA6/BETA4 INTEGRIN/LAMININ'
p392
S'binds'
p393
tp394
(lp395
s(S'FOXF2'
p396
S'NRAS'
p397
S'increases'
p398
tp399
(lp400
s(S'CUX1'
p401
S'POU2F1'
p402
S'increases'
p403
tp404
(lp405
s(S'ETS2'
p406
S'STAT4'
p407
S'increases'
p408
tp409
(lp410
s(S'EN1'
p411
S'CYP26A1'
p412
S'increases'
p413
tp414
(lp415
s(S'COMPLEX (RAS/GTP)'
p416
S'RAF'
p417
S'binds'
p418
tp419
(lp420
s(S'LEF1'
p421
S'EN1'
p422
S'increases'
p423
tp424
(lp425
s(S'FOXL1'
p426
S'NRAS'
p427
S'increases'
p428
tp429
(lp430
s(S'ELF2'
p431
S'CYP26A1'
p432
S'increases'
p433
tp434
(lp435
s(S'Src Family Kinases-active'
p436
S'EGF/EGFR'
p437
S'adds_modification'
p438
tp439
(lp440
s(S'RUNX1'
p441
S'POU2F1'
p442
S'increases'
p443
tp444
(lp445
s(S'RHOA/GTP'
p446
S'CITRON-N'
p447
S'increases_activity'
p448
tp449
(lp450
s(S'PAX4'
p451
S'SRF'
p452
S'increases'
p453
tp454
(lp455
s(S'Vitamin E'
p456
S'HRAS MRNA'
p457
S'increases'
p458
tp459
(lp460
s(S'CDX2'
p461
S'FOXD3'
p462
S'increases'
p463
tp464
(lp465
s(S'Plant Extracts'
p466
S'KEAP1 PROTEIN'
p467
S'decreases'
p468
tp469
(lp470
s(S'PAX4'
p471
S'CBFA2T3'
p472
S'increases'
p473
tp474
(lp475
s(S'FOXD1'
p476
S'CYP26A1'
p477
S'increases'
p478
tp479
(lp480
s(S'Antigen/IgE/Fc epsilon R1/LYN/SYK'
p481
S'VAV1'
p482
S'adds_modification'
p483
tp484
(lp485
s(S'PCBP1'
p486
S'MEIS1'
p487
S'increases'
p488
tp489
(lp490
s(S'FOXI1'
p491
S'FOXD3'
p492
S'increases'
p493
tp494
(lp495
s(S'GATA4'
p496
S'MEIS1'
p497
S'increases'
p498
tp499
(lp500
s(S'STAT5B'
p501
S'CEBPG'
p502
S'increases'
p503
tp504
(lp505
s(S'TFDP2'
p506
S'MAZ'
p507
S'increases'
p508
tp509
(lp510
s(S'PI3K'
p511
S'SHP2'
p512
S'binds'
p513
tp514
(lp515
s(S'SPI1'
p516
S'ONECUT1'
p517
S'increases'
p518
tp519
(lp520
s(S'STAT6'
p521
S'EN1'
p522
S'increases'
p523
tp524
(lp525
s(S'TLX2'
p526
S'CYP26A1'
p527
S'increases'
p528
tp529
(lp530
s(S'RAF1'
p531
S'MEK1-2'
p532
S'increases_activity'
p533
tp534
(lp535
s(S'STAT5A'
p536
S'IRF1'
p537
S'increases'
p538
tp539
(lp540
s(S'2-amino-1-methyl-6-phenylimidazo(4,5-b)pyridine'
p541
S'HRAS MRNA'
p542
S'increases'
p543
tp544
(lp545
s(S'MAZ'
p546
S'POU2F1'
p547
S'increases'
p548
tp549
(lp550
s(S'MAZ'
p551
S'SRF'
p552
S'increases'
p553
tp554
(lp555
s(S'GATA1'
p556
S'JUN'
p557
S'increases'
p558
tp559
(lp560
s(S'FOXA1'
p561
S'NRAS'
p562
S'increases'
p563
tp564
(lp565
s(S'STAT1'
p566
S'EN1'
p567
S'increases'
p568
tp569
(lp570
S'Taken together, the data indicate that MEN1 contributes to STAT1-activated gene expression in a novel manner that includes defining the transcription start site and RNA processing.'
p571
aS'In this report, we demonstrate that during STAT1-triggered gene activation, depletion of the Set1-like MLL1/MLL2 complex component MEN1 is associated with disruption of the TSS at the '
p572
aS'The results of this study suggest a different and more complicated function for MEN1 in STAT1-activated transcription than has been reported thus far for MEN1 during the inducible expression of other genes.'
p573
as(S'GTF2A2'
p574
S'MAX'
p575
S'increases'
p576
tp577
(lp578
s(S'LMO2'
p579
S'EN1'
p580
S'increases'
p581
tp582
(lp583
s(S'MYOD1'
p584
S'LEF1'
p585
S'increases'
p586
tp587
(lp588
s(S'ATF3'
p589
S'JUN'
p590
S'increases'
p591
tp592
(lp593
s(S'GRB2:SOS1'
p594
S'ACTIVATED FGFR:P-SHC1'
p595
S'binds'
p596
tp597
(lp598
s(S'MAFG'
p599
S'BACH1'
p600
S'increases'
p601
tp602
(lp603
s(S'POU3F2'
p604
S'POU2F1'
p605
S'increases'
p606
tp607
(lp608
s(S'K 7174'
p609
S'KRAS MRNA'
p610
S'increases'
p611
tp612
(lp613
s(S'POU1F1'
p614
S'RUNX1'
p615
S'increases'
p616
tp617
(lp618
s(S'HRAS protein'
p619
S'CCND1 MRNA'
p620
S'increases'
p621
tp622
(lp623
s(S'YY1'
p624
S'EN1'
p625
S'increases'
p626
tp627
(lp628
s(S'resveratrol'
p629
S'HRAS MRNA'
p630
S'increases'
p631
tp632
(lp633
s(S'NKX2-1'
p634
S'HOXA9'
p635
S'increases'
p636
tp637
(lp638
s(S'HSF1'
p639
S'CYP26A1'
p640
S'increases'
p641
tp642
(lp643
s(S'MYC'
p644
S'HOXA9'
p645
S'increases'
p646
tp647
(lp648
s(S'Raf'
p649
S'MEK'
p650
S'adds_modification'
p651
tp652
(lp653
S'The Ras/Raf/mitogen-activated protein kinase kinase (MEK)/extracellular signal-regulated (ERK) cascade transmits signals from the cell surface receptors to the nucleus and regulates cell cycle progression, cell proliferation, survival, differentiation and transformation.'
p654
aS'The Ras/Raf/MEK/ERK pathway has a well-defined role in cancer biology and has become an important target in the development of cancer therapeutics ['
p655
aS'MEK has a critical position in the Ras/Raf/MEK/ERK pathway with few direct upstream activators (e.g.'
p656
aS'The main goal of our study was to explore whether the effects of MEK/Raf inhibitors in humans revealed with ['
p657
aS'This study shows that in RO5126766-sensitive cells MEK and Raf inhibition results in a rapid decrease in ['
p658
aS'Since Ras activates the Raf-MEK1-ERK1/2 pathway, we also tested for activation of ERK1/2 by examining its phosphorylation status.'
p659
aS'In addition, insulin activated the downstream signaling pathways (PI3K/AKT and Ras-Raf-MEK/ERK) in C4-2 cells.'
p660
aS'(6) Inhibitors of Ras-Raf-MEK-MAPK pathway (MEK inhibitor AZD6244, combined with fulvestrant after progression on aromatase inhibitor in NCT01160718).'
p661
aS'In addition to activating PI3K and Akt, EGFR activation triggers Src-mediated phosphorylation of paxillin on tyrosine residues, which promotes Raf/MEK/Erk activation.'
p662
aS'MAPKs (Erk) are phosphorylated and activated by MAPK-kinases (MAPKKs), (MEK1/2), which in turn are phosphorylated and activated by MAPKK-kinases (MAPKKKs), (Raf).'
p663
aS'Therefore, we studied the phosphorylation of Erk1/2, a MAP kinase with an important role in the classical Raf-MEK-Erk pathway.'
p664
aS'The C-Raf protein kinase is a pivotal component of the Ras-RAF-MAPK pathway that couples extracellular signaling to the cytoplasmic kinases MEK and ERK, which in turn activate various transcription factors ['
p665
aS'The EGFR/Ras/Raf/MEK/ERK signaling has been a hot area of research in identification of novel targets to assist in understanding of oncogenesis and discovery of new cancer treatment options ['
p666
aS'HRT inhibits the Raf/MEK/ERK1/2 phosphorylation in early stage of 3T3-L1 adipocytes differentiation.'
p667
aS'The result shows that the phosphorylation of the Ras, Raf-1, MEK-1, and ERK-1/2 proteins and the expression of the corresponding mRNAs in the colon tissue of CD rat were significantly higher than the normal control group.'
p668
aS'Both treatments with mild moxibustion and with herb-separated moxibustion significantly reduced the expression of the Ras, Raf-1, MEK-1, and ERK-1/2 proteins and Ras and Raf-1 mRNA.'
p669
aS'It indicates that Ras, Raf-1, MEK-1, and ERK-1/2 are involved in the process of intestinal fibrosis in CD rats.'
p670
aS'Moxibustion can downregulate the abnormal expression of colonic Ras, Raf-1, MEK-1, and ERK-1/2 protein and mRNA levels in CD intestinal fibrosis in rats.'
p671
aS'As an upstream protein in the Raf-MEK-ERK pathway, Ras is the product of the proto-oncogene '
p672
aS'The activated upstream Raf-1 protein kinase can combine with MEK1 and 2 and doubly phosphorylate Tyr and Thr, its two regulatory sites, to activate ERK ['
p673
aS'The mechanisms of inhibition of this pathway include the following: (1) the activation of ERK1/2-MAPK is the result of the phosphorylation cascade and can be inactivated by dephosphorylation by the corresponding phosphatases; (2) Raf-1 is the direct substrate of PKA, which can phosphorylate Ser43 of c-Raf, an inhibitory phosphorylation site in the N-terminus of Raf that interacts with Ras, and the phosphorylation of this site can inhibit the binding between RasGTP and the N-terminus of Raf, which blocks the activation of ERK; (3) the phosphatase PP2 can inactivate MEK and ERK via dephosphorylation; (4) activated ERK phosphorylates Sos and Raf while ERK dephosphorylation inactivates them, thereby generates negative feedback regulation of the pathway.'
p674
aS'Our experiments studied the regulation of Ras, Raf, MEK, and ERK protein and gene expression by acupuncture in CD intestinal fibrosis in the rat colon.'
p675
aS'Our results show that the mRNA levels of Ras, Raf-1, MEK-1, and ERK-1/2 were significantly increased in CD rat intestinal tissue and that the expression of p-Ras, Raf-1, MEK-1, and p-ERK-1/2 proteins in intestinal epithelial cells were also significantly increased.'
p676
aS'Medicine-separated moxibustion mild moxibustion, and electroacupuncture treatments could effectively downregulate the expression of p-Ras, Raf-1, MEK-1, and p-ERK-1/2, but different inhibitory effects on Ras, Raf-1, MEK-1, and ERK-1/2 mRNA levels were shown in ERK pathway activity changes.'
p677
aS"In this discussion, we propose the following: (1) medicine-separated moxibustion, mild moxibustion, and electroacupuncture can inhibit CD intestinal fibrosis by regulating ERK pathway activity; and (2) the acupuncture-induced inhibition of p-Ras, Raf-1, MEK-1, and p-ERK-1/2 expression may be the key elements in the treatment's inhibition of CD intestinal fibrosis."
p678
aS'In addition, after binding to the high-affinity ErbB2/ErbB3 coreceptor complex, Nrg could potentially activate several distinct signaling pathways, mainly including p21Ras/Raf-1/MEK/Erk cascade ['
p679
aS'HR: hybrid receptors; ERK: extracellular regulated kinase; IRS: INSR substrate; MEK: mitogen-activated protein kinase kinase; mTOR: mammalian target of rapamycin; PI3K: Phosphoinositide-3 kinase; PIP2: phosphatidylinositol [4,5]-bisphosphate; PIP3: phosphatidylinositol [3,4, 5]-trisphosphate; PDK1: phosphoinositide-dependent kinase 1; Raf: rapidly fibrosarcoma; Ras: rat sarcoma; Rheb: Ras homolog enriched in brain; TSC: tuberous sclerosis complex.'
p680
aS'PAK1 is important for Raf/MEK activation, leading to ERK activation.'
p681
aS'Raf kinase inhibitory protein (RKIP) encodes a protein that inhibits Raf-1 (a serine/threonine kinase)-mediated phosphorylation, and thereby the activation of MEK-1 [a mitogen-activated protein (MAP) kinase kinase that specifically phosphorylates the regulatory threonine and tyrosine residues present in MAP kinases] by Raf-1 ('
p682
as(S'TFDP1'
p683
S'MAZ'
p684
S'increases'
p685
tp686
(lp687
s(S'SPRED1'
p688
S'HRAS'
p689
S'binds'
p690
tp691
(lp692
s(S'MYCN'
p693
S'CYP26A1'
p694
S'increases'
p695
tp696
(lp697
s(S'AHR'
p698
S'FOXD3'
p699
S'increases'
p700
tp701
(lp702
s(S'SF1'
p703
S'CYP26A1'
p704
S'increases'
p705
tp706
(lp707
s(S'MEIS1'
p708
S'ETS1'
p709
S'increases'
p710
tp711
(lp712
s(S'Copper Sulfate'
p713
S'HRAS MRNA'
p714
S'decreases'
p715
tp716
(lp717
s(S'MAZ'
p718
S'MYC'
p719
S'increases'
p720
tp721
(lp722
s(S'E4F1'
p723
S'HOXA9'
p724
S'increases'
p725
tp726
(lp727
s(S'GATA1'
p728
S'GATA6'
p729
S'increases'
p730
tp731
(lp732
s(S'RUNX2'
p733
S'POU2F1'
p734
S'increases'
p735
tp736
(lp737
s(S'CYP26A1'
p738
S'GATA6'
p739
S'increases'
p740
tp741
(lp742
s(S'PAX4'
p743
S'GATA1'
p744
S'increases'
p745
tp746
(lp747
s(S'ELF2'
p748
S'STAT5A'
p749
S'increases'
p750
tp751
(lp752
s(S'CART1'
p753
S'NRAS'
p754
S'increases'
p755
tp756
(lp757
s(S'IGF-1R heterotetramer/IGF1/GRB2/Sos/Shc'
p758
S'HRAS/GDP'
p759
S'increases_activity'
p760
tp761
(lp762
s(S'RB1'
p763
S'CYP26A1'
p764
S'increases'
p765
tp766
(lp767
s(S'CEBPG'
p768
S'HOXA9'
p769
S'increases'
p770
tp771
(lp772
s(S'GRB2/SOS1/SHC'
p773
S'IGF-1R HETEROTETRAMER/IGF1'
p774
S'binds'
p775
tp776
(lp777
s(S'PRRX2'
p778
S'CYP26A1'
p779
S'increases'
p780
tp781
(lp782
s(S'TEAD1'
p783
S'CYP26A1'
p784
S'increases'
p785
tp786
(lp787
s(S'STAT5A'
p788
S'FOXA1'
p789
S'increases'
p790
tp791
(lp792
s(S'ATF2'
p793
S'FOXD3'
p794
S'increases'
p795
tp796
(lp797
s(S'REPIN1'
p798
S'FOXO4'
p799
S'increases'
p800
tp801
(lp802
s(S'FOXF2'
p803
S'ETS1'
p804
S'increases'
p805
tp806
(lp807
s(S'ETV7'
p808
S'MEIS1'
p809
S'increases'
p810
tp811
(lp812
s(S'RUNX2'
p813
S'RUNX1'
p814
S'increases'
p815
tp816
(lp817
s(S'OR5I1'
p818
S'GATA1'
p819
S'increases'
p820
tp821
(lp822
s(S'MSX1'
p823
S'EN1'
p824
S'increases'
p825
tp826
(lp827
s(S'GTF3A'
p828
S'IRF1'
p829
S'increases'
p830
tp831
(lp832
s(S'POU2F1'
p833
S'SRF'
p834
S'increases'
p835
tp836
(lp837
s(S'PLC-GAMMA'
p838
S'COMPLEX (GADS/SLP-76)'
p839
S'binds'
p840
tp841
(lp842
s(S'STAT4'
p843
S'STAT5A'
p844
S'increases'
p845
tp846
(lp847
s(S'JUN'
p848
S'BACH1'
p849
S'increases'
p850
tp851
(lp852
s(S'POU1F1'
p853
S'HOXA9'
p854
S'increases'
p855
tp856
(lp857
s(S'docetaxel'
p858
S'HRAS PROTEIN'
p859
S'increases'
p860
tp861
(lp862
s(S'MAX'
p863
S'LEF1'
p864
S'increases'
p865
tp866
(lp867
s(S'FOXA1'
p868
S'CYP26A1'
p869
S'increases'
p870
tp871
(lp872
s(S'GATA4'
p873
S'FOXD3'
p874
S'increases'
p875
tp876
(lp877
s(S'ZBTB18'
p878
S'RUNX1'
p879
S'increases'
p880
tp881
(lp882
s(S'ATF3'
p883
S'RUNX1'
p884
S'increases'
p885
tp886
(lp887
s(S'NKX2-1'
p888
S'CYP26A1'
p889
S'increases'
p890
tp891
(lp892
s(S'NR3C1'
p893
S'FOXA1'
p894
S'increases'
p895
tp896
(lp897
s(S'RAS family/GTP'
p898
S'RIN1'
p899
S'increases_activity'
p900
tp901
(lp902
s(S'COMPLEX (RAS/GTP/ RAF)'
p903
S'MEK'
p904
S'binds'
p905
tp906
(lp907
s(S'CDC5L'
p908
S'NRAS'
p909
S'increases'
p910
tp911
(lp912
s(S'Vitamin E'
p913
S'NRAS MRNA'
p914
S'decreases'
p915
tp916
(lp917
s(S'NF1'
p918
S'LEF1'
p919
S'increases'
p920
tp921
(lp922
s(S'ETS1'
p923
S'EN1'
p924
S'increases'
p925
tp926
(lp927
s(S'CRAF'
p928
S'YWHAB'
p929
S'binds'
p930
tp931
(lp932
s(S'CEBPD'
p933
S'JUN'
p934
S'increases'
p935
tp936
(lp937
s(S'MAX'
p938
S'RUNX2'
p939
S'increases'
p940
tp941
(lp942
s(S'CEBPA'
p943
S'MECOM'
p944
S'increases'
p945
tp946
(lp947
s(S'PAX2'
p948
S'GATA1'
p949
S'increases'
p950
tp951
(lp952
s(S'CYP26A1'
p953
S'TLX2'
p954
S'increases'
p955
tp956
(lp957
s(S'GFI1'
p958
S'ETS1'
p959
S'increases'
p960
tp961
(lp962
s(S'14-3-3:P-S259,Y340,Y341,S621-RAF1:RAS:GTP'
p963
S'MEK'
p964
S'binds'
p965
tp966
(lp967
s(S'P-S,T-MEK2'
p968
S'ERK2'
p969
S'binds'
p970
tp971
(lp972
s(S'HRAS/GTP'
p973
S'RIN2'
p974
S'increases_activity'
p975
tp976
(lp977
s(S'Ras-GTP'
p978
S'P42/P44MAPKS'
p979
S'adds_modification'
p980
tp981
(lp982
s(S'SRF'
p983
S'CYP26A1'
p984
S'increases'
p985
tp986
(lp987
s(S'FOXL1'
p988
S'RUNX2'
p989
S'increases'
p990
tp991
(lp992
s(S'EGR4'
p993
S'LEF1'
p994
S'increases'
p995
tp996
(lp997
s(S'P-IRS1,2'
p998
S'GRB2:SOS1'
p999
S'binds'
p1000
tp1001
(lp1002
s(S'VEGFR2 (dimer)/VEGFA (dimer)/alphav/beta3 Integrin/Vitronectin'
p1003
S'SRC'
p1004
S'adds_modification'
p1005
tp1006
(lp1007
s(S'BACH2'
p1008
S'BACH1'
p1009
S'increases'
p1010
tp1011
(lp1012
s(S'ONECUT1'
p1013
S'RUNX1'
p1014
S'increases'
p1015
tp1016
(lp1017
s(S'FOXJ2'
p1018
S'RUNX2'
p1019
S'increases'
p1020
tp1021
(lp1022
s(S'PI-3-4-5-P3'
p1023
S'AKT1'
p1024
S'translocates'
p1025
tp1026
(lp1027
s(S'TFAP4'
p1028
S'BACH1'
p1029
S'increases'
p1030
tp1031
(lp1032
s(S'MEKK1/4'
p1033
S'MKK3/6'
p1034
S'adds_modification'
p1035
tp1036
(lp1037
s(S'VSX1'
p1038
S'MECOM'
p1039
S'increases'
p1040
tp1041
(lp1042
s(S'IRF1'
p1043
S'GATA6'
p1044
S'increases'
p1045
tp1046
(lp1047
s(S'MAX'
p1048
S'HOXA9'
p1049
S'increases'
p1050
tp1051
(lp1052
s(S'RB1'
p1053
S'MAZ'
p1054
S'increases'
p1055
tp1056
(lp1057
s(S'GATA1'
p1058
S'EN1'
p1059
S'increases'
p1060
tp1061
(lp1062
s(S'HIF1A'
p1063
S'SRF'
p1064
S'increases'
p1065
tp1066
(lp1067
s(S'IRF8'
p1068
S'CYP26A1'
p1069
S'increases'
p1070
tp1071
(lp1072
s(S'MTF1'
p1073
S'CYP26A1'
p1074
S'increases'
p1075
tp1076
(lp1077
s(S'PI-3-4-5-P3'
p1078
S'GAB1'
p1079
S'translocates'
p1080
tp1081
(lp1082
s(S'PI-3-4-5-P3'
p1083
S'AKT1'
p1084
S'adds_modification'
p1085
tp1086
(lp1087
s(S'RXRA'
p1088
S'HOXA9'
p1089
S'increases'
p1090
tp1091
(lp1092
s(S'AKT1'
p1093
S'RAF1'
p1094
S'binds'
p1095
tp1096
(lp1097
s(S'HSF2'
p1098
S'JUN'
p1099
S'increases'
p1100
tp1101
(lp1102
s(S'PAX2'
p1103
S'CYP26A1'
p1104
S'increases'
p1105
tp1106
(lp1107
s(S'ETV7'
p1108
S'CYP26A1'
p1109
S'increases'
p1110
tp1111
(lp1112
s(S'FOXO3'
p1113
S'NRAS'
p1114
S'increases'
p1115
tp1116
(lp1117
s(S'TP53'
p1118
S'REPIN1'
p1119
S'increases'
p1120
tp1121
(lp1122
s(S'STAT6'
p1123
S'CYP26A1'
p1124
S'increases'
p1125
tp1126
(lp1127
s(S'JUN'
p1128
S'NRAS'
p1129
S'increases'
p1130
tp1131
(lp1132
s(S'MYCN'
p1133
S'NRAS'
p1134
S'increases'
p1135
tp1136
(lp1137
s(S'STAT3'
p1138
S'YY1'
p1139
S'increases'
p1140
tp1141
(lp1142
s(S'Methyl Methanesulfonate'
p1143
S'HRAS MRNA'
p1144
S'increases'
p1145
tp1146
(lp1147
s(S'RHOA/GTP'
p1148
S'PKN'
p1149
S'increases_activity'
p1150
tp1151
(lp1152
s(S'NHLH1'
p1153
S'FOXJ2'
p1154
S'increases'
p1155
tp1156
(lp1157
s(S'RAS family/GTP'
p1158
S'BRAF'
p1159
S'adds_modification'
p1160
tp1161
(lp1162
s(S'RELA'
p1163
S'FOXJ2'
p1164
S'increases'
p1165
tp1166
(lp1167
s(S'TCF3'
p1168
S'RUNX1'
p1169
S'increases'
p1170
tp1171
(lp1172
s(S'FOXF2'
p1173
S'FOXO4'
p1174
S'increases'
p1175
tp1176
(lp1177
s(S'ATF4'
p1178
S'FOXD3'
p1179
S'increases'
p1180
tp1181
(lp1182
s(S'HAND1'
p1183
S'MECOM'
p1184
S'increases'
p1185
tp1186
(lp1187
s(S'RHOA/GTP'
p1188
S'P27KIP1'
p1189
S'adds_modification'
p1190
tp1191
(lp1192
s(S'SRF'
p1193
S'NRAS'
p1194
S'increases'
p1195
tp1196
(lp1197
s(S'ESRRA'
p1198
S'POU3F2'
p1199
S'increases'
p1200
tp1201
(lp1202
s(S'BRAF'
p1203
S'MEK1'
p1204
S'adds_modification'
p1205
tp1206
(lp1207
S'One strategy to decrease secondary resistance as well as neo-tumourigenesis associated with anti-BRAF monotherapy is to combine it with an inhibitor of MEK1 and MEK2 downstream from BRAF.'
p1208
aS'Three Food and Drug Administration (FDA)-approved agents have demonstrated significant clinical benefits and been approved for use in patients with metastatic melanoma harbouring BRAF mutations: the BRAF inhibitors dabrafenib and vemurafenib and the potent, highly specific inhibitor of MEK1/ MEK2 trametinib.'
p1209
as(S'Cadmium Chloride'
p1210
S'KRAS PROTEIN'
p1211
S'increases'
p1212
tp1213
(lp1214
s(S'PRRX2'
p1215
S'MEIS1'
p1216
S'increases'
p1217
tp1218
(lp1219
s(S'MYC'
p1220
S'NRAS'
p1221
S'increases'
p1222
tp1223
(lp1224
s(S'MAZ'
p1225
S'KRAS'
p1226
S'increases'
p1227
tp1228
(lp1229
s(S'Rho Family GTPase-active'
p1230
S'PI3K'
p1231
S'increases_activity'
p1232
tp1233
(lp1234
s(S'STAT2'
p1235
S'CYP26A1'
p1236
S'increases'
p1237
tp1238
(lp1239
s(S'hsa-let-7a-5p'
p1240
S'KRAS'
p1241
S'decreases'
p1242
tp1243
(lp1244
s(S'POU3F2'
p1245
S'NRAS'
p1246
S'increases'
p1247
tp1248
(lp1249
s(S'SRF'
p1250
S'FOXO4'
p1251
S'increases'
p1252
tp1253
(lp1254
s(S'S1P1/Sphingosine-1-phosphate/PDGF-BB/PDGFRB (dimer)'
p1255
S'SRC FAMILY KINASES'
p1256
S'increases_activity'
p1257
tp1258
(lp1259
s(S'MYC/Max'
p1260
S'ERBB2'
p1261
S'decreases'
p1262
tp1263
(lp1264
s(S'SREBF1'
p1265
S'CBFA2T3'
p1266
S'increases'
p1267
tp1268
(lp1269
s(S'PI3K'
p1270
S'GELSOLIN/PI-3-4-5-P3'
p1271
S'binds'
p1272
tp1273
(lp1274
s(S'NHLH1'
p1275
S'EN1'
p1276
S'increases'
p1277
tp1278
(lp1279
s(S'LMO2'
p1280
S'GATA6'
p1281
S'increases'
p1282
tp1283
(lp1284
s(S'POU1F1'
p1285
S'FOXD3'
p1286
S'increases'
p1287
tp1288
(lp1289
s(S'hsa-miR-148b-3p'
p1290
S'NRAS'
p1291
S'decreases'
p1292
tp1293
(lp1294
s(S'Quercetin'
p1295
S'KRAS PROTEIN'
p1296
S'decreases'
p1297
tp1298
(lp1299
s(S'PAK2'
p1300
S'MEKK1'
p1301
S'adds_modification'
p1302
tp1303
(lp1304
s(S'LMO2'
p1305
S'MAZ'
p1306
S'increases'
p1307
tp1308
(lp1309
s(S'FOXO1'
p1310
S'POU3F2'
p1311
S'increases'
p1312
tp1313
(lp1314
s(S'NKX2-1'
p1315
S'MAZ'
p1316
S'increases'
p1317
tp1318
(lp1319
s(S'GRB2/SOS1'
p1320
S'PDGF-BB/PDGFRB (DIMER)/P52 SHC'
p1321
S'binds'
p1322
tp1323
(lp1324
s(S'PI3K'
p1325
S'CRK/P130 CAS/PAXILLIN'
p1326
S'increases_activity'
p1327
tp1328
(lp1329
s(S'ATF1'
p1330
S'FOXD3'
p1331
S'increases'
p1332
tp1333
(lp1334
s(S'GATA1'
p1335
S'SRF'
p1336
S'increases'
p1337
tp1338
(lp1339
s(S'TFAP2C'
p1340
S'CYP26A1'
p1341
S'increases'
p1342
tp1343
(lp1344
s(S'AHR'
p1345
S'MEIS1'
p1346
S'increases'
p1347
tp1348
(lp1349
s(S'ETS2'
p1350
S'CYP26A1'
p1351
S'increases'
p1352
tp1353
(lp1354
s(S'Estradiol'
p1355
S'NRAS MRNA'
p1356
S'increases'
p1357
tp1358
(lp1359
s(S'E2F1'
p1360
S'HOXA9'
p1361
S'increases'
p1362
tp1363
(lp1364
s(S'PDGF-BB/PDGFRB (DIMER)'
p1365
S'RASGAP'
p1366
S'binds'
p1367
tp1368
(lp1369
s(S'E2F1'
p1370
S'GABPB2'
p1371
S'increases'
p1372
tp1373
(lp1374
s(S'FOXJ1'
p1375
S'POU3F2'
p1376
S'increases'
p1377
tp1378
(lp1379
s(S'VSX1'
p1380
S'CYP26A1'
p1381
S'increases'
p1382
tp1383
(lp1384
s(S'SPI1'
p1385
S'CDC5L'
p1386
S'increases'
p1387
tp1388
(lp1389
s(S'Gi family'
p1390
S'HRAS/GDP'
p1391
S'increases_activity'
p1392
tp1393
(lp1394
s(S'TCF3'
p1395
S'CYP26A1'
p1396
S'increases'
p1397
tp1398
(lp1399
s(S'IGF-1R HETEROTETRAMER/IGF1/IRS1'
p1400
S'GRB2/SOS1'
p1401
S'binds'
p1402
tp1403
(lp1404
s(S'RAS family/GTP'
p1405
S'RALGDS'
p1406
S'translocates'
p1407
tp1408
(lp1409
s(S'PI3K'
p1410
S'RAC1/GDP'
p1411
S'increases_activity'
p1412
tp1413
(lp1414
s(S'Ca2+'
p1415
S'PKC'
p1416
S'increases_activity'
p1417
tp1418
(lp1419
S'Some PCBs perturb Ca2+ homeostasis and cause protein kinase C (PKC) translocation in neuronal cell cultures and in brain homogenate preparations at concentrations where no cytotoxicity is observed, and these systems are necessary for the growth and normal functioning of neurons.'
p1420
aS'The DAG brings about the association of protein kinase C (PKC) with the plasma membrane where a receptor-mediated increase in Ca2+ cycling across the membrane regulates PKC activity.'
p1421
as(S'ZIC1'
p1422
S'CYP26A1'
p1423
S'increases'
p1424
tp1425
(lp1426
s(S'IRF7'
p1427
S'TLX2'
p1428
S'increases'
p1429
tp1430
(lp1431
s(S'SHC/SHIP'
p1432
S'HRAS/GDP'
p1433
S'decreases_activity'
p1434
tp1435
(lp1436
s(S'hsa-let-7a-5p'
p1437
S'HRAS'
p1438
S'decreases'
p1439
tp1440
(lp1441
s(S'GATA4'
p1442
S'MAZ'
p1443
S'increases'
p1444
tp1445
(lp1446
s(S'EN1'
p1447
S'NRAS'
p1448
S'increases'
p1449
tp1450
(lp1451
s(S'PI3K'
p1452
S'BAM32'
p1453
S'adds_modification'
p1454
tp1455
(lp1456
s(S'GABPB1'
p1457
S'CYP26A1'
p1458
S'increases'
p1459
tp1460
(lp1461
s(S'Trifluoroethanol'
p1462
S'HRAS'
p1463
S'increases_activity'
p1464
tp1465
(lp1466
s(S'SOX5'
p1467
S'CYP26A1'
p1468
S'increases'
p1469
tp1470
(lp1471
s(S'GRB2/SOS1'
p1472
S'HGF(DIMER)/MET(DIMER)/P52 SHC'
p1473
S'binds'
p1474
tp1475
(lp1476
s(S'TCF12'
p1477
S'EN1'
p1478
S'increases'
p1479
tp1480
(lp1481
s(S'SOX9'
p1482
S'MEIS1'
p1483
S'increases'
p1484
tp1485
(lp1486
s(S'RB1'
p1487
S'MYC'
p1488
S'increases'
p1489
tp1490
(lp1491
s(S'RXRA'
p1492
S'FOXA1'
p1493
S'increases'
p1494
tp1495
(lp1496
s(S'decitabine'
p1497
S'HRAS MRNA'
p1498
S'decreases'
p1499
tp1500
(lp1501
s(S'VSX1'
p1502
S'EN1'
p1503
S'increases'
p1504
tp1505
(lp1506
s(S'FOXL1'
p1507
S'CYP26A1'
p1508
S'increases'
p1509
tp1510
(lp1511
s(S'PAX2'
p1512
S'RUNX1'
p1513
S'increases'
p1514
tp1515
(lp1516
s(S'MEKK1/4'
p1517
S'MKK4/7'
p1518
S'adds_modification'
p1519
tp1520
(lp1521
s(S'HOXA9'
p1522
S'CYP26A1'
p1523
S'increases'
p1524
tp1525
(lp1526
s(S'TRKC'
p1527
S'NT3 (DIMER)'
p1528
S'binds'
p1529
tp1530
(lp1531
s(S'PTF1A'
p1532
S'REPIN1'
p1533
S'increases'
p1534
tp1535
(lp1536
s(S'TGIF'
p1537
S'CYP26A1'
p1538
S'increases'
p1539
tp1540
(lp1541
s(S'MYOD1'
p1542
S'MYC'
p1543
S'increases'
p1544
tp1545
(lp1546
s(S'PKCT'
p1547
S'KRAS ISO2'
p1548
S'adds_modification'
p1549
tp1550
(lp1551
s(S'RAS family/GTP'
p1552
S'BRAF'
p1553
S'increases_activity'
p1554
tp1555
(lp1556
s(S'SPZ1'
p1557
S'CYP26A1'
p1558
S'increases'
p1559
tp1560
(lp1561
s(S'HRAS/GTP'
p1562
S'GALECTIN-1'
p1563
S'binds'
p1564
tp1565
(lp1566
s(S'DBP'
p1567
S'FOXD3'
p1568
S'increases'
p1569
tp1570
(lp1571
s(S'E2F1'
p1572
S'POU2F1'
p1573
S'increases'
p1574
tp1575
(lp1576
s(S'MEIS1'
p1577
S'CYP26A1'
p1578
S'increases'
p1579
tp1580
(lp1581
s(S'YY1'
p1582
S'NRAS'
p1583
S'increases'
p1584
tp1585
(lp1586
s(S'RAS:RAF'
p1587
S'YWHAB'
p1588
S'binds'
p1589
tp1590
(lp1591
s(S'NFE2L2'
p1592
S'CYP26A1'
p1593
S'increases'
p1594
tp1595
(lp1596
s(S'FARNESYL'
p1597
S'KRAS'
p1598
S'increases_activity'
p1599
tp1600
(lp1601
s(S'MTF1'
p1602
S'MECOM'
p1603
S'increases'
p1604
tp1605
(lp1606
s(S'TLX2'
p1607
S'FOXD3'
p1608
S'increases'
p1609
tp1610
(lp1611
s(S'Insulin Receptor/Insulin/SHC/GRB2/Sos1'
p1612
S'HRAS/GDP'
p1613
S'increases_activity'
p1614
tp1615
(lp1616
s(S'MYC'
p1617
S'ELK1'
p1618
S'increases'
p1619
tp1620
(lp1621
s(S'ONECUT1'
p1622
S'POU2F1'
p1623
S'increases'
p1624
tp1625
(lp1626
s(S'Paraquat'
p1627
S'HRAS MRNA'
p1628
S'translocates'
p1629
tp1630
(lp1631
s(S'GRB2/SOS1'
p1632
S'PDGF-BB/PDGFRB (DIMER)/SHP2'
p1633
S'binds'
p1634
tp1635
(lp1636
s(S'ONECUT1'
p1637
S'CYP26A1'
p1638
S'increases'
p1639
tp1640
(lp1641
s(S'MYC'
p1642
S'FOXO3'
p1643
S'increases'
p1644
tp1645
(lp1646
s(S'PAX3'
p1647
S'ELK1'
p1648
S'increases'
p1649
tp1650
(lp1651
s(S'DOK-R'
p1652
S'RASGAP'
p1653
S'binds'
p1654
tp1655
(lp1656
s(S'HOXA4'
p1657
S'HOXA9'
p1658
S'increases'
p1659
tp1660
(lp1661
s(S'MAX'
p1662
S'POU3F2'
p1663
S'increases'
p1664
tp1665
(lp1666
s(S'Estradiol'
p1667
S'KRAS MRNA'
p1668
S'decreases'
p1669
tp1670
(lp1671
s(S'KRAS ISOFORM 4B/GTP'
p1672
S'CAM/CA2+'
p1673
S'binds'
p1674
tp1675
(lp1676
s(S'MAZ'
p1677
S'FOXO4'
p1678
S'increases'
p1679
tp1680
(lp1681
s(S'hsa-miR-181a-5p'
p1682
S'KRAS'
p1683
S'decreases'
p1684
tp1685
(lp1686
s(S'GATA1'
p1687
S'CYP26A1'
p1688
S'increases'
p1689
tp1690
(lp1691
s(S'PGR'
p1692
S'ETS1'
p1693
S'increases'
p1694
tp1695
(lp1696
s(S'GATA1'
p1697
S'POU2F1'
p1698
S'increases'
p1699
tp1700
(lp1701
s(S'BRAF'
p1702
S'MEK1-2'
p1703
S'increases_activity'
p1704
tp1705
(lp1706
s(S'LEF1'
p1707
S'GABPB2'
p1708
S'increases'
p1709
tp1710
(lp1711
s(S'CYP26A1'
p1712
S'MYC'
p1713
S'increases'
p1714
tp1715
(lp1716
s(S'STAT1'
p1717
S'IRF1'
p1718
S'increases'
p1719
tp1720
(lp1721
S'RNA Pol II (Santa Cruz sc-899), STAT1 (Santa Cruz sc-345X) and IRF1 (Santa Cruz sc-497) were from Santa Cruz Biotechnology, Santa Cruz CA USA.'
p1722
as(S'SMAD1'
p1723
S'RUNX2'
p1724
S'increases'
p1725
tp1726
(lp1727
s(S'ZEB1'
p1728
S'TLX2'
p1729
S'increases'
p1730
tp1731
(lp1732
s(S'STAT5B'
p1733
S'IRF1'
p1734
S'increases'
p1735
tp1736
(lp1737
s(S'POU6F1'
p1738
S'CYP26A1'
p1739
S'increases'
p1740
tp1741
(lp1742
s(S'Vincristine'
p1743
S'HRAS MRNA'
p1744
S'increases'
p1745
tp1746
(lp1747
s(S'DAG'
p1748
S'RASGRP1'
p1749
S'adds_modification'
p1750
tp1751
(lp1752
s(S'PI3K'
p1753
S'PDK1'
p1754
S'increases_activity'
p1755
tp1756
(lp1757
S'Active PI3K generates phosphatidylinositol 3,4,5 triphosphate (PIP3), which serves as an anchor for Pleckstrin homology (PH)domain-containing proteins, including both adaptor molecules such as GRB2-associated binding protein 2 (Gab2) and docking protein 1 (Dok1) and kinases such as tec protein tyrosine kinase (Tec), Bruton agammaglobulinemia tyrosine kinase (Btk), phosphoinositide-dependent kinase-1 (PDK1) and v-akt murine thymoma viral oncogene homolog kinase (AKT) ['
p1758
aS'Thus, our GSA procedure identified the phosphoinositol pool (PI), PDK1 and PI3K as the most promising targets to suppress '
p1759
aS'Therefore we focused on testing the effect of PI3K and PDK1 inhibition on the level of Akt phosphorylation in two ovarian carcinoma cell lines, PE04 and OVCAR4.'
p1760
aS'We stimulated the PE04 and OVCAR4 cells with heregulin after pre-treating them either with LY294002 (PI3K inhibitor) or UCN-01 (PDK1 inhibitor).'
p1761
aS'Our findings with regard to PI3K and PDK1 as potential drug targets and biomarkers of cancer are consistent with other cancer-related studies ('
p1762
aS'LY294002 (PI3K inhibitor), the primary antibodies for phospho-PDK1 (p-PDK1, Ser241), total PDK1, phospho-PTEN (p-PTEN, Ser380), total PTEN, phospho-Akt (p-Akt, Ser473), total Akt, phospho-c-Raf (p-c-Raf, Ser259), total c-Raf, phospho-GSK3'
p1763
aS'Reperfusion after stroke induced dysfunction of PI3K/Akt pathway and the PI3K/Akt inhibition led to dephosphorylation of PDK1, Akt, and GSK3'
p1764
ag680
as(S'ETS2'
p1765
S'PAX4'
p1766
S'increases'
p1767
tp1768
(lp1769
s(S'NR3C1'
p1770
S'ONECUT1'
p1771
S'increases'
p1772
tp1773
(lp1774
s(S'CUX1'
p1775
S'CYP26A1'
p1776
S'increases'
p1777
tp1778
(lp1779
s(S'ZEB1'
p1780
S'GATA1'
p1781
S'increases'
p1782
tp1783
(lp1784
s(S'NRF1'
p1785
S'POU2F1'
p1786
S'increases'
p1787
tp1788
(lp1789
s(S'FOXJ2'
p1790
S'MECOM'
p1791
S'increases'
p1792
tp1793
(lp1794
s(S'MAZ'
p1795
S'MYCN'
p1796
S'increases'
p1797
tp1798
(lp1799
s(S'Hydrogen Peroxide'
p1800
S'HRAS MRNA'
p1801
S'increases'
p1802
tp1803
(lp1804
s(S'RASA1'
p1805
S'P-EPHBS:EFNBS'
p1806
S'binds'
p1807
tp1808
(lp1809
s(S'SPI1'
p1810
S'CEBPG'
p1811
S'increases'
p1812
tp1813
(lp1814
s(S'EGR1'
p1815
S'LEF1'
p1816
S'increases'
p1817
tp1818
(lp1819
s(S'RET51/GFRALPHA1/GDNF'
p1820
S'P62DOK'
p1821
S'binds'
p1822
tp1823
(lp1824
s(S'TFDP2'
p1825
S'CYP26A1'
p1826
S'increases'
p1827
tp1828
(lp1829
s(S'matrine'
p1830
S'NRAS MRNA'
p1831
S'increases'
p1832
tp1833
(lp1834
s(S'Isotretinoin'
p1835
S'KRAS MRNA'
p1836
S'decreases'
p1837
tp1838
(lp1839
s(S'PITX2'
p1840
S'FOXF2'
p1841
S'increases'
p1842
tp1843
(lp1844
s(S'MYOD1'
p1845
S'POU2F1'
p1846
S'increases'
p1847
tp1848
(lp1849
s(S'sodium arsenite'
p1850
S'KRAS PROTEIN'
p1851
S'increases'
p1852
tp1853
(lp1854
s(S'TCF4'
p1855
S'CBFA2T3'
p1856
S'increases'
p1857
tp1858
(lp1859
s(S'CYP26A1'
p1860
S'FOXA1'
p1861
S'increases'
p1862
tp1863
(lp1864
s(S'TP53'
p1865
S'CYP26A1'
p1866
S'increases'
p1867
tp1868
(lp1869
s(S'ATF3'
p1870
S'FOXD3'
p1871
S'increases'
p1872
tp1873
(lp1874
s(S'POU2F1'
p1875
S'NRAS'
p1876
S'increases'
p1877
tp1878
(lp1879
s(S'NRF1'
p1880
S'GABPB2'
p1881
S'increases'
p1882
tp1883
(lp1884
s(S'PAX4'
p1885
S'TLX2'
p1886
S'increases'
p1887
tp1888
(lp1889
s(S'PITX2'
p1890
S'FOXA1'
p1891
S'increases'
p1892
tp1893
(lp1894
s(S'GTF3A'
p1895
S'POU2F1'
p1896
S'increases'
p1897
tp1898
(lp1899
s(S'HLF'
p1900
S'FOXO3'
p1901
S'increases'
p1902
tp1903
(lp1904
s(S'PAX4'
p1905
S'FOXO4'
p1906
S'increases'
p1907
tp1908
(lp1909
s(S'CEBPA'
p1910
S'FOXD3'
p1911
S'increases'
p1912
tp1913
(lp1914
s(S'NFE2'
p1915
S'CYP26A1'
p1916
S'increases'
p1917
tp1918
(lp1919
s(S'MYB'
p1920
S'GABPB2'
p1921
S'increases'
p1922
tp1923
(lp1924
s(S'MYC'
p1925
S'CEBPA'
p1926
S'increases'
p1927
tp1928
(lp1929
s(S'ELK1'
p1930
S'EN1'
p1931
S'increases'
p1932
tp1933
(lp1934
s(S'E2F1'
p1935
S'CDC5L'
p1936
S'increases'
p1937
tp1938
(lp1939
s(S'YWHAZ (DIMER)'
p1940
S'RAF1'
p1941
S'binds'
p1942
tp1943
(lp1944
s(S'ATF6'
p1945
S'CYP26A1'
p1946
S'increases'
p1947
tp1948
(lp1949
s(S'sodium arsenite'
p1950
S'HRAS MRNA'
p1951
S'increases'
p1952
tp1953
(lp1954
s(S'EGR3'
p1955
S'CYP26A1'
p1956
S'increases'
p1957
tp1958
(lp1959
s(S'lead acetate'
p1960
S'HRAS PROTEIN'
p1961
S'increases_activity'
p1962
tp1963
(lp1964
s(S'REPIN1'
p1965
S'MYC'
p1966
S'increases'
p1967
tp1968
(lp1969
s(S'CEBPA'
p1970
S'NRAS'
p1971
S'increases'
p1972
tp1973
(lp1974
s(S'Quercetin'
p1975
S'NRAS MRNA'
p1976
S'decreases'
p1977
tp1978
(lp1979
s(S'14-3-3 E'
p1980
S'TERT'
p1981
S'binds'
p1982
tp1983
(lp1984
s(S'Antigen/IgE/Fc epsilon R1/LYN/SYK'
p1985
S'BTK'
p1986
S'adds_modification'
p1987
tp1988
(lp1989
s(S'HSF2'
p1990
S'CBFA2T3'
p1991
S'increases'
p1992
tp1993
(lp1994
s(S'Fluorouracil'
p1995
S'HRAS MRNA'
p1996
S'increases'
p1997
tp1998
(lp1999
s(S'STAT4'
p2000
S'MECOM'
p2001
S'increases'
p2002
tp2003
(lp2004
s(S'ETS2'
p2005
S'ETS1'
p2006
S'increases'
p2007
tp2008
(lp2009
s(S'CEBPG'
p2010
S'CYP26A1'
p2011
S'increases'
p2012
tp2013
(lp2014
s(S'Complex (PDGF receptor A/PDGF receptor B)'
p2015
S'NCK'
p2016
S'adds_modification'
p2017
tp2018
(lp2019
s(S'Fog1'
p2020
S'MYB'
p2021
S'decreases'
p2022
tp2023
(lp2024
s(S'CREB1'
p2025
S'FOXD3'
p2026
S'increases'
p2027
tp2028
(lp2029
s(S'Numb'
p2030
S'NICS'
p2031
S'translocates'
p2032
tp2033
(lp2034
s(S'STAT6'
p2035
S'STAT5A'
p2036
S'increases'
p2037
tp2038
(lp2039
s(S'RAF1/14-3-3'
p2040
S'BRAF/14-3-3'
p2041
S'binds'
p2042
tp2043
(lp2044
s(S'B-cell antigen/BCR complex/LYN/SYK/BLNK'
p2045
S'SHC/GRB2/SOS1'
p2046
S'increases_activity'
p2047
tp2048
(lp2049
s(S'IRF2'
p2050
S'CYP26A1'
p2051
S'increases'
p2052
tp2053
(lp2054
s(S'GATA6'
p2055
S'CYP26A1'
p2056
S'increases'
p2057
tp2058
(lp2059
s(S'HMGA1'
p2060
S'CYP26A1'
p2061
S'increases'
p2062
tp2063
(lp2064
s(S'MTF1'
p2065
S'FOXO4'
p2066
S'increases'
p2067
tp2068
(lp2069
s(S'STAT1'
p2070
S'GABPB2'
p2071
S'increases'
p2072
tp2073
(lp2074
s(S'manumycin'
p2075
S'HRAS PROTEIN'
p2076
S'decreases'
p2077
tp2078
(lp2079
s(S'STAT5A'
p2080
S'ETS1'
p2081
S'increases'
p2082
tp2083
(lp2084
s(S'SPI1'
p2085
S'CBFA2T3'
p2086
S'increases'
p2087
tp2088
(lp2089
s(S'GMCSF/GMR ALPHA/CSF2RB/JAK2 (DODECAMER)/SHC'
p2090
S'GRB2/SOS1'
p2091
S'binds'
p2092
tp2093
(lp2094
s(S'7,8-Dihydro-7,8-dihydroxybenzo(a)pyrene 9,10-oxide'
p2095
S'NRAS PROTEIN'
p2096
S'increases'
p2097
tp2098
(lp2099
s(S'CDC5L'
p2100
S'CYP26A1'
p2101
S'increases'
p2102
tp2103
(lp2104
s(S'PAX4'
p2105
S'POU3F2'
p2106
S'increases'
p2107
tp2108
(lp2109
s(S'SPRED2'
p2110
S'HRAS'
p2111
S'binds'
p2112
tp2113
(lp2114
s(S'PITX2'
p2115
S'FOXO4'
p2116
S'increases'
p2117
tp2118
(lp2119
s(S'FOXD3'
p2120
S'CYP26A1'
p2121
S'increases'
p2122
tp2123
(lp2124
s(S'NFIL3'
p2125
S'FOXO3'
p2126
S'increases'
p2127
tp2128
(lp2129
s(S'MTF1'
p2130
S'POU2F1'
p2131
S'increases'
p2132
tp2133
(lp2134
s(S'TFCP2'
p2135
S'BACH1'
p2136
S'increases'
p2137
tp2138
(lp2139
s(S'NF1'
p2140
S'MECOM'
p2141
S'increases'
p2142
tp2143
(lp2144
s(S'FOXO3'
p2145
S'FOXD3'
p2146
S'increases'
p2147
tp2148
(lp2149
s(S'STAT5A'
p2150
S'TLX2'
p2151
S'increases'
p2152
tp2153
(lp2154
s(S'RIN1'
p2155
S'HRAS/GTP'
p2156
S'adds_modification'
p2157
tp2158
(lp2159
s(S'STAT5A'
p2160
S'CEBPG'
p2161
S'increases'
p2162
tp2163
(lp2164
s(S'DAG'
p2165
S'PKC'
p2166
S'increases_activity'
p2167
tp2168
(lp2169
S'The protein kinase C (PKC) pathway: The mechanism responsible for the activation of PKC by hyperglycemia is related to de novo synthesis of the PKC activator diacylglycerol (DAG) from a stepwise acylation of glycerol 3-phosphate and phosphatidic acid.'
p2170
ag1421
aS'The C1 domains are the molecular sensors of phorbol 12-myristate 13-acetate (PMA)/diacylglycerol (DAG) in cPKC and nPKC isoforms.'
p2171
aS'Atypical PKCs have only one C1 domain and are unable to bind DAG.'
p2172
aS'Subsequent release of calcium and diacylglycerol activates protein kinase C (PKC) isoforms, as well as guanine exchange factors specific for Rap1, such as calcium and diacylglycerol-regulated guanine nucleotide exchange factor (CALDAG-GEF) ['
p2173
aS'Effects of cytopiloyne on calcium mobilization, DAG generation, and PKC'
p2174
aS'The previous reports have shown that the activation of the PLC pathway also produces lipid-soluble 1,2-diacylglycerol (DAG), an endogenous protein kinase C (PKC) activator.'
p2175
aS'Activation of PKC by treatment with PMA, a DAG analogue, causes receptor phosphorylation and receptor uncoupling from PLC-mediated inositol phospholipid metabolism and results in a loss of Ca'
p2176
aS'PDE3: phosphodiesterase-3; PKA: protein kinase A; PLC: phospholipase; DAG: diacylglycerol; IP3: inositol trisphosphate; PIP2: phosphatidylinositol 4,5-bisphosphate; PKC: protein kinase C; PSGL-1: P-selectin glycoprotein ligand-1.'
p2177
aS'Finally, hyperglycemia can lead to the activation of the diacylglycerol (DAG) protein kinase C (PKC) pathway ['
p2178
aS'A core-signaling pathway in migration and invasion is the phospholipase C pathway catalyzing the formation of inositol 1,4,5-triphosphate (IP3) and diacylglycerol (DAG) leading to activation of the PKC family '
p2179
aS'AT-II: angiotensin-II; DAG: diacylglycerol; PKC: protein kinase C; Thr495 P-eNOS: threonine495-phosphorylated endothelial NO synthase; NO: nitric oxide; O'
p2180
aS'Role of PKC in vascular function in diabetes (DAG, diacylglycerol; PKC, protein kinase C; ECM,\nextracellular matrix; MAPK, mitogen-activated protein kinase; and ET-1, endothelin-1).'
p2181
as(S'HNF4A'
p2182
S'FOXA1'
p2183
S'increases'
p2184
tp2185
(lp2186
s(S'LEF1'
p2187
S'MAZ'
p2188
S'increases'
p2189
tp2190
(lp2191
s(S'hsa-miR-124-3p'
p2192
S'NRAS'
p2193
S'decreases'
p2194
tp2195
(lp2196
s(S'RAF1'
p2197
S'14-3-3 E'
p2198
S'binds'
p2199
tp2200
(lp2201
s(S'GATA1'
p2202
S'MYB'
p2203
S'decreases'
p2204
tp2205
(lp2206
s(S'LMO2'
p2207
S'GATA1'
p2208
S'increases'
p2209
tp2210
(lp2211
s(S'HRAS/GTP'
p2212
S'RAF1'
p2213
S'increases_activity'
p2214
tp2215
(lp2216
s(S'MYCN'
p2217
S'RUNX2'
p2218
S'increases'
p2219
tp2220
(lp2221
s(S'STAT5B'
p2222
S'CYP26A1'
p2223
S'increases'
p2224
tp2225
(lp2226
s(S'ZIC2'
p2227
S'MYCN'
p2228
S'increases'
p2229
tp2230
(lp2231
s(S'FOXL1'
p2232
S'FOXD3'
p2233
S'increases'
p2234
tp2235
(lp2236
s(S'ZBTB18'
p2237
S'CBFA2T3'
p2238
S'increases'
p2239
tp2240
(lp2241
s(S'HSF1'
p2242
S'IRF1'
p2243
S'increases'
p2244
tp2245
(lp2246
s(S'SPZ1'
p2247
S'MAZ'
p2248
S'increases'
p2249
tp2250
(lp2251
s(S'SRY'
p2252
S'CYP26A1'
p2253
S'increases'
p2254
tp2255
(lp2256
s(S'FOXO4'
p2257
S'HOXA9'
p2258
S'increases'
p2259
tp2260
(lp2261
s(S'IGF-1R heterotetramer/IGF1/IRS1/GRB2/Sos'
p2262
S'HRAS/GDP'
p2263
S'increases_activity'
p2264
tp2265
(lp2266
s(S'hsa-miR-615-3p'
p2267
S'HRAS'
p2268
S'decreases'
p2269
tp2270
(lp2271
s(S'ESRRA'
p2272
S'FOXD3'
p2273
S'increases'
p2274
tp2275
(lp2276
s(S'ELK1'
p2277
S'CYP26A1'
p2278
S'increases'
p2279
tp2280
(lp2281
s(S'Hexane-1,6-Diol'
p2282
S'HRAS'
p2283
S'increases_activity'
p2284
tp2285
(lp2286
s(S'MAZ'
p2287
S'NRAS'
p2288
S'increases'
p2289
tp2290
(lp2291
s(S'MIF'
p2292
S'CYP26A1'
p2293
S'increases'
p2294
tp2295
(lp2296
s(S'AHR'
p2297
S'POU2F1'
p2298
S'increases'
p2299
tp2300
(lp2301
s(S'SMAD3'
p2302
S'CYP26A1'
p2303
S'increases'
p2304
tp2305
(lp2306
s(S'PI-3-4-5-P3'
p2307
S'GELSOLIN'
p2308
S'binds'
p2309
tp2310
(lp2311
s(S'ADP'
p2312
S'P-S724-IRE1 DIMER'
p2313
S'binds'
p2314
tp2315
(lp2316
s(S'testosterone enanthate'
p2317
S'KRAS MRNA'
p2318
S'increases'
p2319
tp2320
(lp2321
s(S'CYP26A1'
p2322
S'ONECUT1'
p2323
S'increases'
p2324
tp2325
(lp2326
s(S'Valproic Acid'
p2327
S'NRAS MRNA'
p2328
S'decreases'
p2329
tp2330
(lp2331
s(S'GTF2A2'
p2332
S'CYP26A1'
p2333
S'increases'
p2334
tp2335
(lp2336
s(S'CEBPA'
p2337
S'FOXO3'
p2338
S'increases'
p2339
tp2340
(lp2341
s(S'GATA3'
p2342
S'POU2F1'
p2343
S'increases'
p2344
tp2345
(lp2346
s(S'PI3K'
p2347
S'RAC1B/GDP'
p2348
S'increases_activity'
p2349
tp2350
(lp2351
s(S'CDC25C'
p2352
S'YWHAB'
p2353
S'binds'
p2354
tp2355
(lp2356
s(S'RAC1/GTP'
p2357
S'PAK1/BETAPIX/PKL/NCK1-2'
p2358
S'increases_activity'
p2359
tp2360
(lp2361
s(S'SMAD1'
p2362
S'CYP26A1'
p2363
S'increases'
p2364
tp2365
(lp2366
s(S'PI3K'
p2367
S'FAK'
p2368
S'adds_modification'
p2369
tp2370
(lp2371
S'How does FAK regulate endothelial proliferation= Previous studies, using fibroblasts, have shown a dominant role for FAK upstream of the PI3K/Akt signalling pathway (Xia et al, '
p2372
aS'ERBB4 is overexpressed in ES cell lines derived from advanced tumours as well as in human metastatic ES lesions, and leads to activation of PI3K-Akt, focal adhesion kinase (FAK), and the Rac1 GTPase, a well-established mediator of cell migration and invasion.'
p2373
aS'Finally, we assessed effects of PI3K and FAK inhibition on ES cell migration and invasion.'
p2374
aS'Inhibition of either PI3K or FAK moderately but significantly reduced migration and strongly inhibited invasion in CHLA-10 cells '
p2375
aS'ERBB4 overexpression activates a novel ERBB4-PI3K-Akt-FAK-Rac1 pathway that stimulates migration and invasion of ES cells, and confers metastatic capacity '
p2376
aS'One of the earliest events upon integrin clustering and signaling is autophosphorylation of FAK at Y397, which leads to the recruitment of PI3K to focal adhesion, causing activation of AKT that regulates integrin-mediated cell survival.'
p2377
aS'In muscle, Akt is activated by the upstream phosphatidylinositol 3-kinase (PI3K), either induced by receptor binding or by integrin-mediated activation of focal adhesion kinase (FAK), such as in cardiac myocytes (Franchini et al. '
p2378
aS'Talin1 localised to the outer ring of the podosome which contains integrins and associated proteins typical of FA, as well as regulatory proteins such as PI3K, Src, Pyk2/FAK ('
p2379
aS'Thus, it seems that FAK promotes CL1-5 cancer cell migration in concert with the activation of the PI3K/AKT signaling pathways.'
p2380
aS'Increased phosphorylation of FAK and its downstream targets, Src, ERK1/2, PI3K, and AKT have been shown in A549 lung epithelial cells stimulated by fibronectin.'
p2381
aS'Consistent with this observation, depletion of FAK by siRNA resulted in the inhibition of Src, ERK1/2, PI3K, and AKT activity ['
p2382
aS'Mechanistically, we show that this effect of EEAC may occur through inactivation of the ERK1/2 signaling pathway, exerting inhibitory effects on FAK, p-FAK, and Rac-1 protein expressions and inhibiting PI3K, and phospho-Akt levels, thereby decreasing the activities of MMP-2, MMP-9 of CL1-5 cells ('
p2383
aS'The effect of EEAC is achieved likely through the inhibition of FAK, which regulates Rac-1/MMP-9 expression through MAPK and PI3K/AKT signaling pathways.'
p2384
aS'The decreased expression and phosphorylation of Src, FAK, and the downstream regulators, PI3K/Akt and MMPs, in cells treated with MCME, is the critical event leading to cell death and antimetastasis in CL1 cells.'
p2385
aS'Studies have implicated that FAK mediates cell proliferation through upregulation of cyclin D3, PKC, and PI3K/Akt signaling pathways ['
p2386
aS'To confirm whether the signaling pathways activated by syntenin are associated with increased invasiveness, we evaluated the influence of a p38 inhibitor (SB203580), a PI3K/AKT inhibitor (LY294002) and a FAK inhibitor (PF-573228) on MT1-MMP and MMP2 expression in syntenin-overexpressed cells.'
p2387
aS'When FAK, p38 and PI3K/AKT were pharmacologically inhibited in NCI-H187 cells, the number of invaded cells in the Matrigel invasion assay did not increase in syntenin-transfected cells, compared with empty vector-transfected cells ('
p2388
aS'Together, these results suggest that activation of FAK and the p38 MAPK and PI3K/AKT pathways are associated with invasiveness-related syntenin signaling transduction, leading to upregulation of MMP2 and MT1-MMP.'
p2389
aS'paxillin, FAK, Src, and PI3K), leading to the activation of the Rac-PAK pathway.'
p2390
as(S'NRF1'
p2391
S'MAX'
p2392
S'increases'
p2393
tp2394
(lp2395
s(S'FOXI1'
p2396
S'RUNX2'
p2397
S'increases'
p2398
tp2399
(lp2400
s(S'7,8-Dihydro-7,8-dihydroxybenzo(a)pyrene 9,10-oxide'
p2401
S'HRAS MRNA'
p2402
S'increases'
p2403
tp2404
(lp2405
s(S'ETS1'
p2406
S'CBFA2T3'
p2407
S'increases'
p2408
tp2409
(lp2410
s(S'hsa-miR-98-5p'
p2411
S'NRAS'
p2412
S'decreases'
p2413
tp2414
(lp2415
s(S'PHOSPHORYLATED BRF1 (SER92, SER203):MRNA COMPLEX'
p2416
S'YWHAB'
p2417
S'binds'
p2418
tp2419
(lp2420
s(S'LMO2'
p2421
S'CYP26A1'
p2422
S'increases'
p2423
tp2424
(lp2425
s(S'SOS1'
p2426
S'GRB2:PFAK BOUND TO NCAM1:PFYN'
p2427
S'binds'
p2428
tp2429
(lp2430
s(S'GTF3A'
p2431
S'GATA6'
p2432
S'increases'
p2433
tp2434
(lp2435
s(S'ZIC2'
p2436
S'CYP26A1'
p2437
S'increases'
p2438
tp2439
(lp2440
s(S'PAX2'
p2441
S'POU3F2'
p2442
S'increases'
p2443
tp2444
(lp2445
s(S'CEBPD'
p2446
S'FOXO3'
p2447
S'increases'
p2448
tp2449
(lp2450
s(S'NF1'
p2451
S'CYP26A1'
p2452
S'increases'
p2453
tp2454
(lp2455
s(S'BRAF'
p2456
S'MEK2'
p2457
S'adds_modification'
p2458
tp2459
(lp2460
g1208
ag1209
as(S'TFAP4'
p2461
S'RUNX1'
p2462
S'increases'
p2463
tp2464
(lp2465
s(S'FAK'
p2466
S'SOS'
p2467
S'binds'
p2468
tp2469
(lp2470
s(S'EGR1'
p2471
S'RUNX1'
p2472
S'increases'
p2473
tp2474
(lp2475
s(S'TCF4'
p2476
S'FOXO4'
p2477
S'increases'
p2478
tp2479
(lp2480
s(S'MAZ'
p2481
S'CBFA2T3'
p2482
S'increases'
p2483
tp2484
(lp2485
s(S'MEIS1'
p2486
S'HRAS'
p2487
S'increases'
p2488
tp2489
(lp2490
s(S'RELA'
p2491
S'CYP26A1'
p2492
S'increases'
p2493
tp2494
(lp2495
s(S'hsa-miR-877-3p'
p2496
S'NRAS'
p2497
S'decreases'
p2498
tp2499
(lp2500
s(S'MYC'
p2501
S'LEF1'
p2502
S'increases'
p2503
tp2504
(lp2505
s(S'FOXO4'
p2506
S'RUNX1'
p2507
S'increases'
p2508
tp2509
(lp2510
s(S'LEF1'
p2511
S'RUNX1'
p2512
S'increases'
p2513
tp2514
(lp2515
s(S'TFDP2'
p2516
S'GATA1'
p2517
S'increases'
p2518
tp2519
(lp2520
s(S'AHR'
p2521
S'CYP26A1'
p2522
S'increases'
p2523
tp2524
(lp2525
s(S'4-Nitroquinoline-1-oxide'
p2526
S'PTGS2 MRNA'
p2527
S'increases'
p2528
tp2529
(lp2530
s(S'TGIF'
p2531
S'FOXO3'
p2532
S'increases'
p2533
tp2534
(lp2535
s(S'FOXF2'
p2536
S'CEBPA'
p2537
S'increases'
p2538
tp2539
(lp2540
s(S'NFE2L1'
p2541
S'POU2F1'
p2542
S'increases'
p2543
tp2544
(lp2545
s(S'LHX3'
p2546
S'CYP26A1'
p2547
S'increases'
p2548
tp2549
(lp2550
s(S'HMGA1'
p2551
S'MEIS1'
p2552
S'increases'
p2553
tp2554
(lp2555
s(S'POU2F1'
p2556
S'CYP26A1'
p2557
S'increases'
p2558
tp2559
(lp2560
s(S'PRRX2'
p2561
S'HOXA9'
p2562
S'increases'
p2563
tp2564
(lp2565
s(S'ETS2'
p2566
S'CEBPG'
p2567
S'increases'
p2568
tp2569
(lp2570
s(S'hsa-miR-193b-3p'
p2571
S'KRAS'
p2572
S'decreases'
p2573
tp2574
(lp2575
s(S'RREB1'
p2576
S'RUNX1'
p2577
S'increases'
p2578
tp2579
(lp2580
s(S'IL2/IL2R BETA/GAMMA/JAK1/FYN/JAK3'
p2581
S'PI3K'
p2582
S'binds'
p2583
tp2584
(lp2585
s(S'ELK1'
p2586
S'MEIS1'
p2587
S'increases'
p2588
tp2589
(lp2590
s(S'CYP26A1'
p2591
S'HOXA9'
p2592
S'increases'
p2593
tp2594
(lp2595
s(S'SPZ1'
p2596
S'HOXA9'
p2597
S'increases'
p2598
tp2599
(lp2600
s(S'ERK1'
p2601
S'P-S218,222-MEK1'
p2602
S'binds'
p2603
tp2604
(lp2605
s(S'NHLH1'
p2606
S'MYC'
p2607
S'increases'
p2608
tp2609
(lp2610
s(S'Daunorubicin'
p2611
S'NRAS MRNA'
p2612
S'increases'
p2613
tp2614
(lp2615
s(S'HNF1A'
p2616
S'FOXA1'
p2617
S'increases'
p2618
tp2619
(lp2620
s(S'MYC'
p2621
S'ONECUT1'
p2622
S'increases'
p2623
tp2624
(lp2625
s(S'Vanadates'
p2626
S'HRAS PROTEIN'
p2627
S'increases'
p2628
tp2629
(lp2630
s(S'Purine nucleotide'
p2631
S'H+'
p2632
S'translocates'
p2633
tp2634
(lp2635
s(S'NFE2'
p2636
S'BACH1'
p2637
S'increases'
p2638
tp2639
(lp2640
s(S'EGR4'
p2641
S'CYP26A1'
p2642
S'increases'
p2643
tp2644
(lp2645
s(S'NRF1'
p2646
S'ONECUT1'
p2647
S'increases'
p2648
tp2649
(lp2650
s(S'GFI1'
p2651
S'HOXA9'
p2652
S'increases'
p2653
tp2654
(lp2655
s(S'NR1H4'
p2656
S'FOXD3'
p2657
S'increases'
p2658
tp2659
(lp2660
s(S'STAT6'
p2661
S'FOXA1'
p2662
S'increases'
p2663
tp2664
(lp2665
s(S'INSULIN RECEPTOR/INSULI/IRS1/GRB2/SHC'
p2666
S'SOS1'
p2667
S'binds'
p2668
tp2669
(lp2670
s(S'Tetrachlorodibenzodioxin'
p2671
S'KRAS MRNA'
p2672
S'increases'
p2673
tp2674
(lp2675
s(S'TCF3'
p2676
S'MYC'
p2677
S'increases'
p2678
tp2679
(lp2680
s(S'BACH1'
p2681
S'EN1'
p2682
S'increases'
p2683
tp2684
(lp2685
s(S'RFX1'
p2686
S'CYP26A1'
p2687
S'increases'
p2688
tp2689
(lp2690
s(S'ZEB1'
p2691
S'FOXD3'
p2692
S'increases'
p2693
tp2694
(lp2695
s(S'IRF7'
p2696
S'EN1'
p2697
S'increases'
p2698
tp2699
(lp2700
s(S'GAB2/GRB2/SOS1'
p2701
S'IL2/IL2R ALPHA/BETA/GAMMA/JAK1/LCK/JAK3/SHC'
p2702
S'binds'
p2703
tp2704
(lp2705
s(S'GATA3'
p2706
S'FOXA1'
p2707
S'increases'
p2708
tp2709
(lp2710
S'Analysis of ER, FOXA1, and GATA3 protein expression by immunoblotting in MCF7 GFP-ZNF703 and MCF7 GFP breast cancer cell lines.'
p2711
as(S'TFAP4'
p2712
S'CYP26A1'
p2713
S'increases'
p2714
tp2715
(lp2716
s(S'FOXF2'
p2717
S'MECOM'
p2718
S'increases'
p2719
tp2720
(lp2721
s(S'NF1'
p2722
S'POU2F1'
p2723
S'increases'
p2724
tp2725
(lp2726
s(S'IRF1'
p2727
S'FOXA1'
p2728
S'increases'
p2729
tp2730
(lp2731
s(S'Rho Family GTPase-active'
p2732
S'PIP5K1A'
p2733
S'increases_activity'
p2734
tp2735
(lp2736
s(S'POU6F1'
p2737
S'EN1'
p2738
S'increases'
p2739
tp2740
(lp2741
s(S'TCF4'
p2742
S'LEF1'
p2743
S'increases'
p2744
tp2745
(lp2746
s(S'MAZ'
p2747
S'FOXO3'
p2748
S'increases'
p2749
tp2750
(lp2751
s(S'POU3F2'
p2752
S'MECOM'
p2753
S'increases'
p2754
tp2755
(lp2756
s(S'GTF3A'
p2757
S'CYP26A1'
p2758
S'increases'
p2759
tp2760
(lp2761
s(S'PI-3-4-5-P3'
p2762
S'AKT2'
p2763
S'adds_modification'
p2764
tp2765
(lp2766
s(S'VSX1'
p2767
S'POU2F1'
p2768
S'increases'
p2769
tp2770
(lp2771
s(S'PHOSPHORYLATED TTP:MRNA COMPLEX'
p2772
S'YWHAB'
p2773
S'binds'
p2774
tp2775
(lp2776
s(S'MEIS1'
p2777
S'MYC'
p2778
S'increases'
p2779
tp2780
(lp2781
s(S'Complex (PDGF receptor A/PDGF receptor B)'
p2782
S'RASGAP'
p2783
S'adds_modification'
p2784
tp2785
(lp2786
s(S'RORA'
p2787
S'CYP26A1'
p2788
S'increases'
p2789
tp2790
(lp2791
s(S'ATF4'
p2792
S'CDC5L'
p2793
S'increases'
p2794
tp2795
(lp2796
s(S'SHC/RasGAP'
p2797
S'RAS FAMILY/GTP'
p2798
S'increases_activity'
p2799
tp2800
(lp2801
s(S'NKX2-1'
p2802
S'MYC'
p2803
S'increases'
p2804
tp2805
(lp2806
s(S'NF1'
p2807
S'SRF'
p2808
S'increases'
p2809
tp2810
(lp2811
s(S'STAT4'
p2812
S'NRAS'
p2813
S'increases'
p2814
tp2815
(lp2816
s(S'POU6F1'
p2817
S'MEIS1'
p2818
S'increases'
p2819
tp2820
(lp2821
s(S'P-KIT COMPLEX'
p2822
S'GRB2:SOS1'
p2823
S'binds'
p2824
tp2825
(lp2826
s(S'MYCN'
p2827
S'MAX'
p2828
S'increases'
p2829
tp2830
(lp2831
s(S'STAT5A'
p2832
S'CYP26A1'
p2833
S'increases'
p2834
tp2835
(lp2836
s(S'GATA3'
p2837
S'EN1'
p2838
S'increases'
p2839
tp2840
(lp2841
s(S'E4F1'
p2842
S'FOXD3'
p2843
S'increases'
p2844
tp2845
(lp2846
s(S'MYB'
p2847
S'ONECUT1'
p2848
S'increases'
p2849
tp2850
(lp2851
s(S'Cadmium Chloride'
p2852
S'NRAS PROTEIN'
p2853
S'increases'
p2854
tp2855
(lp2856
s(S'Deoxycholic Acid'
p2857
S'HRAS PROTEIN'
p2858
S'increases_activity'
p2859
tp2860
(lp2861
s(S'HLF'
p2862
S'CYP26A1'
p2863
S'increases'
p2864
tp2865
(lp2866
s(S'GMCSF/GMR ALPHA/CSF2RB/JAK2 (DIMER)'
p2867
S'YWHAZ'
p2868
S'binds'
p2869
tp2870
(lp2871
s(S'HNF1A'
p2872
S'FOXF2'
p2873
S'increases'
p2874
tp2875
(lp2876
s(S'FOXF2'
p2877
S'GATA6'
p2878
S'increases'
p2879
tp2880
(lp2881
s(S'Arsenic'
p2882
S'GSS PROTEIN'
p2883
S'increases'
p2884
tp2885
(lp2886
s(S'COMPLEX (SOS/GRB2)'
p2887
S'FGFR1-4'
p2888
S'binds'
p2889
tp2890
(lp2891
s(S'MYOD1'
p2892
S'NRAS'
p2893
S'increases'
p2894
tp2895
(lp2896
s(S'MECOM'
p2897
S'CYP26A1'
p2898
S'increases'
p2899
tp2900
(lp2901
s(S'PBX1'
p2902
S'CYP26A1'
p2903
S'increases'
p2904
tp2905
(lp2906
s(S'MAZ'
p2907
S'MEIS1'
p2908
S'increases'
p2909
tp2910
(lp2911
s(S'PAX4'
p2912
S'ELK1'
p2913
S'increases'
p2914
tp2915
(lp2916
s(S'ESRRA'
p2917
S'MECOM'
p2918
S'increases'
p2919
tp2920
(lp2921
s(S'CEBPD'
p2922
S'TLX2'
p2923
S'increases'
p2924
tp2925
(lp2926
s(S'CRX'
p2927
S'FOXA1'
p2928
S'increases'
p2929
tp2930
(lp2931
s(S'GABPB1'
p2932
S'NRAS'
p2933
S'increases'
p2934
tp2935
(lp2936
s(S'CRX'
p2937
S'MEIS1'
p2938
S'increases'
p2939
tp2940
(lp2941
s(S'pirinixic acid/PPARA protein'
p2942
S'KRAS MRNA'
p2943
S'increases'
p2944
tp2945
(lp2946
s(S'BACH2'
p2947
S'FOXA1'
p2948
S'increases'
p2949
tp2950
(lp2951
s(S'JUN'
p2952
S'MECOM'
p2953
S'increases'
p2954
tp2955
(lp2956
s(S'7,8-Dihydro-7,8-dihydroxybenzo(a)pyrene 9,10-oxide'
p2957
S'KRAS MRNA'
p2958
S'decreases'
p2959
tp2960
(lp2961
s(S'SRY'
p2962
S'FOXO4'
p2963
S'increases'
p2964
tp2965
(lp2966
s(S'PI3K'
p2967
S'AKT1'
p2968
S'adds_modification'
p2969
tp2970
(lp2971
S'We observed a significant increase in ser473 phosphorylation of AKT1, a well-known downstream effector of PI3K activation and an established downstream event after insulin and IGF-I stimulation and an established indicator of insulin action.'
p2972
as(S'GATA3'
p2973
S'CYP26A1'
p2974
S'increases'
p2975
tp2976
(lp2977
s(S'RAS:GTP'
p2978
S'P-EPHBS:EFNBS:RASA1'
p2979
S'binds'
p2980
tp2981
(lp2982
s(S'STAT5A'
p2983
S'MECOM'
p2984
S'increases'
p2985
tp2986
(lp2987
s(S'RAS family/GTP'
p2988
S'RAF1'
p2989
S'increases_activity'
p2990
tp2991
(lp2992
s(S'RHOA/GTP'
p2993
S'PLD1-2'
p2994
S'increases_activity'
p2995
tp2996
(lp2997
s(S'FOXJ2'
p2998
S'CYP26A1'
p2999
S'increases'
p3000
tp3001
(lp3002
s(S'LEF1'
p3003
S'MECOM'
p3004
S'increases'
p3005
tp3006
(lp3007
s(S'GABPB2'
p3008
S'CDC5L'
p3009
S'increases'
p3010
tp3011
(lp3012
s(S'ESRRA'
p3013
S'CYP26A1'
p3014
S'increases'
p3015
tp3016
(lp3017
s(S'PI-3-4-5-P3'
p3018
S'WAVE2/NAP1/SRA1/ABI1/HSPC300'
p3019
S'translocates'
p3020
tp3021
(lp3022
s(S'CUX1'
p3023
S'MECOM'
p3024
S'increases'
p3025
tp3026
(lp3027
s(S'MAX'
p3028
S'CYP26A1'
p3029
S'increases'
p3030
tp3031
(lp3032
s(S'RXRB'
p3033
S'FOXD3'
p3034
S'increases'
p3035
tp3036
(lp3037
s(S'IRF1'
p3038
S'NRAS'
p3039
S'increases'
p3040
tp3041
(lp3042
s(S'MECOM'
p3043
S'MAX'
p3044
S'increases'
p3045
tp3046
(lp3047
s(S'PAX6'
p3048
S'CYP26A1'
p3049
S'increases'
p3050
tp3051
(lp3052
s(S'GRB2/SOS1'
p3053
S'EGFR/EGFR/EGF/EGF/P46 SHC'
p3054
S'binds'
p3055
tp3056
(lp3057
s(S'POU6F1'
p3058
S'POU2F1'
p3059
S'increases'
p3060
tp3061
(lp3062
s(S'RUNX1'
p3063
S'MYOD1'
p3064
S'increases'
p3065
tp3066
(lp3067
s(S'COMPLEX (GRB2/SOS)'
p3068
S'EGFR'
p3069
S'binds'
p3070
tp3071
(lp3072
s(S'MAZ'
p3073
S'MECOM'
p3074
S'increases'
p3075
tp3076
(lp3077
s(S'REPIN1'
p3078
S'EN1'
p3079
S'increases'
p3080
tp3081
(lp3082
s(S'RAS family/GTP'
p3083
S'RAF1'
p3084
S'adds_modification'
p3085
tp3086
(lp3087
s(S'E4F1'
p3088
S'CYP26A1'
p3089
S'increases'
p3090
tp3091
(lp3092
s(S'Rac'
p3093
S'MEKK1-5'
p3094
S'adds_modification'
p3095
tp3096
(lp3097
s(S'HAND1'
p3098
S'CYP26A1'
p3099
S'increases'
p3100
tp3101
(lp3102
s(S'Quercetin'
p3103
S'NRAS PROTEIN'
p3104
S'decreases'
p3105
tp3106
(lp3107
s(S'HRAS:GTP'
p3108
S'CRAF'
p3109
S'binds'
p3110
tp3111
(lp3112
s(S'REPIN1'
p3113
S'FOXA1'
p3114
S'increases'
p3115
tp3116
(lp3117
s(S'hsa-miR-155-5p'
p3118
S'KRAS'
p3119
S'decreases'
p3120
tp3121
(lp3122
s(S'PAX4'
p3123
S'EN1'
p3124
S'increases'
p3125
tp3126
(lp3127
s(S'FOXN1'
p3128
S'JUN'
p3129
S'increases'
p3130
tp3131
(lp3132
s(S'TFCP2'
p3133
S'GATA1'
p3134
S'increases'
p3135
tp3136
(lp3137
s(S'SHC'
p3138
S'GRAP2'
p3139
S'binds'
p3140
tp3141
(lp3142
s(S'CEBPG'
p3143
S'NRAS'
p3144
S'increases'
p3145
tp3146
(lp3147
s(S'FOXN1'
p3148
S'FOXO4'
p3149
S'increases'
p3150
tp3151
(lp3152
s(S'IL2/IL2R ALPHA/BETA/GAMMA/JAK1/LCK/JAK3/IRS1-2'
p3153
S'PI3K'
p3154
S'binds'
p3155
tp3156
(lp3157
s(S'POU1F1'
p3158
S'EN1'
p3159
S'increases'
p3160
tp3161
(lp3162
s(S'FOXJ1'
p3163
S'POU2F1'
p3164
S'increases'
p3165
tp3166
(lp3167
s(S'YY1'
p3168
S'POU2F1'
p3169
S'increases'
p3170
tp3171
(lp3172
s(S'7,8-Dihydro-7,8-dihydroxybenzo(a)pyrene 9,10-oxide'
p3173
S'NRAS MRNA'
p3174
S'increases'
p3175
tp3176
(lp3177
s(S'EGF/EGFR'
p3178
S'HRAS/GDP'
p3179
S'increases_activity'
p3180
tp3181
(lp3182
s(S'TFAP4'
p3183
S'GABPB2'
p3184
S'increases'
p3185
tp3186
(lp3187
s(S'TFAP2A'
p3188
S'POU3F2'
p3189
S'increases'
p3190
tp3191
(lp3192
s(S'TCF12'
p3193
S'CBFA2T3'
p3194
S'increases'
p3195
tp3196
(lp3197
s(S'STAT3'
p3198
S'IRF1'
p3199
S'increases'
p3200
tp3201
(lp3202
s(S'MYOD1'
p3203
S'GATA1'
p3204
S'increases'
p3205
tp3206
(lp3207
s(S'REPIN1'
p3208
S'HRAS'
p3209
S'increases'
p3210
tp3211
(lp3212
s(S'PAX4'
p3213
S'MAX'
p3214
S'increases'
p3215
tp3216
(lp3217
s(S'PAX2'
p3218
S'FOXA1'
p3219
S'increases'
p3220
tp3221
(lp3222
s(S'Lipopolysaccharides'
p3223
S'HRAS PROTEIN'
p3224
S'increases_activity'
p3225
tp3226
(lp3227
s(S'7,8-Dihydro-7,8-dihydroxybenzo(a)pyrene 9,10-oxide'
p3228
S'KRAS MRNA'
p3229
S'increases'
p3230
tp3231
(lp3232
s(S'REPIN1'
p3233
S'GATA1'
p3234
S'increases'
p3235
tp3236
(lp3237
s(S'Formaldehyde'
p3238
S'HRAS MRNA'
p3239
S'increases'
p3240
tp3241
(lp3242
s(S'ESRRA'
p3243
S'STAT5A'
p3244
S'increases'
p3245
tp3246
(lp3247
s(S'farnesylthiosalicylic acid'
p3248
S'HRAS PROTEIN'
p3249
S'decreases'
p3250
tp3251
(lp3252
s(S'JUN'
p3253
S'RUNX1'
p3254
S'increases'
p3255
tp3256
(lp3257
s(S'FOXD3'
p3258
S'RUNX1'
p3259
S'increases'
p3260
tp3261
(lp3262
s(S'SOX9'
p3263
S'CYP26A1'
p3264
S'increases'
p3265
tp3266
(lp3267
s(S'hexabromocyclododecane'
p3268
S'HRAS MRNA'
p3269
S'increases'
p3270
tp3271
(lp3272
s(S'RUNX2'
p3273
S'KRAS'
p3274
S'increases'
p3275
tp3276
(lp3277
s(S'PGR'
p3278
S'CYP26A1'
p3279
S'increases'
p3280
tp3281
(lp3282
s(S'CYP26A1'
p3283
S'MAZ'
p3284
S'increases'
p3285
tp3286
(lp3287
s(S'RAC1/GTP'
p3288
S'AKT1'
p3289
S'adds_modification'
p3290
tp3291
(lp3292
s(S'FOXO3'
p3293
S'CYP26A1'
p3294
S'increases'
p3295
tp3296
(lp3297
s(S'MAX'
p3298
S'SRF'
p3299
S'increases'
p3300
tp3301
(lp3302
s(S'RUNX2'
p3303
S'NRAS'
p3304
S'increases'
p3305
tp3306
(lp3307
s(S'HSF2'
p3308
S'CYP26A1'
p3309
S'increases'
p3310
tp3311
(lp3312
s(S'IL2/IL2R ALPHA/BETA/GAMMA/JAK1/LCK/JAK3/SHC/GRB2/SOS1/GAB2/SHP2'
p3313
S'PI3K'
p3314
S'binds'
p3315
tp3316
(lp3317
s(S'SPI1'
p3318
S'STAT5A'
p3319
S'increases'
p3320
tp3321
(lp3322
s(S'ZHX2'
p3323
S'MYC'
p3324
S'increases'
p3325
tp3326
(lp3327
s(S'RAF1-BRAF'
p3328
S'MEK1-2'
p3329
S'increases_activity'
p3330
tp3331
(lp3332
s(S'SHC'
p3333
S'GRB2'
p3334
S'binds'
p3335
tp3336
(lp3337
s(S'RB1'
p3338
S'GATA1'
p3339
S'increases'
p3340
tp3341
(lp3342
s(S'TCF3'
p3343
S'FOXJ2'
p3344
S'increases'
p3345
tp3346
(lp3347
s(S'FOXJ2'
p3348
S'NRAS'
p3349
S'increases'
p3350
tp3351
(lp3352
s(S'REPIN1'
p3353
S'LEF1'
p3354
S'increases'
p3355
tp3356
(lp3357
s(S'Aflatoxin B1'
p3358
S'HRAS MRNA'
p3359
S'increases'
p3360
tp3361
(lp3362
s(S'PAX4'
p3363
S'MEIS1'
p3364
S'increases'
p3365
tp3366
(lp3367
s(S'FOXF2'
p3368
S'FOXD3'
p3369
S'increases'
p3370
tp3371
(lp3372
s(S'CBFA2T3'
p3373
S'RUNX1'
p3374
S'increases'
p3375
tp3376
(lp3377
s(S'FOXC1'
p3378
S'HOXA9'
p3379
S'increases'
p3380
tp3381
(lp3382
s(S'DBP'
p3383
S'CYP26A1'
p3384
S'increases'
p3385
tp3386
(lp3387
s(S'TGIF'
p3388
S'EN1'
p3389
S'increases'
p3390
tp3391
(lp3392
s(S'PI-3-4-5-P3'
p3393
S'P62DOK'
p3394
S'adds_modification'
p3395
tp3396
(lp3397
s(S'JUN'
p3398
S'TLX2'
p3399
S'increases'
p3400
tp3401
(lp3402
s(S'Benzo(a)pyrene'
p3403
S'HRAS MRNA'
p3404
S'increases'
p3405
tp3406
(lp3407
s(S'STAT4'
p3408
S'CYP26A1'
p3409
S'increases'
p3410
tp3411
(lp3412
s(S'EGFR/EGFR/EGF/EGF'
p3413
S'SRC'
p3414
S'adds_modification'
p3415
tp3416
(lp3417
s(S'FOXQ1'
p3418
S'FOXD3'
p3419
S'increases'
p3420
tp3421
(lp3422
s(S'FOXJ1'
p3423
S'NRAS'
p3424
S'increases'
p3425
tp3426
(lp3427
s(S'TCF3'
p3428
S'POU2F1'
p3429
S'increases'
p3430
tp3431
(lp3432
s(S'MYB'
p3433
S'CYP26A1'
p3434
S'increases'
p3435
tp3436
(lp3437
s(S'GATA4'
p3438
S'CYP26A1'
p3439
S'increases'
p3440
tp3441
(lp3442
s(S'ELK1'
p3443
S'STAT4'
p3444
S'increases'
p3445
tp3446
(lp3447
s(S'CYP26A1'
p3448
S'LEF1'
p3449
S'increases'
p3450
tp3451
(lp3452
s(S"Guanosine-5'-Diphosphate"
p3453
S'HRAS'
p3454
S'increases_activity'
p3455
tp3456
(lp3457
s(S'ETV4'
p3458
S'CYP26A1'
p3459
S'increases'
p3460
tp3461
(lp3462
s(S'EPHRIN B/EPHB2'
p3463
S'RASGAP'
p3464
S'binds'
p3465
tp3466
(lp3467
s(S'ESR1'
p3468
S'FOXF2'
p3469
S'increases'
p3470
tp3471
(lp3472
s(S'CDC5L'
p3473
S'FOXA1'
p3474
S'increases'
p3475
tp3476
(lp3477
s(S'MAZ'
p3478
S'HOXA9'
p3479
S'increases'
p3480
tp3481
(lp3482
s(S'HIF1A'
p3483
S'MAX'
p3484
S'increases'
p3485
tp3486
(lp3487
s(S'FOXN1'
p3488
S'HOXA9'
p3489
S'increases'
p3490
tp3491
(lp3492
s(S'LEF1'
p3493
S'BACH1'
p3494
S'increases'
p3495
tp3496
(lp3497
s(S'PDX1'
p3498
S'FOXO3'
p3499
S'increases'
p3500
tp3501
(lp3502
s(S'CBFA2T3'
p3503
S'CYP26A1'
p3504
S'increases'
p3505
tp3506
(lp3507
s(S'Rabex5'
p3508
S'HRAS/GTP'
p3509
S'adds_modification'
p3510
tp3511
(lp3512
s(S'CBFA2T3'
p3513
S'RUNX2'
p3514
S'increases'
p3515
tp3516
(lp3517
s(S'PI-3-4-5-P3'
p3518
S'ARAP3'
p3519
S'translocates'
p3520
tp3521
(lp3522
s(S'CART1'
p3523
S'CYP26A1'
p3524
S'increases'
p3525
tp3526
(lp3527
s(S'Arsenic'
p3528
S'NRAS MRNA'
p3529
S'increases'
p3530
tp3531
(lp3532
s(S'NRF1'
p3533
S'CDC5L'
p3534
S'increases'
p3535
tp3536
(lp3537
s(S'Quercetin'
p3538
S'HRAS PROTEIN'
p3539
S'decreases'
p3540
tp3541
(lp3542
s(S"N,N'-DIMETHYL-N-(ACETYL)-N'-(7-NITROBENZ-2-OXA-1,3-DIAZOL-4-YL)ETHYLENEDIAMINE"
p3543
S'HRAS'
p3544
S'increases_activity'
p3545
tp3546
(lp3547
s(S'TFDP1'
p3548
S'FOXD3'
p3549
S'increases'
p3550
tp3551
(lp3552
s(S'AR'
p3553
S'TLX2'
p3554
S'increases'
p3555
tp3556
(lp3557
s(S'hsa-miR-181c-5p'
p3558
S'KRAS'
p3559
S'decreases'
p3560
tp3561
(lp3562
s(S'SMAD3'
p3563
S'CBFA2T3'
p3564
S'increases'
p3565
tp3566
(lp3567
s(S'HOXA9'
p3568
S'NRAS'
p3569
S'increases'
p3570
tp3571
(lp3572
s(S'PITX2'
p3573
S'CYP26A1'
p3574
S'increases'
p3575
tp3576
(lp3577
s(S'ATF3'
p3578
S'CYP26A1'
p3579
S'increases'
p3580
tp3581
(lp3582
s(S'E2F1'
p3583
S'MAZ'
p3584
S'increases'
p3585
tp3586
(lp3587
s(S'Ethyl Methanesulfonate'
p3588
S'HRAS MRNA'
p3589
S'increases'
p3590
tp3591
(lp3592
s(S'LMO2'
p3593
S'FOXA1'
p3594
S'increases'
p3595
tp3596
(lp3597
s(S'FOXC1'
p3598
S'POU2F1'
p3599
S'increases'
p3600
tp3601
(lp3602
s(S'DDIT3'
p3603
S'CYP26A1'
p3604
S'increases'
p3605
tp3606
(lp3607
s(S'PAX8'
p3608
S'CYP26A1'
p3609
S'increases'
p3610
tp3611
(lp3612
s(S'LHX3'
p3613
S'EN1'
p3614
S'increases'
p3615
tp3616
(lp3617
s(S'KAT2B'
p3618
S'CYP26A1'
p3619
S'increases'
p3620
tp3621
(lp3622
s(S'P100'
p3623
S'MYB'
p3624
S'binds'
p3625
tp3626
(lp3627
s(S'SOX9'
p3628
S'FOXA1'
p3629
S'increases'
p3630
tp3631
(lp3632
s(S'HIF1A'
p3633
S'EN1'
p3634
S'increases'
p3635
tp3636
(lp3637
s(S'REPIN1'
p3638
S'RUNX1'
p3639
S'increases'
p3640
tp3641
(lp3642
s(S'MYOD1'
p3643
S'BACH1'
p3644
S'increases'
p3645
tp3646
(lp3647
s(S'EBF2'
p3648
S'REPIN1'
p3649
S'increases'
p3650
tp3651
(lp3652
s(S'bisphenol A'
p3653
S'HRAS MRNA'
p3654
S'increases'
p3655
tp3656
(lp3657
s(S'E2F1'
p3658
S'EN1'
p3659
S'increases'
p3660
tp3661
(lp3662
s(S'MYC/Max/MIZ-1'
p3663
S'GALECTIN-1'
p3664
S'decreases'
p3665
tp3666
(lp3667
s(S'PI-3-4-5-P3'
p3668
S'WAVE2/NAP1/SRA1/ABI1/HSPC300'
p3669
S'adds_modification'
p3670
tp3671
(lp3672
s(S'FOXF2'
p3673
S'FOXO3'
p3674
S'increases'
p3675
tp3676
(lp3677
s(S'REPIN1'
p3678
S'STAT5A'
p3679
S'increases'
p3680
tp3681
(lp3682
s(S'RUNX1'
p3683
S'NRAS'
p3684
S'increases'
p3685
tp3686
(lp3687
s(S'benzo(a)pyrene 7,8-dihydrodiol'
p3688
S'HRAS MRNA'
p3689
S'increases'
p3690
tp3691
(lp3692
s(S'RAC1/GTP'
p3693
S'PAK1 (DIMER)'
p3694
S'adds_modification'
p3695
tp3696
(lp3697
s(S'PAX4'
p3698
S'POU2F1'
p3699
S'increases'
p3700
tp3701
(lp3702
s(S'MYOD1'
p3703
S'CBFA2T3'
p3704
S'increases'
p3705
tp3706
(lp3707
s(S'STAT5A'
p3708
S'RUNX2'
p3709
S'increases'
p3710
tp3711
(lp3712
s(S'EBF2'
p3713
S'FOXJ2'
p3714
S'increases'
p3715
tp3716
(lp3717
s(S'Estradiol'
p3718
S'KRAS MRNA'
p3719
S'increases'
p3720
tp3721
(lp3722
s(S'RXRB'
p3723
S'CYP26A1'
p3724
S'increases'
p3725
tp3726
(lp3727
s(S'bisphenol A'
p3728
S'KRAS MRNA'
p3729
S'decreases'
p3730
tp3731
(lp3732
s(S'COMPLEX (GRB2/SOS)'
p3733
S'FGFR1-4'
p3734
S'binds'
p3735
tp3736
(lp3737
s(S'POU2F1'
p3738
S'RUNX1'
p3739
S'increases'
p3740
tp3741
(lp3742
s(S'TCF3'
p3743
S'TLX2'
p3744
S'increases'
p3745
tp3746
(lp3747
s(S'SPZ1'
p3748
S'POU2F1'
p3749
S'increases'
p3750
tp3751
(lp3752
s(S'TFAP4'
p3753
S'FOXO4'
p3754
S'increases'
p3755
tp3756
(lp3757
s(S'OR5I1'
p3758
S'MECOM'
p3759
S'increases'
p3760
tp3761
(lp3762
s(S'Rho Family GTPase-active'
p3763
S'JNK1'
p3764
S'adds_modification'
p3765
tp3766
(lp3767
s(S'TFDP1'
p3768
S'POU2F1'
p3769
S'increases'
p3770
tp3771
(lp3772
s(S'AHR'
p3773
S'MAX'
p3774
S'increases'
p3775
tp3776
(lp3777
s(S'BACH1'
p3778
S'CYP26A1'
p3779
S'increases'
p3780
tp3781
(lp3782
s(S'ZBTB14'
p3783
S'MAZ'
p3784
S'increases'
p3785
tp3786
(lp3787
s(S'TCF3'
p3788
S'FOXO4'
p3789
S'increases'
p3790
tp3791
(lp3792
s(S'MASTERMIND'
p3793
S'NICS'
p3794
S'binds'
p3795
tp3796
(lp3797
s(S'BPTF'
p3798
S'FOXO4'
p3799
S'increases'
p3800
tp3801
(lp3802
s(S'MYOD1'
p3803
S'RUNX1'
p3804
S'increases'
p3805
tp3806
(lp3807
s(S'JUN'
p3808
S'CYP26A1'
p3809
S'increases'
p3810
tp3811
(lp3812
s(S'BPTF'
p3813
S'CYP26A1'
p3814
S'increases'
p3815
tp3816
(lp3817
s(S'POU3F1'
p3818
S'CYP26A1'
p3819
S'increases'
p3820
tp3821
(lp3822
s(S'NRF1'
p3823
S'CYP26A1'
p3824
S'increases'
p3825
tp3826
(lp3827
s(S'TFAP2C'
p3828
S'POU3F2'
p3829
S'increases'
p3830
tp3831
(lp3832
s(S'NFAT1-C-4-INACTIVE2'
p3833
S'YWHAQ'
p3834
S'binds'
p3835
tp3836
(lp3837
s(S'STAT6'
p3838
S'ONECUT1'
p3839
S'increases'
p3840
tp3841
(lp3842
s(S'RUNX1'
p3843
S'RUNX2'
p3844
S'increases'
p3845
tp3846
(lp3847
s(S'ZIC3'
p3848
S'MYCN'
p3849
S'increases'
p3850
tp3851
(lp3852
s(S'CYP26A1'
p3853
S'MAX'
p3854
S'increases'
p3855
tp3856
(lp3857
s(S'ETS2'
p3858
S'FOXO4'
p3859
S'increases'
p3860
tp3861
(lp3862
s(S'GATA6'
p3863
S'FOXA1'
p3864
S'increases'
p3865
tp3866
(lp3867
s(S'Doxorubicin'
p3868
S'HRAS MRNA'
p3869
S'increases'
p3870
tp3871
(lp3872
s(S'PPARA'
p3873
S'HOXA9'
p3874
S'increases'
p3875
tp3876
(lp3877
s(S'REPIN1'
p3878
S'GABPB2'
p3879
S'increases'
p3880
tp3881
(lp3882
s(S'FOXN1'
p3883
S'FOXA1'
p3884
S'increases'
p3885
tp3886
(lp3887
s(S'Dronabinol'
p3888
S'KRAS MRNA'
p3889
S'increases'
p3890
tp3891
(lp3892
s(S'FOXO1'
p3893
S'RUNX1'
p3894
S'increases'
p3895
tp3896
(lp3897
s(S'SMAD4'
p3898
S'HOXA9'
p3899
S'increases'
p3900
tp3901
(lp3902
s(S'PAX4'
p3903
S'JUN'
p3904
S'increases'
p3905
tp3906
(lp3907
s(S'Raf-1'
p3908
S'MEK'
p3909
S'adds_modification'
p3910
tp3911
(lp3912
g668
ag669
ag670
ag671
ag673
ag674
ag676
ag677
ag678
ag679
ag682
as(S'PIM1'
p3913
S'MYC/MAX'
p3914
S'binds'
p3915
tp3916
(lp3917
s(S'YY1'
p3918
S'MECOM'
p3919
S'increases'
p3920
tp3921
(lp3922
s(S'NRF1'
p3923
S'MAZ'
p3924
S'increases'
p3925
tp3926
(lp3927
s(S'GATA1'
p3928
S'MECOM'
p3929
S'increases'
p3930
tp3931
(lp3932
s(S'PDGF/PDGFRA'
p3933
S'SHC/GRB2/SOS1'
p3934
S'increases_activity'
p3935
tp3936
(lp3937
s(S'GRB2/SOS1'
p3938
S'FAK'
p3939
S'binds'
p3940
tp3941
(lp3942
s(S'HNF4A'
p3943
S'HOXA9'
p3944
S'increases'
p3945
tp3946
(lp3947
s(S'FOXA2'
p3948
S'CYP26A1'
p3949
S'increases'
p3950
tp3951
(lp3952
s(S'FOXI1'
p3953
S'CYP26A1'
p3954
S'increases'
p3955
tp3956
(lp3957
s(S'GRB2 BOUND TO TIE2'
p3958
S'SOS1'
p3959
S'binds'
p3960
tp3961
(lp3962
s(S'PHOSPHORYLATED BRF1 (SER54, SER92, SER203):MRNA COMPLEX'
p3963
S'YWHAB'
p3964
S'binds'
p3965
tp3966
(lp3967
s(S'COMPLEX (GRB2/SOS)'
p3968
S'GAB'
p3969
S'binds'
p3970
tp3971
(lp3972
s(S'NFE2'
p3973
S'TLX2'
p3974
S'increases'
p3975
tp3976
(lp3977
s(S'MAX'
p3978
S'FOXF2'
p3979
S'increases'
p3980
tp3981
(lp3982
s(S'GRB2:SOS1'
p3983
S'ACTIVATED FGFR:P-FRS2'
p3984
S'binds'
p3985
tp3986
(lp3987
s(S'FOXO4'
p3988
S'MECOM'
p3989
S'increases'
p3990
tp3991
(lp3992
s(S'TCF3'
p3993
S'LEF1'
p3994
S'increases'
p3995
tp3996
(lp3997
s(S'ZIC1'
p3998
S'LEF1'
p3999
S'increases'
p4000
tp4001
(lp4002
s(S'NFIL3'
p4003
S'CYP26A1'
p4004
S'increases'
p4005
tp4006
(lp4007
s(S'RAF1'
p4008
S'MEK1'
p4009
S'increases_activity'
p4010
tp4011
(lp4012
s(S'AR'
p4013
S'FOXA1'
p4014
S'increases'
p4015
tp4016
(lp4017
s(S'POU2F1'
p4018
S'POU3F2'
p4019
S'increases'
p4020
tp4021
(lp4022
s(S'PCBP1'
p4023
S'MAZ'
p4024
S'increases'
p4025
tp4026
(lp4027
s(S'LEF1'
p4028
S'HOXA9'
p4029
S'increases'
p4030
tp4031
(lp4032
s(S'NR6A1'
p4033
S'CYP26A1'
p4034
S'increases'
p4035
tp4036
(lp4037
s(S'PI3K'
p4038
S'BTK'
p4039
S'translocates'
p4040
tp4041
(lp4042
s(S'AHR'
p4043
S'RUNX1'
p4044
S'increases'
p4045
tp4046
(lp4047
s(S'NR1H4'
p4048
S'CYP26A1'
p4049
S'increases'
p4050
tp4051
(lp4052
s(S'NR2F2'
p4053
S'CYP26A1'
p4054
S'increases'
p4055
tp4056
(lp4057
s(S'GNB1/GNG2'
p4058
S'PI3K'
p4059
S'binds'
p4060
tp4061
(lp4062
s(S'RHOA/GTP'
p4063
S'PKN2'
p4064
S'increases_activity'
p4065
tp4066
(lp4067
s(S'MAZ'
p4068
S'LEF1'
p4069
S'increases'
p4070
tp4071
(lp4072
s(S'RFX1'
p4073
S'MECOM'
p4074
S'increases'
p4075
tp4076
(lp4077
s(S'RUNX1'
p4078
S'HOXA9'
p4079
S'increases'
p4080
tp4081
(lp4082
s(S'FOXL1'
p4083
S'POU2F1'
p4084
S'increases'
p4085
tp4086
(lp4087
s(S'GRB2:SOS1'
p4088
S'PHOSPHORYLATED ERBB2:EGFR HETERODIMERS'
p4089
S'binds'
p4090
tp4091
(lp4092
s(S'TFAP4'
p4093
S'MYCN'
p4094
S'increases'
p4095
tp4096
(lp4097
s(S'E2F1'
p4098
S'GATA1'
p4099
S'increases'
p4100
tp4101
(lp4102
s(S'PTF1A'
p4103
S'GATA6'
p4104
S'increases'
p4105
tp4106
(lp4107
s(S'REL'
p4108
S'CYP26A1'
p4109
S'increases'
p4110
tp4111
(lp4112
s(S'MTF1'
p4113
S'JUN'
p4114
S'increases'
p4115
tp4116
(lp4117
s(S'ZEB1'
p4118
S'REPIN1'
p4119
S'increases'
p4120
tp4121
(lp4122
s(S'IRF8'
p4123
S'GATA6'
p4124
S'increases'
p4125
tp4126
(lp4127
s(S'P-Y349,350-SHC1:PHOSPHORYLATED ERBB2 HETERODIMERS'
p4128
S'GRB2:SOS1'
p4129
S'binds'
p4130
tp4131
(lp4132
s(S'BACH2'
p4133
S'EN1'
p4134
S'increases'
p4135
tp4136
(lp4137
s(S'GFI1'
p4138
S'MEIS1'
p4139
S'increases'
p4140
tp4141
(lp4142
s(S'FOXN1'
p4143
S'LEF1'
p4144
S'increases'
p4145
tp4146
(lp4147
s(S'CYP26A1'
p4148
S'JUN'
p4149
S'increases'
p4150
tp4151
(lp4152
s(S'TCF3'
p4153
S'ONECUT1'
p4154
S'increases'
p4155
tp4156
(lp4157
s(S'FOXF2'
p4158
S'POU2F1'
p4159
S'increases'
p4160
tp4161
(lp4162
s(S'MAZ'
p4163
S'MAX'
p4164
S'increases'
p4165
tp4166
(lp4167
s(S'FOXN1'
p4168
S'CYP26A1'
p4169
S'increases'
p4170
tp4171
(lp4172
s(S'HNF1A'
p4173
S'FOXD3'
p4174
S'increases'
p4175
tp4176
(lp4177
s(S'EGR2'
p4178
S'RUNX1'
p4179
S'increases'
p4180
tp4181
(lp4182
s(S'MYC'
p4183
S'RUNX2'
p4184
S'increases'
p4185
tp4186
(lp4187
s(S'TFAP2A'
p4188
S'IRF1'
p4189
S'increases'
p4190
tp4191
(lp4192
s(S'FOXO4'
p4193
S'YY1'
p4194
S'increases'
p4195
tp4196
(lp4197
s(S'VEGFR2 (dimer)/VEGFA (dimer)'
p4198
S'SRC'
p4199
S'adds_modification'
p4200
tp4201
(lp4202
s(S'resveratrol'
p4203
S'KRAS MRNA'
p4204
S'decreases'
p4205
tp4206
(lp4207
s(S'FOXO4'
p4208
S'CYP26A1'
p4209
S'increases'
p4210
tp4211
(lp4212
s(S'STAT3'
p4213
S'FOXO4'
p4214
S'increases'
p4215
tp4216
(lp4217
s(S'GRB2/SOS1'
p4218
S'FRS2 FAMILY/SHP2'
p4219
S'binds'
p4220
tp4221
(lp4222
s(S'LEF1'
p4223
S'CYP26A1'
p4224
S'increases'
p4225
tp4226
(lp4227
s(S'GTF2A2'
p4228
S'SRF'
p4229
S'increases'
p4230
tp4231
(lp4232
s(S'PPARA'
p4233
S'STAT5A'
p4234
S'increases'
p4235
tp4236
(lp4237
s(S'hsa-miR-143-3p'
p4238
S'KRAS'
p4239
S'decreases'
p4240
tp4241
(lp4242
s(S'GFI1'
p4243
S'CYP26A1'
p4244
S'increases'
p4245
tp4246
(lp4247
s(S'RAC1/GTP'
p4248
S'MKK4-MKK7'
p4249
S'increases_activity'
p4250
tp4251
(lp4252
s(S'REPIN1'
p4253
S'ETS1'
p4254
S'increases'
p4255
tp4256
(lp4257
s(S'ZIC1'
p4258
S'GATA6'
p4259
S'increases'
p4260
tp4261
(lp4262
s(S'INTERLEUKIN RECEPTOR COMPLEXES WITH ACTIVATED SHC1'
p4263
S'GRB2:SOS1'
p4264
S'binds'
p4265
tp4266
(lp4267
s(S'Selenium'
p4268
S'HRAS MRNA'
p4269
S'increases'
p4270
tp4271
(lp4272
s(S'HOXA4'
p4273
S'CYP26A1'
p4274
S'increases'
p4275
tp4276
(lp4277
s(S'NKX2-1'
p4278
S'POU2F1'
p4279
S'increases'
p4280
tp4281
(lp4282
s(S'VSX1'
p4283
S'MAX'
p4284
S'increases'
p4285
tp4286
(lp4287
s(S'FOXD1'
p4288
S'FOXD3'
p4289
S'increases'
p4290
tp4291
(lp4292
s(S'MAX'
p4293
S'NRAS'
p4294
S'increases'
p4295
tp4296
(lp4297
s(S'HOXA9'
p4298
S'TCF3'
p4299
S'increases'
p4300
tp4301
(lp4302
s(S'IRF1'
p4303
S'CYP26A1'
p4304
S'increases'
p4305
tp4306
(lp4307
s(S'HRAS'
p4308
S'RAF1'
p4309
S'adds_modification'
p4310
tp4311
(lp4312
s(S'CUX1'
p4313
S'HOXA9'
p4314
S'increases'
p4315
tp4316
(lp4317
s(S'ZHX2'
p4318
S'FOXA1'
p4319
S'increases'
p4320
tp4321
(lp4322
s(S'TFDP1'
p4323
S'MYC'
p4324
S'increases'
p4325
tp4326
(lp4327
s(S'RAC1/GTP'
p4328
S'PAK1'
p4329
S'increases_activity'
p4330
tp4331
(lp4332
s(S'AHR'
p4333
S'MAZ'
p4334
S'increases'
p4335
tp4336
(lp4337
s(S'BRAF/14-3-3'
p4338
S'KSR/14-3-3 /MEK1-2'
p4339
S'increases_activity'
p4340
tp4341
(lp4342
s(S'PPARA'
p4343
S'CYP26A1'
p4344
S'increases'
p4345
tp4346
(lp4347
s(S'REPIN1'
p4348
S'SRF'
p4349
S'increases'
p4350
tp4351
(lp4352
s(S'PAX5'
p4353
S'SRF'
p4354
S'increases'
p4355
tp4356
(lp4357
s(S'PAX4'
p4358
S'FOXJ2'
p4359
S'increases'
p4360
tp4361
(lp4362
s(S'REPIN1'
p4363
S'MYCN'
p4364
S'increases'
p4365
tp4366
(lp4367
s(S'RALA/GTP'
p4368
S'SRC'
p4369
S'adds_modification'
p4370
tp4371
(lp4372
s(S'FOXO4'
p4373
S'ETS1'
p4374
S'increases'
p4375
tp4376
(lp4377
s(S'TFDP1'
p4378
S'CDC5L'
p4379
S'increases'
p4380
tp4381
(lp4382
s(S'TFDP1'
p4383
S'CYP26A1'
p4384
S'increases'
p4385
tp4386
(lp4387
s(S'GATA6'
p4388
S'RUNX2'
p4389
S'increases'
p4390
tp4391
(lp4392
s(S'FOXM1'
p4393
S'CYP26A1'
p4394
S'increases'
p4395
tp4396
(lp4397
s(S'sodium arsenite'
p4398
S'HRAS PROTEIN'
p4399
S'increases'
p4400
tp4401
(lp4402
s(S'STAT5A'
p4403
S'RUNX1'
p4404
S'increases'
p4405
tp4406
(lp4407
s(S'CEBPA'
p4408
S'EN1'
p4409
S'increases'
p4410
tp4411
(lp4412
s(S'MSX1'
p4413
S'POU2F1'
p4414
S'increases'
p4415
tp4416
(lp4417
s(S'NHLH1'
p4418
S'CBFA2T3'
p4419
S'increases'
p4420
tp4421
(lp4422
s(S'Parathion'
p4423
S'HRAS PROTEIN'
p4424
S'increases'
p4425
tp4426
(lp4427
s(S'SMAD4'
p4428
S'CYP26A1'
p4429
S'increases'
p4430
tp4431
(lp4432
s(S'E2F1'
p4433
S'MYC'
p4434
S'increases'
p4435
tp4436
(lp4437
S'MAPK14, AKT1, EP300, HDAC1, TP53, E2F1, SMAD3, GNB1, MYC, and SRC were found to be hubs of the PPIs network of downregulated target genes of the 6 miRNAs.'
p4438
aS'Among the hubs, EP300, HDAC1, TP53, E2F1, SMAD3, and MYC were involved in the regulation of cell cycle ['
p4439
as(S'CYP26A1'
p4440
S'FOXO3'
p4441
S'increases'
p4442
tp4443
(lp4444
s(S'TCF3'
p4445
S'CBFA2T3'
p4446
S'increases'
p4447
tp4448
(lp4449
s(S'ZHX2'
p4450
S'FOXF2'
p4451
S'increases'
p4452
tp4453
(lp4454
s(S'POU2F1'
p4455
S'MECOM'
p4456
S'increases'
p4457
tp4458
(lp4459
s(S'CYP26A1'
p4460
S'POU2F1'
p4461
S'increases'
p4462
tp4463
(lp4464
s(S'MYOD1'
p4465
S'CYP26A1'
p4466
S'increases'
p4467
tp4468
(lp4469
s(S'RAF'
p4470
S'COMPLEX (RAS/GTP)'
p4471
S'binds'
p4472
tp4473
(lp4474
s(S'RET51/GFRalpha1/GDNF/DOK1'
p4475
S'HRAS/GDP'
p4476
S'increases_activity'
p4477
tp4478
(lp4479
s(S'MAFG'
p4480
S'CYP26A1'
p4481
S'increases'
p4482
tp4483
(lp4484
s(S'CRX'
p4485
S'CYP26A1'
p4486
S'increases'
p4487
tp4488
(lp4489
s(S'hsa-miR-126-3p'
p4490
S'KRAS'
p4491
S'decreases'
p4492
tp4493
(lp4494
s(S'EBF2'
p4495
S'CYP26A1'
p4496
S'increases'
p4497
tp4498
(lp4499
s(S'RUNX1'
p4500
S'CYP26A1'
p4501
S'increases'
p4502
tp4503
(lp4504
s(S'HOXA5'
p4505
S'FOXA1'
p4506
S'increases'
p4507
tp4508
(lp4509
s(S'benzo(a)pyrene-3,6-quinone'
p4510
S'HRAS MRNA'
p4511
S'increases'
p4512
tp4513
(lp4514
s(S'K 7174'
p4515
S'HRAS MRNA'
p4516
S'decreases'
p4517
tp4518
(lp4519
s(S'LEF1'
p4520
S'NRAS'
p4521
S'increases'
p4522
tp4523
(lp4524
s(S'SPI1'
p4525
S'FOXA1'
p4526
S'increases'
p4527
tp4528
(lp4529
s(S'hsa-let-7b-5p'
p4530
S'NRAS'
p4531
S'decreases'
p4532
tp4533
(lp4534
s(S'CEBPA'
p4535
S'JUN'
p4536
S'increases'
p4537
tp4538
(lp4539
s(S'GABPB2'
p4540
S'CYP26A1'
p4541
S'increases'
p4542
tp4543
(lp4544
s(S'PI-3-4-5-P3'
p4545
S'MTOR'
p4546
S'increases_activity'
p4547
tp4548
(lp4549
s(S'GRB2:SOS1'
p4550
S'EGF:P-6Y-EGFR'
p4551
S'binds'
p4552
tp4553
(lp4554
s(S'HNF1A'
p4555
S'CYP26A1'
p4556
S'increases'
p4557
tp4558
(lp4559
s(S'HIF1A'
p4560
S'FOXO4'
p4561
S'increases'
p4562
tp4563
(lp4564
s(S'FOXJ1'
p4565
S'HOXA9'
p4566
S'increases'
p4567
tp4568
(lp4569
s(S'hsa-miR-96-5p'
p4570
S'KRAS'
p4571
S'decreases'
p4572
tp4573
(lp4574
s(S'SRC'
p4575
S'SYNDECAN-2/RASGAP'
p4576
S'binds'
p4577
tp4578
(lp4579
s(S'FOXA1'
p4580
S'MEIS1'
p4581
S'increases'
p4582
tp4583
(lp4584
s(S'LEF1'
p4585
S'MEIS1'
p4586
S'increases'
p4587
tp4588
(lp4589
s(S'PAX3'
p4590
S'CYP26A1'
p4591
S'increases'
p4592
tp4593
(lp4594
s(S'PAX4'
p4595
S'HOXA9'
p4596
S'increases'
p4597
tp4598
(lp4599
s(S'hsa-miR-18a-3p'
p4600
S'KRAS'
p4601
S'decreases'
p4602
tp4603
(lp4604
s(S'FOXF2'
p4605
S'EN1'
p4606
S'increases'
p4607
tp4608
(lp4609
s(S'Pyk2'
p4610
S'SRC FAMILY KINASES'
p4611
S'increases_activity'
p4612
tp4613
(lp4614
s(S'TP53'
p4615
S'HOXA9'
p4616
S'increases'
p4617
tp4618
(lp4619
s(S'Genistein'
p4620
S'KRAS MRNA'
p4621
S'decreases'
p4622
tp4623
(lp4624
s(S'POU1F1'
p4625
S'CYP26A1'
p4626
S'increases'
p4627
tp4628
(lp4629
s(S'manumycin'
p4630
S'KRAS PROTEIN'
p4631
S'decreases_activity'
p4632
tp4633
(lp4634
s(S'Ginkgo biloba extract 761'
p4635
S'GCLC PROTEIN'
p4636
S'increases'
p4637
tp4638
(lp4639
s(S'GATA1'
p4640
S'NRAS'
p4641
S'increases'
p4642
tp4643
(lp4644
s(S'CBFA2T3'
p4645
S'FOXF2'
p4646
S'increases'
p4647
tp4648
(lp4649
s(S'PCBP1'
p4650
S'ELK1'
p4651
S'increases'
p4652
tp4653
(lp4654
s(S'MYC'
p4655
S'FOXF2'
p4656
S'increases'
p4657
tp4658
(lp4659
s(S'hsa-mir-622'
p4660
S'KRAS'
p4661
S'decreases'
p4662
tp4663
(lp4664
s(S'TCF3'
p4665
S'MAZ'
p4666
S'increases'
p4667
tp4668
(lp4669
s(S'STAT2'
p4670
S'MEIS1'
p4671
S'increases'
p4672
tp4673
(lp4674
s(S'CYP26A1'
p4675
S'YY1'
p4676
S'increases'
p4677
tp4678
(lp4679
s(S'CYP26A1'
p4680
S'EN1'
p4681
S'increases'
p4682
tp4683
(lp4684
s(S'GRB2/SOS1'
p4685
S'SHC'
p4686
S'binds'
p4687
tp4688
(lp4689
s(S'BAD'
p4690
S'YWHAZ'
p4691
S'binds'
p4692
tp4693
(lp4694
s(S'SPI1'
p4695
S'MAX'
p4696
S'increases'
p4697
tp4698
(lp4699
s(S'PI-3-4-5-P3'
p4700
S'CENTA1'
p4701
S'translocates'
p4702
tp4703
(lp4704
s(S'XBP1'
p4705
S'CYP26A1'
p4706
S'increases'
p4707
tp4708
(lp4709
s(S'PAX4'
p4710
S'NRAS'
p4711
S'increases'
p4712
tp4713
(lp4714
s(S'PI3K'
p4715
S'EPHRIN A1/EPHA2'
p4716
S'binds'
p4717
tp4718
(lp4719
s(S'POU1F1'
p4720
S'MEIS1'
p4721
S'increases'
p4722
tp4723
(lp4724
s(S'NR3C1'
p4725
S'ETS1'
p4726
S'increases'
p4727
tp4728
(lp4729
s(S'MAZ'
p4730
S'POU3F2'
p4731
S'increases'
p4732
tp4733
(lp4734
s(S'Estradiol'
p4735
S'HRAS MRNA'
p4736
S'increases'
p4737
tp4738
(lp4739
s(S'Aflatoxin B1'
p4740
S'HRAS PROTEIN'
p4741
S'increases'
p4742
tp4743
(lp4744
s(S'ETV7'
p4745
S'STAT4'
p4746
S'increases'
p4747
tp4748
(lp4749
s(S'PBX1'
p4750
S'LEF1'
p4751
S'increases'
p4752
tp4753
(lp4754
s(S'CEBPB'
p4755
S'CYP26A1'
p4756
S'increases'
p4757
tp4758
(lp4759
s(S'MAZ'
p4760
S'JUN'
p4761
S'increases'
p4762
tp4763
(lp4764
s(S'FOXF2'
p4765
S'MYC'
p4766
S'increases'
p4767
tp4768
(lp4769
s(S'FOXJ2'
p4770
S'HOXA9'
p4771
S'increases'
p4772
tp4773
(lp4774
s(S'Capsaicin'
p4775
S'HRAS MRNA'
p4776
S'increases'
p4777
tp4778
(lp4779
s(S'POU3F1'
p4780
S'GATA6'
p4781
S'increases'
p4782
tp4783
(lp4784
s(S'EIF2A'
p4785
S'14-3-3 E'
p4786
S'binds'
p4787
tp4788
(lp4789
s(S'RAS family/GTP'
p4790
S'RAF1-BRAF'
p4791
S'increases_activity'
p4792
tp4793
(lp4794
s(S'GATA6'
p4795
S'GATA1'
p4796
S'increases'
p4797
tp4798
(lp4799
s(S'RASA1'
p4800
S'PHOSPHO PDGF BETA RECEPTOR: PDGF CHAIN B HOMODIMER'
p4801
S'binds'
p4802
tp4803
(lp4804
s(S'CART1'
p4805
S'POU2F1'
p4806
S'increases'
p4807
tp4808
(lp4809
s(S'ZIC3'
p4810
S'POU2F1'
p4811
S'increases'
p4812
tp4813
(lp4814
s(S'TCF4'
p4815
S'FOXA1'
p4816
S'increases'
p4817
tp4818
(lp4819
s(S'PKC theta'
p4820
S'RASGRP1'
p4821
S'adds_modification'
p4822
tp4823
(lp4824
s(S'PTF1A'
p4825
S'STAT5A'
p4826
S'increases'
p4827
tp4828
(lp4829
s(S'SPI1'
p4830
S'FOXO4'
p4831
S'increases'
p4832
tp4833
(lp4834
s(S'HNF1A'
p4835
S'GATA6'
p4836
S'increases'
p4837
tp4838
(lp4839
s(S'FOXJ1'
p4840
S'RUNX1'
p4841
S'increases'
p4842
tp4843
(lp4844
s(S'STAT2'
p4845
S'GATA6'
p4846
S'increases'
p4847
tp4848
(lp4849
s(S'RAS FAMILY/GTP'
p4850
S'PI3K'
p4851
S'binds'
p4852
tp4853
(lp4854
s(S'PAX4'
p4855
S'IRF1'
p4856
S'increases'
p4857
tp4858
(lp4859
s(S'PAX3'
p4860
S'HOXA9'
p4861
S'increases'
p4862
tp4863
(lp4864
s(S'MYB'
p4865
S'MAZ'
p4866
S'increases'
p4867
tp4868
(lp4869
s(S"Guanosine-5'-Triphosphate"
p4870
S'HRAS'
p4871
S'increases_activity'
p4872
tp4873
(lp4874
s(S'alpha9/beta1 Integrin/Tenascin C'
p4875
S'SRC'
p4876
S'adds_modification'
p4877
tp4878
(lp4879
s(S'RAF1'
p4880
S'MEK1'
p4881
S'adds_modification'
p4882
tp4883
(lp4884
s(S'JUN'
p4885
S'FOXA1'
p4886
S'increases'
p4887
tp4888
(lp4889
s(S'NFE2L2'
p4890
S'BACH1'
p4891
S'increases'
p4892
tp4893
(lp4894
s(S'CUX1'
p4895
S'FOXD3'
p4896
S'increases'
p4897
tp4898
(lp4899
s(S'JUN'
p4900
S'EN1'
p4901
S'increases'
p4902
tp4903
(lp4904
s(S'ESR1'
p4905
S'CYP26A1'
p4906
S'increases'
p4907
tp4908
(lp4909
s(S'ESRRA'
p4910
S'FOXA1'
p4911
S'increases'
p4912
tp4913
(lp4914
s(S'POU2F1'
p4915
S'MEIS1'
p4916
S'increases'
p4917
tp4918
(lp4919
s(S'TFCP2'
p4920
S'FOXA1'
p4921
S'increases'
p4922
tp4923
(lp4924
s(S'PI-3-4-5-P3'
p4925
S'PDK1'
p4926
S'increases_activity'
p4927
tp4928
(lp4929
s(S'TCF3'
p4930
S'FOXA1'
p4931
S'increases'
p4932
tp4933
(lp4934
s(S'STAT3'
p4935
S'CYP26A1'
p4936
S'increases'
p4937
tp4938
(lp4939
s(S'CYP26A1'
p4940
S'POU3F2'
p4941
S'increases'
p4942
tp4943
(lp4944
s(S'Curcumin'
p4945
S'KRAS MRNA'
p4946
S'decreases'
p4947
tp4948
(lp4949
s(S'STAT1'
p4950
S'CYP26A1'
p4951
S'increases'
p4952
tp4953
(lp4954
s(S'GFI1'
p4955
S'POU2F1'
p4956
S'increases'
p4957
tp4958
(lp4959
s(S'ZIC1'
p4960
S'POU2F1'
p4961
S'increases'
p4962
tp4963
(lp4964
s(S'PI-3-4-5-P3'
p4965
S'AKT3'
p4966
S'adds_modification'
p4967
tp4968
(lp4969
s(S'BACH1'
p4970
S'NRAS'
p4971
S'increases'
p4972
tp4973
(lp4974
s(S'SCF/KIT'
p4975
S'SHC/GRB2/SOS1'
p4976
S'increases_activity'
p4977
tp4978
(lp4979
s(S'CDX2'
p4980
S'CYP26A1'
p4981
S'increases'
p4982
tp4983
(lp4984
s(S'RET51/GFRalpha1/GDNF/DOK/RasGAP/NCK'
p4985
S'HRAS/GDP'
p4986
S'decreases_activity'
p4987
tp4988
(lp4989
s(S'BETAPIX'
p4990
S'RAC1/GTP'
p4991
S'binds'
p4992
tp4993
(lp4994
s(S'RHOA/GTP'
p4995
S'CITRON'
p4996
S'increases_activity'
p4997
tp4998
(lp4999
s(S'P-SHC1:GRB2:SOS'
p5000
S'P-5Y-LAT-2'
p5001
S'binds'
p5002
tp5003
(lp5004
s(S'PAX4'
p5005
S'CYP26A1'
p5006
S'increases'
p5007
tp5008
(lp5009
s(S'TCF3'
p5010
S'KRAS'
p5011
S'increases'
p5012
tp5013
(lp5014
s(S'GRB2:SOS1'
p5015
S'PHOSPHORYLATED ERBB2:ERBB4 HETERODIMERS'
p5016
S'binds'
p5017
tp5018
(lp5019
s(S'CDX2'
p5020
S'MEIS1'
p5021
S'increases'
p5022
tp5023
(lp5024
s(S'SP3'
p5025
S'RUNX1'
p5026
S'increases'
p5027
tp5028
(lp5029
s(S'REST'
p5030
S'CYP26A1'
p5031
S'increases'
p5032
tp5033
(lp5034
s(S'PTF1A'
p5035
S'CYP26A1'
p5036
S'increases'
p5037
tp5038
(lp5039
s(S'PI-3-4-5-P3'
p5040
S'PI3K/GAB1'
p5041
S'translocates'
p5042
tp5043
(lp5044
s(S'LMO2'
p5045
S'FOXO4'
p5046
S'increases'
p5047
tp5048
(lp5049
s(S'STAT4'
p5050
S'ETS1'
p5051
S'increases'
p5052
tp5053
(lp5054
s(S'GTF2A2'
p5055
S'HOXA9'
p5056
S'increases'
p5057
tp5058
(lp5059
s(S'FOXF2'
p5060
S'POU3F2'
p5061
S'increases'
p5062
tp5063
(lp5064
s(S'GATA1'
p5065
S'GABPB2'
p5066
S'increases'
p5067
tp5068
(lp5069
s(S'Polychlorinated Biphenyls'
p5070
S'KRAS MRNA'
p5071
S'decreases'
p5072
tp5073
(lp5074
s(S'GRB2/SOS1'
p5075
S'EGF/EGFR DIMER/SHC'
p5076
S'binds'
p5077
tp5078
(lp5079
s(S'CYP26A1'
p5080
S'FOXF2'
p5081
S'increases'
p5082
tp5083
(lp5084
s(S'EGR1'
p5085
S'CYP26A1'
p5086
S'increases'
p5087
tp5088
(lp5089
s(S'MAX'
p5090
S'FOXO3'
p5091
S'increases'
p5092
tp5093
(lp5094
s(S'T-DHT/AR/PELP1'
p5095
S'SRC'
p5096
S'binds'
p5097
tp5098
(lp5099
s(S'CUX1'
p5100
S'FOXF2'
p5101
S'increases'
p5102
tp5103
(lp5104
s(S'CEBPD'
p5105
S'CYP26A1'
p5106
S'increases'
p5107
tp5108
(lp5109
s(S'CBFA2T3'
p5110
S'NRAS'
p5111
S'increases'
p5112
tp5113
(lp5114
s(S'Cisplatin'
p5115
S'HRAS MRNA'
p5116
S'translocates'
p5117
tp5118
(lp5119
s(S'BAD/BCL-X(L)'
p5120
S'YWHAZ'
p5121
S'binds'
p5122
tp5123
(lp5124
s(S'GATA1'
p5125
S'FOXA1'
p5126
S'increases'
p5127
tp5128
(lp5129
s(S'RREB1'
p5130
S'CYP26A1'
p5131
S'increases'
p5132
tp5133
(lp5134
s(S'STAT4'
p5135
S'RUNX2'
p5136
S'increases'
p5137
tp5138
(lp5139
s(S'FOXD3'
p5140
S'NRAS'
p5141
S'increases'
p5142
tp5143
(lp5144
s(S'NDEL1'
p5145
S'14-3-3 E'
p5146
S'binds'
p5147
tp5148
(lp5149
s(S'CYP26A1'
p5150
S'REPIN1'
p5151
S'increases'
p5152
tp5153
(lp5154
s(S'MAF'
p5155
S'CDC5L'
p5156
S'increases'
p5157
tp5158
(lp5159
s(S'CYP26A1'
p5160
S'ELK1'
p5161
S'increases'
p5162
tp5163
(lp5164
s(S'MYC'
p5165
S'FOXD3'
p5166
S'increases'
p5167
tp5168
(lp5169
s(S'MAX'
p5170
S'FOXD3'
p5171
S'increases'
p5172
tp5173
(lp5174
s(S'POU1F1'
p5175
S'GATA6'
p5176
S'increases'
p5177
tp5178
(lp5179
s(S'POU2F1'
p5180
S'STAT4'
p5181
S'increases'
p5182
tp5183
(lp5184
s(S'GTF3A'
p5185
S'FOXO3'
p5186
S'increases'
p5187
tp5188
(lp5189
s(S'MYB'
p5190
S'FOXF2'
p5191
S'increases'
p5192
tp5193
(lp5194
s(S'ZIC3'
p5195
S'CYP26A1'
p5196
S'increases'
p5197
tp5198
(lp5199
s(S'POU2F1'
p5200
S'EN1'
p5201
S'increases'
p5202
tp5203
(lp5204
s(S'JUN'
p5205
S'STAT1'
p5206
S'increases'
p5207
tp5208
(lp5209
s(S'TEF'
p5210
S'CYP26A1'
p5211
S'increases'
p5212
tp5213
(lp5214
s(S'MAF'
p5215
S'CYP26A1'
p5216
S'increases'
p5217
tp5218
(lp5219
s(S'PAX4'
p5220
S'GATA6'
p5221
S'increases'
p5222
tp5223
(lp5224
s(S'ZIC2'
p5225
S'GATA6'
p5226
S'increases'
p5227
tp5228
(lp5229
s(S'hsa-miR-181d-5p'
p5230
S'HRAS'
p5231
S'decreases'
p5232
tp5233
(lp5234
s(S'BACH2'
p5235
S'CYP26A1'
p5236
S'increases'
p5237
tp5238
(lp5239
s(S'TCF12'
p5240
S'CYP26A1'
p5241
S'increases'
p5242
tp5243
(lp5244
s(S'GATA1'
p5245
S'FOXO4'
p5246
S'increases'
p5247
tp5248
(lp5249
s(S'RFX1'
p5250
S'FOXD3'
p5251
S'increases'
p5252
tp5253
(lp5254
s(S'FOXJ1'
p5255
S'CYP26A1'
p5256
S'increases'
p5257
tp5258
(lp5259
s(S'GTF2A2'
p5260
S'POU2F1'
p5261
S'increases'
p5262
tp5263
(lp5264
s(S'YY1'
p5265
S'SRF'
p5266
S'increases'
p5267
tp5268
(lp5269
s(S'AHR'
p5270
S'REPIN1'
p5271
S'increases'
p5272
tp5273
(lp5274
s(S'MAZ'
p5275
S'CYP26A1'
p5276
S'increases'
p5277
tp5278
(lp5279
s(S'Quercetin'
p5280
S'HRAS MRNA'
p5281
S'increases'
p5282
tp5283
(lp5284
s(S'ELK1'
p5285
S'NRAS'
p5286
S'increases'
p5287
tp5288
(lp5289
s(S'HIF1A'
p5290
S'ONECUT1'
p5291
S'increases'
p5292
tp5293
(lp5294
s(S'FOXF2'
p5295
S'CYP26A1'
p5296
S'increases'
p5297
tp5298
(lp5299
s(S'SOX9'
p5300
S'ETS1'
p5301
S'increases'
p5302
tp5303
(lp5304
s(S'HSF1'
p5305
S'JUN'
p5306
S'increases'
p5307
tp5308
(lp5309
s(S'CEBPA'
p5310
S'CYP26A1'
p5311
S'increases'
p5312
tp5313
(lp5314
s(S'NR1H4'
p5315
S'MEIS1'
p5316
S'increases'
p5317
tp5318
(lp5319
s(S'SMAD1'
p5320
S'GATA1'
p5321
S'increases'
p5322
tp5323
(lp5324
s(S'Quercetin'
p5325
S'HRAS MRNA'
p5326
S'decreases'
p5327
tp5328
(lp5329
s(S'Glycyrrhetinic Acid'
p5330
S'HRAS PROTEIN'
p5331
S'decreases'
p5332
tp5333
(lp5334
s(S'HOXA4'
p5335
S'POU2F1'
p5336
S'increases'
p5337
tp5338
(lp5339
s(S'FOXQ1'
p5340
S'CYP26A1'
p5341
S'increases'
p5342
tp5343
(lp5344
s(S'FOXI1'
p5345
S'CEBPA'
p5346
S'increases'
p5347
tp5348
(lp5349
s(S'GTF3A'
p5350
S'MYCN'
p5351
S'increases'
p5352
tp5353
(lp5354
s(S'LMO2'
p5355
S'IRF1'
p5356
S'increases'
p5357
tp5358
(lp5359
s(S'FOXO1'
p5360
S'CYP26A1'
p5361
S'increases'
p5362
tp5363
(lp5364
s(S'Copper Sulfate'
p5365
S'NRAS MRNA'
p5366
S'increases'
p5367
tp5368
(lp5369
s(S'TFAP2A'
p5370
S'CYP26A1'
p5371
S'increases'
p5372
tp5373
(lp5374
s(S'FOXJ1'
p5375
S'EN1'
p5376
S'increases'
p5377
tp5378
(lp5379
s(S'MEIS1'
p5380
S'RUNX1'
p5381
S'increases'
p5382
tp5383
(lp5384
s(S'MAZ'
p5385
S'FOXA1'
p5386
S'increases'
p5387
tp5388
(lp5389
s(S'ETS1'
p5390
S'FOXO4'
p5391
S'increases'
p5392
tp5393
(lp5394
s(S'ZBTB14'
p5395
S'FOXD3'
p5396
S'increases'
p5397
tp5398
(lp5399
s(S'FOXC1'
p5400
S'LEF1'
p5401
S'increases'
p5402
tp5403
(lp5404
s(S'IRF1'
p5405
S'EN1'
p5406
S'increases'
p5407
tp5408
(lp5409
s(S'NR3C1'
p5410
S'CYP26A1'
p5411
S'increases'
p5412
tp5413
(lp5414
s(S'VSX1'
p5415
S'BACH1'
p5416
S'increases'
p5417
tp5418
(lp5419
s(S'CYP26A1'
p5420
S'ETS1'
p5421
S'increases'
p5422
tp5423
(lp5424
s(S'CEBPA'
p5425
S'MEIS1'
p5426
S'increases'
p5427
tp5428
(lp5429
s(S'ELF1'
p5430
S'FOXO4'
p5431
S'increases'
p5432
tp5433
(lp5434
s(S'RXRA'
p5435
S'CYP26A1'
p5436
S'increases'
p5437
tp5438
(lp5439
s(S'CREB1'
p5440
S'CYP26A1'
p5441
S'increases'
p5442
tp5443
(lp5444
s(S'IRF7'
p5445
S'GATA6'
p5446
S'increases'
p5447
tp5448
(lp5449
s(S'ZEB1'
p5450
S'CYP26A1'
p5451
S'increases'
p5452
tp5453
(lp5454
s(S'AR'
p5455
S'CYP26A1'
p5456
S'increases'
p5457
tp5458
(lp5459
s(S'TFDP2'
p5460
S'MYC'
p5461
S'increases'
p5462
tp5463
(lp5464
s(S'hsa-mir-217'
p5465
S'KRAS'
p5466
S'decreases'
p5467
tp5468
(lp5469
s(S'MEK'
p5470
S'ERK'
p5471
S'adds_modification'
p5472
tp5473
(lp5474
S'BRAF together with ARAF and CRAF activates a second protein known as mitogen-activated protein kinase kinase (MEK), which in turn activates extracellular signal-regulated kinase (ERK).'
p5475
ag654
ag655
ag656
aS'We previously reported that ERK2 phosphorylates TFEB and, in cells treated with an MEK inhibitor, the TFEB nuclear fraction was increased ('
p5476
aS'BRAF is a serine-threonine protein kinase component of the RAS/RAF/MEK/extracellular signal-regulated kinase (ERK) signalling pathway and is activated by somatic mutations, giving rise to gain of function in human cancers (Davies et al, '
p5477
aS'SMO-independent signal inputs such as RAS-MEK/ERK have been shown to modify the transcriptional activity of GLI proteins (Riobo et al, '
p5478
aS'Analysis of RAS/MEK/ERK signalling and JUN activation in human HaCaT keratinocytes in response to various receptor tyrosine kinase (RTK) ligands.'
p5479
aS'The RAF family member B-RAF is a serine/threonine kinase that is activated by RAS and, in turn, activates the MEK-ERK pathway.'
p5480
aS'The RAF/MEK/ERK1/2 signalling cascade is both necessary and sufficient for the establishment of oncogenic K-RAS-induced OIS (Lin et al, '
p5481
aS'Taken together, these data indicate that PML protein upregulation depends on the RAS/MEK/ERK/mTOR signalling cascade and that eIF4E is the final effector of this signalling cascade when pertaining to PML protein upregulation.'
p5482
aS'Because DIAPH3 silencing induces amoeboid behaviour and strongly activates ERK, we tested the relevance of MEK/ERK signalling in this scenario.'
p5483
aS'IGF-2 exerts its effects by binding to the IGF-1 receptor and activating both the PI3K-AKT-mTOR and RAS-RAF-MEK-ERK downstream signalling pathways.'
p5484
aS'The interaction of C5a with C5aR (CD88) triggers series of responses initiated by interaction of the cytoplasmic tail of C5aR with G-proteins, followed by engagement and activation of the signalling molecules, RAS, RAF-1, MEK1/2 and ERK1/2.'
p5485
ag659
aS'Here, we investigated the effect of inhibiting the MAPK/MEK/ERK pathway on T-ALL cell growth.'
p5486
aS'In the present work, we investigated whether inhibition of the MEK/ERK pathway could hinder T-ALL progression.'
p5487
aS'As ERK1/2 phosphorylation was decreased in T-ALL blasts but also in MS5 cells following incubation with the MEKi PD184352 (Fig '
p5488
aS'Attenuation of the neuritogenic effect of M30 and HLA20 by specific inhibitors of PKC and MAPK/ERK kinase (MEK).'
p5489
ag660
aS'phosphatase and tensin homologue deleted on chromosome ten (PTEN), and studies have implicated both the MEK/ERK and PI3K pathways in HIF-1 regulation ('
p5490
aS'Activating mutations within the RAF/MEK/ERK and PI3K pathways have been associated with oncogenic transformation in thyroid cancer.'
p5491
aS'Reintroduction of PTEN into the FTC-133 line reduced HIF-1 activity and rendered it less susceptible to inhibition via pharmacological manipulation of either the PI3K or RAF/MEK/ERK pathways.'
p5492
aS'These results indicate that oncoproteins such as RET/PTC activate the MEK/ERK cascade, which then promotes an initial wave of dramatic cell proliferation that, in turn, initiates tumor development, but subsequent development of a solid cancer requires an additional unknown lesion or alteration ('
p5493
aS'RTK, receptor tyrosine kinase; TRK, tropomyosin-receptor-kinase; RAS, rat sarcoma; RET/PTC, rearranged during transfection/papillary thyroid cancer; BRAF, v-raf murine sarcoma viral oncogene homolog B1; MEK, mitogen-activated protein kinase; ERK, extracellular signal-related kinase.'
p5494
aS'It is known that exposure to arsenic initiates GF receptor signaling and Ras-dependent activation of MEK1/2 and ERK1/2.'
p5495
aS'Second, we have extended our mechanistic understanding of the role of the MEK-ERK1/2 pathway in up-regulating the '
p5496
aS'MAP kinase signaling via the RAS-RAF-MEK-ERK1/2 pathway is necessary for the DEP MMP-1 response in HBE.'
p5497
aS'DEPs lead to activation of the membrane-bound GTPase RAS, which in turn switches on the MEK-ERK1/2 MAP kinase via RAF signaling.'
p5498
aS'Moreover, PP2a can dephosphorylate and inactivate MEK1 and ERK-family kinases, therefore, inhibiting mitogenic signals; this effect is obtained directly and indirectly, through the inactivation of PKC'
p5499
aS'To gain further insight into the molecular mechanisms by which MK3 controls M/SAPK activity, we studied MEK, an ERK effector kinase.'
p5500
aS'pFastBAC vector encoding N-terminal hexahistidine-tagged human ERK5 and HA-tagged human MEK5-DD (constitutively active) were used to generate recombinant baculovirus using the Bac-to-Bac system (Invitrogen). '
p5501
aS'Dual inhibitors of ERK5 and MEK5.'
p5502
aS'It is reported that macrolide antibiotics activate MEK/ERK pathway and increases IL-8 production in bronchial epithelial cells ['
p5503
aS'To study the signaling pathway involved in the pathophysiological processes of NAFLD induced by the elevation of FFA and the effects of SAMC intervention, we measured the phosphorylation status and total expression of MAPK kinases signaling pathways including p38 MAPK, JNK and MEK/ERK, which play important roles in insulin and inflammatory responses ['
p5504
aS'These intriguing results indicated that C1 extract could specifically interrupt the insulin-signaling cascade between MEK1/2 and ERK1/2.'
p5505
aS'The C1 extract specifically reduced the activation of ERK1/2 without affecting the degree of phosphorylation of MEK1/2 on two other transformed cell lines HT-1080 and MSV-MDCK-INV cells.'
p5506
aS'Unsaponifiable fraction C1 exerts a different action on MEK1/2 and ERK1/2 activity in response to insulin in HTC cells.'
p5507
aS'ERK1/2 and MEK1/2 phosphorylation status in HT-1080 and MSV-MDCK-INV cells after C1 treatment.'
p5508
aS'RAF kinase phosphorylates and activates MEK, which in turn phosphorylates and activates ERK (extracellular signal-regulated kinase) or mitogen-activated protein kinase (MAPK).'
p5509
aS'These are specific inhibitors of p38 MAPK, c-Jun N-terminal kinase (JNK) and MAPK extracellular signaling-regulated kinase (ERK) kinase (MEK), respectively.'
p5510
aS'We used U0126, a known specific inhibitor of mitogen-activated protein kinase/ERK kinase 1/2 (MEK1/2), to simulate the inhibitory effect of EEBP on ERK1/2.'
p5511
aS'Since MEK1/2 is known to directly phosphorylate ERK1/2, the inhibitor effectively prevents ERK1/2 activation and its downstream signal transduction.'
p5512
aS'Additionally, significantly increased interleukin-6, STAT3, MEK5, p-ERK5 and non-cardiomyocyte proliferate signal molecules such as p-MEK and p-ERK, were detected in the cholesterol group but significantly reduced in the Li-Fu formula group.'
p5513
aS'In order to identify the hyper-trophic factor IL-6, signal transducer and activator of transcription STAT-3 and mitogen-activated protein kinase/ERK (MEK) signaling pathways that were associated with the cardiac hypertrophy induced by hypercholesterol diet, the protein products of IL-6, STAT3, MEK5 and p-ERK5 were measured by western blotting.'
p5514
aS'In hearts from the cholesterol group, the protein products of IL-6, STAT3, MEK5 and p-ERK5 were significantly increased compared to the hearts of control group ('
p5515
aS'(a) The representative protein products of IL-6, STAT3, MEK5 and p-ERK5 extracted from the left ventricles of excised hearts in hamsters of control, cholesterol and Li-Fu formula groups were measured by western blotting analysis.'
p5516
aS'Our proposed hypothesis that cardiac IL-6, MEK-5-ERK-5 and STAT3 hypertrophic pathways and MEK1/2-ERK1/2 non-cardiacmyocyte proliferative pathway are more activated in hyper cholesterol-fed hamster hearts.'
p5517
aS'The eccentric hypertrophy-related pathway, IL-6-related MEK5-ERK5 pathways and MEK1/2-ERK1/2 non-cardiacmyocyte proliferative pathway may play a part of role for developing eccentric cardiac hypertrophy and pathological changes in hyper cholesterol-fed hamster hearts.'
p5518
aS"It has been reported that the highly expressed uPA in the epidermis of damaged tissue is regulated by the fibroblast growth factor (FGF-2) which affects MAPK kinase (MEKK-1) and MEKK-1's downstream ERK1/2 for controlling uPA expression ["
p5519
aS'The results demonstrated that garlic oil treatment down-regulates activities of MAPKs (e.g., p38, JNK and ERK1/2) and IL-6/MEK5/ERK5 signaling pathways, and reduces expressions of pathologic hypertrophy response genes such as ANP and BNP, which contributes to the improvement of cardiac contractile function.'
p5520
aS'Activated MEK5/ERK5 signaling pathway by IL-6 family cytokines has been reported to lead to the development of eccentric cardiac hypertrophy ['
p5521
aS'Cardiac hypertrophy-related MAPKs (e.g., p38, JNK and ERK1/2) and IL-6/MEK5/ERK5 signaling pathways were greatly activated, which resulted in the expression of pathologic hypertrophy response markers such as ANP and BNP in the heart of diabetic rats.'
p5522
aS'A schematic representation showing garlic oil ameliorates cardiac pathologic hypertrophy and subsequent cardiac dysfunction in rats with diabetes by down-regulating the activities of MAPKs (p38, JNK and ERK1/2) and IL-6/MEK5/ERK5 signaling pathways.'
p5523
aS'Hyperglycemia greatly activates signaling pathways of MAPK (e.g., p38, JNK and ERK1/2) and IL-6/MEK5/ERK5, simultaneously, in the hearts of diabetic rats.'
p5524
aS'In diabetic rats, treatment involving garlic oil reduces the hyperglycemia-cardiac pathologic hypertrophy and improves the heart function by efficiently de-activating MAPK (p38, JNK and ERK1/2) and IL-6/MEK5/ERK5 signaling pathways.'
p5525
aS'Highly expressed uPA in the epidermis of damaged tissue is regulated by the FGF-2 that activates MAPK kinase (MEKK-1) and its downstream ERK1/2 ['
p5526
aS' Our previous research results indicate that SA-B can inhibit the expression of p-MEK, but have no significant effect on other kinases of ERK pathway ['
p5527
aS' SA-B inhibits the phosphorylation of MEK in HSCs, but has no significant effect on phosphorylation of other kinases in ERK signaling.'
p5528
aS'Cellular responses that elicit neuroprotection may involve CB1 receptors and their link to a variety of signaling elements, including the Gi/Go family of G-proteins, mitogen-activated protein kinase (MAPK), kinase (MEK1/2), and its substrate, ERK1/2.'
p5529
aS'IL-6 is involved in multiple intracellular signaling pathways, particularly the MEK5-ERK5 pathway ['
p5530
aS'The expressions of IL6 and its downstream signaling proteins MEK5, ERK5, and phosphorylated-ERK5 by Western blotting analysis (a) and quantitative analysis (b) in the heart of CCl'
p5531
ag665
aS'We evaluated the effects of K252a (an inhibitor of tyrosine kinase of high-affinity NGF receptor Trk), AG1478 (an inhibitor of tyrosine kinase of EGF receptor), and U0126 (an inhibitor of MEK (ERK kinase)) on luteolin- or acacetin-induced phosphorylation of ERK 1/2 in PC12 cells ('
p5532
aS'Luteolin- or acacetin-induced phosphorylation of ERK 1/2 was inhibited by U0126 (MEK phosphorylation inhibitor) treatment, leading to the assumption that the classical MAPK pathway was activated by luteolin or acacetin-stimulation.'
p5533
aS'Mitogen-activated protein kinase/ERK kinase 1/2 (MEK1/2) is one of the major survival signals in mammalian cells and is known to directly phosphorylate extracellular signal-regulated kinase 1/2 (ERK1/2).'
p5534
aS'Nymphaeol-A inactivates MEK1/2 and ERK1/2 phosphorylation.'
p5535
ag666
ag667
aS'We also found that RAS-RAF-MEK1-ERK1 signaling is reversibly expressed in sorafenib- or sunitinib-resistant 786-O and ACHN cells.'
p5536
aS'Anti-MMP-2, anti-MMP-9, anti-Ras, anti-MEK, anti-phosphor-MEK1/2, anti-ERK, and anti-phospho-ERK1/2 antibodies were from Abcam (Cambridge, UK).'
p5537
aS'Various concentrations of PF significantly reduced protein abundance of Ras, MEK, p-MEK, and p-ERK ('
p5538
aS'Effects of PF on Ras/MEK/ERK protein expression in PDGF-induced VSMCs.'
p5539
aS'Ras, MEK, p-MEK, and p-ERK were markedly inhibited in a dose-dependent manner.'
p5540
aS'Disruption of MEK-ERK signaling pathway is at least partially responsible for baicalein-induced cytotoxicity ['
p5541
aS'It has been reported that the overexpression and phosphorylation of MEK and ERK may play an important role in the development of human breast cancer ['
p5542
ag668
ag669
aS'MEK-1 and ERK-1/2 mRNA expression in each treatment group showed a downward trend, and the ERK-1/2 mRNA levels were significantly lower in the mild moxibustion group.'
p5543
ag670
ag671
ag672
ag673
aS'Activated MEK1 can phosphorylate ERK1 and ERK2.'
p5544
ag674
ag675
ag676
ag677
ag678
aS'In this study, we demonstrated that NGR2 possessed neuroprotective effects against 6-OHDA-induced apoptotic death in SH-SY5Y cells by the activation of P90RSK and Nrf2 via MEK1/2-ERK1/2 signaling pathways.'
p5545
aS'MEK1/2 siRNA, ERK1/2 siRNA, Nrf2 siRNA, and control siRNA were purchased from Santa Cruz Biotechnology (USA).'
p5546
aS'The primary antibodies used were as follows: rabbit polyclonal anti-p-MEK-1/2 (Ser218/Ser222); rabbit polyclonal anti-MEK-1/2 (12-B); rabbit polyclonal anti-p-ERK1/2 (Thr177/Thr160)-R; mouse monoclonal anti-ERK 1/2 (MK1); rabbit polyclonal anti-p-Rsk-1 (Ser363); mouse monoclonal anti-Rsk (B-4); rabbit polyclonal anti-Nrf2 (C-20); Lamin A (H-102): sc-20680; goat polyclonal anti-p-BAD (Ser112); rabbit polyclonal anti-BAD (C-20); mouse monoclonal anti-Bcl-XL (H-5); rabbit polyclonal anti-BAX (N-20); mouse monoclonal anticytochrome C (6H2); goat polyclonal anticleaved caspase-9 p10 (h331); goat polyclonal anticleaved caspase-3 p11 (h176); mouse monoclonal anti-'
p5547
aS'MEK1/2 siRNA and ERK1/2 siRNA were used to determine whether P90RSK and Nrf2 activation occurs downstream of the MEK1/2-ERK1/2 pathway.'
p5548
aS'MEK1/2, which is located upstream of ERK1/2, plays an important role in a variety of biological responses such as cell differentiation, proliferation, survival, and apoptosis ['
p5549
aS'Although P90RSK and Nrf2 activation was clearly activated by MEK1/2-ERK1/2 signaling pathways, the occurrence of a cross-talk between P90RSK and Nrf2 was not clearly elucidated.'
p5550
aS'The mechanism of this neuroprotection was associated with NGR2-mediated P90RSK and Nrf2 activation via MEK1/2-ERK1/2 pathways ('
p5551
aS'NGR2-mediated activation of P90RSK and Nrf2 was dependent of MEK1/2-ERK1/2 pathways but independent on JNK, P38, or PI3K/Akt pathways.'
p5552
aS'Neuroprotection of NGR2 involved the activation of P90RSK and Nrf2 through MEK1/2-ERK1/2 pathway.'
p5553
aS'Both MEK1/2 siRNA (a) and ERK1/2 siRNA (b) suppressed NGR2-mediated activation of P90RSK and Nrf2.'
p5554
aS'(c) NGR2-mediated activity enhancement of HO-1, GSH-PX, and GR was abolished by transfection of SH-SY5Y cells with MEK1/2 siRNA, ERK1/2 siRNA, and Nrf2 siRNA and by MEK inhibitor PD98059.'
p5555
aS'NGR2 activates P90RSK and Nrf2 via MEK1/2-ERK1/2 pathways.'
p5556
aS'GP VI: glycoprotein VI; MEK1 mitogen-activated protein kinase kinase; ERK2, extracellular-regulated kinase 2.'
p5557
aS'The activation of RAS and cardiac injury caused by  chronic ethanol were associated with activation of ERK1/2 in cardiac tissues, and both activation of RAS and activation of ERK1/2 were reduced by inhibition of ERK1/2 signaling through administration of MEK inhibitor PD98059 ['
p5558
ag680
aS'For both cell populations, activation of MEK-ERK1/2 pathway by thrombopoietin was found to have a critical role in MK differentiation, regulating polyploidy and surface expression of CD34, GPIIb, and GPIb.'
p5559
aS'The MEK-ERK1/2 pathway also plays a critical role in the generation of proplatelets.'
p5560
aS'This report demonstrates a critical role of MEK-ERK1/2 pathway in MK differentiation, motility, and proplatelet formation.'
p5561
aS'The ability of TPO to activate the MEK-ERK1/2 pathway in mature MKs was investigated by Western blotting.'
p5562
aS'The effect of inhibition of the MEK-ERK1/2 pathway on BM- and FL-derived MK differentiation was investigated using the specific MEK inhibitors, U0126 and PD184161.'
p5563
aS'The role of MEK-ERK1/2 and p38MAPK pathways in these processes has been investigated.'
p5564
aS'In this study, the role of MEK-ERK1/2 pathway in the differentiation of BM- and FL-derived MK was investigated using relatively low concentrations of these two structurally distinct MEK inhibitors, UO126 and PD186141.'
p5565
aS'Inhibition of MEK-ERK1/2 pathway is sufficient to induce an increase of expression of the immature marker CD34 and a decrease in the late MK commitment marker, GPIb, without affecting expression of the early megakaryocytic marker GPIIb.'
p5566
aS'Furthermore, inhibition of the MEK-ERK1/2 pathway causes a leftward shift of the ploidy of the cells, showing a critical requirement of MEK-ERK1/2 pathway in late stage of MK differentiation.'
p5567
aS'The role of MEK-ERK1/2 and p38MAPK pathways in the terminal stage of megakaryopoiesis, proplatelet formation, was also investigated.'
p5568
aS'The present study also demonstrates that MEK-ERK1/2 pathway, but not p38MAPK, is required for proplatelet generation.'
p5569
aS'In summary, we provide evidence for the critical role of the MEK-ERK1/2 pathway, but not p38MAPK, in MK differentiation, migration, and proplatelet formation, and describe several differences in the behavior of the two primary MK populations from BM and FL.'
p5570
aS'Mutations in BRAF lead to constitutive activation of downstream signaling of the RAS-RAF-MEK-ERK (mitogen-activated protein kinase) signal transduction pathway in 40-60% of cutaneous melanoma with substitution of glutamic acid for valine at codon 600 in 90% of the BRAF-mutated melanoma ['
p5571
aS'The downstream signaling pathways of EGFR include the RAS/RAF/MEK/ERK and PI3K/AKT/mTOR pathways.'
p5572
aS'To directly confirm the correlation between the MEK/ERK pathway and MMP-1 and MMP-9 expression, MCF7 cells were transfected with CA-MEK.'
p5573
aS'HRG-induced MMP-1 and MMP-9 expression was regulated by MEK/ERK dependent pathway but not by PI-3K/Akt pathway in MCF7 cells.'
p5574
aS'HRG-induced MMP-1 and MMP-9 expression of HER2-overexpressed MCF7 cells was also regulated by MEK/ERK dependent pathway.'
p5575
ag681
aS'To verify whether constitutive activation of the PI3K/AKT and MAPK/ERK signaling pathways is the MET-mediated cascade that confers an acquired lapatinib resistance, we investigated the effects of selected kinase inhibitors, including lapatinib, NVP-BEZ235 (PI3K/mTOR inhibitor), selumetinib (MEK inhibitor), saracatinib (SRC inhibitor) and crizotinib (MET inhibitor), on the growth of SNU216-LR cells.'
p5576
aS'PTEN also negatively regulates mitogen extracellular signal-regulated kinase (MEK)/ERK (MAPK) signaling via inhibiting the activity of Shc and IRS phosphorylation.'
p5577
aS'These findings suggest that there are signaling pathways independent of the PTEN/PI3K/AKT and RAS/RAF/MEK/ERK pathways, such as the ubiquitin-protease pathway, that regulate FAS expression ('
p5578
aS'The phosphorylation levels of mitogen-activated protein kinase/extracellular signal-regulated kinase 1/2 (MEK1/2), c-Jun N-terminal kinase 1/2 (JNK1/2), extracellular signal-regulated kinase 1/2 (ERK1/2) and p38 in atrial tissue were measured using western blotting.'
p5579
aS'The phosphorylation levels of MEK1/2, ERK1/2, JNK1/2 and p38 in the AF group were significantly higher than those in the SR group (P<0.05).'
p5580
aS'It was observed that the phosphorylation levels of MEK1/2, ERK1/2, p38 and JNK1/2 were significantly increased in the AF group compared with those in the SR group ('
p5581
aS'Top, representative western blot analysis showing the phosphorylation (P) and total protein expression of MAPK/extracellular signal-regulated kinase 1/2 (MEK1/2), extracellular signal-regulated kinase 1/2 (ERK1/2), c-Jun N-terminal kinase 1/2 (JNK1/2) and p38.'
p5582
aS'Bottom, quantitative results of the MEK1/2, ERK1/2, JNK1/2 and p38 phosphorylation levels in patients with rheumatic heart disease with sinus rhythm (SR) and AF, respectively.'
p5583
aS'The activation of extracellular signal-regulated kinase (ERK) by mitogen-activated protein kinase (MAPK)/ERK (MEK) through phosphorylation is an important step in signal transduction for cell processes that transfer chemical signals from the cell surface to the nucleus ('
p5584
aS'It has been suggested that the MEK/ERK signaling pathway participates in the inflammatory reaction and the process of triggering the negative factors of SCI ('
p5585
aS'We propose that the MEK/ERK signaling pathways may be involved in the formation of glial scars.'
p5586
aS'Hsp90 may be involved in the proliferation and apoptosis of tumor cells via the PI3K-AKT/PKB and RAS-RAF-MEK-ERK1/2 pathways ('
p5587
aS'reported two studies whereby IGF-1 promoted the proliferation of OPCs via PI3K/Akt, MEK/ERK, and src-like tyrosine kinase pathways ['
p5588
as(S'ZBTB18'
p5589
S'ONECUT1'
p5590
S'increases'
p5591
tp5592
(lp5593
s(S'TGIF'
p5594
S'MAX'
p5595
S'increases'
p5596
tp5597
(lp5598
s(S'ETS1'
p5599
S'NRAS'
p5600
S'increases'
p5601
tp5602
(lp5603
s(S'KLF12'
p5604
S'GATA1'
p5605
S'increases'
p5606
tp5607
(lp5608
s(S'HRAS/GTP'
p5609
S'PAK2'
p5610
S'increases_activity'
p5611
tp5612
(lp5613
s(S'CYP26A1'
p5614
S'FOXD3'
p5615
S'increases'
p5616
tp5617
(lp5618
s(S'LMO2'
p5619
S'RUNX1'
p5620
S'increases'
p5621
tp5622
(lp5623
S'Using ChIP-Seq analysis of 10 transcription factors in the hematopoietic progenitor cell line HPC7, we have shown previously that combinatorial interactions between a heptad of TFs (SCL, LYL1, LMO2, GATA2, RUNX1, ERG, and FLI-1) were overrepresented in the loci of genes specifically expressed in HSPCs and therefore associated with gene sets specifically expressed in HSCs '
p5624
as(S'MLK3'
p5625
S'MKK3/6'
p5626
S'adds_modification'
p5627
tp5628
(lp5629
s(S'TAK'
p5630
S'MKK3/6'
p5631
S'adds_modification'
p5632
tp5633
(lp5634
s(S'GRB2:SOS1'
p5635
S'HB-EGF:P-6Y-EGFR DIMER'
p5636
S'binds'
p5637
tp5638
(lp5639
s(S'FOXO4'
p5640
S'NRAS'
p5641
S'increases'
p5642
tp5643
(lp5644
s(S'MECOM'
p5645
S'NRAS'
p5646
S'increases'
p5647
tp5648
(lp5649
s(S'KLF12'
p5650
S'CYP26A1'
p5651
S'increases'
p5652
tp5653
(lp5654
s(S'RAS family/GTP/PI3K'
p5655
S'TRPV1'
p5656
S'adds_modification'
p5657
tp5658
(lp5659
s(S'hsa-let-7a-5p'
p5660
S'NRAS'
p5661
S'decreases'
p5662
tp5663
(lp5664
s(S'NF1'
p5665
S'HOXA9'
p5666
S'increases'
p5667
tp5668
(lp5669
s(S'REPIN1'
p5670
S'FOXD3'
p5671
S'increases'
p5672
tp5673
(lp5674
s(S'CYP26A1'
p5675
S'FOXJ2'
p5676
S'increases'
p5677
tp5678
(lp5679
s(S'FOXO4'
p5680
S'MEIS1'
p5681
S'increases'
p5682
tp5683
(lp5684
s(S'EBF2'
p5685
S'MECOM'
p5686
S'increases'
p5687
tp5688
(lp5689
s(S'ETS1'
p5690
S'FOXO3'
p5691
S'increases'
p5692
tp5693
(lp5694
s(S'SP3'
p5695
S'CYP26A1'
p5696
S'increases'
p5697
tp5698
(lp5699
s(S'LNXp80'
p5700
S'NUMB'
p5701
S'decreases'
p5702
tp5703
(lp5704
s(S'RUNX2'
p5705
S'CYP26A1'
p5706
S'increases'
p5707
tp5708
(lp5709
s(S'AHR'
p5710
S'FOXO3'
p5711
S'increases'
p5712
tp5713
(lp5714
s(S'VSX1'
p5715
S'FOXF2'
p5716
S'increases'
p5717
tp5718
(lp5719
s(S'BPTF'
p5720
S'RUNX1'
p5721
S'increases'
p5722
tp5723
(lp5724
s(S'7,8-Dihydro-7,8-dihydroxybenzo(a)pyrene 9,10-oxide'
p5725
S'HRAS PROTEIN'
p5726
S'increases'
p5727
tp5728
(lp5729
s(S'TCF3'
p5730
S'POU3F2'
p5731
S'increases'
p5732
tp5733
(lp5734
s(S'TCF3'
p5735
S'IRF1'
p5736
S'increases'
p5737
tp5738
(lp5739
s(S'SREBF1'
p5740
S'EN1'
p5741
S'increases'
p5742
tp5743
(lp5744
s(S'FOXO4'
p5745
S'RUNX2'
p5746
S'increases'
p5747
tp5748
(lp5749
s(S'hsa-miR-181a-5p'
p5750
S'HRAS'
p5751
S'decreases'
p5752
tp5753
(lp5754
s(S'Myb'
p5755
S'NRAS'
p5756
S'decreases'
p5757
tp5758
(lp5759
s(S'HSPA8'
p5760
S'ADP'
p5761
S'binds'
p5762
tp5763
(lp5764
s(S'SOCS3'
p5765
S'RASGAP'
p5766
S'binds'
p5767
tp5768
(lp5769
s(S'ONECUT1'
p5770
S'NRAS'
p5771
S'increases'
p5772
tp5773
(lp5774
s(S'PITX2'
p5775
S'EN1'
p5776
S'increases'
p5777
tp5778
(lp5779
s(S'HGF(dimer)/MET(dimer)'
p5780
S'SRC'
p5781
S'adds_modification'
p5782
tp5783
(lp5784
s(S'2-amino-1-methyl-6-phenylimidazo(4,5-b)pyridine'
p5785
S'HRAS PROTEIN'
p5786
S'increases'
p5787
tp5788
(lp5789
s(S'GFI1'
p5790
S'POU3F2'
p5791
S'increases'
p5792
tp5793
(lp5794
s(S'FARNESYL DIPHOSPHATE'
p5795
S'KRAS'
p5796
S'increases_activity'
p5797
tp5798
(lp5799
s(S'IL2/IL2R BETA/GAMMA/JAK1/LCK/JAK3'
p5800
S'PI3K'
p5801
S'binds'
p5802
tp5803
(lp5804
s(S'GTF3A'
p5805
S'MECOM'
p5806
S'increases'
p5807
tp5808
(lp5809
s(S'EGR2'
p5810
S'CYP26A1'
p5811
S'increases'
p5812
tp5813
(lp5814
s(S'RUNX1'
p5815
S'FOXF2'
p5816
S'increases'
p5817
tp5818
(lp5819
s(S'IL3/IL3RA/CSF2RB (DODECAMER)'
p5820
S'YWHAZ'
p5821
S'binds'
p5822
tp5823
(lp5824
s(S'RAF1'
p5825
S'BRAF'
p5826
S'binds'
p5827
tp5828
(lp5829
s(S'MYC'
p5830
S'CYP26A1'
p5831
S'increases'
p5832
tp5833
(lp5834
s(S'UBP1'
p5835
S'CYP26A1'
p5836
S'increases'
p5837
tp5838
(lp5839
s(S'MTF1'
p5840
S'REPIN1'
p5841
S'increases'
p5842
tp5843
(lp5844
s(S'HNF1A'
p5845
S'RUNX1'
p5846
S'increases'
p5847
tp5848
(lp5849
s(S'NHLH1'
p5850
S'FOXA1'
p5851
S'increases'
p5852
tp5853
(lp5854
s(S'HLF'
p5855
S'FOXA1'
p5856
S'increases'
p5857
tp5858
(lp5859
s(S'MEIS1'
p5860
S'GATA6'
p5861
S'increases'
p5862
tp5863
(lp5864
s(S'PDGF-BB/PDGFRB (DIMER)/SHP2'
p5865
S'GRB2/SOS1'
p5866
S'binds'
p5867
tp5868
(lp5869
s(S'ZBTB14'
p5870
S'EN1'
p5871
S'increases'
p5872
tp5873
(lp5874
s(S'alpha6/beta4 Integrin'
p5875
S'HRAS/GDP'
p5876
S'increases_activity'
p5877
tp5878
(lp5879
s(S'ErbB2'
p5880
S'HRAS/GDP'
p5881
S'increases_activity'
p5882
tp5883
(lp5884
s(S'MEIS1'
p5885
S'FOXO3'
p5886
S'increases'
p5887
tp5888
(lp5889
s(S'RELA'
p5890
S'IRF1'
p5891
S'increases'
p5892
tp5893
(lp5894
s(S'MYCN'
p5895
S'FOXO3'
p5896
S'increases'
p5897
tp5898
(lp5899
s(S'RHOA/GTP'
p5900
S'DIA'
p5901
S'increases_activity'
p5902
tp5903
(lp5904
s(S'Fluorouracil'
p5905
S'KRAS PROTEIN'
p5906
S'decreases'
p5907
tp5908
(lp5909
s(S'ATF2'
p5910
S'CYP26A1'
p5911
S'increases'
p5912
tp5913
(lp5914
s(S'GNAI2/GTP'
p5915
S'SRC FAMILY KINASES'
p5916
S'increases_activity'
p5917
tp5918
(lp5919
s(S'HAND1'
p5920
S'POU2F1'
p5921
S'increases'
p5922
tp5923
(lp5924
s(S'PI5K Type 1 family'
p5925
S'PI-4-P'
p5926
S'translocates'
p5927
tp5928
(lp5929
s(S'HSF1'
p5930
S'CBFA2T3'
p5931
S'increases'
p5932
tp5933
(lp5934
s(S'BACH1'
p5935
S'FOXA1'
p5936
S'increases'
p5937
tp5938
(lp5939
s(S'PI-3-4-5-P3'
p5940
S'SGK1'
p5941
S'adds_modification'
p5942
tp5943
(lp5944
s(S'hsa-miR-20a-5p'
p5945
S'NRAS'
p5946
S'decreases'
p5947
tp5948
(lp5949
s(S'CYP26A1'
p5950
S'MECOM'
p5951
S'increases'
p5952
tp5953
(lp5954
s(S'FOXF2'
p5955
S'RUNX1'
p5956
S'increases'
p5957
tp5958
(lp5959
s(S'EGR2'
p5960
S'SRF'
p5961
S'increases'
p5962
tp5963
(lp5964
s(S'LEF1'
p5965
S'FOXD3'
p5966
S'increases'
p5967
tp5968
(lp5969
s(S'TFAP2C'
p5970
S'MECOM'
p5971
S'increases'
p5972
tp5973
(lp5974
s(S'SHC'
p5975
S'GRB2/SOS1'
p5976
S'binds'
p5977
tp5978
(lp5979
s(S'CA2+'
p5980
S'CAM'
p5981
S'binds'
p5982
tp5983
(lp5984
s(S'MYC'
p5985
S'POU3F2'
p5986
S'increases'
p5987
tp5988
(lp5989
s(S'PAX8'
p5990
S'HOXA9'
p5991
S'increases'
p5992
tp5993
(lp5994
s(S'TFDP2'
p5995
S'CDC5L'
p5996
S'increases'
p5997
tp5998
(lp5999
s(S'RAF1/14-3-3'
p6000
S'KSR/14-3-3 /MEK1-2'
p6001
S'increases_activity'
p6002
tp6003
(lp6004
s(S'DDIT3'
p6005
S'MEIS1'
p6006
S'increases'
p6007
tp6008
(lp6009
s(S'GNB1/GNG2'
p6010
S'HRAS/GDP'
p6011
S'increases_activity'
p6012
tp6013
(lp6014
s(S'ACTIVATED FGFR MUTANTS:P-FRS2ALPHA'
p6015
S'GRB2:SOS1'
p6016
S'binds'
p6017
tp6018
(lp6019
s(S'HIF1A'
p6020
S'CYP26A1'
p6021
S'increases'
p6022
tp6023
(lp6024
s(S'RAF1-BRAF'
p6025
S'ERK1-2'
p6026
S'increases_activity'
p6027
tp6028
(lp6029
s(S'SMAD4'
p6030
S'CBFA2T3'
p6031
S'increases'
p6032
tp6033
(lp6034
s(S'resveratrol'
p6035
S'HRAS PROTEIN'
p6036
S'increases'
p6037
tp6038
(lp6039
s(S'Malathion'
p6040
S'HRAS MRNA'
p6041
S'increases'
p6042
tp6043
(lp6044
s(S'NRF1'
p6045
S'FOXO4'
p6046
S'increases'
p6047
tp6048
(lp6049
s(S'CREB1'
p6050
S'JUN'
p6051
S'increases'
p6052
tp6053
(lp6054
s(S'CDC5L'
p6055
S'HOXA9'
p6056
S'increases'
p6057
tp6058
(lp6059
s(S'CDX2'
p6060
S'HOXA9'
p6061
S'increases'
p6062
tp6063
(lp6064
s(S'HMGA1'
p6065
S'POU2F1'
p6066
S'increases'
p6067
tp6068
(lp6069
s(S'Coumestrol'
p6070
S'KRAS MRNA'
p6071
S'decreases'
p6072
tp6073
(lp6074
s(S'LEF1'
p6075
S'FOXO3'
p6076
S'increases'
p6077
tp6078
(lp6079
s(S'CYP26A1'
p6080
S'MEIS1'
p6081
S'increases'
p6082
tp6083
(lp6084
s(S'GTF2A2'
p6085
S'MEIS1'
p6086
S'increases'
p6087
tp6088
(lp6089
s(S'REPIN1'
p6090
S'CBFA2T3'
p6091
S'increases'
p6092
tp6093
(lp6094
s(S'hsa-miR-143-3p'
p6095
S'HRAS'
p6096
S'decreases'
p6097
tp6098
(lp6099
s(S'[(3,7,11-TRIMETHYL-DODECA-2,6,10-TRIENYLOXYCARBAMOYL)-METHYL]-PHOSPHONIC ACID'
p6100
S'KRAS'
p6101
S'increases_activity'
p6102
tp6103
(lp6104
s(S'TFDP1'
p6105
S'ONECUT1'
p6106
S'increases'
p6107
tp6108
(lp6109
s(S'YY1'
p6110
S'CYP26A1'
p6111
S'increases'
p6112
tp6113
(lp6114
s(S'PITX2'
p6115
S'RUNX1'
p6116
S'increases'
p6117
tp6118
(lp6119
s(S'STAT5A'
p6120
S'NRAS'
p6121
S'increases'
p6122
tp6123
(lp6124
s(S'Valproic Acid'
p6125
S'HRAS MRNA'
p6126
S'increases'
p6127
tp6128
(lp6129
s(S'Malathion'
p6130
S'HRAS PROTEIN'
p6131
S'increases'
p6132
tp6133
(lp6134
s(S'TFAP4'
p6135
S'CBFA2T3'
p6136
S'increases'
p6137
tp6138
(lp6139
s(S'TFAP4'
p6140
S'EN1'
p6141
S'increases'
p6142
tp6143
(lp6144
s(S'POU3F2'
p6145
S'CYP26A1'
p6146
S'increases'
p6147
tp6148
(lp6149
s(S'PAX3'
p6150
S'FOXD3'
p6151
S'increases'
p6152
tp6153
(lp6154
s(S'FOXA2'
p6155
S'RUNX2'
p6156
S'increases'
p6157
tp6158
(lp6159
s(S'MAX'
p6160
S'BACH1'
p6161
S'increases'
p6162
tp6163
(lp6164
s(S'PDX1'
p6165
S'CYP26A1'
p6166
S'increases'
p6167
tp6168
(lp6169
s(S'EPO/EPOR (dimer)/JAK2'
p6170
S'SHC/GRB2/SOS1'
p6171
S'increases_activity'
p6172
tp6173
(lp6174
s(S'E2F1'
p6175
S'MEIS1'
p6176
S'increases'
p6177
tp6178
(lp6179
s(S'FOXF2'
p6180
S'MEIS1'
p6181
S'increases'
p6182
tp6183
(lp6184
s(S'SPZ1'
p6185
S'FOXJ2'
p6186
S'increases'
p6187
tp6188
(lp6189
s(S'SRY'
p6190
S'NRAS'
p6191
S'increases'
p6192
tp6193
(lp6194
s(S'REPIN1'
p6195
S'CYP26A1'
p6196
S'increases'
p6197
tp6198
(lp6199
s(S'VEGFR3/VEGFC-D'
p6200
S'PKC'
p6201
S'increases_activity'
p6202
tp6203
(lp6204
s(S'MEIS1'
p6205
S'EN1'
p6206
S'increases'
p6207
tp6208
(lp6209
s(S'FOXJ1'
p6210
S'FOXD3'
p6211
S'increases'
p6212
tp6213
(lp6214
s(S'SPZ1'
p6215
S'FOXO4'
p6216
S'increases'
p6217
tp6218
(lp6219
s(S'RHOA/GTP'
p6220
S'ROCK1-ROCK2'
p6221
S'increases_activity'
p6222
tp6223
(lp6224
s(S'HMGA1'
p6225
S'ONECUT1'
p6226
S'increases'
p6227
tp6228
(lp6229
s(S'uPA/uPAR/alphav/beta3 Integrin/Vitronectin'
p6230
S'SRC'
p6231
S'adds_modification'
p6232
tp6233
(lp6234
s(S'ETS1'
p6235
S'CYP26A1'
p6236
S'increases'
p6237
tp6238
(lp6239
s(S'ESRRA'
p6240
S'TLX2'
p6241
S'increases'
p6242
tp6243
(lp6244
s(S'ROCK2'
p6245
S'RHO FAMILY GTPASE-ACTIVE'
p6246
S'binds'
p6247
tp6248
(lp6249
s(S'ATF4'
p6250
S'CYP26A1'
p6251
S'increases'
p6252
tp6253
(lp6254
s(S'OR5I1'
p6255
S'CYP26A1'
p6256
S'increases'
p6257
tp6258
(lp6259
s(S'PITX2'
p6260
S'GATA1'
p6261
S'increases'
p6262
tp6263
(lp6264
s(S'AHR'
p6265
S'ONECUT1'
p6266
S'increases'
p6267
tp6268
(lp6269
s(S'PTF1A'
p6270
S'MECOM'
p6271
S'increases'
p6272
tp6273
(lp6274
s(S'arsenic trioxide'
p6275
S'HRAS MRNA'
p6276
S'increases'
p6277
tp6278
(lp6279
s(S'TCF3'
p6280
S'REPIN1'
p6281
S'increases'
p6282
tp6283
(lp6284
s(S'STAT6'
p6285
S'FOXO3'
p6286
S'increases'
p6287
tp6288
(lp6289
s(S'POU1F1'
p6290
S'POU2F1'
p6291
S'increases'
p6292
tp6293
(lp6294
s(S'RHOA/GTP'
p6295
S'ROCK'
p6296
S'increases_activity'
p6297
tp6298
(lp6299
s(S'PITPNA'
p6300
S'PI-4-5-P2'
p6301
S'translocates'
p6302
tp6303
(lp6304
s(S'MDM-2'
p6305
S'P14/19 ARF'
p6306
S'binds'
p6307
tp6308
(lp6309
s(S'TEAD1'
p6310
S'FOXO3'
p6311
S'increases'
p6312
tp6313
(lp6314
s(S'MYC'
p6315
S'MAX'
p6316
S'increases'
p6317
tp6318
(lp6319
S'Since the MYC/MAX transcriptional complex regulates transcription, at least in part, by influencing the local chromatin structure at promoters (Adhikary & Eilers, '
p6320
as(S'GRB2:SOS1'
p6321
S'EGF:PHOSPHO-EGFR:PHOSPHO-SHC'
p6322
S'binds'
p6323
tp6324
(lp6325
s(S'NF1'
p6326
S'RUNX1'
p6327
S'increases'
p6328
tp6329
(lp6330
s(S'ZEB1'
p6331
S'GATA6'
p6332
S'increases'
p6333
tp6334
(lp6335
s(S'TBP'
p6336
S'EN1'
p6337
S'increases'
p6338
tp6339
(lp6340
s(S'FOXA1'
p6341
S'FOXD3'
p6342
S'increases'
p6343
tp6344
(lp6345
s(S'CART1'
p6346
S'EN1'
p6347
S'increases'
p6348
tp6349
(lp6350
s(S'MAX'
p6351
S'CEBPA'
p6352
S'increases'
p6353
tp6354
(lp6355
s(S'GATA6'
p6356
S'NRAS'
p6357
S'increases'
p6358
tp6359
(lp6360
s(S'PTF1A'
p6361
S'FOXO3'
p6362
S'increases'
p6363
tp6364
(lp6365
s(S'LEF1'
p6366
S'FOXA1'
p6367
S'increases'
p6368
tp6369
(lp6370
s(S'hsa-let-7g-5p'
p6371
S'KRAS'
p6372
S'decreases'
p6373
tp6374
(lp6375
s(S'ZBTB14'
p6376
S'CYP26A1'
p6377
S'increases'
p6378
tp6379
(lp6380
s(S'POU1F1'
p6381
S'FOXO4'
p6382
S'increases'
p6383
tp6384
(lp6385
s(S'PI3K'
p6386
S'PI-4-5-P2'
p6387
S'translocates'
p6388
tp6389
(lp6390
s(S'GABPB2'
p6391
S'NRAS'
p6392
S'increases'
p6393
tp6394
(lp6395
s(S'ELK1'
p6396
S'LEF1'
p6397
S'increases'
p6398
tp6399
(lp6400
s(S'Estrogens'
p6401
S'HRAS MRNA'
p6402
S'increases'
p6403
tp6404
(lp6405
s(S'CYP26A1'
p6406
S'CEBPA'
p6407
S'increases'
p6408
tp6409
(lp6410
s(S'SPI1'
p6411
S'POU2F1'
p6412
S'increases'
p6413
tp6414
(lp6415
s(S'PPARG'
p6416
S'CYP26A1'
p6417
S'increases'
p6418
tp6419
(lp6420
s(S'Asbestos, Serpentine'
p6421
S'HRAS PROTEIN'
p6422
S'increases'
p6423
tp6424
(lp6425
s(S'RET51/GFRALPHA1/GDNF/DOK1'
p6426
S'RASGAP'
p6427
S'binds'
p6428
tp6429
(lp6430
s(S'FOXO1'
p6431
S'GATA6'
p6432
S'increases'
p6433
tp6434
(lp6435
s(S'Cadmium'
p6436
S'KRAS PROTEIN'
p6437
S'increases'
p6438
tp6439
(lp6440
s(S'MAX'
p6441
S'EN1'
p6442
S'increases'
p6443
tp6444
(lp6445
s(S'TLX2'
p6446
S'NRAS'
p6447
S'increases'
p6448
tp6449
(lp6450
s(S'SREBF1'
p6451
S'CYP26A1'
p6452
S'increases'
p6453
tp6454
(lp6455
s(S'SMAD3'
p6456
S'MEIS1'
p6457
S'increases'
p6458
tp6459
(lp6460
s(S'Acetaminophen'
p6461
S'NRAS MRNA'
p6462
S'decreases'
p6463
tp6464
(lp6465
s(S'LEF1'
p6466
S'ETS1'
p6467
S'increases'
p6468
tp6469
(lp6470
s(S'SRF'
p6471
S'MEIS1'
p6472
S'increases'
p6473
tp6474
(lp6475
s(S'BRAF'
p6476
S'MKK3-MKK6'
p6477
S'increases_activity'
p6478
tp6479
(lp6480
s(S'HRAS/GTP'
p6481
S'RAF1'
p6482
S'adds_modification'
p6483
tp6484
(lp6485
s(S'MSX1'
p6486
S'CYP26A1'
p6487
S'increases'
p6488
tp6489
(lp6490
s(S'GATA4'
p6491
S'ETS1'
p6492
S'increases'
p6493
tp6494
(lp6495
s(S'E4F1'
p6496
S'FOXA1'
p6497
S'increases'
p6498
tp6499
(lp6500
s(S'FOXD1'
p6501
S'LEF1'
p6502
S'increases'
p6503
tp6504
(lp6505
s(S'CUX1'
p6506
S'MAX'
p6507
S'increases'
p6508
tp6509
(lp6510
s(S'CYP26A1'
p6511
S'CBFA2T3'
p6512
S'increases'
p6513
tp6514
(lp6515
s(S'CAM/CA2+'
p6516
S'KRAS ISOFORM 4B/GTP'
p6517
S'binds'
p6518
tp6519
(lp6520
s(S'MYOG'
p6521
S'STAT5A'
p6522
S'increases'
p6523
tp6524
(lp6525
s(S'MYOD1'
p6526
S'STAT5A'
p6527
S'increases'
p6528
tp6529
(lp6530
s(S'HNF1A'
p6531
S'POU3F2'
p6532
S'increases'
p6533
tp6534
(lp6535
s(S'EPH'
p6536
S'EPHR'
p6537
S'binds'
p6538
tp6539
(lp6540
S'TI=(HRPT2 OR HYPERNEPHROMA* OR IDARUBICIN OR IFOS*AMIDE* OR IMATINIB OR INSULINOMA* OR INTRATUMOR* OR IRESSA* OR IRINOTECAN OR (IRRADIATION AND FRACTIONATED) OR JUN OR LETROZOLE OR LEUKEM* OR LI FRAUMENI OR LYMPHOMA* OR MALIGNANC* OR MALIGNANT OR MAMMOGRA* OR MASTECTOM* OR MEDULLOBLASTOMA* OR MELANOMA* OR MELPHALAN* OR MENINGIOMA* OR MESOTHELIOMA* OR METASTAS* OR METASTAT* OR METHYLGUANINE OR MLH1 OR MLL OR MSH OR MSH2 OR MUC1 OR MYB OR (MYC NOT (C OR N)) OR MYELODYSPLAS* OR MYELOMA* OR NEOPLAS* OR NEPHROBLASTOMA* OR NEPHROMA* OR NEURINOMA* OR NEUROBLASTOMA* OR NEUROMA*)'
p6541
aS'TI=(MICROPREMIE* OR MOTHERS MILK OR MYELOMENINGOCELE* OR NEONAT* OR NEURAL TUBE DEFECT* OR (NEUROBLASTOMA* NOT CELL*) OR (NEPHROBLASTOMA NOT ADULT*) OR NEURODEVELOPMENT* OR NEWBORN* OR NONIMMUNE HYDROPS OR (OSTEOSARCOMA* NOT (ADULT* OR CELL*)) OR PEDIATR* OR PERINATAL* OR PRADER OR PRENATAL* OR PRESCHOOL OR PRETERM OR PREMATURITY OR PUBERTAL OR PUBERTY OR RETT OR (RHABDOMYOSARCOMA* NOT CELL*) OR (SACROCOCCYGEAL NOT ADULT*) OR SCHOOLCHILDREN OR TODDLERS OR (WILMS NOT ADULT*) OR X LINKED)'
p6542
aS'AD=(ENDOCRIN* OR INFECT OR MED-* OR DERMATOL* OR GASTRO* OR TOXI*OL OR NIH OR BIOSTAT OR AN*ESTHE* OR THERAP* OR HOP-* OR UROL OR KLIN* OR NEPHROL* OR INSERM* OR PREVENT OR OPHTHALMOL OR BIOSCI OR METAB OR ORTHOP*ED OR GENOM* OR TRANSPLANT* OR REPROD OR ORAL OR DIAGNOST OR RH*UMATOL OR BRAIN OR KAROLINSKA* OR VIROL OR DRUG* OR DIABET* OR VASC OR WOMEN* OR CRIT OR VET-* OR NCI OR PULM* OR CHU-* OR OTOLARYNGOL OR HEART)'
p6543
as(S'PDGF:PHOSPHO-PDGF RECEPTOR DIMER'
p6544
S'GRB2:SOS1'
p6545
S'binds'
p6546
tp6547
(lp6548
s(S'HRAS/GTP'
p6549
S'PI3K'
p6550
S'increases_activity'
p6551
tp6552
(lp6553
s(S'RUNX1'
p6554
S'TLX2'
p6555
S'increases'
p6556
tp6557
(lp6558
s(S'MYOG'
p6559
S'CYP26A1'
p6560
S'increases'
p6561
tp6562
(lp6563
s(S'PAX2'
p6564
S'EN1'
p6565
S'increases'
p6566
tp6567
(lp6568
s(S'TFCP2'
p6569
S'CYP26A1'
p6570
S'increases'
p6571
tp6572
(lp6573
s(S'hsa-miR-145-5p'
p6574
S'NRAS'
p6575
S'decreases'
p6576
tp6577
(lp6578
s(S'KAT2B'
p6579
S'GATA1'
p6580
S'increases'
p6581
tp6582
(lp6583
s(S'P-EGFR MUTANTS:P-Y349,350-SHC1'
p6584
S'GRB2:SOS1'
p6585
S'binds'
p6586
tp6587
(lp6588
s(S'E2F1'
p6589
S'MECOM'
p6590
S'increases'
p6591
tp6592
(lp6593
s(S'GNB1/GNG2'
p6594
S'SRC'
p6595
S'adds_modification'
p6596
tp6597
(lp6598
s(S'ZBTB14'
p6599
S'MAX'
p6600
S'increases'
p6601
tp6602
(lp6603
s(S'RALGDS'
p6604
S'P21 RAS:GTP'
p6605
S'binds'
p6606
tp6607
(lp6608
s(S'RHOA/GTP'
p6609
S'ROCK2'
p6610
S'increases_activity'
p6611
tp6612
(lp6613
s(S'NR1H3'
p6614
S'FOXD3'
p6615
S'increases'
p6616
tp6617
(lp6618
s(S'TFAP4'
p6619
S'GATA1'
p6620
S'increases'
p6621
tp6622
(lp6623
s(S'FOXA1'
p6624
S'GATA6'
p6625
S'increases'
p6626
tp6627
(lp6628
s(S'GRB2:SOS1'
p6629
S'P-SHC'
p6630
S'binds'
p6631
tp6632
(lp6633
s(S'E2F1'
p6634
S'FOXO3'
p6635
S'increases'
p6636
tp6637
(lp6638
s.