(dp0
(S'ZEB1'
p1
S'FOXA1'
p2
S'increases'
p3
tp4
(lp5
s(S'FOXJ1'
p6
S'GATA6'
p7
S'increases'
p8
tp9
(lp10
s(S'TFAP4'
p11
S'FOXD3'
p12
S'increases'
p13
tp14
(lp15
s(S'TBP'
p16
S'MEIS1'
p17
S'increases'
p18
tp19
(lp20
s(S'GCM1'
p21
S'GATA6'
p22
S'increases'
p23
tp24
(lp25
s(S'T-DHT'
p26
S'SRC'
p27
S'adds_modification'
p28
tp29
(lp30
s(S'MAZ'
p31
S'GABPB2'
p32
S'increases'
p33
tp34
(lp35
s(S'HMGA1'
p36
S'EN1'
p37
S'increases'
p38
tp39
(lp40
s(S'CYP26A1'
p41
S'NRAS'
p42
S'increases'
p43
tp44
(lp45
s(S'CUX1'
p46
S'MEIS1'
p47
S'increases'
p48
tp49
(lp50
s(S'REPIN1'
p51
S'BACH1'
p52
S'increases'
p53
tp54
(lp55
s(S'TFDP1'
p56
S'HOXA9'
p57
S'increases'
p58
tp59
(lp60
s(S'NFE2L1'
p61
S'CYP26A1'
p62
S'increases'
p63
tp64
(lp65
s(S'MAZ'
p66
S'GATA1'
p67
S'increases'
p68
tp69
(lp70
s(S'TCF12'
p71
S'GABPB2'
p72
S'increases'
p73
tp74
(lp75
s(S'ETS2'
p76
S'FOXO3'
p77
S'increases'
p78
tp79
(lp80
s(S'hsa-let-7c-5p'
p81
S'NRAS'
p82
S'decreases'
p83
tp84
(lp85
s(S'SPI1'
p86
S'CYP26A1'
p87
S'increases'
p88
tp89
(lp90
s(S'RAC1/GTP'
p91
S'MKK4'
p92
S'adds_modification'
p93
tp94
(lp95
s(S'Quercetin'
p96
S'KRAS MRNA'
p97
S'decreases'
p98
tp99
(lp100
s(S'INSULIN RECEPTOR/INSULIN/SHC'
p101
S'GRB2'
p102
S'binds'
p103
tp104
(lp105
s(S'TAp63a (tetramer)'
p106
S'PKC DELTA'
p107
S'increases'
p108
tp109
(lp110
s(S'FOXO1'
p111
S'POU2F1'
p112
S'increases'
p113
tp114
(lp115
s(S'FOXL1'
p116
S'EN1'
p117
S'increases'
p118
tp119
(lp120
s(S'TBP'
p121
S'CYP26A1'
p122
S'increases'
p123
tp124
(lp125
s(S'Heptachlor'
p126
S'HRAS MRNA'
p127
S'decreases'
p128
tp129
(lp130
s(S'PCBP1'
p131
S'CYP26A1'
p132
S'increases'
p133
tp134
(lp135
s(S'ZBTB18'
p136
S'CYP26A1'
p137
S'increases'
p138
tp139
(lp140
s(S'GATA2'
p141
S'CYP26A1'
p142
S'increases'
p143
tp144
(lp145
s(S'Cadmium'
p146
S'KRAS MRNA'
p147
S'increases'
p148
tp149
(lp150
s(S'HNF1A'
p151
S'POU2F1'
p152
S'increases'
p153
tp154
(lp155
s(S'ABT-100'
p156
S'HRAS PROTEIN'
p157
S'inhibits_modification'
p158
tp159
(lp160
s(S'ELF1'
p161
S'CYP26A1'
p162
S'increases'
p163
tp164
(lp165
s(S'LEF1'
p166
S'KRAS'
p167
S'increases'
p168
tp169
(lp170
s(S'NKX2-1'
p171
S'FOXD3'
p172
S'increases'
p173
tp174
(lp175
s(S'PI-3-4-5-P3'
p176
S'BTK-ITK'
p177
S'translocates'
p178
tp179
(lp180
s(S'POU6F1'
p181
S'HOXA9'
p182
S'increases'
p183
tp184
(lp185
s(S'Myb'
p186
S'MYB'
p187
S'increases'
p188
tp189
(lp190
s(S'PAX5'
p191
S'CYP26A1'
p192
S'increases'
p193
tp194
(lp195
s(S'FOXO4'
p196
S'FOXD3'
p197
S'increases'
p198
tp199
(lp200
s(S'CYP26A1'
p201
S'FOXO4'
p202
S'increases'
p203
tp204
(lp205
s(S'cell adhesion'
p206
S'HRAS/GDP'
p207
S'increases_activity'
p208
tp209
(lp210
s(S'IRF7'
p211
S'CYP26A1'
p212
S'increases'
p213
tp214
(lp215
s(S'7,8-Dihydro-7,8-dihydroxybenzo(a)pyrene 9,10-oxide'
p216
S'KRAS PROTEIN'
p217
S'increases'
p218
tp219
(lp220
s(S'PITX2'
p221
S'POU2F1'
p222
S'increases'
p223
tp224
(lp225
s(S'E2F1'
p226
S'CYP26A1'
p227
S'increases'
p228
tp229
(lp230
s(S'ATF1'
p231
S'CYP26A1'
p232
S'increases'
p233
tp234
(lp235
s(S'PI3K'
p236
S'PKC DELTA'
p237
S'adds_modification'
p238
tp239
(lp240
s(S'SOX5'
p241
S'HOXA9'
p242
S'increases'
p243
tp244
(lp245
s(S'FOXO4'
p246
S'POU2F1'
p247
S'increases'
p248
tp249
(lp250
s(S'FOXO4'
p251
S'GATA6'
p252
S'increases'
p253
tp254
(lp255
s(S'LEF1'
p256
S'FOXF2'
p257
S'increases'
p258
tp259
(lp260
s(S'Insulin Receptor/Insuli/IRS1/GRB2/SHC/Sos'
p261
S'HRAS/GDP'
p262
S'increases_activity'
p263
tp264
(lp265
s(S'TLX2'
p266
S'RUNX1'
p267
S'increases'
p268
tp269
(lp270
s(S'ALX4'
p271
S'JUN'
p272
S'increases'
p273
tp274
(lp275
s(S'RHOA/GTP'
p276
S'RHOGDI'
p277
S'binds'
p278
tp279
(lp280
s(S'GCM1'
p281
S'CYP26A1'
p282
S'increases'
p283
tp284
(lp285
s(S'RB1'
p286
S'ONECUT1'
p287
S'increases'
p288
tp289
(lp290
s(S'NHLH1'
p291
S'CYP26A1'
p292
S'increases'
p293
tp294
(lp295
s(S'NR3C1'
p296
S'BACH1'
p297
S'increases'
p298
tp299
(lp300
s(S'HNF4A'
p301
S'CYP26A1'
p302
S'increases'
p303
tp304
(lp305
s(S'YY1'
p306
S'FOXO3'
p307
S'increases'
p308
tp309
(lp310
s(S'GRB2:SOS1'
p311
S'P-EGFR MUTANTS DIMER'
p312
S'binds'
p313
tp314
(lp315
s(S'P-Y349,350-SHC1:P-ERBB4'
p316
S'GRB2:SOS1'
p317
S'binds'
p318
tp319
(lp320
s(S'FOXN1'
p321
S'ONECUT1'
p322
S'increases'
p323
tp324
(lp325
s(S'TFAP4'
p326
S'MYC'
p327
S'increases'
p328
tp329
(lp330
s(S'MYC'
p331
S'EN1'
p332
S'increases'
p333
tp334
(lp335
s(S'Antigen/IgE/Fc epsilon R1/LYN/SYK'
p336
S'SHC/GRB2/SOS1'
p337
S'increases_activity'
p338
tp339
(lp340
s(S'14-3-3 BETA, ZETA'
p341
S'GARNL4'
p342
S'binds'
p343
tp344
(lp345
s(S'SMAD1'
p346
S'EN1'
p347
S'increases'
p348
tp349
(lp350
s(S'Raf-1'
p351
S'MEK1-2'
p352
S'adds_modification'
p353
tp354
(lp355
s(S'POU2F1'
p356
S'FOXO3'
p357
S'increases'
p358
tp359
(lp360
s(S'NGF (dimer)/TRKA'
p361
S'RASGRF1'
p362
S'adds_modification'
p363
tp364
(lp365
s(S'TCF4'
p366
S'CYP26A1'
p367
S'increases'
p368
tp369
(lp370
s(S'STAT5B'
p371
S'TLX2'
p372
S'increases'
p373
tp374
(lp375
s(S'CYP26A1'
p376
S'SRF'
p377
S'increases'
p378
tp379
(lp380
s(S'STAT1'
p381
S'NRAS'
p382
S'increases'
p383
tp384
(lp385
s(S'TFDP1'
p386
S'GATA1'
p387
S'increases'
p388
tp389
(lp390
s(S'PI3K'
p391
S'ALPHA6/BETA4 INTEGRIN/LAMININ'
p392
S'binds'
p393
tp394
(lp395
s(S'FOXF2'
p396
S'NRAS'
p397
S'increases'
p398
tp399
(lp400
s(S'CUX1'
p401
S'POU2F1'
p402
S'increases'
p403
tp404
(lp405
s(S'ETS2'
p406
S'STAT4'
p407
S'increases'
p408
tp409
(lp410
s(S'EN1'
p411
S'CYP26A1'
p412
S'increases'
p413
tp414
(lp415
s(S'COMPLEX (RAS/GTP)'
p416
S'RAF'
p417
S'binds'
p418
tp419
(lp420
s(S'LEF1'
p421
S'EN1'
p422
S'increases'
p423
tp424
(lp425
s(S'FOXL1'
p426
S'NRAS'
p427
S'increases'
p428
tp429
(lp430
s(S'ELF2'
p431
S'CYP26A1'
p432
S'increases'
p433
tp434
(lp435
s(S'Src Family Kinases-active'
p436
S'EGF/EGFR'
p437
S'adds_modification'
p438
tp439
(lp440
s(S'RUNX1'
p441
S'POU2F1'
p442
S'increases'
p443
tp444
(lp445
s(S'RHOA/GTP'
p446
S'CITRON-N'
p447
S'increases_activity'
p448
tp449
(lp450
s(S'PAX4'
p451
S'SRF'
p452
S'increases'
p453
tp454
(lp455
s(S'Vitamin E'
p456
S'HRAS MRNA'
p457
S'increases'
p458
tp459
(lp460
s(S'CDX2'
p461
S'FOXD3'
p462
S'increases'
p463
tp464
(lp465
s(S'Plant Extracts'
p466
S'KEAP1 PROTEIN'
p467
S'decreases'
p468
tp469
(lp470
s(S'PAX4'
p471
S'CBFA2T3'
p472
S'increases'
p473
tp474
(lp475
s(S'FOXD1'
p476
S'CYP26A1'
p477
S'increases'
p478
tp479
(lp480
s(S'Antigen/IgE/Fc epsilon R1/LYN/SYK'
p481
S'VAV1'
p482
S'adds_modification'
p483
tp484
(lp485
s(S'PCBP1'
p486
S'MEIS1'
p487
S'increases'
p488
tp489
(lp490
s(S'FOXI1'
p491
S'FOXD3'
p492
S'increases'
p493
tp494
(lp495
s(S'GATA4'
p496
S'MEIS1'
p497
S'increases'
p498
tp499
(lp500
s(S'STAT5B'
p501
S'CEBPG'
p502
S'increases'
p503
tp504
(lp505
s(S'TFDP2'
p506
S'MAZ'
p507
S'increases'
p508
tp509
(lp510
s(S'PI3K'
p511
S'SHP2'
p512
S'binds'
p513
tp514
(lp515
s(S'SPI1'
p516
S'ONECUT1'
p517
S'increases'
p518
tp519
(lp520
s(S'STAT6'
p521
S'EN1'
p522
S'increases'
p523
tp524
(lp525
s(S'TLX2'
p526
S'CYP26A1'
p527
S'increases'
p528
tp529
(lp530
s(S'RAF1'
p531
S'MEK1-2'
p532
S'increases_activity'
p533
tp534
(lp535
s(S'STAT5A'
p536
S'IRF1'
p537
S'increases'
p538
tp539
(lp540
s(S'2-amino-1-methyl-6-phenylimidazo(4,5-b)pyridine'
p541
S'HRAS MRNA'
p542
S'increases'
p543
tp544
(lp545
s(S'MAZ'
p546
S'POU2F1'
p547
S'increases'
p548
tp549
(lp550
s(S'MAZ'
p551
S'SRF'
p552
S'increases'
p553
tp554
(lp555
s(S'GATA1'
p556
S'JUN'
p557
S'increases'
p558
tp559
(lp560
s(S'FOXA1'
p561
S'NRAS'
p562
S'increases'
p563
tp564
(lp565
s(S'STAT1'
p566
S'EN1'
p567
S'increases'
p568
tp569
(lp570
s(S'GTF2A2'
p571
S'MAX'
p572
S'increases'
p573
tp574
(lp575
s(S'LMO2'
p576
S'EN1'
p577
S'increases'
p578
tp579
(lp580
s(S'MYOD1'
p581
S'LEF1'
p582
S'increases'
p583
tp584
(lp585
s(S'ATF3'
p586
S'JUN'
p587
S'increases'
p588
tp589
(lp590
s(S'GRB2:SOS1'
p591
S'ACTIVATED FGFR:P-SHC1'
p592
S'binds'
p593
tp594
(lp595
s(S'MAFG'
p596
S'BACH1'
p597
S'increases'
p598
tp599
(lp600
s(S'POU3F2'
p601
S'POU2F1'
p602
S'increases'
p603
tp604
(lp605
s(S'K 7174'
p606
S'KRAS MRNA'
p607
S'increases'
p608
tp609
(lp610
s(S'POU1F1'
p611
S'RUNX1'
p612
S'increases'
p613
tp614
(lp615
s(S'HRAS protein'
p616
S'CCND1 MRNA'
p617
S'increases'
p618
tp619
(lp620
s(S'YY1'
p621
S'EN1'
p622
S'increases'
p623
tp624
(lp625
s(S'resveratrol'
p626
S'HRAS MRNA'
p627
S'increases'
p628
tp629
(lp630
s(S'NKX2-1'
p631
S'HOXA9'
p632
S'increases'
p633
tp634
(lp635
s(S'HSF1'
p636
S'CYP26A1'
p637
S'increases'
p638
tp639
(lp640
s(S'MYC'
p641
S'HOXA9'
p642
S'increases'
p643
tp644
(lp645
s(S'Raf'
p646
S'MEK'
p647
S'adds_modification'
p648
tp649
(lp650
S'Raf then phosphorylates MAP kinase MEK1/2.'
p651
aS'It has been demonstrated that MEK1, one of the two MEK isoforms in Raf-MEK-ERK1/2 pathway, is essential for successful EV71 propagation.'
p652
aS'Cellular ERK signaling pathway, one of the three major mitogen-activated protein kinase (MAPK) cascades, which consists of three tiered serine/threonine kinases of Raf, MEK and ERK, plays an important role in regulating cell physiological functions ['
p653
aS'Beside PI3K/Akt pathways, the Raf-MEK-MAPK signaling cascade is involved in JSRV-induced cell transformation, even though its role has not been completely elucidated.'
p654
aS'In summary, available evidence supports the idea that JSRV Env induces transformation at least in part by the activation of the Akt and Raf-MEK-MAPK pathways.'
p655
aS'In addition, to date, it is not known how JSRV Env initiates the signaling cascades resulting in the activation of the Akt and Raf-MEK-MAPK pathways.'
p656
aS'Studies of the Ras/Raf/MAP kinase pathway show that upstream events (including Shc phophorylation and Shc-Grb2 complex formation), Ras activation, and activation of downstream components (including Raf-1, MEK, and the MAP kinases ERK1/2 and JNK) occur constitutively in both SFFV-P and SFFV-A-infected cells ['
p657
aS'Structure-function studies have identified activated signaling pathways involved in oncogenic transformation, most notably the PI3K-Akt-mTOR and Ras-Raf-MEK-MAPK pathways.'
p658
aS'Therefore we investigated the role of phosphoinositide 3-kinase (PI3K)-Akt survival signaling and Ras-Raf-MEK-ERK proliferative signaling during RV-induced apoptosis in RK13 cells.'
p659
aS'In contrast, inhibition of the Ras-Raf-MEK-ERK pathway impaired RV replication and growth and reduced RV-induced apoptosis, suggesting that the normal cellular growth is required for efficient virus production.'
p660
aS'The Ras-Raf-MEK-ERK is a classical MAPK pathway where growth factor-receptor interactions trigger intracellular activation of the small G-protein Ras.'
p661
aS'Ras recruits and directly activates the MAPK kinase kinase (MAPKK) Raf, which phosphorylates and activates the MAPK kinase (MAPKK) MEK1/2, which in turn activate the MAPK ERK1/2.'
p662
aS'Activation of PI3K-Akt and Ras-Raf-MEK-ERK signaling cascades during virus infection is thought to play an important role not only in cellular growth and survival, but also in virus replication and growth during both acute and chronic virus infections ['
p663
aS'The effect of RV infection on PI3K-Akt and Ras-Raf-MEK-ERK pathways was investigated by examining the expression and phosphorylation profiles of Akt, ERK1/2 and their downstream targets.'
p664
aS'As Ras-Raf-MEK-ERK signaling is crucial to the regulation of cell growth in many cell lines, inhibition of this pathway often has detrimental effects.'
p665
aS'The role of Ras-Raf-MEK-ERK signaling in RV-induced apoptosis was investigated using MEK inhibitor U0126 as described above for LY294002 (Fig. '
p666
aS'To determine the importance of PI3K-Akt and Ras-Raf-MEK-ERK in the transduction of cell survival and proliferative mechanisms during RV-infection, RK13 cells were transiently transfected with constitutively active forms Akt and MEK.'
p667
aS'In the ERK1/2 pathway, signal is transduced by activated receptor tyrosine kinases, the small G protein Ras, Raf, and MAPK/ERK kinase1/2 (MEK1/2), which then activate ERK1/2 through phosphorylation.'
p668
aS'The virus-induced Raf/MEK/ERK (MAPK) signal cascade is crucial for efficient virus replication.'
p669
aS'To investigate the Raf/MEK/ERK signaling-dependent nuclear RNP export, we analyzed intracellular RNP localization in cells infected with either virus.'
p670
aS"Interestingly, growth capacity was related to the IVA's ability to activate the Raf/MEK/ERK (MAPK) signal cascade."
p671
aS'Infection with the H3N2 strain induced higher activation levels of the Raf/MEK/ERK (MAPK) signal cascade essential for virus replication.'
p672
aS'Activation of the Raf/MEK/ERK signal cascade was achieved by artificial stimulation of MDCK cells with 100 ng/ml 12-'
p673
aS'Lastly, HCV core protein signals through the p38 MAPK/ERK cascade, since it activates the Raf-1 kinase, a central component of the pathway that phosphorylates MEK1.'
p674
as(S'TFDP1'
p675
S'MAZ'
p676
S'increases'
p677
tp678
(lp679
s(S'SPRED1'
p680
S'HRAS'
p681
S'binds'
p682
tp683
(lp684
s(S'MYCN'
p685
S'CYP26A1'
p686
S'increases'
p687
tp688
(lp689
s(S'AHR'
p690
S'FOXD3'
p691
S'increases'
p692
tp693
(lp694
s(S'SF1'
p695
S'CYP26A1'
p696
S'increases'
p697
tp698
(lp699
s(S'MEIS1'
p700
S'ETS1'
p701
S'increases'
p702
tp703
(lp704
s(S'Copper Sulfate'
p705
S'HRAS MRNA'
p706
S'decreases'
p707
tp708
(lp709
s(S'MAZ'
p710
S'MYC'
p711
S'increases'
p712
tp713
(lp714
s(S'E4F1'
p715
S'HOXA9'
p716
S'increases'
p717
tp718
(lp719
s(S'GATA1'
p720
S'GATA6'
p721
S'increases'
p722
tp723
(lp724
s(S'RUNX2'
p725
S'POU2F1'
p726
S'increases'
p727
tp728
(lp729
s(S'CYP26A1'
p730
S'GATA6'
p731
S'increases'
p732
tp733
(lp734
s(S'PAX4'
p735
S'GATA1'
p736
S'increases'
p737
tp738
(lp739
s(S'ELF2'
p740
S'STAT5A'
p741
S'increases'
p742
tp743
(lp744
s(S'CART1'
p745
S'NRAS'
p746
S'increases'
p747
tp748
(lp749
s(S'IGF-1R heterotetramer/IGF1/GRB2/Sos/Shc'
p750
S'HRAS/GDP'
p751
S'increases_activity'
p752
tp753
(lp754
s(S'RB1'
p755
S'CYP26A1'
p756
S'increases'
p757
tp758
(lp759
s(S'CEBPG'
p760
S'HOXA9'
p761
S'increases'
p762
tp763
(lp764
s(S'GRB2/SOS1/SHC'
p765
S'IGF-1R HETEROTETRAMER/IGF1'
p766
S'binds'
p767
tp768
(lp769
s(S'PRRX2'
p770
S'CYP26A1'
p771
S'increases'
p772
tp773
(lp774
s(S'TEAD1'
p775
S'CYP26A1'
p776
S'increases'
p777
tp778
(lp779
s(S'STAT5A'
p780
S'FOXA1'
p781
S'increases'
p782
tp783
(lp784
s(S'ATF2'
p785
S'FOXD3'
p786
S'increases'
p787
tp788
(lp789
s(S'REPIN1'
p790
S'FOXO4'
p791
S'increases'
p792
tp793
(lp794
s(S'FOXF2'
p795
S'ETS1'
p796
S'increases'
p797
tp798
(lp799
s(S'ETV7'
p800
S'MEIS1'
p801
S'increases'
p802
tp803
(lp804
s(S'RUNX2'
p805
S'RUNX1'
p806
S'increases'
p807
tp808
(lp809
s(S'OR5I1'
p810
S'GATA1'
p811
S'increases'
p812
tp813
(lp814
s(S'MSX1'
p815
S'EN1'
p816
S'increases'
p817
tp818
(lp819
s(S'GTF3A'
p820
S'IRF1'
p821
S'increases'
p822
tp823
(lp824
s(S'POU2F1'
p825
S'SRF'
p826
S'increases'
p827
tp828
(lp829
s(S'PLC-GAMMA'
p830
S'COMPLEX (GADS/SLP-76)'
p831
S'binds'
p832
tp833
(lp834
s(S'STAT4'
p835
S'STAT5A'
p836
S'increases'
p837
tp838
(lp839
s(S'JUN'
p840
S'BACH1'
p841
S'increases'
p842
tp843
(lp844
s(S'POU1F1'
p845
S'HOXA9'
p846
S'increases'
p847
tp848
(lp849
s(S'docetaxel'
p850
S'HRAS PROTEIN'
p851
S'increases'
p852
tp853
(lp854
s(S'MAX'
p855
S'LEF1'
p856
S'increases'
p857
tp858
(lp859
s(S'FOXA1'
p860
S'CYP26A1'
p861
S'increases'
p862
tp863
(lp864
s(S'GATA4'
p865
S'FOXD3'
p866
S'increases'
p867
tp868
(lp869
s(S'ZBTB18'
p870
S'RUNX1'
p871
S'increases'
p872
tp873
(lp874
s(S'ATF3'
p875
S'RUNX1'
p876
S'increases'
p877
tp878
(lp879
s(S'NKX2-1'
p880
S'CYP26A1'
p881
S'increases'
p882
tp883
(lp884
s(S'NR3C1'
p885
S'FOXA1'
p886
S'increases'
p887
tp888
(lp889
s(S'RAS family/GTP'
p890
S'RIN1'
p891
S'increases_activity'
p892
tp893
(lp894
s(S'COMPLEX (RAS/GTP/ RAF)'
p895
S'MEK'
p896
S'binds'
p897
tp898
(lp899
s(S'CDC5L'
p900
S'NRAS'
p901
S'increases'
p902
tp903
(lp904
s(S'Vitamin E'
p905
S'NRAS MRNA'
p906
S'decreases'
p907
tp908
(lp909
s(S'NF1'
p910
S'LEF1'
p911
S'increases'
p912
tp913
(lp914
s(S'ETS1'
p915
S'EN1'
p916
S'increases'
p917
tp918
(lp919
s(S'CRAF'
p920
S'YWHAB'
p921
S'binds'
p922
tp923
(lp924
s(S'CEBPD'
p925
S'JUN'
p926
S'increases'
p927
tp928
(lp929
s(S'MAX'
p930
S'RUNX2'
p931
S'increases'
p932
tp933
(lp934
s(S'CEBPA'
p935
S'MECOM'
p936
S'increases'
p937
tp938
(lp939
s(S'PAX2'
p940
S'GATA1'
p941
S'increases'
p942
tp943
(lp944
s(S'CYP26A1'
p945
S'TLX2'
p946
S'increases'
p947
tp948
(lp949
s(S'GFI1'
p950
S'ETS1'
p951
S'increases'
p952
tp953
(lp954
s(S'14-3-3:P-S259,Y340,Y341,S621-RAF1:RAS:GTP'
p955
S'MEK'
p956
S'binds'
p957
tp958
(lp959
s(S'P-S,T-MEK2'
p960
S'ERK2'
p961
S'binds'
p962
tp963
(lp964
s(S'HRAS/GTP'
p965
S'RIN2'
p966
S'increases_activity'
p967
tp968
(lp969
s(S'Ras-GTP'
p970
S'P42/P44MAPKS'
p971
S'adds_modification'
p972
tp973
(lp974
s(S'SRF'
p975
S'CYP26A1'
p976
S'increases'
p977
tp978
(lp979
s(S'FOXL1'
p980
S'RUNX2'
p981
S'increases'
p982
tp983
(lp984
s(S'EGR4'
p985
S'LEF1'
p986
S'increases'
p987
tp988
(lp989
s(S'P-IRS1,2'
p990
S'GRB2:SOS1'
p991
S'binds'
p992
tp993
(lp994
s(S'VEGFR2 (dimer)/VEGFA (dimer)/alphav/beta3 Integrin/Vitronectin'
p995
S'SRC'
p996
S'adds_modification'
p997
tp998
(lp999
s(S'BACH2'
p1000
S'BACH1'
p1001
S'increases'
p1002
tp1003
(lp1004
s(S'ONECUT1'
p1005
S'RUNX1'
p1006
S'increases'
p1007
tp1008
(lp1009
s(S'FOXJ2'
p1010
S'RUNX2'
p1011
S'increases'
p1012
tp1013
(lp1014
s(S'PI-3-4-5-P3'
p1015
S'AKT1'
p1016
S'translocates'
p1017
tp1018
(lp1019
s(S'TFAP4'
p1020
S'BACH1'
p1021
S'increases'
p1022
tp1023
(lp1024
s(S'MEKK1/4'
p1025
S'MKK3/6'
p1026
S'adds_modification'
p1027
tp1028
(lp1029
s(S'VSX1'
p1030
S'MECOM'
p1031
S'increases'
p1032
tp1033
(lp1034
s(S'IRF1'
p1035
S'GATA6'
p1036
S'increases'
p1037
tp1038
(lp1039
s(S'MAX'
p1040
S'HOXA9'
p1041
S'increases'
p1042
tp1043
(lp1044
s(S'RB1'
p1045
S'MAZ'
p1046
S'increases'
p1047
tp1048
(lp1049
s(S'GATA1'
p1050
S'EN1'
p1051
S'increases'
p1052
tp1053
(lp1054
s(S'HIF1A'
p1055
S'SRF'
p1056
S'increases'
p1057
tp1058
(lp1059
s(S'IRF8'
p1060
S'CYP26A1'
p1061
S'increases'
p1062
tp1063
(lp1064
s(S'MTF1'
p1065
S'CYP26A1'
p1066
S'increases'
p1067
tp1068
(lp1069
s(S'PI-3-4-5-P3'
p1070
S'GAB1'
p1071
S'translocates'
p1072
tp1073
(lp1074
s(S'PI-3-4-5-P3'
p1075
S'AKT1'
p1076
S'adds_modification'
p1077
tp1078
(lp1079
s(S'RXRA'
p1080
S'HOXA9'
p1081
S'increases'
p1082
tp1083
(lp1084
s(S'AKT1'
p1085
S'RAF1'
p1086
S'binds'
p1087
tp1088
(lp1089
s(S'HSF2'
p1090
S'JUN'
p1091
S'increases'
p1092
tp1093
(lp1094
s(S'PAX2'
p1095
S'CYP26A1'
p1096
S'increases'
p1097
tp1098
(lp1099
s(S'ETV7'
p1100
S'CYP26A1'
p1101
S'increases'
p1102
tp1103
(lp1104
s(S'FOXO3'
p1105
S'NRAS'
p1106
S'increases'
p1107
tp1108
(lp1109
s(S'TP53'
p1110
S'REPIN1'
p1111
S'increases'
p1112
tp1113
(lp1114
s(S'STAT6'
p1115
S'CYP26A1'
p1116
S'increases'
p1117
tp1118
(lp1119
s(S'JUN'
p1120
S'NRAS'
p1121
S'increases'
p1122
tp1123
(lp1124
s(S'MYCN'
p1125
S'NRAS'
p1126
S'increases'
p1127
tp1128
(lp1129
s(S'STAT3'
p1130
S'YY1'
p1131
S'increases'
p1132
tp1133
(lp1134
s(S'Methyl Methanesulfonate'
p1135
S'HRAS MRNA'
p1136
S'increases'
p1137
tp1138
(lp1139
s(S'RHOA/GTP'
p1140
S'PKN'
p1141
S'increases_activity'
p1142
tp1143
(lp1144
s(S'NHLH1'
p1145
S'FOXJ2'
p1146
S'increases'
p1147
tp1148
(lp1149
s(S'RAS family/GTP'
p1150
S'BRAF'
p1151
S'adds_modification'
p1152
tp1153
(lp1154
s(S'RELA'
p1155
S'FOXJ2'
p1156
S'increases'
p1157
tp1158
(lp1159
s(S'TCF3'
p1160
S'RUNX1'
p1161
S'increases'
p1162
tp1163
(lp1164
s(S'FOXF2'
p1165
S'FOXO4'
p1166
S'increases'
p1167
tp1168
(lp1169
s(S'ATF4'
p1170
S'FOXD3'
p1171
S'increases'
p1172
tp1173
(lp1174
s(S'HAND1'
p1175
S'MECOM'
p1176
S'increases'
p1177
tp1178
(lp1179
s(S'RHOA/GTP'
p1180
S'P27KIP1'
p1181
S'adds_modification'
p1182
tp1183
(lp1184
s(S'SRF'
p1185
S'NRAS'
p1186
S'increases'
p1187
tp1188
(lp1189
s(S'ESRRA'
p1190
S'POU3F2'
p1191
S'increases'
p1192
tp1193
(lp1194
s(S'BRAF'
p1195
S'MEK1'
p1196
S'adds_modification'
p1197
tp1198
(lp1199
s(S'Cadmium Chloride'
p1200
S'KRAS PROTEIN'
p1201
S'increases'
p1202
tp1203
(lp1204
s(S'PRRX2'
p1205
S'MEIS1'
p1206
S'increases'
p1207
tp1208
(lp1209
s(S'MYC'
p1210
S'NRAS'
p1211
S'increases'
p1212
tp1213
(lp1214
s(S'MAZ'
p1215
S'KRAS'
p1216
S'increases'
p1217
tp1218
(lp1219
s(S'Rho Family GTPase-active'
p1220
S'PI3K'
p1221
S'increases_activity'
p1222
tp1223
(lp1224
s(S'STAT2'
p1225
S'CYP26A1'
p1226
S'increases'
p1227
tp1228
(lp1229
s(S'hsa-let-7a-5p'
p1230
S'KRAS'
p1231
S'decreases'
p1232
tp1233
(lp1234
s(S'POU3F2'
p1235
S'NRAS'
p1236
S'increases'
p1237
tp1238
(lp1239
s(S'SRF'
p1240
S'FOXO4'
p1241
S'increases'
p1242
tp1243
(lp1244
s(S'S1P1/Sphingosine-1-phosphate/PDGF-BB/PDGFRB (dimer)'
p1245
S'SRC FAMILY KINASES'
p1246
S'increases_activity'
p1247
tp1248
(lp1249
s(S'MYC/Max'
p1250
S'ERBB2'
p1251
S'decreases'
p1252
tp1253
(lp1254
s(S'SREBF1'
p1255
S'CBFA2T3'
p1256
S'increases'
p1257
tp1258
(lp1259
s(S'PI3K'
p1260
S'GELSOLIN/PI-3-4-5-P3'
p1261
S'binds'
p1262
tp1263
(lp1264
s(S'NHLH1'
p1265
S'EN1'
p1266
S'increases'
p1267
tp1268
(lp1269
s(S'LMO2'
p1270
S'GATA6'
p1271
S'increases'
p1272
tp1273
(lp1274
s(S'POU1F1'
p1275
S'FOXD3'
p1276
S'increases'
p1277
tp1278
(lp1279
s(S'hsa-miR-148b-3p'
p1280
S'NRAS'
p1281
S'decreases'
p1282
tp1283
(lp1284
s(S'Quercetin'
p1285
S'KRAS PROTEIN'
p1286
S'decreases'
p1287
tp1288
(lp1289
s(S'PAK2'
p1290
S'MEKK1'
p1291
S'adds_modification'
p1292
tp1293
(lp1294
s(S'LMO2'
p1295
S'MAZ'
p1296
S'increases'
p1297
tp1298
(lp1299
s(S'FOXO1'
p1300
S'POU3F2'
p1301
S'increases'
p1302
tp1303
(lp1304
s(S'NKX2-1'
p1305
S'MAZ'
p1306
S'increases'
p1307
tp1308
(lp1309
s(S'GRB2/SOS1'
p1310
S'PDGF-BB/PDGFRB (DIMER)/P52 SHC'
p1311
S'binds'
p1312
tp1313
(lp1314
s(S'PI3K'
p1315
S'CRK/P130 CAS/PAXILLIN'
p1316
S'increases_activity'
p1317
tp1318
(lp1319
s(S'ATF1'
p1320
S'FOXD3'
p1321
S'increases'
p1322
tp1323
(lp1324
s(S'GATA1'
p1325
S'SRF'
p1326
S'increases'
p1327
tp1328
(lp1329
s(S'TFAP2C'
p1330
S'CYP26A1'
p1331
S'increases'
p1332
tp1333
(lp1334
s(S'AHR'
p1335
S'MEIS1'
p1336
S'increases'
p1337
tp1338
(lp1339
s(S'ETS2'
p1340
S'CYP26A1'
p1341
S'increases'
p1342
tp1343
(lp1344
s(S'Estradiol'
p1345
S'NRAS MRNA'
p1346
S'increases'
p1347
tp1348
(lp1349
s(S'E2F1'
p1350
S'HOXA9'
p1351
S'increases'
p1352
tp1353
(lp1354
s(S'PDGF-BB/PDGFRB (DIMER)'
p1355
S'RASGAP'
p1356
S'binds'
p1357
tp1358
(lp1359
s(S'E2F1'
p1360
S'GABPB2'
p1361
S'increases'
p1362
tp1363
(lp1364
s(S'FOXJ1'
p1365
S'POU3F2'
p1366
S'increases'
p1367
tp1368
(lp1369
s(S'VSX1'
p1370
S'CYP26A1'
p1371
S'increases'
p1372
tp1373
(lp1374
s(S'SPI1'
p1375
S'CDC5L'
p1376
S'increases'
p1377
tp1378
(lp1379
s(S'Gi family'
p1380
S'HRAS/GDP'
p1381
S'increases_activity'
p1382
tp1383
(lp1384
s(S'TCF3'
p1385
S'CYP26A1'
p1386
S'increases'
p1387
tp1388
(lp1389
s(S'IGF-1R HETEROTETRAMER/IGF1/IRS1'
p1390
S'GRB2/SOS1'
p1391
S'binds'
p1392
tp1393
(lp1394
s(S'RAS family/GTP'
p1395
S'RALGDS'
p1396
S'translocates'
p1397
tp1398
(lp1399
s(S'PI3K'
p1400
S'RAC1/GDP'
p1401
S'increases_activity'
p1402
tp1403
(lp1404
s(S'Ca2+'
p1405
S'PKC'
p1406
S'increases_activity'
p1407
tp1408
(lp1409
s(S'ZIC1'
p1410
S'CYP26A1'
p1411
S'increases'
p1412
tp1413
(lp1414
s(S'IRF7'
p1415
S'TLX2'
p1416
S'increases'
p1417
tp1418
(lp1419
s(S'SHC/SHIP'
p1420
S'HRAS/GDP'
p1421
S'decreases_activity'
p1422
tp1423
(lp1424
s(S'hsa-let-7a-5p'
p1425
S'HRAS'
p1426
S'decreases'
p1427
tp1428
(lp1429
s(S'GATA4'
p1430
S'MAZ'
p1431
S'increases'
p1432
tp1433
(lp1434
s(S'EN1'
p1435
S'NRAS'
p1436
S'increases'
p1437
tp1438
(lp1439
s(S'PI3K'
p1440
S'BAM32'
p1441
S'adds_modification'
p1442
tp1443
(lp1444
s(S'GABPB1'
p1445
S'CYP26A1'
p1446
S'increases'
p1447
tp1448
(lp1449
s(S'Trifluoroethanol'
p1450
S'HRAS'
p1451
S'increases_activity'
p1452
tp1453
(lp1454
s(S'SOX5'
p1455
S'CYP26A1'
p1456
S'increases'
p1457
tp1458
(lp1459
s(S'GRB2/SOS1'
p1460
S'HGF(DIMER)/MET(DIMER)/P52 SHC'
p1461
S'binds'
p1462
tp1463
(lp1464
s(S'TCF12'
p1465
S'EN1'
p1466
S'increases'
p1467
tp1468
(lp1469
s(S'SOX9'
p1470
S'MEIS1'
p1471
S'increases'
p1472
tp1473
(lp1474
s(S'RB1'
p1475
S'MYC'
p1476
S'increases'
p1477
tp1478
(lp1479
s(S'RXRA'
p1480
S'FOXA1'
p1481
S'increases'
p1482
tp1483
(lp1484
s(S'decitabine'
p1485
S'HRAS MRNA'
p1486
S'decreases'
p1487
tp1488
(lp1489
s(S'VSX1'
p1490
S'EN1'
p1491
S'increases'
p1492
tp1493
(lp1494
s(S'FOXL1'
p1495
S'CYP26A1'
p1496
S'increases'
p1497
tp1498
(lp1499
s(S'PAX2'
p1500
S'RUNX1'
p1501
S'increases'
p1502
tp1503
(lp1504
s(S'MEKK1/4'
p1505
S'MKK4/7'
p1506
S'adds_modification'
p1507
tp1508
(lp1509
s(S'HOXA9'
p1510
S'CYP26A1'
p1511
S'increases'
p1512
tp1513
(lp1514
s(S'TRKC'
p1515
S'NT3 (DIMER)'
p1516
S'binds'
p1517
tp1518
(lp1519
s(S'PTF1A'
p1520
S'REPIN1'
p1521
S'increases'
p1522
tp1523
(lp1524
s(S'TGIF'
p1525
S'CYP26A1'
p1526
S'increases'
p1527
tp1528
(lp1529
s(S'MYOD1'
p1530
S'MYC'
p1531
S'increases'
p1532
tp1533
(lp1534
s(S'PKCT'
p1535
S'KRAS ISO2'
p1536
S'adds_modification'
p1537
tp1538
(lp1539
s(S'RAS family/GTP'
p1540
S'BRAF'
p1541
S'increases_activity'
p1542
tp1543
(lp1544
s(S'SPZ1'
p1545
S'CYP26A1'
p1546
S'increases'
p1547
tp1548
(lp1549
s(S'HRAS/GTP'
p1550
S'GALECTIN-1'
p1551
S'binds'
p1552
tp1553
(lp1554
s(S'DBP'
p1555
S'FOXD3'
p1556
S'increases'
p1557
tp1558
(lp1559
s(S'E2F1'
p1560
S'POU2F1'
p1561
S'increases'
p1562
tp1563
(lp1564
s(S'MEIS1'
p1565
S'CYP26A1'
p1566
S'increases'
p1567
tp1568
(lp1569
s(S'YY1'
p1570
S'NRAS'
p1571
S'increases'
p1572
tp1573
(lp1574
s(S'RAS:RAF'
p1575
S'YWHAB'
p1576
S'binds'
p1577
tp1578
(lp1579
s(S'NFE2L2'
p1580
S'CYP26A1'
p1581
S'increases'
p1582
tp1583
(lp1584
s(S'FARNESYL'
p1585
S'KRAS'
p1586
S'increases_activity'
p1587
tp1588
(lp1589
s(S'MTF1'
p1590
S'MECOM'
p1591
S'increases'
p1592
tp1593
(lp1594
s(S'TLX2'
p1595
S'FOXD3'
p1596
S'increases'
p1597
tp1598
(lp1599
s(S'Insulin Receptor/Insulin/SHC/GRB2/Sos1'
p1600
S'HRAS/GDP'
p1601
S'increases_activity'
p1602
tp1603
(lp1604
s(S'MYC'
p1605
S'ELK1'
p1606
S'increases'
p1607
tp1608
(lp1609
s(S'ONECUT1'
p1610
S'POU2F1'
p1611
S'increases'
p1612
tp1613
(lp1614
s(S'Paraquat'
p1615
S'HRAS MRNA'
p1616
S'translocates'
p1617
tp1618
(lp1619
s(S'GRB2/SOS1'
p1620
S'PDGF-BB/PDGFRB (DIMER)/SHP2'
p1621
S'binds'
p1622
tp1623
(lp1624
s(S'ONECUT1'
p1625
S'CYP26A1'
p1626
S'increases'
p1627
tp1628
(lp1629
s(S'MYC'
p1630
S'FOXO3'
p1631
S'increases'
p1632
tp1633
(lp1634
s(S'PAX3'
p1635
S'ELK1'
p1636
S'increases'
p1637
tp1638
(lp1639
s(S'DOK-R'
p1640
S'RASGAP'
p1641
S'binds'
p1642
tp1643
(lp1644
s(S'HOXA4'
p1645
S'HOXA9'
p1646
S'increases'
p1647
tp1648
(lp1649
s(S'MAX'
p1650
S'POU3F2'
p1651
S'increases'
p1652
tp1653
(lp1654
s(S'Estradiol'
p1655
S'KRAS MRNA'
p1656
S'decreases'
p1657
tp1658
(lp1659
s(S'KRAS ISOFORM 4B/GTP'
p1660
S'CAM/CA2+'
p1661
S'binds'
p1662
tp1663
(lp1664
s(S'MAZ'
p1665
S'FOXO4'
p1666
S'increases'
p1667
tp1668
(lp1669
s(S'hsa-miR-181a-5p'
p1670
S'KRAS'
p1671
S'decreases'
p1672
tp1673
(lp1674
s(S'GATA1'
p1675
S'CYP26A1'
p1676
S'increases'
p1677
tp1678
(lp1679
s(S'PGR'
p1680
S'ETS1'
p1681
S'increases'
p1682
tp1683
(lp1684
s(S'GATA1'
p1685
S'POU2F1'
p1686
S'increases'
p1687
tp1688
(lp1689
s(S'BRAF'
p1690
S'MEK1-2'
p1691
S'increases_activity'
p1692
tp1693
(lp1694
s(S'LEF1'
p1695
S'GABPB2'
p1696
S'increases'
p1697
tp1698
(lp1699
s(S'CYP26A1'
p1700
S'MYC'
p1701
S'increases'
p1702
tp1703
(lp1704
s(S'STAT1'
p1705
S'IRF1'
p1706
S'increases'
p1707
tp1708
(lp1709
S'We next determined whether STAT1 molecules in the nucleus were competent to bind the GAS element derived from the promoter of the IRF1 gene by EMSA.'
p1710
aS'Cytokines like CCL5, small inducible cytokine A2, IL8 and other immune responsive genes like STAT1, IRF1 and B2 M were found to be up-regulated at this time point post infection with seasonal influenza virus.'
p1711
as(S'SMAD1'
p1712
S'RUNX2'
p1713
S'increases'
p1714
tp1715
(lp1716
s(S'ZEB1'
p1717
S'TLX2'
p1718
S'increases'
p1719
tp1720
(lp1721
s(S'STAT5B'
p1722
S'IRF1'
p1723
S'increases'
p1724
tp1725
(lp1726
s(S'POU6F1'
p1727
S'CYP26A1'
p1728
S'increases'
p1729
tp1730
(lp1731
s(S'Vincristine'
p1732
S'HRAS MRNA'
p1733
S'increases'
p1734
tp1735
(lp1736
s(S'DAG'
p1737
S'RASGRP1'
p1738
S'adds_modification'
p1739
tp1740
(lp1741
s(S'PI3K'
p1742
S'PDK1'
p1743
S'increases_activity'
p1744
tp1745
(lp1746
s(S'ETS2'
p1747
S'PAX4'
p1748
S'increases'
p1749
tp1750
(lp1751
s(S'NR3C1'
p1752
S'ONECUT1'
p1753
S'increases'
p1754
tp1755
(lp1756
s(S'CUX1'
p1757
S'CYP26A1'
p1758
S'increases'
p1759
tp1760
(lp1761
s(S'ZEB1'
p1762
S'GATA1'
p1763
S'increases'
p1764
tp1765
(lp1766
s(S'NRF1'
p1767
S'POU2F1'
p1768
S'increases'
p1769
tp1770
(lp1771
s(S'FOXJ2'
p1772
S'MECOM'
p1773
S'increases'
p1774
tp1775
(lp1776
s(S'MAZ'
p1777
S'MYCN'
p1778
S'increases'
p1779
tp1780
(lp1781
s(S'Hydrogen Peroxide'
p1782
S'HRAS MRNA'
p1783
S'increases'
p1784
tp1785
(lp1786
s(S'RASA1'
p1787
S'P-EPHBS:EFNBS'
p1788
S'binds'
p1789
tp1790
(lp1791
s(S'SPI1'
p1792
S'CEBPG'
p1793
S'increases'
p1794
tp1795
(lp1796
s(S'EGR1'
p1797
S'LEF1'
p1798
S'increases'
p1799
tp1800
(lp1801
s(S'RET51/GFRALPHA1/GDNF'
p1802
S'P62DOK'
p1803
S'binds'
p1804
tp1805
(lp1806
s(S'TFDP2'
p1807
S'CYP26A1'
p1808
S'increases'
p1809
tp1810
(lp1811
s(S'matrine'
p1812
S'NRAS MRNA'
p1813
S'increases'
p1814
tp1815
(lp1816
s(S'Isotretinoin'
p1817
S'KRAS MRNA'
p1818
S'decreases'
p1819
tp1820
(lp1821
s(S'PITX2'
p1822
S'FOXF2'
p1823
S'increases'
p1824
tp1825
(lp1826
s(S'MYOD1'
p1827
S'POU2F1'
p1828
S'increases'
p1829
tp1830
(lp1831
s(S'sodium arsenite'
p1832
S'KRAS PROTEIN'
p1833
S'increases'
p1834
tp1835
(lp1836
s(S'TCF4'
p1837
S'CBFA2T3'
p1838
S'increases'
p1839
tp1840
(lp1841
s(S'CYP26A1'
p1842
S'FOXA1'
p1843
S'increases'
p1844
tp1845
(lp1846
s(S'TP53'
p1847
S'CYP26A1'
p1848
S'increases'
p1849
tp1850
(lp1851
s(S'ATF3'
p1852
S'FOXD3'
p1853
S'increases'
p1854
tp1855
(lp1856
s(S'POU2F1'
p1857
S'NRAS'
p1858
S'increases'
p1859
tp1860
(lp1861
s(S'NRF1'
p1862
S'GABPB2'
p1863
S'increases'
p1864
tp1865
(lp1866
s(S'PAX4'
p1867
S'TLX2'
p1868
S'increases'
p1869
tp1870
(lp1871
s(S'PITX2'
p1872
S'FOXA1'
p1873
S'increases'
p1874
tp1875
(lp1876
s(S'GTF3A'
p1877
S'POU2F1'
p1878
S'increases'
p1879
tp1880
(lp1881
s(S'HLF'
p1882
S'FOXO3'
p1883
S'increases'
p1884
tp1885
(lp1886
s(S'PAX4'
p1887
S'FOXO4'
p1888
S'increases'
p1889
tp1890
(lp1891
s(S'CEBPA'
p1892
S'FOXD3'
p1893
S'increases'
p1894
tp1895
(lp1896
s(S'NFE2'
p1897
S'CYP26A1'
p1898
S'increases'
p1899
tp1900
(lp1901
s(S'MYB'
p1902
S'GABPB2'
p1903
S'increases'
p1904
tp1905
(lp1906
s(S'MYC'
p1907
S'CEBPA'
p1908
S'increases'
p1909
tp1910
(lp1911
s(S'ELK1'
p1912
S'EN1'
p1913
S'increases'
p1914
tp1915
(lp1916
s(S'E2F1'
p1917
S'CDC5L'
p1918
S'increases'
p1919
tp1920
(lp1921
s(S'YWHAZ (DIMER)'
p1922
S'RAF1'
p1923
S'binds'
p1924
tp1925
(lp1926
s(S'ATF6'
p1927
S'CYP26A1'
p1928
S'increases'
p1929
tp1930
(lp1931
s(S'sodium arsenite'
p1932
S'HRAS MRNA'
p1933
S'increases'
p1934
tp1935
(lp1936
s(S'EGR3'
p1937
S'CYP26A1'
p1938
S'increases'
p1939
tp1940
(lp1941
s(S'lead acetate'
p1942
S'HRAS PROTEIN'
p1943
S'increases_activity'
p1944
tp1945
(lp1946
s(S'REPIN1'
p1947
S'MYC'
p1948
S'increases'
p1949
tp1950
(lp1951
s(S'CEBPA'
p1952
S'NRAS'
p1953
S'increases'
p1954
tp1955
(lp1956
s(S'Quercetin'
p1957
S'NRAS MRNA'
p1958
S'decreases'
p1959
tp1960
(lp1961
s(S'14-3-3 E'
p1962
S'TERT'
p1963
S'binds'
p1964
tp1965
(lp1966
s(S'Antigen/IgE/Fc epsilon R1/LYN/SYK'
p1967
S'BTK'
p1968
S'adds_modification'
p1969
tp1970
(lp1971
s(S'HSF2'
p1972
S'CBFA2T3'
p1973
S'increases'
p1974
tp1975
(lp1976
s(S'Fluorouracil'
p1977
S'HRAS MRNA'
p1978
S'increases'
p1979
tp1980
(lp1981
s(S'STAT4'
p1982
S'MECOM'
p1983
S'increases'
p1984
tp1985
(lp1986
s(S'ETS2'
p1987
S'ETS1'
p1988
S'increases'
p1989
tp1990
(lp1991
s(S'CEBPG'
p1992
S'CYP26A1'
p1993
S'increases'
p1994
tp1995
(lp1996
s(S'Complex (PDGF receptor A/PDGF receptor B)'
p1997
S'NCK'
p1998
S'adds_modification'
p1999
tp2000
(lp2001
s(S'Fog1'
p2002
S'MYB'
p2003
S'decreases'
p2004
tp2005
(lp2006
s(S'CREB1'
p2007
S'FOXD3'
p2008
S'increases'
p2009
tp2010
(lp2011
s(S'Numb'
p2012
S'NICS'
p2013
S'translocates'
p2014
tp2015
(lp2016
s(S'STAT6'
p2017
S'STAT5A'
p2018
S'increases'
p2019
tp2020
(lp2021
s(S'RAF1/14-3-3'
p2022
S'BRAF/14-3-3'
p2023
S'binds'
p2024
tp2025
(lp2026
s(S'B-cell antigen/BCR complex/LYN/SYK/BLNK'
p2027
S'SHC/GRB2/SOS1'
p2028
S'increases_activity'
p2029
tp2030
(lp2031
s(S'IRF2'
p2032
S'CYP26A1'
p2033
S'increases'
p2034
tp2035
(lp2036
s(S'GATA6'
p2037
S'CYP26A1'
p2038
S'increases'
p2039
tp2040
(lp2041
s(S'HMGA1'
p2042
S'CYP26A1'
p2043
S'increases'
p2044
tp2045
(lp2046
s(S'MTF1'
p2047
S'FOXO4'
p2048
S'increases'
p2049
tp2050
(lp2051
s(S'STAT1'
p2052
S'GABPB2'
p2053
S'increases'
p2054
tp2055
(lp2056
s(S'manumycin'
p2057
S'HRAS PROTEIN'
p2058
S'decreases'
p2059
tp2060
(lp2061
s(S'STAT5A'
p2062
S'ETS1'
p2063
S'increases'
p2064
tp2065
(lp2066
s(S'SPI1'
p2067
S'CBFA2T3'
p2068
S'increases'
p2069
tp2070
(lp2071
s(S'GMCSF/GMR ALPHA/CSF2RB/JAK2 (DODECAMER)/SHC'
p2072
S'GRB2/SOS1'
p2073
S'binds'
p2074
tp2075
(lp2076
s(S'7,8-Dihydro-7,8-dihydroxybenzo(a)pyrene 9,10-oxide'
p2077
S'NRAS PROTEIN'
p2078
S'increases'
p2079
tp2080
(lp2081
s(S'CDC5L'
p2082
S'CYP26A1'
p2083
S'increases'
p2084
tp2085
(lp2086
s(S'PAX4'
p2087
S'POU3F2'
p2088
S'increases'
p2089
tp2090
(lp2091
s(S'SPRED2'
p2092
S'HRAS'
p2093
S'binds'
p2094
tp2095
(lp2096
s(S'PITX2'
p2097
S'FOXO4'
p2098
S'increases'
p2099
tp2100
(lp2101
s(S'FOXD3'
p2102
S'CYP26A1'
p2103
S'increases'
p2104
tp2105
(lp2106
s(S'NFIL3'
p2107
S'FOXO3'
p2108
S'increases'
p2109
tp2110
(lp2111
s(S'MTF1'
p2112
S'POU2F1'
p2113
S'increases'
p2114
tp2115
(lp2116
s(S'TFCP2'
p2117
S'BACH1'
p2118
S'increases'
p2119
tp2120
(lp2121
s(S'NF1'
p2122
S'MECOM'
p2123
S'increases'
p2124
tp2125
(lp2126
s(S'FOXO3'
p2127
S'FOXD3'
p2128
S'increases'
p2129
tp2130
(lp2131
s(S'STAT5A'
p2132
S'TLX2'
p2133
S'increases'
p2134
tp2135
(lp2136
s(S'RIN1'
p2137
S'HRAS/GTP'
p2138
S'adds_modification'
p2139
tp2140
(lp2141
s(S'STAT5A'
p2142
S'CEBPG'
p2143
S'increases'
p2144
tp2145
(lp2146
s(S'DAG'
p2147
S'PKC'
p2148
S'increases_activity'
p2149
tp2150
(lp2151
S'Hyperglycemia increases diacylglycerol (DAG) content, which activates PKC, primarily the b- and d-isoforms.'
p2152
aS'This results in increased flux of dihydroxyacetone phosphate (DHAP) to DAG, an activator of PKC, and of triose phosphates to methylglyoxal, the main intracellular AGE precursor.'
p2153
as(S'HNF4A'
p2154
S'FOXA1'
p2155
S'increases'
p2156
tp2157
(lp2158
s(S'LEF1'
p2159
S'MAZ'
p2160
S'increases'
p2161
tp2162
(lp2163
s(S'hsa-miR-124-3p'
p2164
S'NRAS'
p2165
S'decreases'
p2166
tp2167
(lp2168
s(S'RAF1'
p2169
S'14-3-3 E'
p2170
S'binds'
p2171
tp2172
(lp2173
s(S'GATA1'
p2174
S'MYB'
p2175
S'decreases'
p2176
tp2177
(lp2178
s(S'LMO2'
p2179
S'GATA1'
p2180
S'increases'
p2181
tp2182
(lp2183
s(S'HRAS/GTP'
p2184
S'RAF1'
p2185
S'increases_activity'
p2186
tp2187
(lp2188
s(S'MYCN'
p2189
S'RUNX2'
p2190
S'increases'
p2191
tp2192
(lp2193
s(S'STAT5B'
p2194
S'CYP26A1'
p2195
S'increases'
p2196
tp2197
(lp2198
s(S'ZIC2'
p2199
S'MYCN'
p2200
S'increases'
p2201
tp2202
(lp2203
s(S'FOXL1'
p2204
S'FOXD3'
p2205
S'increases'
p2206
tp2207
(lp2208
s(S'ZBTB18'
p2209
S'CBFA2T3'
p2210
S'increases'
p2211
tp2212
(lp2213
s(S'HSF1'
p2214
S'IRF1'
p2215
S'increases'
p2216
tp2217
(lp2218
s(S'SPZ1'
p2219
S'MAZ'
p2220
S'increases'
p2221
tp2222
(lp2223
s(S'SRY'
p2224
S'CYP26A1'
p2225
S'increases'
p2226
tp2227
(lp2228
s(S'FOXO4'
p2229
S'HOXA9'
p2230
S'increases'
p2231
tp2232
(lp2233
s(S'IGF-1R heterotetramer/IGF1/IRS1/GRB2/Sos'
p2234
S'HRAS/GDP'
p2235
S'increases_activity'
p2236
tp2237
(lp2238
s(S'hsa-miR-615-3p'
p2239
S'HRAS'
p2240
S'decreases'
p2241
tp2242
(lp2243
s(S'ESRRA'
p2244
S'FOXD3'
p2245
S'increases'
p2246
tp2247
(lp2248
s(S'ELK1'
p2249
S'CYP26A1'
p2250
S'increases'
p2251
tp2252
(lp2253
s(S'Hexane-1,6-Diol'
p2254
S'HRAS'
p2255
S'increases_activity'
p2256
tp2257
(lp2258
s(S'MAZ'
p2259
S'NRAS'
p2260
S'increases'
p2261
tp2262
(lp2263
s(S'MIF'
p2264
S'CYP26A1'
p2265
S'increases'
p2266
tp2267
(lp2268
s(S'AHR'
p2269
S'POU2F1'
p2270
S'increases'
p2271
tp2272
(lp2273
s(S'SMAD3'
p2274
S'CYP26A1'
p2275
S'increases'
p2276
tp2277
(lp2278
s(S'PI-3-4-5-P3'
p2279
S'GELSOLIN'
p2280
S'binds'
p2281
tp2282
(lp2283
s(S'ADP'
p2284
S'P-S724-IRE1 DIMER'
p2285
S'binds'
p2286
tp2287
(lp2288
s(S'testosterone enanthate'
p2289
S'KRAS MRNA'
p2290
S'increases'
p2291
tp2292
(lp2293
s(S'CYP26A1'
p2294
S'ONECUT1'
p2295
S'increases'
p2296
tp2297
(lp2298
s(S'Valproic Acid'
p2299
S'NRAS MRNA'
p2300
S'decreases'
p2301
tp2302
(lp2303
s(S'GTF2A2'
p2304
S'CYP26A1'
p2305
S'increases'
p2306
tp2307
(lp2308
s(S'CEBPA'
p2309
S'FOXO3'
p2310
S'increases'
p2311
tp2312
(lp2313
s(S'GATA3'
p2314
S'POU2F1'
p2315
S'increases'
p2316
tp2317
(lp2318
s(S'PI3K'
p2319
S'RAC1B/GDP'
p2320
S'increases_activity'
p2321
tp2322
(lp2323
s(S'CDC25C'
p2324
S'YWHAB'
p2325
S'binds'
p2326
tp2327
(lp2328
s(S'RAC1/GTP'
p2329
S'PAK1/BETAPIX/PKL/NCK1-2'
p2330
S'increases_activity'
p2331
tp2332
(lp2333
s(S'SMAD1'
p2334
S'CYP26A1'
p2335
S'increases'
p2336
tp2337
(lp2338
s(S'PI3K'
p2339
S'FAK'
p2340
S'adds_modification'
p2341
tp2342
(lp2343
S'Focal adhesion kinases (FAK) and phophatidyl inositol-3 kinase (PI3K) are two prominent intermediate signaling molecules.'
p2344
aS'KSHV-induced integrin signaling in fibroblasts results in phosphorylation of FAK, which leads to the activation and phosphorylation of Src tyrosine kinases and PI3K.'
p2345
as(S'NRF1'
p2346
S'MAX'
p2347
S'increases'
p2348
tp2349
(lp2350
s(S'FOXI1'
p2351
S'RUNX2'
p2352
S'increases'
p2353
tp2354
(lp2355
s(S'7,8-Dihydro-7,8-dihydroxybenzo(a)pyrene 9,10-oxide'
p2356
S'HRAS MRNA'
p2357
S'increases'
p2358
tp2359
(lp2360
s(S'ETS1'
p2361
S'CBFA2T3'
p2362
S'increases'
p2363
tp2364
(lp2365
s(S'hsa-miR-98-5p'
p2366
S'NRAS'
p2367
S'decreases'
p2368
tp2369
(lp2370
s(S'PHOSPHORYLATED BRF1 (SER92, SER203):MRNA COMPLEX'
p2371
S'YWHAB'
p2372
S'binds'
p2373
tp2374
(lp2375
s(S'LMO2'
p2376
S'CYP26A1'
p2377
S'increases'
p2378
tp2379
(lp2380
s(S'SOS1'
p2381
S'GRB2:PFAK BOUND TO NCAM1:PFYN'
p2382
S'binds'
p2383
tp2384
(lp2385
s(S'GTF3A'
p2386
S'GATA6'
p2387
S'increases'
p2388
tp2389
(lp2390
s(S'ZIC2'
p2391
S'CYP26A1'
p2392
S'increases'
p2393
tp2394
(lp2395
s(S'PAX2'
p2396
S'POU3F2'
p2397
S'increases'
p2398
tp2399
(lp2400
s(S'CEBPD'
p2401
S'FOXO3'
p2402
S'increases'
p2403
tp2404
(lp2405
s(S'NF1'
p2406
S'CYP26A1'
p2407
S'increases'
p2408
tp2409
(lp2410
s(S'BRAF'
p2411
S'MEK2'
p2412
S'adds_modification'
p2413
tp2414
(lp2415
s(S'TFAP4'
p2416
S'RUNX1'
p2417
S'increases'
p2418
tp2419
(lp2420
s(S'FAK'
p2421
S'SOS'
p2422
S'binds'
p2423
tp2424
(lp2425
s(S'EGR1'
p2426
S'RUNX1'
p2427
S'increases'
p2428
tp2429
(lp2430
s(S'TCF4'
p2431
S'FOXO4'
p2432
S'increases'
p2433
tp2434
(lp2435
s(S'MAZ'
p2436
S'CBFA2T3'
p2437
S'increases'
p2438
tp2439
(lp2440
s(S'MEIS1'
p2441
S'HRAS'
p2442
S'increases'
p2443
tp2444
(lp2445
s(S'RELA'
p2446
S'CYP26A1'
p2447
S'increases'
p2448
tp2449
(lp2450
s(S'hsa-miR-877-3p'
p2451
S'NRAS'
p2452
S'decreases'
p2453
tp2454
(lp2455
s(S'MYC'
p2456
S'LEF1'
p2457
S'increases'
p2458
tp2459
(lp2460
s(S'FOXO4'
p2461
S'RUNX1'
p2462
S'increases'
p2463
tp2464
(lp2465
s(S'LEF1'
p2466
S'RUNX1'
p2467
S'increases'
p2468
tp2469
(lp2470
s(S'TFDP2'
p2471
S'GATA1'
p2472
S'increases'
p2473
tp2474
(lp2475
s(S'AHR'
p2476
S'CYP26A1'
p2477
S'increases'
p2478
tp2479
(lp2480
s(S'4-Nitroquinoline-1-oxide'
p2481
S'PTGS2 MRNA'
p2482
S'increases'
p2483
tp2484
(lp2485
s(S'TGIF'
p2486
S'FOXO3'
p2487
S'increases'
p2488
tp2489
(lp2490
s(S'FOXF2'
p2491
S'CEBPA'
p2492
S'increases'
p2493
tp2494
(lp2495
s(S'NFE2L1'
p2496
S'POU2F1'
p2497
S'increases'
p2498
tp2499
(lp2500
s(S'LHX3'
p2501
S'CYP26A1'
p2502
S'increases'
p2503
tp2504
(lp2505
s(S'HMGA1'
p2506
S'MEIS1'
p2507
S'increases'
p2508
tp2509
(lp2510
s(S'POU2F1'
p2511
S'CYP26A1'
p2512
S'increases'
p2513
tp2514
(lp2515
s(S'PRRX2'
p2516
S'HOXA9'
p2517
S'increases'
p2518
tp2519
(lp2520
s(S'ETS2'
p2521
S'CEBPG'
p2522
S'increases'
p2523
tp2524
(lp2525
s(S'hsa-miR-193b-3p'
p2526
S'KRAS'
p2527
S'decreases'
p2528
tp2529
(lp2530
s(S'RREB1'
p2531
S'RUNX1'
p2532
S'increases'
p2533
tp2534
(lp2535
s(S'IL2/IL2R BETA/GAMMA/JAK1/FYN/JAK3'
p2536
S'PI3K'
p2537
S'binds'
p2538
tp2539
(lp2540
s(S'ELK1'
p2541
S'MEIS1'
p2542
S'increases'
p2543
tp2544
(lp2545
s(S'CYP26A1'
p2546
S'HOXA9'
p2547
S'increases'
p2548
tp2549
(lp2550
s(S'SPZ1'
p2551
S'HOXA9'
p2552
S'increases'
p2553
tp2554
(lp2555
s(S'ERK1'
p2556
S'P-S218,222-MEK1'
p2557
S'binds'
p2558
tp2559
(lp2560
s(S'NHLH1'
p2561
S'MYC'
p2562
S'increases'
p2563
tp2564
(lp2565
s(S'Daunorubicin'
p2566
S'NRAS MRNA'
p2567
S'increases'
p2568
tp2569
(lp2570
s(S'HNF1A'
p2571
S'FOXA1'
p2572
S'increases'
p2573
tp2574
(lp2575
s(S'MYC'
p2576
S'ONECUT1'
p2577
S'increases'
p2578
tp2579
(lp2580
s(S'Vanadates'
p2581
S'HRAS PROTEIN'
p2582
S'increases'
p2583
tp2584
(lp2585
s(S'Purine nucleotide'
p2586
S'H+'
p2587
S'translocates'
p2588
tp2589
(lp2590
s(S'NFE2'
p2591
S'BACH1'
p2592
S'increases'
p2593
tp2594
(lp2595
s(S'EGR4'
p2596
S'CYP26A1'
p2597
S'increases'
p2598
tp2599
(lp2600
s(S'NRF1'
p2601
S'ONECUT1'
p2602
S'increases'
p2603
tp2604
(lp2605
s(S'GFI1'
p2606
S'HOXA9'
p2607
S'increases'
p2608
tp2609
(lp2610
s(S'NR1H4'
p2611
S'FOXD3'
p2612
S'increases'
p2613
tp2614
(lp2615
s(S'STAT6'
p2616
S'FOXA1'
p2617
S'increases'
p2618
tp2619
(lp2620
s(S'INSULIN RECEPTOR/INSULI/IRS1/GRB2/SHC'
p2621
S'SOS1'
p2622
S'binds'
p2623
tp2624
(lp2625
s(S'Tetrachlorodibenzodioxin'
p2626
S'KRAS MRNA'
p2627
S'increases'
p2628
tp2629
(lp2630
s(S'TCF3'
p2631
S'MYC'
p2632
S'increases'
p2633
tp2634
(lp2635
s(S'BACH1'
p2636
S'EN1'
p2637
S'increases'
p2638
tp2639
(lp2640
s(S'RFX1'
p2641
S'CYP26A1'
p2642
S'increases'
p2643
tp2644
(lp2645
s(S'ZEB1'
p2646
S'FOXD3'
p2647
S'increases'
p2648
tp2649
(lp2650
s(S'IRF7'
p2651
S'EN1'
p2652
S'increases'
p2653
tp2654
(lp2655
s(S'GAB2/GRB2/SOS1'
p2656
S'IL2/IL2R ALPHA/BETA/GAMMA/JAK1/LCK/JAK3/SHC'
p2657
S'binds'
p2658
tp2659
(lp2660
s(S'GATA3'
p2661
S'FOXA1'
p2662
S'increases'
p2663
tp2664
(lp2665
s(S'TFAP4'
p2666
S'CYP26A1'
p2667
S'increases'
p2668
tp2669
(lp2670
s(S'FOXF2'
p2671
S'MECOM'
p2672
S'increases'
p2673
tp2674
(lp2675
s(S'NF1'
p2676
S'POU2F1'
p2677
S'increases'
p2678
tp2679
(lp2680
s(S'IRF1'
p2681
S'FOXA1'
p2682
S'increases'
p2683
tp2684
(lp2685
s(S'Rho Family GTPase-active'
p2686
S'PIP5K1A'
p2687
S'increases_activity'
p2688
tp2689
(lp2690
s(S'POU6F1'
p2691
S'EN1'
p2692
S'increases'
p2693
tp2694
(lp2695
s(S'TCF4'
p2696
S'LEF1'
p2697
S'increases'
p2698
tp2699
(lp2700
s(S'MAZ'
p2701
S'FOXO3'
p2702
S'increases'
p2703
tp2704
(lp2705
s(S'POU3F2'
p2706
S'MECOM'
p2707
S'increases'
p2708
tp2709
(lp2710
s(S'GTF3A'
p2711
S'CYP26A1'
p2712
S'increases'
p2713
tp2714
(lp2715
s(S'PI-3-4-5-P3'
p2716
S'AKT2'
p2717
S'adds_modification'
p2718
tp2719
(lp2720
s(S'VSX1'
p2721
S'POU2F1'
p2722
S'increases'
p2723
tp2724
(lp2725
s(S'PHOSPHORYLATED TTP:MRNA COMPLEX'
p2726
S'YWHAB'
p2727
S'binds'
p2728
tp2729
(lp2730
s(S'MEIS1'
p2731
S'MYC'
p2732
S'increases'
p2733
tp2734
(lp2735
s(S'Complex (PDGF receptor A/PDGF receptor B)'
p2736
S'RASGAP'
p2737
S'adds_modification'
p2738
tp2739
(lp2740
s(S'RORA'
p2741
S'CYP26A1'
p2742
S'increases'
p2743
tp2744
(lp2745
s(S'ATF4'
p2746
S'CDC5L'
p2747
S'increases'
p2748
tp2749
(lp2750
s(S'SHC/RasGAP'
p2751
S'RAS FAMILY/GTP'
p2752
S'increases_activity'
p2753
tp2754
(lp2755
s(S'NKX2-1'
p2756
S'MYC'
p2757
S'increases'
p2758
tp2759
(lp2760
s(S'NF1'
p2761
S'SRF'
p2762
S'increases'
p2763
tp2764
(lp2765
s(S'STAT4'
p2766
S'NRAS'
p2767
S'increases'
p2768
tp2769
(lp2770
s(S'POU6F1'
p2771
S'MEIS1'
p2772
S'increases'
p2773
tp2774
(lp2775
s(S'P-KIT COMPLEX'
p2776
S'GRB2:SOS1'
p2777
S'binds'
p2778
tp2779
(lp2780
s(S'MYCN'
p2781
S'MAX'
p2782
S'increases'
p2783
tp2784
(lp2785
s(S'STAT5A'
p2786
S'CYP26A1'
p2787
S'increases'
p2788
tp2789
(lp2790
s(S'GATA3'
p2791
S'EN1'
p2792
S'increases'
p2793
tp2794
(lp2795
s(S'E4F1'
p2796
S'FOXD3'
p2797
S'increases'
p2798
tp2799
(lp2800
s(S'MYB'
p2801
S'ONECUT1'
p2802
S'increases'
p2803
tp2804
(lp2805
s(S'Cadmium Chloride'
p2806
S'NRAS PROTEIN'
p2807
S'increases'
p2808
tp2809
(lp2810
s(S'Deoxycholic Acid'
p2811
S'HRAS PROTEIN'
p2812
S'increases_activity'
p2813
tp2814
(lp2815
s(S'HLF'
p2816
S'CYP26A1'
p2817
S'increases'
p2818
tp2819
(lp2820
s(S'GMCSF/GMR ALPHA/CSF2RB/JAK2 (DIMER)'
p2821
S'YWHAZ'
p2822
S'binds'
p2823
tp2824
(lp2825
s(S'HNF1A'
p2826
S'FOXF2'
p2827
S'increases'
p2828
tp2829
(lp2830
s(S'FOXF2'
p2831
S'GATA6'
p2832
S'increases'
p2833
tp2834
(lp2835
s(S'Arsenic'
p2836
S'GSS PROTEIN'
p2837
S'increases'
p2838
tp2839
(lp2840
s(S'COMPLEX (SOS/GRB2)'
p2841
S'FGFR1-4'
p2842
S'binds'
p2843
tp2844
(lp2845
s(S'MYOD1'
p2846
S'NRAS'
p2847
S'increases'
p2848
tp2849
(lp2850
s(S'MECOM'
p2851
S'CYP26A1'
p2852
S'increases'
p2853
tp2854
(lp2855
s(S'PBX1'
p2856
S'CYP26A1'
p2857
S'increases'
p2858
tp2859
(lp2860
s(S'MAZ'
p2861
S'MEIS1'
p2862
S'increases'
p2863
tp2864
(lp2865
s(S'PAX4'
p2866
S'ELK1'
p2867
S'increases'
p2868
tp2869
(lp2870
s(S'ESRRA'
p2871
S'MECOM'
p2872
S'increases'
p2873
tp2874
(lp2875
s(S'CEBPD'
p2876
S'TLX2'
p2877
S'increases'
p2878
tp2879
(lp2880
s(S'CRX'
p2881
S'FOXA1'
p2882
S'increases'
p2883
tp2884
(lp2885
s(S'GABPB1'
p2886
S'NRAS'
p2887
S'increases'
p2888
tp2889
(lp2890
s(S'CRX'
p2891
S'MEIS1'
p2892
S'increases'
p2893
tp2894
(lp2895
s(S'pirinixic acid/PPARA protein'
p2896
S'KRAS MRNA'
p2897
S'increases'
p2898
tp2899
(lp2900
s(S'BACH2'
p2901
S'FOXA1'
p2902
S'increases'
p2903
tp2904
(lp2905
s(S'JUN'
p2906
S'MECOM'
p2907
S'increases'
p2908
tp2909
(lp2910
s(S'7,8-Dihydro-7,8-dihydroxybenzo(a)pyrene 9,10-oxide'
p2911
S'KRAS MRNA'
p2912
S'decreases'
p2913
tp2914
(lp2915
s(S'SRY'
p2916
S'FOXO4'
p2917
S'increases'
p2918
tp2919
(lp2920
s(S'PI3K'
p2921
S'AKT1'
p2922
S'adds_modification'
p2923
tp2924
(lp2925
s(S'GATA3'
p2926
S'CYP26A1'
p2927
S'increases'
p2928
tp2929
(lp2930
s(S'RAS:GTP'
p2931
S'P-EPHBS:EFNBS:RASA1'
p2932
S'binds'
p2933
tp2934
(lp2935
s(S'STAT5A'
p2936
S'MECOM'
p2937
S'increases'
p2938
tp2939
(lp2940
s(S'RAS family/GTP'
p2941
S'RAF1'
p2942
S'increases_activity'
p2943
tp2944
(lp2945
s(S'RHOA/GTP'
p2946
S'PLD1-2'
p2947
S'increases_activity'
p2948
tp2949
(lp2950
s(S'FOXJ2'
p2951
S'CYP26A1'
p2952
S'increases'
p2953
tp2954
(lp2955
s(S'LEF1'
p2956
S'MECOM'
p2957
S'increases'
p2958
tp2959
(lp2960
s(S'GABPB2'
p2961
S'CDC5L'
p2962
S'increases'
p2963
tp2964
(lp2965
s(S'ESRRA'
p2966
S'CYP26A1'
p2967
S'increases'
p2968
tp2969
(lp2970
s(S'PI-3-4-5-P3'
p2971
S'WAVE2/NAP1/SRA1/ABI1/HSPC300'
p2972
S'translocates'
p2973
tp2974
(lp2975
s(S'CUX1'
p2976
S'MECOM'
p2977
S'increases'
p2978
tp2979
(lp2980
s(S'MAX'
p2981
S'CYP26A1'
p2982
S'increases'
p2983
tp2984
(lp2985
s(S'RXRB'
p2986
S'FOXD3'
p2987
S'increases'
p2988
tp2989
(lp2990
s(S'IRF1'
p2991
S'NRAS'
p2992
S'increases'
p2993
tp2994
(lp2995
s(S'MECOM'
p2996
S'MAX'
p2997
S'increases'
p2998
tp2999
(lp3000
s(S'PAX6'
p3001
S'CYP26A1'
p3002
S'increases'
p3003
tp3004
(lp3005
s(S'GRB2/SOS1'
p3006
S'EGFR/EGFR/EGF/EGF/P46 SHC'
p3007
S'binds'
p3008
tp3009
(lp3010
s(S'POU6F1'
p3011
S'POU2F1'
p3012
S'increases'
p3013
tp3014
(lp3015
s(S'RUNX1'
p3016
S'MYOD1'
p3017
S'increases'
p3018
tp3019
(lp3020
s(S'COMPLEX (GRB2/SOS)'
p3021
S'EGFR'
p3022
S'binds'
p3023
tp3024
(lp3025
s(S'MAZ'
p3026
S'MECOM'
p3027
S'increases'
p3028
tp3029
(lp3030
s(S'REPIN1'
p3031
S'EN1'
p3032
S'increases'
p3033
tp3034
(lp3035
s(S'RAS family/GTP'
p3036
S'RAF1'
p3037
S'adds_modification'
p3038
tp3039
(lp3040
s(S'E4F1'
p3041
S'CYP26A1'
p3042
S'increases'
p3043
tp3044
(lp3045
s(S'Rac'
p3046
S'MEKK1-5'
p3047
S'adds_modification'
p3048
tp3049
(lp3050
s(S'HAND1'
p3051
S'CYP26A1'
p3052
S'increases'
p3053
tp3054
(lp3055
s(S'Quercetin'
p3056
S'NRAS PROTEIN'
p3057
S'decreases'
p3058
tp3059
(lp3060
s(S'HRAS:GTP'
p3061
S'CRAF'
p3062
S'binds'
p3063
tp3064
(lp3065
s(S'REPIN1'
p3066
S'FOXA1'
p3067
S'increases'
p3068
tp3069
(lp3070
s(S'hsa-miR-155-5p'
p3071
S'KRAS'
p3072
S'decreases'
p3073
tp3074
(lp3075
s(S'PAX4'
p3076
S'EN1'
p3077
S'increases'
p3078
tp3079
(lp3080
s(S'FOXN1'
p3081
S'JUN'
p3082
S'increases'
p3083
tp3084
(lp3085
s(S'TFCP2'
p3086
S'GATA1'
p3087
S'increases'
p3088
tp3089
(lp3090
s(S'SHC'
p3091
S'GRAP2'
p3092
S'binds'
p3093
tp3094
(lp3095
s(S'CEBPG'
p3096
S'NRAS'
p3097
S'increases'
p3098
tp3099
(lp3100
s(S'FOXN1'
p3101
S'FOXO4'
p3102
S'increases'
p3103
tp3104
(lp3105
s(S'IL2/IL2R ALPHA/BETA/GAMMA/JAK1/LCK/JAK3/IRS1-2'
p3106
S'PI3K'
p3107
S'binds'
p3108
tp3109
(lp3110
s(S'POU1F1'
p3111
S'EN1'
p3112
S'increases'
p3113
tp3114
(lp3115
s(S'FOXJ1'
p3116
S'POU2F1'
p3117
S'increases'
p3118
tp3119
(lp3120
s(S'YY1'
p3121
S'POU2F1'
p3122
S'increases'
p3123
tp3124
(lp3125
s(S'7,8-Dihydro-7,8-dihydroxybenzo(a)pyrene 9,10-oxide'
p3126
S'NRAS MRNA'
p3127
S'increases'
p3128
tp3129
(lp3130
s(S'EGF/EGFR'
p3131
S'HRAS/GDP'
p3132
S'increases_activity'
p3133
tp3134
(lp3135
s(S'TFAP4'
p3136
S'GABPB2'
p3137
S'increases'
p3138
tp3139
(lp3140
s(S'TFAP2A'
p3141
S'POU3F2'
p3142
S'increases'
p3143
tp3144
(lp3145
s(S'TCF12'
p3146
S'CBFA2T3'
p3147
S'increases'
p3148
tp3149
(lp3150
s(S'STAT3'
p3151
S'IRF1'
p3152
S'increases'
p3153
tp3154
(lp3155
s(S'MYOD1'
p3156
S'GATA1'
p3157
S'increases'
p3158
tp3159
(lp3160
s(S'REPIN1'
p3161
S'HRAS'
p3162
S'increases'
p3163
tp3164
(lp3165
s(S'PAX4'
p3166
S'MAX'
p3167
S'increases'
p3168
tp3169
(lp3170
s(S'PAX2'
p3171
S'FOXA1'
p3172
S'increases'
p3173
tp3174
(lp3175
s(S'Lipopolysaccharides'
p3176
S'HRAS PROTEIN'
p3177
S'increases_activity'
p3178
tp3179
(lp3180
s(S'7,8-Dihydro-7,8-dihydroxybenzo(a)pyrene 9,10-oxide'
p3181
S'KRAS MRNA'
p3182
S'increases'
p3183
tp3184
(lp3185
s(S'REPIN1'
p3186
S'GATA1'
p3187
S'increases'
p3188
tp3189
(lp3190
s(S'Formaldehyde'
p3191
S'HRAS MRNA'
p3192
S'increases'
p3193
tp3194
(lp3195
s(S'ESRRA'
p3196
S'STAT5A'
p3197
S'increases'
p3198
tp3199
(lp3200
s(S'farnesylthiosalicylic acid'
p3201
S'HRAS PROTEIN'
p3202
S'decreases'
p3203
tp3204
(lp3205
s(S'JUN'
p3206
S'RUNX1'
p3207
S'increases'
p3208
tp3209
(lp3210
s(S'FOXD3'
p3211
S'RUNX1'
p3212
S'increases'
p3213
tp3214
(lp3215
s(S'SOX9'
p3216
S'CYP26A1'
p3217
S'increases'
p3218
tp3219
(lp3220
s(S'hexabromocyclododecane'
p3221
S'HRAS MRNA'
p3222
S'increases'
p3223
tp3224
(lp3225
s(S'RUNX2'
p3226
S'KRAS'
p3227
S'increases'
p3228
tp3229
(lp3230
s(S'PGR'
p3231
S'CYP26A1'
p3232
S'increases'
p3233
tp3234
(lp3235
s(S'CYP26A1'
p3236
S'MAZ'
p3237
S'increases'
p3238
tp3239
(lp3240
s(S'RAC1/GTP'
p3241
S'AKT1'
p3242
S'adds_modification'
p3243
tp3244
(lp3245
s(S'FOXO3'
p3246
S'CYP26A1'
p3247
S'increases'
p3248
tp3249
(lp3250
s(S'MAX'
p3251
S'SRF'
p3252
S'increases'
p3253
tp3254
(lp3255
s(S'RUNX2'
p3256
S'NRAS'
p3257
S'increases'
p3258
tp3259
(lp3260
s(S'HSF2'
p3261
S'CYP26A1'
p3262
S'increases'
p3263
tp3264
(lp3265
s(S'IL2/IL2R ALPHA/BETA/GAMMA/JAK1/LCK/JAK3/SHC/GRB2/SOS1/GAB2/SHP2'
p3266
S'PI3K'
p3267
S'binds'
p3268
tp3269
(lp3270
s(S'SPI1'
p3271
S'STAT5A'
p3272
S'increases'
p3273
tp3274
(lp3275
s(S'ZHX2'
p3276
S'MYC'
p3277
S'increases'
p3278
tp3279
(lp3280
s(S'RAF1-BRAF'
p3281
S'MEK1-2'
p3282
S'increases_activity'
p3283
tp3284
(lp3285
s(S'SHC'
p3286
S'GRB2'
p3287
S'binds'
p3288
tp3289
(lp3290
s(S'RB1'
p3291
S'GATA1'
p3292
S'increases'
p3293
tp3294
(lp3295
s(S'TCF3'
p3296
S'FOXJ2'
p3297
S'increases'
p3298
tp3299
(lp3300
s(S'FOXJ2'
p3301
S'NRAS'
p3302
S'increases'
p3303
tp3304
(lp3305
s(S'REPIN1'
p3306
S'LEF1'
p3307
S'increases'
p3308
tp3309
(lp3310
s(S'Aflatoxin B1'
p3311
S'HRAS MRNA'
p3312
S'increases'
p3313
tp3314
(lp3315
s(S'PAX4'
p3316
S'MEIS1'
p3317
S'increases'
p3318
tp3319
(lp3320
s(S'FOXF2'
p3321
S'FOXD3'
p3322
S'increases'
p3323
tp3324
(lp3325
s(S'CBFA2T3'
p3326
S'RUNX1'
p3327
S'increases'
p3328
tp3329
(lp3330
s(S'FOXC1'
p3331
S'HOXA9'
p3332
S'increases'
p3333
tp3334
(lp3335
s(S'DBP'
p3336
S'CYP26A1'
p3337
S'increases'
p3338
tp3339
(lp3340
s(S'TGIF'
p3341
S'EN1'
p3342
S'increases'
p3343
tp3344
(lp3345
s(S'PI-3-4-5-P3'
p3346
S'P62DOK'
p3347
S'adds_modification'
p3348
tp3349
(lp3350
s(S'JUN'
p3351
S'TLX2'
p3352
S'increases'
p3353
tp3354
(lp3355
s(S'Benzo(a)pyrene'
p3356
S'HRAS MRNA'
p3357
S'increases'
p3358
tp3359
(lp3360
s(S'STAT4'
p3361
S'CYP26A1'
p3362
S'increases'
p3363
tp3364
(lp3365
s(S'EGFR/EGFR/EGF/EGF'
p3366
S'SRC'
p3367
S'adds_modification'
p3368
tp3369
(lp3370
s(S'FOXQ1'
p3371
S'FOXD3'
p3372
S'increases'
p3373
tp3374
(lp3375
s(S'FOXJ1'
p3376
S'NRAS'
p3377
S'increases'
p3378
tp3379
(lp3380
s(S'TCF3'
p3381
S'POU2F1'
p3382
S'increases'
p3383
tp3384
(lp3385
s(S'MYB'
p3386
S'CYP26A1'
p3387
S'increases'
p3388
tp3389
(lp3390
s(S'GATA4'
p3391
S'CYP26A1'
p3392
S'increases'
p3393
tp3394
(lp3395
s(S'ELK1'
p3396
S'STAT4'
p3397
S'increases'
p3398
tp3399
(lp3400
s(S'CYP26A1'
p3401
S'LEF1'
p3402
S'increases'
p3403
tp3404
(lp3405
s(S"Guanosine-5'-Diphosphate"
p3406
S'HRAS'
p3407
S'increases_activity'
p3408
tp3409
(lp3410
s(S'ETV4'
p3411
S'CYP26A1'
p3412
S'increases'
p3413
tp3414
(lp3415
s(S'EPHRIN B/EPHB2'
p3416
S'RASGAP'
p3417
S'binds'
p3418
tp3419
(lp3420
s(S'ESR1'
p3421
S'FOXF2'
p3422
S'increases'
p3423
tp3424
(lp3425
s(S'CDC5L'
p3426
S'FOXA1'
p3427
S'increases'
p3428
tp3429
(lp3430
s(S'MAZ'
p3431
S'HOXA9'
p3432
S'increases'
p3433
tp3434
(lp3435
s(S'HIF1A'
p3436
S'MAX'
p3437
S'increases'
p3438
tp3439
(lp3440
s(S'FOXN1'
p3441
S'HOXA9'
p3442
S'increases'
p3443
tp3444
(lp3445
s(S'LEF1'
p3446
S'BACH1'
p3447
S'increases'
p3448
tp3449
(lp3450
s(S'PDX1'
p3451
S'FOXO3'
p3452
S'increases'
p3453
tp3454
(lp3455
s(S'CBFA2T3'
p3456
S'CYP26A1'
p3457
S'increases'
p3458
tp3459
(lp3460
s(S'Rabex5'
p3461
S'HRAS/GTP'
p3462
S'adds_modification'
p3463
tp3464
(lp3465
s(S'CBFA2T3'
p3466
S'RUNX2'
p3467
S'increases'
p3468
tp3469
(lp3470
s(S'PI-3-4-5-P3'
p3471
S'ARAP3'
p3472
S'translocates'
p3473
tp3474
(lp3475
s(S'CART1'
p3476
S'CYP26A1'
p3477
S'increases'
p3478
tp3479
(lp3480
s(S'Arsenic'
p3481
S'NRAS MRNA'
p3482
S'increases'
p3483
tp3484
(lp3485
s(S'NRF1'
p3486
S'CDC5L'
p3487
S'increases'
p3488
tp3489
(lp3490
s(S'Quercetin'
p3491
S'HRAS PROTEIN'
p3492
S'decreases'
p3493
tp3494
(lp3495
s(S"N,N'-DIMETHYL-N-(ACETYL)-N'-(7-NITROBENZ-2-OXA-1,3-DIAZOL-4-YL)ETHYLENEDIAMINE"
p3496
S'HRAS'
p3497
S'increases_activity'
p3498
tp3499
(lp3500
s(S'TFDP1'
p3501
S'FOXD3'
p3502
S'increases'
p3503
tp3504
(lp3505
s(S'AR'
p3506
S'TLX2'
p3507
S'increases'
p3508
tp3509
(lp3510
s(S'hsa-miR-181c-5p'
p3511
S'KRAS'
p3512
S'decreases'
p3513
tp3514
(lp3515
s(S'SMAD3'
p3516
S'CBFA2T3'
p3517
S'increases'
p3518
tp3519
(lp3520
s(S'HOXA9'
p3521
S'NRAS'
p3522
S'increases'
p3523
tp3524
(lp3525
s(S'PITX2'
p3526
S'CYP26A1'
p3527
S'increases'
p3528
tp3529
(lp3530
s(S'ATF3'
p3531
S'CYP26A1'
p3532
S'increases'
p3533
tp3534
(lp3535
s(S'E2F1'
p3536
S'MAZ'
p3537
S'increases'
p3538
tp3539
(lp3540
s(S'Ethyl Methanesulfonate'
p3541
S'HRAS MRNA'
p3542
S'increases'
p3543
tp3544
(lp3545
s(S'LMO2'
p3546
S'FOXA1'
p3547
S'increases'
p3548
tp3549
(lp3550
s(S'FOXC1'
p3551
S'POU2F1'
p3552
S'increases'
p3553
tp3554
(lp3555
s(S'DDIT3'
p3556
S'CYP26A1'
p3557
S'increases'
p3558
tp3559
(lp3560
s(S'PAX8'
p3561
S'CYP26A1'
p3562
S'increases'
p3563
tp3564
(lp3565
s(S'LHX3'
p3566
S'EN1'
p3567
S'increases'
p3568
tp3569
(lp3570
s(S'KAT2B'
p3571
S'CYP26A1'
p3572
S'increases'
p3573
tp3574
(lp3575
s(S'P100'
p3576
S'MYB'
p3577
S'binds'
p3578
tp3579
(lp3580
s(S'SOX9'
p3581
S'FOXA1'
p3582
S'increases'
p3583
tp3584
(lp3585
s(S'HIF1A'
p3586
S'EN1'
p3587
S'increases'
p3588
tp3589
(lp3590
s(S'REPIN1'
p3591
S'RUNX1'
p3592
S'increases'
p3593
tp3594
(lp3595
s(S'MYOD1'
p3596
S'BACH1'
p3597
S'increases'
p3598
tp3599
(lp3600
s(S'EBF2'
p3601
S'REPIN1'
p3602
S'increases'
p3603
tp3604
(lp3605
s(S'bisphenol A'
p3606
S'HRAS MRNA'
p3607
S'increases'
p3608
tp3609
(lp3610
s(S'E2F1'
p3611
S'EN1'
p3612
S'increases'
p3613
tp3614
(lp3615
s(S'MYC/Max/MIZ-1'
p3616
S'GALECTIN-1'
p3617
S'decreases'
p3618
tp3619
(lp3620
s(S'PI-3-4-5-P3'
p3621
S'WAVE2/NAP1/SRA1/ABI1/HSPC300'
p3622
S'adds_modification'
p3623
tp3624
(lp3625
s(S'FOXF2'
p3626
S'FOXO3'
p3627
S'increases'
p3628
tp3629
(lp3630
s(S'REPIN1'
p3631
S'STAT5A'
p3632
S'increases'
p3633
tp3634
(lp3635
s(S'RUNX1'
p3636
S'NRAS'
p3637
S'increases'
p3638
tp3639
(lp3640
s(S'benzo(a)pyrene 7,8-dihydrodiol'
p3641
S'HRAS MRNA'
p3642
S'increases'
p3643
tp3644
(lp3645
s(S'RAC1/GTP'
p3646
S'PAK1 (DIMER)'
p3647
S'adds_modification'
p3648
tp3649
(lp3650
s(S'PAX4'
p3651
S'POU2F1'
p3652
S'increases'
p3653
tp3654
(lp3655
s(S'MYOD1'
p3656
S'CBFA2T3'
p3657
S'increases'
p3658
tp3659
(lp3660
s(S'STAT5A'
p3661
S'RUNX2'
p3662
S'increases'
p3663
tp3664
(lp3665
s(S'EBF2'
p3666
S'FOXJ2'
p3667
S'increases'
p3668
tp3669
(lp3670
s(S'Estradiol'
p3671
S'KRAS MRNA'
p3672
S'increases'
p3673
tp3674
(lp3675
s(S'RXRB'
p3676
S'CYP26A1'
p3677
S'increases'
p3678
tp3679
(lp3680
s(S'bisphenol A'
p3681
S'KRAS MRNA'
p3682
S'decreases'
p3683
tp3684
(lp3685
s(S'COMPLEX (GRB2/SOS)'
p3686
S'FGFR1-4'
p3687
S'binds'
p3688
tp3689
(lp3690
s(S'POU2F1'
p3691
S'RUNX1'
p3692
S'increases'
p3693
tp3694
(lp3695
s(S'TCF3'
p3696
S'TLX2'
p3697
S'increases'
p3698
tp3699
(lp3700
s(S'SPZ1'
p3701
S'POU2F1'
p3702
S'increases'
p3703
tp3704
(lp3705
s(S'TFAP4'
p3706
S'FOXO4'
p3707
S'increases'
p3708
tp3709
(lp3710
s(S'OR5I1'
p3711
S'MECOM'
p3712
S'increases'
p3713
tp3714
(lp3715
s(S'Rho Family GTPase-active'
p3716
S'JNK1'
p3717
S'adds_modification'
p3718
tp3719
(lp3720
s(S'TFDP1'
p3721
S'POU2F1'
p3722
S'increases'
p3723
tp3724
(lp3725
s(S'AHR'
p3726
S'MAX'
p3727
S'increases'
p3728
tp3729
(lp3730
s(S'BACH1'
p3731
S'CYP26A1'
p3732
S'increases'
p3733
tp3734
(lp3735
s(S'ZBTB14'
p3736
S'MAZ'
p3737
S'increases'
p3738
tp3739
(lp3740
s(S'TCF3'
p3741
S'FOXO4'
p3742
S'increases'
p3743
tp3744
(lp3745
s(S'MASTERMIND'
p3746
S'NICS'
p3747
S'binds'
p3748
tp3749
(lp3750
s(S'BPTF'
p3751
S'FOXO4'
p3752
S'increases'
p3753
tp3754
(lp3755
s(S'MYOD1'
p3756
S'RUNX1'
p3757
S'increases'
p3758
tp3759
(lp3760
s(S'JUN'
p3761
S'CYP26A1'
p3762
S'increases'
p3763
tp3764
(lp3765
s(S'BPTF'
p3766
S'CYP26A1'
p3767
S'increases'
p3768
tp3769
(lp3770
s(S'POU3F1'
p3771
S'CYP26A1'
p3772
S'increases'
p3773
tp3774
(lp3775
s(S'NRF1'
p3776
S'CYP26A1'
p3777
S'increases'
p3778
tp3779
(lp3780
s(S'TFAP2C'
p3781
S'POU3F2'
p3782
S'increases'
p3783
tp3784
(lp3785
s(S'NFAT1-C-4-INACTIVE2'
p3786
S'YWHAQ'
p3787
S'binds'
p3788
tp3789
(lp3790
s(S'STAT6'
p3791
S'ONECUT1'
p3792
S'increases'
p3793
tp3794
(lp3795
s(S'RUNX1'
p3796
S'RUNX2'
p3797
S'increases'
p3798
tp3799
(lp3800
s(S'ZIC3'
p3801
S'MYCN'
p3802
S'increases'
p3803
tp3804
(lp3805
s(S'CYP26A1'
p3806
S'MAX'
p3807
S'increases'
p3808
tp3809
(lp3810
s(S'ETS2'
p3811
S'FOXO4'
p3812
S'increases'
p3813
tp3814
(lp3815
s(S'GATA6'
p3816
S'FOXA1'
p3817
S'increases'
p3818
tp3819
(lp3820
s(S'Doxorubicin'
p3821
S'HRAS MRNA'
p3822
S'increases'
p3823
tp3824
(lp3825
s(S'PPARA'
p3826
S'HOXA9'
p3827
S'increases'
p3828
tp3829
(lp3830
s(S'REPIN1'
p3831
S'GABPB2'
p3832
S'increases'
p3833
tp3834
(lp3835
s(S'FOXN1'
p3836
S'FOXA1'
p3837
S'increases'
p3838
tp3839
(lp3840
s(S'Dronabinol'
p3841
S'KRAS MRNA'
p3842
S'increases'
p3843
tp3844
(lp3845
s(S'FOXO1'
p3846
S'RUNX1'
p3847
S'increases'
p3848
tp3849
(lp3850
s(S'SMAD4'
p3851
S'HOXA9'
p3852
S'increases'
p3853
tp3854
(lp3855
s(S'PAX4'
p3856
S'JUN'
p3857
S'increases'
p3858
tp3859
(lp3860
s(S'Raf-1'
p3861
S'MEK'
p3862
S'adds_modification'
p3863
tp3864
(lp3865
g657
ag674
as(S'PIM1'
p3866
S'MYC/MAX'
p3867
S'binds'
p3868
tp3869
(lp3870
s(S'YY1'
p3871
S'MECOM'
p3872
S'increases'
p3873
tp3874
(lp3875
s(S'NRF1'
p3876
S'MAZ'
p3877
S'increases'
p3878
tp3879
(lp3880
s(S'GATA1'
p3881
S'MECOM'
p3882
S'increases'
p3883
tp3884
(lp3885
s(S'PDGF/PDGFRA'
p3886
S'SHC/GRB2/SOS1'
p3887
S'increases_activity'
p3888
tp3889
(lp3890
s(S'GRB2/SOS1'
p3891
S'FAK'
p3892
S'binds'
p3893
tp3894
(lp3895
s(S'HNF4A'
p3896
S'HOXA9'
p3897
S'increases'
p3898
tp3899
(lp3900
s(S'FOXA2'
p3901
S'CYP26A1'
p3902
S'increases'
p3903
tp3904
(lp3905
s(S'FOXI1'
p3906
S'CYP26A1'
p3907
S'increases'
p3908
tp3909
(lp3910
s(S'GRB2 BOUND TO TIE2'
p3911
S'SOS1'
p3912
S'binds'
p3913
tp3914
(lp3915
s(S'PHOSPHORYLATED BRF1 (SER54, SER92, SER203):MRNA COMPLEX'
p3916
S'YWHAB'
p3917
S'binds'
p3918
tp3919
(lp3920
s(S'COMPLEX (GRB2/SOS)'
p3921
S'GAB'
p3922
S'binds'
p3923
tp3924
(lp3925
s(S'NFE2'
p3926
S'TLX2'
p3927
S'increases'
p3928
tp3929
(lp3930
s(S'MAX'
p3931
S'FOXF2'
p3932
S'increases'
p3933
tp3934
(lp3935
s(S'GRB2:SOS1'
p3936
S'ACTIVATED FGFR:P-FRS2'
p3937
S'binds'
p3938
tp3939
(lp3940
s(S'FOXO4'
p3941
S'MECOM'
p3942
S'increases'
p3943
tp3944
(lp3945
s(S'TCF3'
p3946
S'LEF1'
p3947
S'increases'
p3948
tp3949
(lp3950
s(S'ZIC1'
p3951
S'LEF1'
p3952
S'increases'
p3953
tp3954
(lp3955
s(S'NFIL3'
p3956
S'CYP26A1'
p3957
S'increases'
p3958
tp3959
(lp3960
s(S'RAF1'
p3961
S'MEK1'
p3962
S'increases_activity'
p3963
tp3964
(lp3965
s(S'AR'
p3966
S'FOXA1'
p3967
S'increases'
p3968
tp3969
(lp3970
s(S'POU2F1'
p3971
S'POU3F2'
p3972
S'increases'
p3973
tp3974
(lp3975
s(S'PCBP1'
p3976
S'MAZ'
p3977
S'increases'
p3978
tp3979
(lp3980
s(S'LEF1'
p3981
S'HOXA9'
p3982
S'increases'
p3983
tp3984
(lp3985
s(S'NR6A1'
p3986
S'CYP26A1'
p3987
S'increases'
p3988
tp3989
(lp3990
s(S'PI3K'
p3991
S'BTK'
p3992
S'translocates'
p3993
tp3994
(lp3995
s(S'AHR'
p3996
S'RUNX1'
p3997
S'increases'
p3998
tp3999
(lp4000
s(S'NR1H4'
p4001
S'CYP26A1'
p4002
S'increases'
p4003
tp4004
(lp4005
s(S'NR2F2'
p4006
S'CYP26A1'
p4007
S'increases'
p4008
tp4009
(lp4010
s(S'GNB1/GNG2'
p4011
S'PI3K'
p4012
S'binds'
p4013
tp4014
(lp4015
s(S'RHOA/GTP'
p4016
S'PKN2'
p4017
S'increases_activity'
p4018
tp4019
(lp4020
s(S'MAZ'
p4021
S'LEF1'
p4022
S'increases'
p4023
tp4024
(lp4025
s(S'RFX1'
p4026
S'MECOM'
p4027
S'increases'
p4028
tp4029
(lp4030
s(S'RUNX1'
p4031
S'HOXA9'
p4032
S'increases'
p4033
tp4034
(lp4035
s(S'FOXL1'
p4036
S'POU2F1'
p4037
S'increases'
p4038
tp4039
(lp4040
s(S'GRB2:SOS1'
p4041
S'PHOSPHORYLATED ERBB2:EGFR HETERODIMERS'
p4042
S'binds'
p4043
tp4044
(lp4045
s(S'TFAP4'
p4046
S'MYCN'
p4047
S'increases'
p4048
tp4049
(lp4050
s(S'E2F1'
p4051
S'GATA1'
p4052
S'increases'
p4053
tp4054
(lp4055
s(S'PTF1A'
p4056
S'GATA6'
p4057
S'increases'
p4058
tp4059
(lp4060
s(S'REL'
p4061
S'CYP26A1'
p4062
S'increases'
p4063
tp4064
(lp4065
s(S'MTF1'
p4066
S'JUN'
p4067
S'increases'
p4068
tp4069
(lp4070
s(S'ZEB1'
p4071
S'REPIN1'
p4072
S'increases'
p4073
tp4074
(lp4075
s(S'IRF8'
p4076
S'GATA6'
p4077
S'increases'
p4078
tp4079
(lp4080
s(S'P-Y349,350-SHC1:PHOSPHORYLATED ERBB2 HETERODIMERS'
p4081
S'GRB2:SOS1'
p4082
S'binds'
p4083
tp4084
(lp4085
s(S'BACH2'
p4086
S'EN1'
p4087
S'increases'
p4088
tp4089
(lp4090
s(S'GFI1'
p4091
S'MEIS1'
p4092
S'increases'
p4093
tp4094
(lp4095
s(S'FOXN1'
p4096
S'LEF1'
p4097
S'increases'
p4098
tp4099
(lp4100
s(S'CYP26A1'
p4101
S'JUN'
p4102
S'increases'
p4103
tp4104
(lp4105
s(S'TCF3'
p4106
S'ONECUT1'
p4107
S'increases'
p4108
tp4109
(lp4110
s(S'FOXF2'
p4111
S'POU2F1'
p4112
S'increases'
p4113
tp4114
(lp4115
s(S'MAZ'
p4116
S'MAX'
p4117
S'increases'
p4118
tp4119
(lp4120
s(S'FOXN1'
p4121
S'CYP26A1'
p4122
S'increases'
p4123
tp4124
(lp4125
s(S'HNF1A'
p4126
S'FOXD3'
p4127
S'increases'
p4128
tp4129
(lp4130
s(S'EGR2'
p4131
S'RUNX1'
p4132
S'increases'
p4133
tp4134
(lp4135
s(S'MYC'
p4136
S'RUNX2'
p4137
S'increases'
p4138
tp4139
(lp4140
s(S'TFAP2A'
p4141
S'IRF1'
p4142
S'increases'
p4143
tp4144
(lp4145
s(S'FOXO4'
p4146
S'YY1'
p4147
S'increases'
p4148
tp4149
(lp4150
s(S'VEGFR2 (dimer)/VEGFA (dimer)'
p4151
S'SRC'
p4152
S'adds_modification'
p4153
tp4154
(lp4155
s(S'resveratrol'
p4156
S'KRAS MRNA'
p4157
S'decreases'
p4158
tp4159
(lp4160
s(S'FOXO4'
p4161
S'CYP26A1'
p4162
S'increases'
p4163
tp4164
(lp4165
s(S'STAT3'
p4166
S'FOXO4'
p4167
S'increases'
p4168
tp4169
(lp4170
s(S'GRB2/SOS1'
p4171
S'FRS2 FAMILY/SHP2'
p4172
S'binds'
p4173
tp4174
(lp4175
s(S'LEF1'
p4176
S'CYP26A1'
p4177
S'increases'
p4178
tp4179
(lp4180
s(S'GTF2A2'
p4181
S'SRF'
p4182
S'increases'
p4183
tp4184
(lp4185
s(S'PPARA'
p4186
S'STAT5A'
p4187
S'increases'
p4188
tp4189
(lp4190
s(S'hsa-miR-143-3p'
p4191
S'KRAS'
p4192
S'decreases'
p4193
tp4194
(lp4195
s(S'GFI1'
p4196
S'CYP26A1'
p4197
S'increases'
p4198
tp4199
(lp4200
s(S'RAC1/GTP'
p4201
S'MKK4-MKK7'
p4202
S'increases_activity'
p4203
tp4204
(lp4205
s(S'REPIN1'
p4206
S'ETS1'
p4207
S'increases'
p4208
tp4209
(lp4210
s(S'ZIC1'
p4211
S'GATA6'
p4212
S'increases'
p4213
tp4214
(lp4215
s(S'INTERLEUKIN RECEPTOR COMPLEXES WITH ACTIVATED SHC1'
p4216
S'GRB2:SOS1'
p4217
S'binds'
p4218
tp4219
(lp4220
s(S'Selenium'
p4221
S'HRAS MRNA'
p4222
S'increases'
p4223
tp4224
(lp4225
s(S'HOXA4'
p4226
S'CYP26A1'
p4227
S'increases'
p4228
tp4229
(lp4230
s(S'NKX2-1'
p4231
S'POU2F1'
p4232
S'increases'
p4233
tp4234
(lp4235
s(S'VSX1'
p4236
S'MAX'
p4237
S'increases'
p4238
tp4239
(lp4240
s(S'FOXD1'
p4241
S'FOXD3'
p4242
S'increases'
p4243
tp4244
(lp4245
s(S'MAX'
p4246
S'NRAS'
p4247
S'increases'
p4248
tp4249
(lp4250
s(S'HOXA9'
p4251
S'TCF3'
p4252
S'increases'
p4253
tp4254
(lp4255
s(S'IRF1'
p4256
S'CYP26A1'
p4257
S'increases'
p4258
tp4259
(lp4260
s(S'HRAS'
p4261
S'RAF1'
p4262
S'adds_modification'
p4263
tp4264
(lp4265
s(S'CUX1'
p4266
S'HOXA9'
p4267
S'increases'
p4268
tp4269
(lp4270
s(S'ZHX2'
p4271
S'FOXA1'
p4272
S'increases'
p4273
tp4274
(lp4275
s(S'TFDP1'
p4276
S'MYC'
p4277
S'increases'
p4278
tp4279
(lp4280
s(S'RAC1/GTP'
p4281
S'PAK1'
p4282
S'increases_activity'
p4283
tp4284
(lp4285
s(S'AHR'
p4286
S'MAZ'
p4287
S'increases'
p4288
tp4289
(lp4290
s(S'BRAF/14-3-3'
p4291
S'KSR/14-3-3 /MEK1-2'
p4292
S'increases_activity'
p4293
tp4294
(lp4295
s(S'PPARA'
p4296
S'CYP26A1'
p4297
S'increases'
p4298
tp4299
(lp4300
s(S'REPIN1'
p4301
S'SRF'
p4302
S'increases'
p4303
tp4304
(lp4305
s(S'PAX5'
p4306
S'SRF'
p4307
S'increases'
p4308
tp4309
(lp4310
s(S'PAX4'
p4311
S'FOXJ2'
p4312
S'increases'
p4313
tp4314
(lp4315
s(S'REPIN1'
p4316
S'MYCN'
p4317
S'increases'
p4318
tp4319
(lp4320
s(S'RALA/GTP'
p4321
S'SRC'
p4322
S'adds_modification'
p4323
tp4324
(lp4325
s(S'FOXO4'
p4326
S'ETS1'
p4327
S'increases'
p4328
tp4329
(lp4330
s(S'TFDP1'
p4331
S'CDC5L'
p4332
S'increases'
p4333
tp4334
(lp4335
s(S'TFDP1'
p4336
S'CYP26A1'
p4337
S'increases'
p4338
tp4339
(lp4340
s(S'GATA6'
p4341
S'RUNX2'
p4342
S'increases'
p4343
tp4344
(lp4345
s(S'FOXM1'
p4346
S'CYP26A1'
p4347
S'increases'
p4348
tp4349
(lp4350
s(S'sodium arsenite'
p4351
S'HRAS PROTEIN'
p4352
S'increases'
p4353
tp4354
(lp4355
s(S'STAT5A'
p4356
S'RUNX1'
p4357
S'increases'
p4358
tp4359
(lp4360
s(S'CEBPA'
p4361
S'EN1'
p4362
S'increases'
p4363
tp4364
(lp4365
s(S'MSX1'
p4366
S'POU2F1'
p4367
S'increases'
p4368
tp4369
(lp4370
s(S'NHLH1'
p4371
S'CBFA2T3'
p4372
S'increases'
p4373
tp4374
(lp4375
s(S'Parathion'
p4376
S'HRAS PROTEIN'
p4377
S'increases'
p4378
tp4379
(lp4380
s(S'SMAD4'
p4381
S'CYP26A1'
p4382
S'increases'
p4383
tp4384
(lp4385
s(S'E2F1'
p4386
S'MYC'
p4387
S'increases'
p4388
tp4389
(lp4390
s(S'CYP26A1'
p4391
S'FOXO3'
p4392
S'increases'
p4393
tp4394
(lp4395
s(S'TCF3'
p4396
S'CBFA2T3'
p4397
S'increases'
p4398
tp4399
(lp4400
s(S'ZHX2'
p4401
S'FOXF2'
p4402
S'increases'
p4403
tp4404
(lp4405
s(S'POU2F1'
p4406
S'MECOM'
p4407
S'increases'
p4408
tp4409
(lp4410
s(S'CYP26A1'
p4411
S'POU2F1'
p4412
S'increases'
p4413
tp4414
(lp4415
s(S'MYOD1'
p4416
S'CYP26A1'
p4417
S'increases'
p4418
tp4419
(lp4420
s(S'RAF'
p4421
S'COMPLEX (RAS/GTP)'
p4422
S'binds'
p4423
tp4424
(lp4425
s(S'RET51/GFRalpha1/GDNF/DOK1'
p4426
S'HRAS/GDP'
p4427
S'increases_activity'
p4428
tp4429
(lp4430
s(S'MAFG'
p4431
S'CYP26A1'
p4432
S'increases'
p4433
tp4434
(lp4435
s(S'CRX'
p4436
S'CYP26A1'
p4437
S'increases'
p4438
tp4439
(lp4440
s(S'hsa-miR-126-3p'
p4441
S'KRAS'
p4442
S'decreases'
p4443
tp4444
(lp4445
s(S'EBF2'
p4446
S'CYP26A1'
p4447
S'increases'
p4448
tp4449
(lp4450
s(S'RUNX1'
p4451
S'CYP26A1'
p4452
S'increases'
p4453
tp4454
(lp4455
s(S'HOXA5'
p4456
S'FOXA1'
p4457
S'increases'
p4458
tp4459
(lp4460
s(S'benzo(a)pyrene-3,6-quinone'
p4461
S'HRAS MRNA'
p4462
S'increases'
p4463
tp4464
(lp4465
s(S'K 7174'
p4466
S'HRAS MRNA'
p4467
S'decreases'
p4468
tp4469
(lp4470
s(S'LEF1'
p4471
S'NRAS'
p4472
S'increases'
p4473
tp4474
(lp4475
s(S'SPI1'
p4476
S'FOXA1'
p4477
S'increases'
p4478
tp4479
(lp4480
s(S'hsa-let-7b-5p'
p4481
S'NRAS'
p4482
S'decreases'
p4483
tp4484
(lp4485
s(S'CEBPA'
p4486
S'JUN'
p4487
S'increases'
p4488
tp4489
(lp4490
s(S'GABPB2'
p4491
S'CYP26A1'
p4492
S'increases'
p4493
tp4494
(lp4495
s(S'PI-3-4-5-P3'
p4496
S'MTOR'
p4497
S'increases_activity'
p4498
tp4499
(lp4500
s(S'GRB2:SOS1'
p4501
S'EGF:P-6Y-EGFR'
p4502
S'binds'
p4503
tp4504
(lp4505
s(S'HNF1A'
p4506
S'CYP26A1'
p4507
S'increases'
p4508
tp4509
(lp4510
s(S'HIF1A'
p4511
S'FOXO4'
p4512
S'increases'
p4513
tp4514
(lp4515
s(S'FOXJ1'
p4516
S'HOXA9'
p4517
S'increases'
p4518
tp4519
(lp4520
s(S'hsa-miR-96-5p'
p4521
S'KRAS'
p4522
S'decreases'
p4523
tp4524
(lp4525
s(S'SRC'
p4526
S'SYNDECAN-2/RASGAP'
p4527
S'binds'
p4528
tp4529
(lp4530
s(S'FOXA1'
p4531
S'MEIS1'
p4532
S'increases'
p4533
tp4534
(lp4535
s(S'LEF1'
p4536
S'MEIS1'
p4537
S'increases'
p4538
tp4539
(lp4540
s(S'PAX3'
p4541
S'CYP26A1'
p4542
S'increases'
p4543
tp4544
(lp4545
s(S'PAX4'
p4546
S'HOXA9'
p4547
S'increases'
p4548
tp4549
(lp4550
s(S'hsa-miR-18a-3p'
p4551
S'KRAS'
p4552
S'decreases'
p4553
tp4554
(lp4555
s(S'FOXF2'
p4556
S'EN1'
p4557
S'increases'
p4558
tp4559
(lp4560
s(S'Pyk2'
p4561
S'SRC FAMILY KINASES'
p4562
S'increases_activity'
p4563
tp4564
(lp4565
s(S'TP53'
p4566
S'HOXA9'
p4567
S'increases'
p4568
tp4569
(lp4570
s(S'Genistein'
p4571
S'KRAS MRNA'
p4572
S'decreases'
p4573
tp4574
(lp4575
s(S'POU1F1'
p4576
S'CYP26A1'
p4577
S'increases'
p4578
tp4579
(lp4580
s(S'manumycin'
p4581
S'KRAS PROTEIN'
p4582
S'decreases_activity'
p4583
tp4584
(lp4585
s(S'Ginkgo biloba extract 761'
p4586
S'GCLC PROTEIN'
p4587
S'increases'
p4588
tp4589
(lp4590
s(S'GATA1'
p4591
S'NRAS'
p4592
S'increases'
p4593
tp4594
(lp4595
s(S'CBFA2T3'
p4596
S'FOXF2'
p4597
S'increases'
p4598
tp4599
(lp4600
s(S'PCBP1'
p4601
S'ELK1'
p4602
S'increases'
p4603
tp4604
(lp4605
s(S'MYC'
p4606
S'FOXF2'
p4607
S'increases'
p4608
tp4609
(lp4610
s(S'hsa-mir-622'
p4611
S'KRAS'
p4612
S'decreases'
p4613
tp4614
(lp4615
s(S'TCF3'
p4616
S'MAZ'
p4617
S'increases'
p4618
tp4619
(lp4620
s(S'STAT2'
p4621
S'MEIS1'
p4622
S'increases'
p4623
tp4624
(lp4625
s(S'CYP26A1'
p4626
S'YY1'
p4627
S'increases'
p4628
tp4629
(lp4630
s(S'CYP26A1'
p4631
S'EN1'
p4632
S'increases'
p4633
tp4634
(lp4635
s(S'GRB2/SOS1'
p4636
S'SHC'
p4637
S'binds'
p4638
tp4639
(lp4640
s(S'BAD'
p4641
S'YWHAZ'
p4642
S'binds'
p4643
tp4644
(lp4645
s(S'SPI1'
p4646
S'MAX'
p4647
S'increases'
p4648
tp4649
(lp4650
s(S'PI-3-4-5-P3'
p4651
S'CENTA1'
p4652
S'translocates'
p4653
tp4654
(lp4655
s(S'XBP1'
p4656
S'CYP26A1'
p4657
S'increases'
p4658
tp4659
(lp4660
s(S'PAX4'
p4661
S'NRAS'
p4662
S'increases'
p4663
tp4664
(lp4665
s(S'PI3K'
p4666
S'EPHRIN A1/EPHA2'
p4667
S'binds'
p4668
tp4669
(lp4670
s(S'POU1F1'
p4671
S'MEIS1'
p4672
S'increases'
p4673
tp4674
(lp4675
s(S'NR3C1'
p4676
S'ETS1'
p4677
S'increases'
p4678
tp4679
(lp4680
s(S'MAZ'
p4681
S'POU3F2'
p4682
S'increases'
p4683
tp4684
(lp4685
s(S'Estradiol'
p4686
S'HRAS MRNA'
p4687
S'increases'
p4688
tp4689
(lp4690
s(S'Aflatoxin B1'
p4691
S'HRAS PROTEIN'
p4692
S'increases'
p4693
tp4694
(lp4695
s(S'ETV7'
p4696
S'STAT4'
p4697
S'increases'
p4698
tp4699
(lp4700
s(S'PBX1'
p4701
S'LEF1'
p4702
S'increases'
p4703
tp4704
(lp4705
s(S'CEBPB'
p4706
S'CYP26A1'
p4707
S'increases'
p4708
tp4709
(lp4710
s(S'MAZ'
p4711
S'JUN'
p4712
S'increases'
p4713
tp4714
(lp4715
s(S'FOXF2'
p4716
S'MYC'
p4717
S'increases'
p4718
tp4719
(lp4720
s(S'FOXJ2'
p4721
S'HOXA9'
p4722
S'increases'
p4723
tp4724
(lp4725
s(S'Capsaicin'
p4726
S'HRAS MRNA'
p4727
S'increases'
p4728
tp4729
(lp4730
s(S'POU3F1'
p4731
S'GATA6'
p4732
S'increases'
p4733
tp4734
(lp4735
s(S'EIF2A'
p4736
S'14-3-3 E'
p4737
S'binds'
p4738
tp4739
(lp4740
s(S'RAS family/GTP'
p4741
S'RAF1-BRAF'
p4742
S'increases_activity'
p4743
tp4744
(lp4745
s(S'GATA6'
p4746
S'GATA1'
p4747
S'increases'
p4748
tp4749
(lp4750
s(S'RASA1'
p4751
S'PHOSPHO PDGF BETA RECEPTOR: PDGF CHAIN B HOMODIMER'
p4752
S'binds'
p4753
tp4754
(lp4755
s(S'CART1'
p4756
S'POU2F1'
p4757
S'increases'
p4758
tp4759
(lp4760
s(S'ZIC3'
p4761
S'POU2F1'
p4762
S'increases'
p4763
tp4764
(lp4765
s(S'TCF4'
p4766
S'FOXA1'
p4767
S'increases'
p4768
tp4769
(lp4770
s(S'PKC theta'
p4771
S'RASGRP1'
p4772
S'adds_modification'
p4773
tp4774
(lp4775
s(S'PTF1A'
p4776
S'STAT5A'
p4777
S'increases'
p4778
tp4779
(lp4780
s(S'SPI1'
p4781
S'FOXO4'
p4782
S'increases'
p4783
tp4784
(lp4785
s(S'HNF1A'
p4786
S'GATA6'
p4787
S'increases'
p4788
tp4789
(lp4790
s(S'FOXJ1'
p4791
S'RUNX1'
p4792
S'increases'
p4793
tp4794
(lp4795
s(S'STAT2'
p4796
S'GATA6'
p4797
S'increases'
p4798
tp4799
(lp4800
s(S'RAS FAMILY/GTP'
p4801
S'PI3K'
p4802
S'binds'
p4803
tp4804
(lp4805
s(S'PAX4'
p4806
S'IRF1'
p4807
S'increases'
p4808
tp4809
(lp4810
s(S'PAX3'
p4811
S'HOXA9'
p4812
S'increases'
p4813
tp4814
(lp4815
s(S'MYB'
p4816
S'MAZ'
p4817
S'increases'
p4818
tp4819
(lp4820
s(S"Guanosine-5'-Triphosphate"
p4821
S'HRAS'
p4822
S'increases_activity'
p4823
tp4824
(lp4825
s(S'alpha9/beta1 Integrin/Tenascin C'
p4826
S'SRC'
p4827
S'adds_modification'
p4828
tp4829
(lp4830
s(S'RAF1'
p4831
S'MEK1'
p4832
S'adds_modification'
p4833
tp4834
(lp4835
s(S'JUN'
p4836
S'FOXA1'
p4837
S'increases'
p4838
tp4839
(lp4840
s(S'NFE2L2'
p4841
S'BACH1'
p4842
S'increases'
p4843
tp4844
(lp4845
s(S'CUX1'
p4846
S'FOXD3'
p4847
S'increases'
p4848
tp4849
(lp4850
s(S'JUN'
p4851
S'EN1'
p4852
S'increases'
p4853
tp4854
(lp4855
s(S'ESR1'
p4856
S'CYP26A1'
p4857
S'increases'
p4858
tp4859
(lp4860
s(S'ESRRA'
p4861
S'FOXA1'
p4862
S'increases'
p4863
tp4864
(lp4865
s(S'POU2F1'
p4866
S'MEIS1'
p4867
S'increases'
p4868
tp4869
(lp4870
s(S'TFCP2'
p4871
S'FOXA1'
p4872
S'increases'
p4873
tp4874
(lp4875
s(S'PI-3-4-5-P3'
p4876
S'PDK1'
p4877
S'increases_activity'
p4878
tp4879
(lp4880
s(S'TCF3'
p4881
S'FOXA1'
p4882
S'increases'
p4883
tp4884
(lp4885
s(S'STAT3'
p4886
S'CYP26A1'
p4887
S'increases'
p4888
tp4889
(lp4890
s(S'CYP26A1'
p4891
S'POU3F2'
p4892
S'increases'
p4893
tp4894
(lp4895
s(S'Curcumin'
p4896
S'KRAS MRNA'
p4897
S'decreases'
p4898
tp4899
(lp4900
s(S'STAT1'
p4901
S'CYP26A1'
p4902
S'increases'
p4903
tp4904
(lp4905
s(S'GFI1'
p4906
S'POU2F1'
p4907
S'increases'
p4908
tp4909
(lp4910
s(S'ZIC1'
p4911
S'POU2F1'
p4912
S'increases'
p4913
tp4914
(lp4915
s(S'PI-3-4-5-P3'
p4916
S'AKT3'
p4917
S'adds_modification'
p4918
tp4919
(lp4920
s(S'BACH1'
p4921
S'NRAS'
p4922
S'increases'
p4923
tp4924
(lp4925
s(S'SCF/KIT'
p4926
S'SHC/GRB2/SOS1'
p4927
S'increases_activity'
p4928
tp4929
(lp4930
s(S'CDX2'
p4931
S'CYP26A1'
p4932
S'increases'
p4933
tp4934
(lp4935
s(S'RET51/GFRalpha1/GDNF/DOK/RasGAP/NCK'
p4936
S'HRAS/GDP'
p4937
S'decreases_activity'
p4938
tp4939
(lp4940
s(S'BETAPIX'
p4941
S'RAC1/GTP'
p4942
S'binds'
p4943
tp4944
(lp4945
s(S'RHOA/GTP'
p4946
S'CITRON'
p4947
S'increases_activity'
p4948
tp4949
(lp4950
s(S'P-SHC1:GRB2:SOS'
p4951
S'P-5Y-LAT-2'
p4952
S'binds'
p4953
tp4954
(lp4955
s(S'PAX4'
p4956
S'CYP26A1'
p4957
S'increases'
p4958
tp4959
(lp4960
s(S'TCF3'
p4961
S'KRAS'
p4962
S'increases'
p4963
tp4964
(lp4965
s(S'GRB2:SOS1'
p4966
S'PHOSPHORYLATED ERBB2:ERBB4 HETERODIMERS'
p4967
S'binds'
p4968
tp4969
(lp4970
s(S'CDX2'
p4971
S'MEIS1'
p4972
S'increases'
p4973
tp4974
(lp4975
s(S'SP3'
p4976
S'RUNX1'
p4977
S'increases'
p4978
tp4979
(lp4980
s(S'REST'
p4981
S'CYP26A1'
p4982
S'increases'
p4983
tp4984
(lp4985
s(S'PTF1A'
p4986
S'CYP26A1'
p4987
S'increases'
p4988
tp4989
(lp4990
s(S'PI-3-4-5-P3'
p4991
S'PI3K/GAB1'
p4992
S'translocates'
p4993
tp4994
(lp4995
s(S'LMO2'
p4996
S'FOXO4'
p4997
S'increases'
p4998
tp4999
(lp5000
s(S'STAT4'
p5001
S'ETS1'
p5002
S'increases'
p5003
tp5004
(lp5005
s(S'GTF2A2'
p5006
S'HOXA9'
p5007
S'increases'
p5008
tp5009
(lp5010
s(S'FOXF2'
p5011
S'POU3F2'
p5012
S'increases'
p5013
tp5014
(lp5015
s(S'GATA1'
p5016
S'GABPB2'
p5017
S'increases'
p5018
tp5019
(lp5020
s(S'Polychlorinated Biphenyls'
p5021
S'KRAS MRNA'
p5022
S'decreases'
p5023
tp5024
(lp5025
s(S'GRB2/SOS1'
p5026
S'EGF/EGFR DIMER/SHC'
p5027
S'binds'
p5028
tp5029
(lp5030
s(S'CYP26A1'
p5031
S'FOXF2'
p5032
S'increases'
p5033
tp5034
(lp5035
s(S'EGR1'
p5036
S'CYP26A1'
p5037
S'increases'
p5038
tp5039
(lp5040
s(S'MAX'
p5041
S'FOXO3'
p5042
S'increases'
p5043
tp5044
(lp5045
s(S'T-DHT/AR/PELP1'
p5046
S'SRC'
p5047
S'binds'
p5048
tp5049
(lp5050
s(S'CUX1'
p5051
S'FOXF2'
p5052
S'increases'
p5053
tp5054
(lp5055
s(S'CEBPD'
p5056
S'CYP26A1'
p5057
S'increases'
p5058
tp5059
(lp5060
s(S'CBFA2T3'
p5061
S'NRAS'
p5062
S'increases'
p5063
tp5064
(lp5065
s(S'Cisplatin'
p5066
S'HRAS MRNA'
p5067
S'translocates'
p5068
tp5069
(lp5070
s(S'BAD/BCL-X(L)'
p5071
S'YWHAZ'
p5072
S'binds'
p5073
tp5074
(lp5075
s(S'GATA1'
p5076
S'FOXA1'
p5077
S'increases'
p5078
tp5079
(lp5080
s(S'RREB1'
p5081
S'CYP26A1'
p5082
S'increases'
p5083
tp5084
(lp5085
s(S'STAT4'
p5086
S'RUNX2'
p5087
S'increases'
p5088
tp5089
(lp5090
s(S'FOXD3'
p5091
S'NRAS'
p5092
S'increases'
p5093
tp5094
(lp5095
s(S'NDEL1'
p5096
S'14-3-3 E'
p5097
S'binds'
p5098
tp5099
(lp5100
s(S'CYP26A1'
p5101
S'REPIN1'
p5102
S'increases'
p5103
tp5104
(lp5105
s(S'MAF'
p5106
S'CDC5L'
p5107
S'increases'
p5108
tp5109
(lp5110
s(S'CYP26A1'
p5111
S'ELK1'
p5112
S'increases'
p5113
tp5114
(lp5115
s(S'MYC'
p5116
S'FOXD3'
p5117
S'increases'
p5118
tp5119
(lp5120
s(S'MAX'
p5121
S'FOXD3'
p5122
S'increases'
p5123
tp5124
(lp5125
s(S'POU1F1'
p5126
S'GATA6'
p5127
S'increases'
p5128
tp5129
(lp5130
s(S'POU2F1'
p5131
S'STAT4'
p5132
S'increases'
p5133
tp5134
(lp5135
s(S'GTF3A'
p5136
S'FOXO3'
p5137
S'increases'
p5138
tp5139
(lp5140
s(S'MYB'
p5141
S'FOXF2'
p5142
S'increases'
p5143
tp5144
(lp5145
s(S'ZIC3'
p5146
S'CYP26A1'
p5147
S'increases'
p5148
tp5149
(lp5150
s(S'POU2F1'
p5151
S'EN1'
p5152
S'increases'
p5153
tp5154
(lp5155
s(S'JUN'
p5156
S'STAT1'
p5157
S'increases'
p5158
tp5159
(lp5160
s(S'TEF'
p5161
S'CYP26A1'
p5162
S'increases'
p5163
tp5164
(lp5165
s(S'MAF'
p5166
S'CYP26A1'
p5167
S'increases'
p5168
tp5169
(lp5170
s(S'PAX4'
p5171
S'GATA6'
p5172
S'increases'
p5173
tp5174
(lp5175
s(S'ZIC2'
p5176
S'GATA6'
p5177
S'increases'
p5178
tp5179
(lp5180
s(S'hsa-miR-181d-5p'
p5181
S'HRAS'
p5182
S'decreases'
p5183
tp5184
(lp5185
s(S'BACH2'
p5186
S'CYP26A1'
p5187
S'increases'
p5188
tp5189
(lp5190
s(S'TCF12'
p5191
S'CYP26A1'
p5192
S'increases'
p5193
tp5194
(lp5195
s(S'GATA1'
p5196
S'FOXO4'
p5197
S'increases'
p5198
tp5199
(lp5200
s(S'RFX1'
p5201
S'FOXD3'
p5202
S'increases'
p5203
tp5204
(lp5205
s(S'FOXJ1'
p5206
S'CYP26A1'
p5207
S'increases'
p5208
tp5209
(lp5210
s(S'GTF2A2'
p5211
S'POU2F1'
p5212
S'increases'
p5213
tp5214
(lp5215
s(S'YY1'
p5216
S'SRF'
p5217
S'increases'
p5218
tp5219
(lp5220
s(S'AHR'
p5221
S'REPIN1'
p5222
S'increases'
p5223
tp5224
(lp5225
s(S'MAZ'
p5226
S'CYP26A1'
p5227
S'increases'
p5228
tp5229
(lp5230
s(S'Quercetin'
p5231
S'HRAS MRNA'
p5232
S'increases'
p5233
tp5234
(lp5235
s(S'ELK1'
p5236
S'NRAS'
p5237
S'increases'
p5238
tp5239
(lp5240
s(S'HIF1A'
p5241
S'ONECUT1'
p5242
S'increases'
p5243
tp5244
(lp5245
s(S'FOXF2'
p5246
S'CYP26A1'
p5247
S'increases'
p5248
tp5249
(lp5250
s(S'SOX9'
p5251
S'ETS1'
p5252
S'increases'
p5253
tp5254
(lp5255
s(S'HSF1'
p5256
S'JUN'
p5257
S'increases'
p5258
tp5259
(lp5260
s(S'CEBPA'
p5261
S'CYP26A1'
p5262
S'increases'
p5263
tp5264
(lp5265
s(S'NR1H4'
p5266
S'MEIS1'
p5267
S'increases'
p5268
tp5269
(lp5270
s(S'SMAD1'
p5271
S'GATA1'
p5272
S'increases'
p5273
tp5274
(lp5275
s(S'Quercetin'
p5276
S'HRAS MRNA'
p5277
S'decreases'
p5278
tp5279
(lp5280
s(S'Glycyrrhetinic Acid'
p5281
S'HRAS PROTEIN'
p5282
S'decreases'
p5283
tp5284
(lp5285
s(S'HOXA4'
p5286
S'POU2F1'
p5287
S'increases'
p5288
tp5289
(lp5290
s(S'FOXQ1'
p5291
S'CYP26A1'
p5292
S'increases'
p5293
tp5294
(lp5295
s(S'FOXI1'
p5296
S'CEBPA'
p5297
S'increases'
p5298
tp5299
(lp5300
s(S'GTF3A'
p5301
S'MYCN'
p5302
S'increases'
p5303
tp5304
(lp5305
s(S'LMO2'
p5306
S'IRF1'
p5307
S'increases'
p5308
tp5309
(lp5310
s(S'FOXO1'
p5311
S'CYP26A1'
p5312
S'increases'
p5313
tp5314
(lp5315
s(S'Copper Sulfate'
p5316
S'NRAS MRNA'
p5317
S'increases'
p5318
tp5319
(lp5320
s(S'TFAP2A'
p5321
S'CYP26A1'
p5322
S'increases'
p5323
tp5324
(lp5325
s(S'FOXJ1'
p5326
S'EN1'
p5327
S'increases'
p5328
tp5329
(lp5330
s(S'MEIS1'
p5331
S'RUNX1'
p5332
S'increases'
p5333
tp5334
(lp5335
s(S'MAZ'
p5336
S'FOXA1'
p5337
S'increases'
p5338
tp5339
(lp5340
s(S'ETS1'
p5341
S'FOXO4'
p5342
S'increases'
p5343
tp5344
(lp5345
s(S'ZBTB14'
p5346
S'FOXD3'
p5347
S'increases'
p5348
tp5349
(lp5350
s(S'FOXC1'
p5351
S'LEF1'
p5352
S'increases'
p5353
tp5354
(lp5355
s(S'IRF1'
p5356
S'EN1'
p5357
S'increases'
p5358
tp5359
(lp5360
s(S'NR3C1'
p5361
S'CYP26A1'
p5362
S'increases'
p5363
tp5364
(lp5365
s(S'VSX1'
p5366
S'BACH1'
p5367
S'increases'
p5368
tp5369
(lp5370
s(S'CYP26A1'
p5371
S'ETS1'
p5372
S'increases'
p5373
tp5374
(lp5375
s(S'CEBPA'
p5376
S'MEIS1'
p5377
S'increases'
p5378
tp5379
(lp5380
s(S'ELF1'
p5381
S'FOXO4'
p5382
S'increases'
p5383
tp5384
(lp5385
s(S'RXRA'
p5386
S'CYP26A1'
p5387
S'increases'
p5388
tp5389
(lp5390
s(S'CREB1'
p5391
S'CYP26A1'
p5392
S'increases'
p5393
tp5394
(lp5395
s(S'IRF7'
p5396
S'GATA6'
p5397
S'increases'
p5398
tp5399
(lp5400
s(S'ZEB1'
p5401
S'CYP26A1'
p5402
S'increases'
p5403
tp5404
(lp5405
s(S'AR'
p5406
S'CYP26A1'
p5407
S'increases'
p5408
tp5409
(lp5410
s(S'TFDP2'
p5411
S'MYC'
p5412
S'increases'
p5413
tp5414
(lp5415
s(S'hsa-mir-217'
p5416
S'KRAS'
p5417
S'decreases'
p5418
tp5419
(lp5420
s(S'MEK'
p5421
S'ERK'
p5422
S'adds_modification'
p5423
tp5424
(lp5425
S'Finally, MEK1/2 phosphorylates ERK1/2, which then acquires various effector functions, including activation of transcription factors that mediate cell proliferation ['
p5426
ag652
aS'However, the distinct function of ERK1 and ERK2 isoforms, the downstream kinases of MEKs, remains unclear in EV71 replication.'
p5427
aS'Taken together, this study for the first time identified both ERK1 and ERK2 were required for EV71 efficient replication and further verified the important role of MEK1-ERK1/2 in EV71 replication.'
p5428
ag653
aS'The findings deepened our understanding in the roles played by MEK1-ERK1/2 signaling pathway in virus life cycle and shed light on possibilities to offer flexible choices to selectively target the one between ERK1 and ERK2 in future anti-viral strategies.'
p5429
aS'IHC assays revealed the presence of activated MEK1/2 and ERK1/2 in lung sections of naturally occurring and experimentally induced OPA ['
p5430
aS'For example, HSV-2 anti-apoptotic gene ICP10PK influences survival of infected and adjacent neurons via the Ras signaling pathways MEK/ERK and PI3-K/Akt.'
p5431
ag657
aS'Depending on the type of cell line studied, three main pathways have been shown to be activated in JSRV transformed cells; the PI3K/Akt pathway, the Hyal2-RON pathway, and the Ras-MEK-ERK pathway.'
p5432
aS'We also report an upregulation of MEK and ERK activation suggestive of a proliferative phenotype.'
p5433
ag659
ag660
ag661
ag662
ag663
ag664
ag665
ag666
ag667
aS'As discussed above, RV infection stimulates ERK activity, downstream of MEK, and may therefore counteract the effect of the inhibitor.'
p5434
ag668
ag669
ag670
ag671
aS'In contrast, treatment of H3N2-infected cells with the specific MEK inhibitor U0126 abolished ERK activation and severely reduced the virus titers.'
p5435
ag672
ag673
aS'The mitogen-activated protein kinase kinase/extracellular-signal-regulated kinase (MEK/ERK) signaling pathway is involved in viral life cycle.'
p5436
aS'However, the effect of MEK/ERK pathway in enterovirus 71(EV71)-infected immature dendritic cells (iDCs) is still unclear.'
p5437
aS'Differential gene expressions of MEK/ERK signaling pathway molecules in EV71-infected iDCs were performed by PCR arrays.'
p5438
aS'PCR arrays showed that gene expressions of molecules in MEK/ERK signaling pathway were remarkably upregulated in EV71-infected iDCs.'
p5439
aS'EV71 infection activated both MEK1/2 and ERK1/2, which phosphorylated their downstream transcription factor c-Fos, c-Jun, c-myc and Elk1.'
p5440
aS'Our data suggest that the MEK/ERK signaling pathway plays an important role in EV71-infected iDCs and these molecules may be potential targets for the development of new anti-EV71 drugs.'
p5441
aS'To explore the roles of MEK/ERK signaling pathway in EV71-infected iDCs, we induced iDCs from PBMCs in the presence of granulocyte-macrophage colony-stimulating factor (GM-CSF) and IL-4.'
p5442
aS'The iDCs were then infected with EV71 and used to investigate the effect and mechanism of MEK/ERK signaling pathway associated molecules during EV71 infection.'
p5443
aS'with EV71, iDCs were collected and expression of molecules involved in the MEK/ERK signaling pathway was examined by PCR arrays.'
p5444
aS'U0126, a specific inhibitor of MEK1/2, was used to study the effect of cellular ERK activation on expression of VP1, a capsid protein of EV71.'
p5445
aS'The SOS1, as an activator of Ras, which activates the MEK/ERK signaling pathway and plays a fundamental role in growth and cellular differentiation.'
p5446
aS'To our knowledge, this study is the first report to show the activation of MEK/ERK signaling pathway in EV71-infected iDCs.'
p5447
aS'The results provide evidences that the activation of MEK/ERK pathway may be associated with EV71 replication in iDCs.'
p5448
aS'Moreover, we found that inhibition of the MEK/ERK cascade could effectively reduce virus replication and lead to a diminished release of cytokines.'
p5449
aS'The upregulation of SOS1 expression might further activate MEK/ERK signaling pathway.'
p5450
aS'Together, these data demonstrate that MEK/ERK signaling pathway plays an important role in EV71-infected iDCs.'
p5451
aS'Therefore, understanding the fundamental mechanisms of EV71-induced activation of MEK/ERK signaling pathway is important for development of new antiviral drugs.'
p5452
aS'Rabbit polyclonal antibodies against MEK1/2, p-MEK1/2, ERK1/2, p-ERK1/2, c-Fos, p-c-Fos, c-Jun, p-c-Jun, p-c-myc, c-myc, Elk1, p-Elk1, and HRP conjugated goat anti-rabbit IgG were purchased from SAB (Pearland, TX, USA).'
p5453
aS'Phosphorylation of ERK was significantly and specifically up-regulated, whereas enhanced phosphorylation of upstream kinase MEK was unobservable upon IFN alpha treatment.'
p5454
aS'MEK inhibitor U0126 and antibodies specific for MEK, ERK, STAT1, phospho-MEK (Ser217/221), phospho-ERK (Thr202/Tyr204), phospho-SAPK/JNK (Thr183/Tyr185), phospho-p38 MAPK (Thr180/Tyr182), phospho-ATF-2 (Thr71), or phospho-STAT1 (Tyr701) were purchased from Cell Signaling Technology (Beverly, MA).'
p5455
ag674
as(S'ZBTB18'
p5456
S'ONECUT1'
p5457
S'increases'
p5458
tp5459
(lp5460
s(S'TGIF'
p5461
S'MAX'
p5462
S'increases'
p5463
tp5464
(lp5465
s(S'ETS1'
p5466
S'NRAS'
p5467
S'increases'
p5468
tp5469
(lp5470
s(S'KLF12'
p5471
S'GATA1'
p5472
S'increases'
p5473
tp5474
(lp5475
s(S'HRAS/GTP'
p5476
S'PAK2'
p5477
S'increases_activity'
p5478
tp5479
(lp5480
s(S'CYP26A1'
p5481
S'FOXD3'
p5482
S'increases'
p5483
tp5484
(lp5485
s(S'LMO2'
p5486
S'RUNX1'
p5487
S'increases'
p5488
tp5489
(lp5490
s(S'MLK3'
p5491
S'MKK3/6'
p5492
S'adds_modification'
p5493
tp5494
(lp5495
s(S'TAK'
p5496
S'MKK3/6'
p5497
S'adds_modification'
p5498
tp5499
(lp5500
s(S'GRB2:SOS1'
p5501
S'HB-EGF:P-6Y-EGFR DIMER'
p5502
S'binds'
p5503
tp5504
(lp5505
s(S'FOXO4'
p5506
S'NRAS'
p5507
S'increases'
p5508
tp5509
(lp5510
s(S'MECOM'
p5511
S'NRAS'
p5512
S'increases'
p5513
tp5514
(lp5515
s(S'KLF12'
p5516
S'CYP26A1'
p5517
S'increases'
p5518
tp5519
(lp5520
s(S'RAS family/GTP/PI3K'
p5521
S'TRPV1'
p5522
S'adds_modification'
p5523
tp5524
(lp5525
s(S'hsa-let-7a-5p'
p5526
S'NRAS'
p5527
S'decreases'
p5528
tp5529
(lp5530
s(S'NF1'
p5531
S'HOXA9'
p5532
S'increases'
p5533
tp5534
(lp5535
s(S'REPIN1'
p5536
S'FOXD3'
p5537
S'increases'
p5538
tp5539
(lp5540
s(S'CYP26A1'
p5541
S'FOXJ2'
p5542
S'increases'
p5543
tp5544
(lp5545
s(S'FOXO4'
p5546
S'MEIS1'
p5547
S'increases'
p5548
tp5549
(lp5550
s(S'EBF2'
p5551
S'MECOM'
p5552
S'increases'
p5553
tp5554
(lp5555
s(S'ETS1'
p5556
S'FOXO3'
p5557
S'increases'
p5558
tp5559
(lp5560
s(S'SP3'
p5561
S'CYP26A1'
p5562
S'increases'
p5563
tp5564
(lp5565
s(S'LNXp80'
p5566
S'NUMB'
p5567
S'decreases'
p5568
tp5569
(lp5570
s(S'RUNX2'
p5571
S'CYP26A1'
p5572
S'increases'
p5573
tp5574
(lp5575
s(S'AHR'
p5576
S'FOXO3'
p5577
S'increases'
p5578
tp5579
(lp5580
s(S'VSX1'
p5581
S'FOXF2'
p5582
S'increases'
p5583
tp5584
(lp5585
s(S'BPTF'
p5586
S'RUNX1'
p5587
S'increases'
p5588
tp5589
(lp5590
s(S'7,8-Dihydro-7,8-dihydroxybenzo(a)pyrene 9,10-oxide'
p5591
S'HRAS PROTEIN'
p5592
S'increases'
p5593
tp5594
(lp5595
s(S'TCF3'
p5596
S'POU3F2'
p5597
S'increases'
p5598
tp5599
(lp5600
s(S'TCF3'
p5601
S'IRF1'
p5602
S'increases'
p5603
tp5604
(lp5605
s(S'SREBF1'
p5606
S'EN1'
p5607
S'increases'
p5608
tp5609
(lp5610
s(S'FOXO4'
p5611
S'RUNX2'
p5612
S'increases'
p5613
tp5614
(lp5615
s(S'hsa-miR-181a-5p'
p5616
S'HRAS'
p5617
S'decreases'
p5618
tp5619
(lp5620
s(S'Myb'
p5621
S'NRAS'
p5622
S'decreases'
p5623
tp5624
(lp5625
s(S'HSPA8'
p5626
S'ADP'
p5627
S'binds'
p5628
tp5629
(lp5630
s(S'SOCS3'
p5631
S'RASGAP'
p5632
S'binds'
p5633
tp5634
(lp5635
s(S'ONECUT1'
p5636
S'NRAS'
p5637
S'increases'
p5638
tp5639
(lp5640
s(S'PITX2'
p5641
S'EN1'
p5642
S'increases'
p5643
tp5644
(lp5645
s(S'HGF(dimer)/MET(dimer)'
p5646
S'SRC'
p5647
S'adds_modification'
p5648
tp5649
(lp5650
s(S'2-amino-1-methyl-6-phenylimidazo(4,5-b)pyridine'
p5651
S'HRAS PROTEIN'
p5652
S'increases'
p5653
tp5654
(lp5655
s(S'GFI1'
p5656
S'POU3F2'
p5657
S'increases'
p5658
tp5659
(lp5660
s(S'FARNESYL DIPHOSPHATE'
p5661
S'KRAS'
p5662
S'increases_activity'
p5663
tp5664
(lp5665
s(S'IL2/IL2R BETA/GAMMA/JAK1/LCK/JAK3'
p5666
S'PI3K'
p5667
S'binds'
p5668
tp5669
(lp5670
s(S'GTF3A'
p5671
S'MECOM'
p5672
S'increases'
p5673
tp5674
(lp5675
s(S'EGR2'
p5676
S'CYP26A1'
p5677
S'increases'
p5678
tp5679
(lp5680
s(S'RUNX1'
p5681
S'FOXF2'
p5682
S'increases'
p5683
tp5684
(lp5685
s(S'IL3/IL3RA/CSF2RB (DODECAMER)'
p5686
S'YWHAZ'
p5687
S'binds'
p5688
tp5689
(lp5690
s(S'RAF1'
p5691
S'BRAF'
p5692
S'binds'
p5693
tp5694
(lp5695
s(S'MYC'
p5696
S'CYP26A1'
p5697
S'increases'
p5698
tp5699
(lp5700
s(S'UBP1'
p5701
S'CYP26A1'
p5702
S'increases'
p5703
tp5704
(lp5705
s(S'MTF1'
p5706
S'REPIN1'
p5707
S'increases'
p5708
tp5709
(lp5710
s(S'HNF1A'
p5711
S'RUNX1'
p5712
S'increases'
p5713
tp5714
(lp5715
s(S'NHLH1'
p5716
S'FOXA1'
p5717
S'increases'
p5718
tp5719
(lp5720
s(S'HLF'
p5721
S'FOXA1'
p5722
S'increases'
p5723
tp5724
(lp5725
s(S'MEIS1'
p5726
S'GATA6'
p5727
S'increases'
p5728
tp5729
(lp5730
s(S'PDGF-BB/PDGFRB (DIMER)/SHP2'
p5731
S'GRB2/SOS1'
p5732
S'binds'
p5733
tp5734
(lp5735
s(S'ZBTB14'
p5736
S'EN1'
p5737
S'increases'
p5738
tp5739
(lp5740
s(S'alpha6/beta4 Integrin'
p5741
S'HRAS/GDP'
p5742
S'increases_activity'
p5743
tp5744
(lp5745
s(S'ErbB2'
p5746
S'HRAS/GDP'
p5747
S'increases_activity'
p5748
tp5749
(lp5750
s(S'MEIS1'
p5751
S'FOXO3'
p5752
S'increases'
p5753
tp5754
(lp5755
s(S'RELA'
p5756
S'IRF1'
p5757
S'increases'
p5758
tp5759
(lp5760
s(S'MYCN'
p5761
S'FOXO3'
p5762
S'increases'
p5763
tp5764
(lp5765
s(S'RHOA/GTP'
p5766
S'DIA'
p5767
S'increases_activity'
p5768
tp5769
(lp5770
s(S'Fluorouracil'
p5771
S'KRAS PROTEIN'
p5772
S'decreases'
p5773
tp5774
(lp5775
s(S'ATF2'
p5776
S'CYP26A1'
p5777
S'increases'
p5778
tp5779
(lp5780
s(S'GNAI2/GTP'
p5781
S'SRC FAMILY KINASES'
p5782
S'increases_activity'
p5783
tp5784
(lp5785
s(S'HAND1'
p5786
S'POU2F1'
p5787
S'increases'
p5788
tp5789
(lp5790
s(S'PI5K Type 1 family'
p5791
S'PI-4-P'
p5792
S'translocates'
p5793
tp5794
(lp5795
s(S'HSF1'
p5796
S'CBFA2T3'
p5797
S'increases'
p5798
tp5799
(lp5800
s(S'BACH1'
p5801
S'FOXA1'
p5802
S'increases'
p5803
tp5804
(lp5805
s(S'PI-3-4-5-P3'
p5806
S'SGK1'
p5807
S'adds_modification'
p5808
tp5809
(lp5810
s(S'hsa-miR-20a-5p'
p5811
S'NRAS'
p5812
S'decreases'
p5813
tp5814
(lp5815
s(S'CYP26A1'
p5816
S'MECOM'
p5817
S'increases'
p5818
tp5819
(lp5820
s(S'FOXF2'
p5821
S'RUNX1'
p5822
S'increases'
p5823
tp5824
(lp5825
s(S'EGR2'
p5826
S'SRF'
p5827
S'increases'
p5828
tp5829
(lp5830
s(S'LEF1'
p5831
S'FOXD3'
p5832
S'increases'
p5833
tp5834
(lp5835
s(S'TFAP2C'
p5836
S'MECOM'
p5837
S'increases'
p5838
tp5839
(lp5840
s(S'SHC'
p5841
S'GRB2/SOS1'
p5842
S'binds'
p5843
tp5844
(lp5845
s(S'CA2+'
p5846
S'CAM'
p5847
S'binds'
p5848
tp5849
(lp5850
s(S'MYC'
p5851
S'POU3F2'
p5852
S'increases'
p5853
tp5854
(lp5855
s(S'PAX8'
p5856
S'HOXA9'
p5857
S'increases'
p5858
tp5859
(lp5860
s(S'TFDP2'
p5861
S'CDC5L'
p5862
S'increases'
p5863
tp5864
(lp5865
s(S'RAF1/14-3-3'
p5866
S'KSR/14-3-3 /MEK1-2'
p5867
S'increases_activity'
p5868
tp5869
(lp5870
s(S'DDIT3'
p5871
S'MEIS1'
p5872
S'increases'
p5873
tp5874
(lp5875
s(S'GNB1/GNG2'
p5876
S'HRAS/GDP'
p5877
S'increases_activity'
p5878
tp5879
(lp5880
s(S'ACTIVATED FGFR MUTANTS:P-FRS2ALPHA'
p5881
S'GRB2:SOS1'
p5882
S'binds'
p5883
tp5884
(lp5885
s(S'HIF1A'
p5886
S'CYP26A1'
p5887
S'increases'
p5888
tp5889
(lp5890
s(S'RAF1-BRAF'
p5891
S'ERK1-2'
p5892
S'increases_activity'
p5893
tp5894
(lp5895
s(S'SMAD4'
p5896
S'CBFA2T3'
p5897
S'increases'
p5898
tp5899
(lp5900
s(S'resveratrol'
p5901
S'HRAS PROTEIN'
p5902
S'increases'
p5903
tp5904
(lp5905
s(S'Malathion'
p5906
S'HRAS MRNA'
p5907
S'increases'
p5908
tp5909
(lp5910
s(S'NRF1'
p5911
S'FOXO4'
p5912
S'increases'
p5913
tp5914
(lp5915
s(S'CREB1'
p5916
S'JUN'
p5917
S'increases'
p5918
tp5919
(lp5920
s(S'CDC5L'
p5921
S'HOXA9'
p5922
S'increases'
p5923
tp5924
(lp5925
s(S'CDX2'
p5926
S'HOXA9'
p5927
S'increases'
p5928
tp5929
(lp5930
s(S'HMGA1'
p5931
S'POU2F1'
p5932
S'increases'
p5933
tp5934
(lp5935
s(S'Coumestrol'
p5936
S'KRAS MRNA'
p5937
S'decreases'
p5938
tp5939
(lp5940
s(S'LEF1'
p5941
S'FOXO3'
p5942
S'increases'
p5943
tp5944
(lp5945
s(S'CYP26A1'
p5946
S'MEIS1'
p5947
S'increases'
p5948
tp5949
(lp5950
s(S'GTF2A2'
p5951
S'MEIS1'
p5952
S'increases'
p5953
tp5954
(lp5955
s(S'REPIN1'
p5956
S'CBFA2T3'
p5957
S'increases'
p5958
tp5959
(lp5960
s(S'hsa-miR-143-3p'
p5961
S'HRAS'
p5962
S'decreases'
p5963
tp5964
(lp5965
s(S'[(3,7,11-TRIMETHYL-DODECA-2,6,10-TRIENYLOXYCARBAMOYL)-METHYL]-PHOSPHONIC ACID'
p5966
S'KRAS'
p5967
S'increases_activity'
p5968
tp5969
(lp5970
s(S'TFDP1'
p5971
S'ONECUT1'
p5972
S'increases'
p5973
tp5974
(lp5975
s(S'YY1'
p5976
S'CYP26A1'
p5977
S'increases'
p5978
tp5979
(lp5980
s(S'PITX2'
p5981
S'RUNX1'
p5982
S'increases'
p5983
tp5984
(lp5985
s(S'STAT5A'
p5986
S'NRAS'
p5987
S'increases'
p5988
tp5989
(lp5990
s(S'Valproic Acid'
p5991
S'HRAS MRNA'
p5992
S'increases'
p5993
tp5994
(lp5995
s(S'Malathion'
p5996
S'HRAS PROTEIN'
p5997
S'increases'
p5998
tp5999
(lp6000
s(S'TFAP4'
p6001
S'CBFA2T3'
p6002
S'increases'
p6003
tp6004
(lp6005
s(S'TFAP4'
p6006
S'EN1'
p6007
S'increases'
p6008
tp6009
(lp6010
s(S'POU3F2'
p6011
S'CYP26A1'
p6012
S'increases'
p6013
tp6014
(lp6015
s(S'PAX3'
p6016
S'FOXD3'
p6017
S'increases'
p6018
tp6019
(lp6020
s(S'FOXA2'
p6021
S'RUNX2'
p6022
S'increases'
p6023
tp6024
(lp6025
s(S'MAX'
p6026
S'BACH1'
p6027
S'increases'
p6028
tp6029
(lp6030
s(S'PDX1'
p6031
S'CYP26A1'
p6032
S'increases'
p6033
tp6034
(lp6035
s(S'EPO/EPOR (dimer)/JAK2'
p6036
S'SHC/GRB2/SOS1'
p6037
S'increases_activity'
p6038
tp6039
(lp6040
s(S'E2F1'
p6041
S'MEIS1'
p6042
S'increases'
p6043
tp6044
(lp6045
s(S'FOXF2'
p6046
S'MEIS1'
p6047
S'increases'
p6048
tp6049
(lp6050
s(S'SPZ1'
p6051
S'FOXJ2'
p6052
S'increases'
p6053
tp6054
(lp6055
s(S'SRY'
p6056
S'NRAS'
p6057
S'increases'
p6058
tp6059
(lp6060
s(S'REPIN1'
p6061
S'CYP26A1'
p6062
S'increases'
p6063
tp6064
(lp6065
s(S'VEGFR3/VEGFC-D'
p6066
S'PKC'
p6067
S'increases_activity'
p6068
tp6069
(lp6070
s(S'MEIS1'
p6071
S'EN1'
p6072
S'increases'
p6073
tp6074
(lp6075
s(S'FOXJ1'
p6076
S'FOXD3'
p6077
S'increases'
p6078
tp6079
(lp6080
s(S'SPZ1'
p6081
S'FOXO4'
p6082
S'increases'
p6083
tp6084
(lp6085
s(S'RHOA/GTP'
p6086
S'ROCK1-ROCK2'
p6087
S'increases_activity'
p6088
tp6089
(lp6090
s(S'HMGA1'
p6091
S'ONECUT1'
p6092
S'increases'
p6093
tp6094
(lp6095
s(S'uPA/uPAR/alphav/beta3 Integrin/Vitronectin'
p6096
S'SRC'
p6097
S'adds_modification'
p6098
tp6099
(lp6100
s(S'ETS1'
p6101
S'CYP26A1'
p6102
S'increases'
p6103
tp6104
(lp6105
s(S'ESRRA'
p6106
S'TLX2'
p6107
S'increases'
p6108
tp6109
(lp6110
s(S'ROCK2'
p6111
S'RHO FAMILY GTPASE-ACTIVE'
p6112
S'binds'
p6113
tp6114
(lp6115
s(S'ATF4'
p6116
S'CYP26A1'
p6117
S'increases'
p6118
tp6119
(lp6120
s(S'OR5I1'
p6121
S'CYP26A1'
p6122
S'increases'
p6123
tp6124
(lp6125
s(S'PITX2'
p6126
S'GATA1'
p6127
S'increases'
p6128
tp6129
(lp6130
s(S'AHR'
p6131
S'ONECUT1'
p6132
S'increases'
p6133
tp6134
(lp6135
s(S'PTF1A'
p6136
S'MECOM'
p6137
S'increases'
p6138
tp6139
(lp6140
s(S'arsenic trioxide'
p6141
S'HRAS MRNA'
p6142
S'increases'
p6143
tp6144
(lp6145
s(S'TCF3'
p6146
S'REPIN1'
p6147
S'increases'
p6148
tp6149
(lp6150
s(S'STAT6'
p6151
S'FOXO3'
p6152
S'increases'
p6153
tp6154
(lp6155
s(S'POU1F1'
p6156
S'POU2F1'
p6157
S'increases'
p6158
tp6159
(lp6160
s(S'RHOA/GTP'
p6161
S'ROCK'
p6162
S'increases_activity'
p6163
tp6164
(lp6165
s(S'PITPNA'
p6166
S'PI-4-5-P2'
p6167
S'translocates'
p6168
tp6169
(lp6170
s(S'MDM-2'
p6171
S'P14/19 ARF'
p6172
S'binds'
p6173
tp6174
(lp6175
s(S'TEAD1'
p6176
S'FOXO3'
p6177
S'increases'
p6178
tp6179
(lp6180
s(S'MYC'
p6181
S'MAX'
p6182
S'increases'
p6183
tp6184
(lp6185
s(S'GRB2:SOS1'
p6186
S'EGF:PHOSPHO-EGFR:PHOSPHO-SHC'
p6187
S'binds'
p6188
tp6189
(lp6190
s(S'NF1'
p6191
S'RUNX1'
p6192
S'increases'
p6193
tp6194
(lp6195
s(S'ZEB1'
p6196
S'GATA6'
p6197
S'increases'
p6198
tp6199
(lp6200
s(S'TBP'
p6201
S'EN1'
p6202
S'increases'
p6203
tp6204
(lp6205
s(S'FOXA1'
p6206
S'FOXD3'
p6207
S'increases'
p6208
tp6209
(lp6210
s(S'CART1'
p6211
S'EN1'
p6212
S'increases'
p6213
tp6214
(lp6215
s(S'MAX'
p6216
S'CEBPA'
p6217
S'increases'
p6218
tp6219
(lp6220
s(S'GATA6'
p6221
S'NRAS'
p6222
S'increases'
p6223
tp6224
(lp6225
s(S'PTF1A'
p6226
S'FOXO3'
p6227
S'increases'
p6228
tp6229
(lp6230
s(S'LEF1'
p6231
S'FOXA1'
p6232
S'increases'
p6233
tp6234
(lp6235
s(S'hsa-let-7g-5p'
p6236
S'KRAS'
p6237
S'decreases'
p6238
tp6239
(lp6240
s(S'ZBTB14'
p6241
S'CYP26A1'
p6242
S'increases'
p6243
tp6244
(lp6245
s(S'POU1F1'
p6246
S'FOXO4'
p6247
S'increases'
p6248
tp6249
(lp6250
s(S'PI3K'
p6251
S'PI-4-5-P2'
p6252
S'translocates'
p6253
tp6254
(lp6255
s(S'GABPB2'
p6256
S'NRAS'
p6257
S'increases'
p6258
tp6259
(lp6260
s(S'ELK1'
p6261
S'LEF1'
p6262
S'increases'
p6263
tp6264
(lp6265
s(S'Estrogens'
p6266
S'HRAS MRNA'
p6267
S'increases'
p6268
tp6269
(lp6270
s(S'CYP26A1'
p6271
S'CEBPA'
p6272
S'increases'
p6273
tp6274
(lp6275
s(S'SPI1'
p6276
S'POU2F1'
p6277
S'increases'
p6278
tp6279
(lp6280
s(S'PPARG'
p6281
S'CYP26A1'
p6282
S'increases'
p6283
tp6284
(lp6285
s(S'Asbestos, Serpentine'
p6286
S'HRAS PROTEIN'
p6287
S'increases'
p6288
tp6289
(lp6290
s(S'RET51/GFRALPHA1/GDNF/DOK1'
p6291
S'RASGAP'
p6292
S'binds'
p6293
tp6294
(lp6295
s(S'FOXO1'
p6296
S'GATA6'
p6297
S'increases'
p6298
tp6299
(lp6300
s(S'Cadmium'
p6301
S'KRAS PROTEIN'
p6302
S'increases'
p6303
tp6304
(lp6305
s(S'MAX'
p6306
S'EN1'
p6307
S'increases'
p6308
tp6309
(lp6310
s(S'TLX2'
p6311
S'NRAS'
p6312
S'increases'
p6313
tp6314
(lp6315
s(S'SREBF1'
p6316
S'CYP26A1'
p6317
S'increases'
p6318
tp6319
(lp6320
s(S'SMAD3'
p6321
S'MEIS1'
p6322
S'increases'
p6323
tp6324
(lp6325
s(S'Acetaminophen'
p6326
S'NRAS MRNA'
p6327
S'decreases'
p6328
tp6329
(lp6330
s(S'LEF1'
p6331
S'ETS1'
p6332
S'increases'
p6333
tp6334
(lp6335
s(S'SRF'
p6336
S'MEIS1'
p6337
S'increases'
p6338
tp6339
(lp6340
s(S'BRAF'
p6341
S'MKK3-MKK6'
p6342
S'increases_activity'
p6343
tp6344
(lp6345
s(S'HRAS/GTP'
p6346
S'RAF1'
p6347
S'adds_modification'
p6348
tp6349
(lp6350
s(S'MSX1'
p6351
S'CYP26A1'
p6352
S'increases'
p6353
tp6354
(lp6355
s(S'GATA4'
p6356
S'ETS1'
p6357
S'increases'
p6358
tp6359
(lp6360
s(S'E4F1'
p6361
S'FOXA1'
p6362
S'increases'
p6363
tp6364
(lp6365
s(S'FOXD1'
p6366
S'LEF1'
p6367
S'increases'
p6368
tp6369
(lp6370
s(S'CUX1'
p6371
S'MAX'
p6372
S'increases'
p6373
tp6374
(lp6375
s(S'CYP26A1'
p6376
S'CBFA2T3'
p6377
S'increases'
p6378
tp6379
(lp6380
s(S'CAM/CA2+'
p6381
S'KRAS ISOFORM 4B/GTP'
p6382
S'binds'
p6383
tp6384
(lp6385
s(S'MYOG'
p6386
S'STAT5A'
p6387
S'increases'
p6388
tp6389
(lp6390
s(S'MYOD1'
p6391
S'STAT5A'
p6392
S'increases'
p6393
tp6394
(lp6395
s(S'HNF1A'
p6396
S'POU3F2'
p6397
S'increases'
p6398
tp6399
(lp6400
s(S'EPH'
p6401
S'EPHR'
p6402
S'binds'
p6403
tp6404
(lp6405
s(S'PDGF:PHOSPHO-PDGF RECEPTOR DIMER'
p6406
S'GRB2:SOS1'
p6407
S'binds'
p6408
tp6409
(lp6410
s(S'HRAS/GTP'
p6411
S'PI3K'
p6412
S'increases_activity'
p6413
tp6414
(lp6415
s(S'RUNX1'
p6416
S'TLX2'
p6417
S'increases'
p6418
tp6419
(lp6420
s(S'MYOG'
p6421
S'CYP26A1'
p6422
S'increases'
p6423
tp6424
(lp6425
s(S'PAX2'
p6426
S'EN1'
p6427
S'increases'
p6428
tp6429
(lp6430
s(S'TFCP2'
p6431
S'CYP26A1'
p6432
S'increases'
p6433
tp6434
(lp6435
s(S'hsa-miR-145-5p'
p6436
S'NRAS'
p6437
S'decreases'
p6438
tp6439
(lp6440
s(S'KAT2B'
p6441
S'GATA1'
p6442
S'increases'
p6443
tp6444
(lp6445
s(S'P-EGFR MUTANTS:P-Y349,350-SHC1'
p6446
S'GRB2:SOS1'
p6447
S'binds'
p6448
tp6449
(lp6450
s(S'E2F1'
p6451
S'MECOM'
p6452
S'increases'
p6453
tp6454
(lp6455
s(S'GNB1/GNG2'
p6456
S'SRC'
p6457
S'adds_modification'
p6458
tp6459
(lp6460
s(S'ZBTB14'
p6461
S'MAX'
p6462
S'increases'
p6463
tp6464
(lp6465
s(S'RALGDS'
p6466
S'P21 RAS:GTP'
p6467
S'binds'
p6468
tp6469
(lp6470
s(S'RHOA/GTP'
p6471
S'ROCK2'
p6472
S'increases_activity'
p6473
tp6474
(lp6475
s(S'NR1H3'
p6476
S'FOXD3'
p6477
S'increases'
p6478
tp6479
(lp6480
s(S'TFAP4'
p6481
S'GATA1'
p6482
S'increases'
p6483
tp6484
(lp6485
s(S'FOXA1'
p6486
S'GATA6'
p6487
S'increases'
p6488
tp6489
(lp6490
s(S'GRB2:SOS1'
p6491
S'P-SHC'
p6492
S'binds'
p6493
tp6494
(lp6495
s(S'E2F1'
p6496
S'FOXO3'
p6497
S'increases'
p6498
tp6499
(lp6500
s.