(dp0
(S'ZEB1'
p1
S'FOXA1'
p2
S'increases'
p3
tp4
(lp5
s(S'FOXJ1'
p6
S'GATA6'
p7
S'increases'
p8
tp9
(lp10
s(S'TFAP4'
p11
S'FOXD3'
p12
S'increases'
p13
tp14
(lp15
s(S'TBP'
p16
S'MEIS1'
p17
S'increases'
p18
tp19
(lp20
s(S'GCM1'
p21
S'GATA6'
p22
S'increases'
p23
tp24
(lp25
s(S'T-DHT'
p26
S'SRC'
p27
S'adds_modification'
p28
tp29
(lp30
s(S'MAZ'
p31
S'GABPB2'
p32
S'increases'
p33
tp34
(lp35
s(S'HMGA1'
p36
S'EN1'
p37
S'increases'
p38
tp39
(lp40
s(S'CYP26A1'
p41
S'NRAS'
p42
S'increases'
p43
tp44
(lp45
s(S'CUX1'
p46
S'MEIS1'
p47
S'increases'
p48
tp49
(lp50
s(S'REPIN1'
p51
S'BACH1'
p52
S'increases'
p53
tp54
(lp55
s(S'TFDP1'
p56
S'HOXA9'
p57
S'increases'
p58
tp59
(lp60
s(S'NFE2L1'
p61
S'CYP26A1'
p62
S'increases'
p63
tp64
(lp65
s(S'MAZ'
p66
S'GATA1'
p67
S'increases'
p68
tp69
(lp70
s(S'TCF12'
p71
S'GABPB2'
p72
S'increases'
p73
tp74
(lp75
s(S'ETS2'
p76
S'FOXO3'
p77
S'increases'
p78
tp79
(lp80
s(S'hsa-let-7c-5p'
p81
S'NRAS'
p82
S'decreases'
p83
tp84
(lp85
s(S'SPI1'
p86
S'CYP26A1'
p87
S'increases'
p88
tp89
(lp90
s(S'RAC1/GTP'
p91
S'MKK4'
p92
S'adds_modification'
p93
tp94
(lp95
s(S'Quercetin'
p96
S'KRAS MRNA'
p97
S'decreases'
p98
tp99
(lp100
s(S'INSULIN RECEPTOR/INSULIN/SHC'
p101
S'GRB2'
p102
S'binds'
p103
tp104
(lp105
s(S'TAp63a (tetramer)'
p106
S'PKC DELTA'
p107
S'increases'
p108
tp109
(lp110
s(S'FOXO1'
p111
S'POU2F1'
p112
S'increases'
p113
tp114
(lp115
s(S'FOXL1'
p116
S'EN1'
p117
S'increases'
p118
tp119
(lp120
s(S'TBP'
p121
S'CYP26A1'
p122
S'increases'
p123
tp124
(lp125
s(S'Heptachlor'
p126
S'HRAS MRNA'
p127
S'decreases'
p128
tp129
(lp130
s(S'PCBP1'
p131
S'CYP26A1'
p132
S'increases'
p133
tp134
(lp135
s(S'ZBTB18'
p136
S'CYP26A1'
p137
S'increases'
p138
tp139
(lp140
s(S'GATA2'
p141
S'CYP26A1'
p142
S'increases'
p143
tp144
(lp145
s(S'Cadmium'
p146
S'KRAS MRNA'
p147
S'increases'
p148
tp149
(lp150
s(S'HNF1A'
p151
S'POU2F1'
p152
S'increases'
p153
tp154
(lp155
s(S'ABT-100'
p156
S'HRAS PROTEIN'
p157
S'inhibits_modification'
p158
tp159
(lp160
s(S'ELF1'
p161
S'CYP26A1'
p162
S'increases'
p163
tp164
(lp165
s(S'LEF1'
p166
S'KRAS'
p167
S'increases'
p168
tp169
(lp170
s(S'NKX2-1'
p171
S'FOXD3'
p172
S'increases'
p173
tp174
(lp175
s(S'PI-3-4-5-P3'
p176
S'BTK-ITK'
p177
S'translocates'
p178
tp179
(lp180
s(S'POU6F1'
p181
S'HOXA9'
p182
S'increases'
p183
tp184
(lp185
s(S'Myb'
p186
S'MYB'
p187
S'increases'
p188
tp189
(lp190
s(S'PAX5'
p191
S'CYP26A1'
p192
S'increases'
p193
tp194
(lp195
s(S'FOXO4'
p196
S'FOXD3'
p197
S'increases'
p198
tp199
(lp200
s(S'CYP26A1'
p201
S'FOXO4'
p202
S'increases'
p203
tp204
(lp205
s(S'cell adhesion'
p206
S'HRAS/GDP'
p207
S'increases_activity'
p208
tp209
(lp210
s(S'IRF7'
p211
S'CYP26A1'
p212
S'increases'
p213
tp214
(lp215
s(S'7,8-Dihydro-7,8-dihydroxybenzo(a)pyrene 9,10-oxide'
p216
S'KRAS PROTEIN'
p217
S'increases'
p218
tp219
(lp220
s(S'PITX2'
p221
S'POU2F1'
p222
S'increases'
p223
tp224
(lp225
s(S'E2F1'
p226
S'CYP26A1'
p227
S'increases'
p228
tp229
(lp230
s(S'ATF1'
p231
S'CYP26A1'
p232
S'increases'
p233
tp234
(lp235
s(S'PI3K'
p236
S'PKC DELTA'
p237
S'adds_modification'
p238
tp239
(lp240
s(S'SOX5'
p241
S'HOXA9'
p242
S'increases'
p243
tp244
(lp245
s(S'FOXO4'
p246
S'POU2F1'
p247
S'increases'
p248
tp249
(lp250
s(S'FOXO4'
p251
S'GATA6'
p252
S'increases'
p253
tp254
(lp255
s(S'LEF1'
p256
S'FOXF2'
p257
S'increases'
p258
tp259
(lp260
s(S'Insulin Receptor/Insuli/IRS1/GRB2/SHC/Sos'
p261
S'HRAS/GDP'
p262
S'increases_activity'
p263
tp264
(lp265
s(S'TLX2'
p266
S'RUNX1'
p267
S'increases'
p268
tp269
(lp270
s(S'ALX4'
p271
S'JUN'
p272
S'increases'
p273
tp274
(lp275
s(S'RHOA/GTP'
p276
S'RHOGDI'
p277
S'binds'
p278
tp279
(lp280
s(S'GCM1'
p281
S'CYP26A1'
p282
S'increases'
p283
tp284
(lp285
s(S'RB1'
p286
S'ONECUT1'
p287
S'increases'
p288
tp289
(lp290
s(S'NHLH1'
p291
S'CYP26A1'
p292
S'increases'
p293
tp294
(lp295
s(S'NR3C1'
p296
S'BACH1'
p297
S'increases'
p298
tp299
(lp300
s(S'HNF4A'
p301
S'CYP26A1'
p302
S'increases'
p303
tp304
(lp305
s(S'YY1'
p306
S'FOXO3'
p307
S'increases'
p308
tp309
(lp310
s(S'GRB2:SOS1'
p311
S'P-EGFR MUTANTS DIMER'
p312
S'binds'
p313
tp314
(lp315
s(S'P-Y349,350-SHC1:P-ERBB4'
p316
S'GRB2:SOS1'
p317
S'binds'
p318
tp319
(lp320
s(S'FOXN1'
p321
S'ONECUT1'
p322
S'increases'
p323
tp324
(lp325
s(S'TFAP4'
p326
S'MYC'
p327
S'increases'
p328
tp329
(lp330
s(S'MYC'
p331
S'EN1'
p332
S'increases'
p333
tp334
(lp335
s(S'Antigen/IgE/Fc epsilon R1/LYN/SYK'
p336
S'SHC/GRB2/SOS1'
p337
S'increases_activity'
p338
tp339
(lp340
s(S'14-3-3 BETA, ZETA'
p341
S'GARNL4'
p342
S'binds'
p343
tp344
(lp345
s(S'SMAD1'
p346
S'EN1'
p347
S'increases'
p348
tp349
(lp350
s(S'Raf-1'
p351
S'MEK1-2'
p352
S'adds_modification'
p353
tp354
(lp355
s(S'POU2F1'
p356
S'FOXO3'
p357
S'increases'
p358
tp359
(lp360
s(S'NGF (dimer)/TRKA'
p361
S'RASGRF1'
p362
S'adds_modification'
p363
tp364
(lp365
s(S'TCF4'
p366
S'CYP26A1'
p367
S'increases'
p368
tp369
(lp370
s(S'STAT5B'
p371
S'TLX2'
p372
S'increases'
p373
tp374
(lp375
s(S'CYP26A1'
p376
S'SRF'
p377
S'increases'
p378
tp379
(lp380
s(S'STAT1'
p381
S'NRAS'
p382
S'increases'
p383
tp384
(lp385
s(S'TFDP1'
p386
S'GATA1'
p387
S'increases'
p388
tp389
(lp390
s(S'PI3K'
p391
S'ALPHA6/BETA4 INTEGRIN/LAMININ'
p392
S'binds'
p393
tp394
(lp395
s(S'FOXF2'
p396
S'NRAS'
p397
S'increases'
p398
tp399
(lp400
s(S'CUX1'
p401
S'POU2F1'
p402
S'increases'
p403
tp404
(lp405
s(S'ETS2'
p406
S'STAT4'
p407
S'increases'
p408
tp409
(lp410
s(S'EN1'
p411
S'CYP26A1'
p412
S'increases'
p413
tp414
(lp415
s(S'COMPLEX (RAS/GTP)'
p416
S'RAF'
p417
S'binds'
p418
tp419
(lp420
s(S'LEF1'
p421
S'EN1'
p422
S'increases'
p423
tp424
(lp425
s(S'FOXL1'
p426
S'NRAS'
p427
S'increases'
p428
tp429
(lp430
s(S'ELF2'
p431
S'CYP26A1'
p432
S'increases'
p433
tp434
(lp435
s(S'Src Family Kinases-active'
p436
S'EGF/EGFR'
p437
S'adds_modification'
p438
tp439
(lp440
s(S'RUNX1'
p441
S'POU2F1'
p442
S'increases'
p443
tp444
(lp445
s(S'RHOA/GTP'
p446
S'CITRON-N'
p447
S'increases_activity'
p448
tp449
(lp450
s(S'PAX4'
p451
S'SRF'
p452
S'increases'
p453
tp454
(lp455
s(S'Vitamin E'
p456
S'HRAS MRNA'
p457
S'increases'
p458
tp459
(lp460
s(S'CDX2'
p461
S'FOXD3'
p462
S'increases'
p463
tp464
(lp465
s(S'Plant Extracts'
p466
S'KEAP1 PROTEIN'
p467
S'decreases'
p468
tp469
(lp470
s(S'PAX4'
p471
S'CBFA2T3'
p472
S'increases'
p473
tp474
(lp475
s(S'FOXD1'
p476
S'CYP26A1'
p477
S'increases'
p478
tp479
(lp480
s(S'Antigen/IgE/Fc epsilon R1/LYN/SYK'
p481
S'VAV1'
p482
S'adds_modification'
p483
tp484
(lp485
s(S'PCBP1'
p486
S'MEIS1'
p487
S'increases'
p488
tp489
(lp490
s(S'FOXI1'
p491
S'FOXD3'
p492
S'increases'
p493
tp494
(lp495
s(S'GATA4'
p496
S'MEIS1'
p497
S'increases'
p498
tp499
(lp500
s(S'STAT5B'
p501
S'CEBPG'
p502
S'increases'
p503
tp504
(lp505
s(S'TFDP2'
p506
S'MAZ'
p507
S'increases'
p508
tp509
(lp510
s(S'PI3K'
p511
S'SHP2'
p512
S'binds'
p513
tp514
(lp515
s(S'SPI1'
p516
S'ONECUT1'
p517
S'increases'
p518
tp519
(lp520
s(S'STAT6'
p521
S'EN1'
p522
S'increases'
p523
tp524
(lp525
s(S'TLX2'
p526
S'CYP26A1'
p527
S'increases'
p528
tp529
(lp530
s(S'RAF1'
p531
S'MEK1-2'
p532
S'increases_activity'
p533
tp534
(lp535
s(S'STAT5A'
p536
S'IRF1'
p537
S'increases'
p538
tp539
(lp540
s(S'2-amino-1-methyl-6-phenylimidazo(4,5-b)pyridine'
p541
S'HRAS MRNA'
p542
S'increases'
p543
tp544
(lp545
s(S'MAZ'
p546
S'POU2F1'
p547
S'increases'
p548
tp549
(lp550
s(S'MAZ'
p551
S'SRF'
p552
S'increases'
p553
tp554
(lp555
s(S'GATA1'
p556
S'JUN'
p557
S'increases'
p558
tp559
(lp560
s(S'FOXA1'
p561
S'NRAS'
p562
S'increases'
p563
tp564
(lp565
s(S'STAT1'
p566
S'EN1'
p567
S'increases'
p568
tp569
(lp570
s(S'GTF2A2'
p571
S'MAX'
p572
S'increases'
p573
tp574
(lp575
s(S'LMO2'
p576
S'EN1'
p577
S'increases'
p578
tp579
(lp580
s(S'MYOD1'
p581
S'LEF1'
p582
S'increases'
p583
tp584
(lp585
s(S'ATF3'
p586
S'JUN'
p587
S'increases'
p588
tp589
(lp590
S'Marked up-regulation of expression of JUN and ATF3 ('
p591
as(S'GRB2:SOS1'
p592
S'ACTIVATED FGFR:P-SHC1'
p593
S'binds'
p594
tp595
(lp596
s(S'MAFG'
p597
S'BACH1'
p598
S'increases'
p599
tp600
(lp601
s(S'POU3F2'
p602
S'POU2F1'
p603
S'increases'
p604
tp605
(lp606
s(S'K 7174'
p607
S'KRAS MRNA'
p608
S'increases'
p609
tp610
(lp611
s(S'POU1F1'
p612
S'RUNX1'
p613
S'increases'
p614
tp615
(lp616
s(S'HRAS protein'
p617
S'CCND1 MRNA'
p618
S'increases'
p619
tp620
(lp621
s(S'YY1'
p622
S'EN1'
p623
S'increases'
p624
tp625
(lp626
s(S'resveratrol'
p627
S'HRAS MRNA'
p628
S'increases'
p629
tp630
(lp631
s(S'NKX2-1'
p632
S'HOXA9'
p633
S'increases'
p634
tp635
(lp636
s(S'HSF1'
p637
S'CYP26A1'
p638
S'increases'
p639
tp640
(lp641
s(S'MYC'
p642
S'HOXA9'
p643
S'increases'
p644
tp645
(lp646
s(S'Raf'
p647
S'MEK'
p648
S'adds_modification'
p649
tp650
(lp651
S'Studies in cell lines have identified that JSRV Env activates a number of cellular signaling pathways involved in neoplastic transformation, including the Akt-mTOR and Ras-Raf-MEK-ERK pathways (reviewed by ['
p652
aS'The ITAM is a critical component of the CD3-induced T cell signaling pathway, known to activate cells via the Raf/MEK/ERK signaling cascade.'
p653
aS'In granulosa cells, B-Raf, Rap-1 and MEK are constitutively active and lead to ERK phosphorylation.'
p654
aS'The decrease in p-MEK1 a kinase up-stream of p-ERK1 might have led to the down-stream inhibition as well as may lead to B-Raf kinase inhibition ['
p655
aS'An increasing body of data indicates that the PI3K/AKT- and Ras/Raf/MEK/ERK-mediated signaling pathways may govern EGFR-mediated radioresistance ['
p656
aS'In this pathway IGF-1R activates the adaptor proteins, She and\nGrb2, leading to activation of Ras, Raf, MEK1/2, and ERK1/2, which results in cell\nproliferation.'
p657
aS'Many signal molecules, including caveolin-1, tyrosine kinase, Raf, MEK1/2, and transient receptor potential canonical (TRPC) accumulate in the caveolae ['
p658
aS'ERK1/2 belongs to the MAPK family and locates downstream of the cascade of Ras/Raf/MEK kinase.'
p659
aS'Further researches suggest an enhanced Raf/MEK/ERK effect upon PI3K/AKT activation ['
p660
aS'ERK activation is mediated by at least three different pathways: a Raf/MEK-dependent pathway, a PI3K/Raf-independent pathway that strongly activates MEK, and a third undetermined pathway that directly activates ERK proteins \n['
p661
as(S'TFDP1'
p662
S'MAZ'
p663
S'increases'
p664
tp665
(lp666
s(S'SPRED1'
p667
S'HRAS'
p668
S'binds'
p669
tp670
(lp671
s(S'MYCN'
p672
S'CYP26A1'
p673
S'increases'
p674
tp675
(lp676
s(S'AHR'
p677
S'FOXD3'
p678
S'increases'
p679
tp680
(lp681
s(S'SF1'
p682
S'CYP26A1'
p683
S'increases'
p684
tp685
(lp686
s(S'MEIS1'
p687
S'ETS1'
p688
S'increases'
p689
tp690
(lp691
s(S'Copper Sulfate'
p692
S'HRAS MRNA'
p693
S'decreases'
p694
tp695
(lp696
s(S'MAZ'
p697
S'MYC'
p698
S'increases'
p699
tp700
(lp701
s(S'E4F1'
p702
S'HOXA9'
p703
S'increases'
p704
tp705
(lp706
s(S'GATA1'
p707
S'GATA6'
p708
S'increases'
p709
tp710
(lp711
s(S'RUNX2'
p712
S'POU2F1'
p713
S'increases'
p714
tp715
(lp716
s(S'CYP26A1'
p717
S'GATA6'
p718
S'increases'
p719
tp720
(lp721
s(S'PAX4'
p722
S'GATA1'
p723
S'increases'
p724
tp725
(lp726
s(S'ELF2'
p727
S'STAT5A'
p728
S'increases'
p729
tp730
(lp731
s(S'CART1'
p732
S'NRAS'
p733
S'increases'
p734
tp735
(lp736
s(S'IGF-1R heterotetramer/IGF1/GRB2/Sos/Shc'
p737
S'HRAS/GDP'
p738
S'increases_activity'
p739
tp740
(lp741
s(S'RB1'
p742
S'CYP26A1'
p743
S'increases'
p744
tp745
(lp746
s(S'CEBPG'
p747
S'HOXA9'
p748
S'increases'
p749
tp750
(lp751
s(S'GRB2/SOS1/SHC'
p752
S'IGF-1R HETEROTETRAMER/IGF1'
p753
S'binds'
p754
tp755
(lp756
s(S'PRRX2'
p757
S'CYP26A1'
p758
S'increases'
p759
tp760
(lp761
s(S'TEAD1'
p762
S'CYP26A1'
p763
S'increases'
p764
tp765
(lp766
s(S'STAT5A'
p767
S'FOXA1'
p768
S'increases'
p769
tp770
(lp771
s(S'ATF2'
p772
S'FOXD3'
p773
S'increases'
p774
tp775
(lp776
s(S'REPIN1'
p777
S'FOXO4'
p778
S'increases'
p779
tp780
(lp781
s(S'FOXF2'
p782
S'ETS1'
p783
S'increases'
p784
tp785
(lp786
s(S'ETV7'
p787
S'MEIS1'
p788
S'increases'
p789
tp790
(lp791
s(S'RUNX2'
p792
S'RUNX1'
p793
S'increases'
p794
tp795
(lp796
S'The three mammalian RUNX proteins (RUNX1, RUNX2, RUNX3) share a highly conserved 128 amino acid DNA binding domain ['
p797
as(S'OR5I1'
p798
S'GATA1'
p799
S'increases'
p800
tp801
(lp802
s(S'MSX1'
p803
S'EN1'
p804
S'increases'
p805
tp806
(lp807
s(S'GTF3A'
p808
S'IRF1'
p809
S'increases'
p810
tp811
(lp812
s(S'POU2F1'
p813
S'SRF'
p814
S'increases'
p815
tp816
(lp817
s(S'PLC-GAMMA'
p818
S'COMPLEX (GADS/SLP-76)'
p819
S'binds'
p820
tp821
(lp822
s(S'STAT4'
p823
S'STAT5A'
p824
S'increases'
p825
tp826
(lp827
s(S'JUN'
p828
S'BACH1'
p829
S'increases'
p830
tp831
(lp832
s(S'POU1F1'
p833
S'HOXA9'
p834
S'increases'
p835
tp836
(lp837
s(S'docetaxel'
p838
S'HRAS PROTEIN'
p839
S'increases'
p840
tp841
(lp842
s(S'MAX'
p843
S'LEF1'
p844
S'increases'
p845
tp846
(lp847
s(S'FOXA1'
p848
S'CYP26A1'
p849
S'increases'
p850
tp851
(lp852
s(S'GATA4'
p853
S'FOXD3'
p854
S'increases'
p855
tp856
(lp857
s(S'ZBTB18'
p858
S'RUNX1'
p859
S'increases'
p860
tp861
(lp862
s(S'ATF3'
p863
S'RUNX1'
p864
S'increases'
p865
tp866
(lp867
s(S'NKX2-1'
p868
S'CYP26A1'
p869
S'increases'
p870
tp871
(lp872
s(S'NR3C1'
p873
S'FOXA1'
p874
S'increases'
p875
tp876
(lp877
s(S'RAS family/GTP'
p878
S'RIN1'
p879
S'increases_activity'
p880
tp881
(lp882
s(S'COMPLEX (RAS/GTP/ RAF)'
p883
S'MEK'
p884
S'binds'
p885
tp886
(lp887
s(S'CDC5L'
p888
S'NRAS'
p889
S'increases'
p890
tp891
(lp892
s(S'Vitamin E'
p893
S'NRAS MRNA'
p894
S'decreases'
p895
tp896
(lp897
s(S'NF1'
p898
S'LEF1'
p899
S'increases'
p900
tp901
(lp902
s(S'ETS1'
p903
S'EN1'
p904
S'increases'
p905
tp906
(lp907
s(S'CRAF'
p908
S'YWHAB'
p909
S'binds'
p910
tp911
(lp912
s(S'CEBPD'
p913
S'JUN'
p914
S'increases'
p915
tp916
(lp917
s(S'MAX'
p918
S'RUNX2'
p919
S'increases'
p920
tp921
(lp922
s(S'CEBPA'
p923
S'MECOM'
p924
S'increases'
p925
tp926
(lp927
s(S'PAX2'
p928
S'GATA1'
p929
S'increases'
p930
tp931
(lp932
s(S'CYP26A1'
p933
S'TLX2'
p934
S'increases'
p935
tp936
(lp937
s(S'GFI1'
p938
S'ETS1'
p939
S'increases'
p940
tp941
(lp942
s(S'14-3-3:P-S259,Y340,Y341,S621-RAF1:RAS:GTP'
p943
S'MEK'
p944
S'binds'
p945
tp946
(lp947
s(S'P-S,T-MEK2'
p948
S'ERK2'
p949
S'binds'
p950
tp951
(lp952
s(S'HRAS/GTP'
p953
S'RIN2'
p954
S'increases_activity'
p955
tp956
(lp957
s(S'Ras-GTP'
p958
S'P42/P44MAPKS'
p959
S'adds_modification'
p960
tp961
(lp962
s(S'SRF'
p963
S'CYP26A1'
p964
S'increases'
p965
tp966
(lp967
s(S'FOXL1'
p968
S'RUNX2'
p969
S'increases'
p970
tp971
(lp972
s(S'EGR4'
p973
S'LEF1'
p974
S'increases'
p975
tp976
(lp977
s(S'P-IRS1,2'
p978
S'GRB2:SOS1'
p979
S'binds'
p980
tp981
(lp982
s(S'VEGFR2 (dimer)/VEGFA (dimer)/alphav/beta3 Integrin/Vitronectin'
p983
S'SRC'
p984
S'adds_modification'
p985
tp986
(lp987
s(S'BACH2'
p988
S'BACH1'
p989
S'increases'
p990
tp991
(lp992
s(S'ONECUT1'
p993
S'RUNX1'
p994
S'increases'
p995
tp996
(lp997
s(S'FOXJ2'
p998
S'RUNX2'
p999
S'increases'
p1000
tp1001
(lp1002
s(S'PI-3-4-5-P3'
p1003
S'AKT1'
p1004
S'translocates'
p1005
tp1006
(lp1007
s(S'TFAP4'
p1008
S'BACH1'
p1009
S'increases'
p1010
tp1011
(lp1012
s(S'MEKK1/4'
p1013
S'MKK3/6'
p1014
S'adds_modification'
p1015
tp1016
(lp1017
s(S'VSX1'
p1018
S'MECOM'
p1019
S'increases'
p1020
tp1021
(lp1022
s(S'IRF1'
p1023
S'GATA6'
p1024
S'increases'
p1025
tp1026
(lp1027
s(S'MAX'
p1028
S'HOXA9'
p1029
S'increases'
p1030
tp1031
(lp1032
s(S'RB1'
p1033
S'MAZ'
p1034
S'increases'
p1035
tp1036
(lp1037
s(S'GATA1'
p1038
S'EN1'
p1039
S'increases'
p1040
tp1041
(lp1042
s(S'HIF1A'
p1043
S'SRF'
p1044
S'increases'
p1045
tp1046
(lp1047
s(S'IRF8'
p1048
S'CYP26A1'
p1049
S'increases'
p1050
tp1051
(lp1052
s(S'MTF1'
p1053
S'CYP26A1'
p1054
S'increases'
p1055
tp1056
(lp1057
s(S'PI-3-4-5-P3'
p1058
S'GAB1'
p1059
S'translocates'
p1060
tp1061
(lp1062
s(S'PI-3-4-5-P3'
p1063
S'AKT1'
p1064
S'adds_modification'
p1065
tp1066
(lp1067
s(S'RXRA'
p1068
S'HOXA9'
p1069
S'increases'
p1070
tp1071
(lp1072
s(S'AKT1'
p1073
S'RAF1'
p1074
S'binds'
p1075
tp1076
(lp1077
s(S'HSF2'
p1078
S'JUN'
p1079
S'increases'
p1080
tp1081
(lp1082
s(S'PAX2'
p1083
S'CYP26A1'
p1084
S'increases'
p1085
tp1086
(lp1087
s(S'ETV7'
p1088
S'CYP26A1'
p1089
S'increases'
p1090
tp1091
(lp1092
s(S'FOXO3'
p1093
S'NRAS'
p1094
S'increases'
p1095
tp1096
(lp1097
s(S'TP53'
p1098
S'REPIN1'
p1099
S'increases'
p1100
tp1101
(lp1102
s(S'STAT6'
p1103
S'CYP26A1'
p1104
S'increases'
p1105
tp1106
(lp1107
s(S'JUN'
p1108
S'NRAS'
p1109
S'increases'
p1110
tp1111
(lp1112
s(S'MYCN'
p1113
S'NRAS'
p1114
S'increases'
p1115
tp1116
(lp1117
s(S'STAT3'
p1118
S'YY1'
p1119
S'increases'
p1120
tp1121
(lp1122
s(S'Methyl Methanesulfonate'
p1123
S'HRAS MRNA'
p1124
S'increases'
p1125
tp1126
(lp1127
s(S'RHOA/GTP'
p1128
S'PKN'
p1129
S'increases_activity'
p1130
tp1131
(lp1132
s(S'NHLH1'
p1133
S'FOXJ2'
p1134
S'increases'
p1135
tp1136
(lp1137
s(S'RAS family/GTP'
p1138
S'BRAF'
p1139
S'adds_modification'
p1140
tp1141
(lp1142
s(S'RELA'
p1143
S'FOXJ2'
p1144
S'increases'
p1145
tp1146
(lp1147
s(S'TCF3'
p1148
S'RUNX1'
p1149
S'increases'
p1150
tp1151
(lp1152
s(S'FOXF2'
p1153
S'FOXO4'
p1154
S'increases'
p1155
tp1156
(lp1157
s(S'ATF4'
p1158
S'FOXD3'
p1159
S'increases'
p1160
tp1161
(lp1162
s(S'HAND1'
p1163
S'MECOM'
p1164
S'increases'
p1165
tp1166
(lp1167
s(S'RHOA/GTP'
p1168
S'P27KIP1'
p1169
S'adds_modification'
p1170
tp1171
(lp1172
s(S'SRF'
p1173
S'NRAS'
p1174
S'increases'
p1175
tp1176
(lp1177
s(S'ESRRA'
p1178
S'POU3F2'
p1179
S'increases'
p1180
tp1181
(lp1182
s(S'BRAF'
p1183
S'MEK1'
p1184
S'adds_modification'
p1185
tp1186
(lp1187
s(S'Cadmium Chloride'
p1188
S'KRAS PROTEIN'
p1189
S'increases'
p1190
tp1191
(lp1192
s(S'PRRX2'
p1193
S'MEIS1'
p1194
S'increases'
p1195
tp1196
(lp1197
s(S'MYC'
p1198
S'NRAS'
p1199
S'increases'
p1200
tp1201
(lp1202
s(S'MAZ'
p1203
S'KRAS'
p1204
S'increases'
p1205
tp1206
(lp1207
s(S'Rho Family GTPase-active'
p1208
S'PI3K'
p1209
S'increases_activity'
p1210
tp1211
(lp1212
s(S'STAT2'
p1213
S'CYP26A1'
p1214
S'increases'
p1215
tp1216
(lp1217
s(S'hsa-let-7a-5p'
p1218
S'KRAS'
p1219
S'decreases'
p1220
tp1221
(lp1222
s(S'POU3F2'
p1223
S'NRAS'
p1224
S'increases'
p1225
tp1226
(lp1227
s(S'SRF'
p1228
S'FOXO4'
p1229
S'increases'
p1230
tp1231
(lp1232
s(S'S1P1/Sphingosine-1-phosphate/PDGF-BB/PDGFRB (dimer)'
p1233
S'SRC FAMILY KINASES'
p1234
S'increases_activity'
p1235
tp1236
(lp1237
s(S'MYC/Max'
p1238
S'ERBB2'
p1239
S'decreases'
p1240
tp1241
(lp1242
s(S'SREBF1'
p1243
S'CBFA2T3'
p1244
S'increases'
p1245
tp1246
(lp1247
s(S'PI3K'
p1248
S'GELSOLIN/PI-3-4-5-P3'
p1249
S'binds'
p1250
tp1251
(lp1252
s(S'NHLH1'
p1253
S'EN1'
p1254
S'increases'
p1255
tp1256
(lp1257
s(S'LMO2'
p1258
S'GATA6'
p1259
S'increases'
p1260
tp1261
(lp1262
s(S'POU1F1'
p1263
S'FOXD3'
p1264
S'increases'
p1265
tp1266
(lp1267
s(S'hsa-miR-148b-3p'
p1268
S'NRAS'
p1269
S'decreases'
p1270
tp1271
(lp1272
s(S'Quercetin'
p1273
S'KRAS PROTEIN'
p1274
S'decreases'
p1275
tp1276
(lp1277
s(S'PAK2'
p1278
S'MEKK1'
p1279
S'adds_modification'
p1280
tp1281
(lp1282
s(S'LMO2'
p1283
S'MAZ'
p1284
S'increases'
p1285
tp1286
(lp1287
s(S'FOXO1'
p1288
S'POU3F2'
p1289
S'increases'
p1290
tp1291
(lp1292
s(S'NKX2-1'
p1293
S'MAZ'
p1294
S'increases'
p1295
tp1296
(lp1297
s(S'GRB2/SOS1'
p1298
S'PDGF-BB/PDGFRB (DIMER)/P52 SHC'
p1299
S'binds'
p1300
tp1301
(lp1302
s(S'PI3K'
p1303
S'CRK/P130 CAS/PAXILLIN'
p1304
S'increases_activity'
p1305
tp1306
(lp1307
s(S'ATF1'
p1308
S'FOXD3'
p1309
S'increases'
p1310
tp1311
(lp1312
s(S'GATA1'
p1313
S'SRF'
p1314
S'increases'
p1315
tp1316
(lp1317
s(S'TFAP2C'
p1318
S'CYP26A1'
p1319
S'increases'
p1320
tp1321
(lp1322
s(S'AHR'
p1323
S'MEIS1'
p1324
S'increases'
p1325
tp1326
(lp1327
s(S'ETS2'
p1328
S'CYP26A1'
p1329
S'increases'
p1330
tp1331
(lp1332
s(S'Estradiol'
p1333
S'NRAS MRNA'
p1334
S'increases'
p1335
tp1336
(lp1337
s(S'E2F1'
p1338
S'HOXA9'
p1339
S'increases'
p1340
tp1341
(lp1342
s(S'PDGF-BB/PDGFRB (DIMER)'
p1343
S'RASGAP'
p1344
S'binds'
p1345
tp1346
(lp1347
s(S'E2F1'
p1348
S'GABPB2'
p1349
S'increases'
p1350
tp1351
(lp1352
s(S'FOXJ1'
p1353
S'POU3F2'
p1354
S'increases'
p1355
tp1356
(lp1357
s(S'VSX1'
p1358
S'CYP26A1'
p1359
S'increases'
p1360
tp1361
(lp1362
s(S'SPI1'
p1363
S'CDC5L'
p1364
S'increases'
p1365
tp1366
(lp1367
s(S'Gi family'
p1368
S'HRAS/GDP'
p1369
S'increases_activity'
p1370
tp1371
(lp1372
s(S'TCF3'
p1373
S'CYP26A1'
p1374
S'increases'
p1375
tp1376
(lp1377
s(S'IGF-1R HETEROTETRAMER/IGF1/IRS1'
p1378
S'GRB2/SOS1'
p1379
S'binds'
p1380
tp1381
(lp1382
s(S'RAS family/GTP'
p1383
S'RALGDS'
p1384
S'translocates'
p1385
tp1386
(lp1387
s(S'PI3K'
p1388
S'RAC1/GDP'
p1389
S'increases_activity'
p1390
tp1391
(lp1392
s(S'Ca2+'
p1393
S'PKC'
p1394
S'increases_activity'
p1395
tp1396
(lp1397
S'Since 80K-H is a Ca2+-sensor recently implicated in the regulation of both inositol 1,4,5-trisphosphate receptor and transient receptor potential (TRP) cation channel activities, its detection in sperm represents the first direct signaling link between PKC and store-operated calcium channels identified in human sperm.'
p1398
aS'The non-canonical Wnt pathways, the JNK/AP1 dependent, PCP and the PKC/CAMKII/NFAT dependent Ca2+ pathway (just like the canonical Wnt pathway) become activated following Wnt-Fz receptor binding ['
p1399
as(S'ZIC1'
p1400
S'CYP26A1'
p1401
S'increases'
p1402
tp1403
(lp1404
s(S'IRF7'
p1405
S'TLX2'
p1406
S'increases'
p1407
tp1408
(lp1409
s(S'SHC/SHIP'
p1410
S'HRAS/GDP'
p1411
S'decreases_activity'
p1412
tp1413
(lp1414
s(S'hsa-let-7a-5p'
p1415
S'HRAS'
p1416
S'decreases'
p1417
tp1418
(lp1419
s(S'GATA4'
p1420
S'MAZ'
p1421
S'increases'
p1422
tp1423
(lp1424
s(S'EN1'
p1425
S'NRAS'
p1426
S'increases'
p1427
tp1428
(lp1429
s(S'PI3K'
p1430
S'BAM32'
p1431
S'adds_modification'
p1432
tp1433
(lp1434
s(S'GABPB1'
p1435
S'CYP26A1'
p1436
S'increases'
p1437
tp1438
(lp1439
s(S'Trifluoroethanol'
p1440
S'HRAS'
p1441
S'increases_activity'
p1442
tp1443
(lp1444
s(S'SOX5'
p1445
S'CYP26A1'
p1446
S'increases'
p1447
tp1448
(lp1449
s(S'GRB2/SOS1'
p1450
S'HGF(DIMER)/MET(DIMER)/P52 SHC'
p1451
S'binds'
p1452
tp1453
(lp1454
s(S'TCF12'
p1455
S'EN1'
p1456
S'increases'
p1457
tp1458
(lp1459
s(S'SOX9'
p1460
S'MEIS1'
p1461
S'increases'
p1462
tp1463
(lp1464
s(S'RB1'
p1465
S'MYC'
p1466
S'increases'
p1467
tp1468
(lp1469
s(S'RXRA'
p1470
S'FOXA1'
p1471
S'increases'
p1472
tp1473
(lp1474
s(S'decitabine'
p1475
S'HRAS MRNA'
p1476
S'decreases'
p1477
tp1478
(lp1479
s(S'VSX1'
p1480
S'EN1'
p1481
S'increases'
p1482
tp1483
(lp1484
s(S'FOXL1'
p1485
S'CYP26A1'
p1486
S'increases'
p1487
tp1488
(lp1489
s(S'PAX2'
p1490
S'RUNX1'
p1491
S'increases'
p1492
tp1493
(lp1494
s(S'MEKK1/4'
p1495
S'MKK4/7'
p1496
S'adds_modification'
p1497
tp1498
(lp1499
s(S'HOXA9'
p1500
S'CYP26A1'
p1501
S'increases'
p1502
tp1503
(lp1504
s(S'TRKC'
p1505
S'NT3 (DIMER)'
p1506
S'binds'
p1507
tp1508
(lp1509
s(S'PTF1A'
p1510
S'REPIN1'
p1511
S'increases'
p1512
tp1513
(lp1514
s(S'TGIF'
p1515
S'CYP26A1'
p1516
S'increases'
p1517
tp1518
(lp1519
s(S'MYOD1'
p1520
S'MYC'
p1521
S'increases'
p1522
tp1523
(lp1524
s(S'PKCT'
p1525
S'KRAS ISO2'
p1526
S'adds_modification'
p1527
tp1528
(lp1529
s(S'RAS family/GTP'
p1530
S'BRAF'
p1531
S'increases_activity'
p1532
tp1533
(lp1534
s(S'SPZ1'
p1535
S'CYP26A1'
p1536
S'increases'
p1537
tp1538
(lp1539
s(S'HRAS/GTP'
p1540
S'GALECTIN-1'
p1541
S'binds'
p1542
tp1543
(lp1544
s(S'DBP'
p1545
S'FOXD3'
p1546
S'increases'
p1547
tp1548
(lp1549
s(S'E2F1'
p1550
S'POU2F1'
p1551
S'increases'
p1552
tp1553
(lp1554
s(S'MEIS1'
p1555
S'CYP26A1'
p1556
S'increases'
p1557
tp1558
(lp1559
s(S'YY1'
p1560
S'NRAS'
p1561
S'increases'
p1562
tp1563
(lp1564
s(S'RAS:RAF'
p1565
S'YWHAB'
p1566
S'binds'
p1567
tp1568
(lp1569
s(S'NFE2L2'
p1570
S'CYP26A1'
p1571
S'increases'
p1572
tp1573
(lp1574
s(S'FARNESYL'
p1575
S'KRAS'
p1576
S'increases_activity'
p1577
tp1578
(lp1579
s(S'MTF1'
p1580
S'MECOM'
p1581
S'increases'
p1582
tp1583
(lp1584
s(S'TLX2'
p1585
S'FOXD3'
p1586
S'increases'
p1587
tp1588
(lp1589
s(S'Insulin Receptor/Insulin/SHC/GRB2/Sos1'
p1590
S'HRAS/GDP'
p1591
S'increases_activity'
p1592
tp1593
(lp1594
s(S'MYC'
p1595
S'ELK1'
p1596
S'increases'
p1597
tp1598
(lp1599
s(S'ONECUT1'
p1600
S'POU2F1'
p1601
S'increases'
p1602
tp1603
(lp1604
s(S'Paraquat'
p1605
S'HRAS MRNA'
p1606
S'translocates'
p1607
tp1608
(lp1609
s(S'GRB2/SOS1'
p1610
S'PDGF-BB/PDGFRB (DIMER)/SHP2'
p1611
S'binds'
p1612
tp1613
(lp1614
s(S'ONECUT1'
p1615
S'CYP26A1'
p1616
S'increases'
p1617
tp1618
(lp1619
s(S'MYC'
p1620
S'FOXO3'
p1621
S'increases'
p1622
tp1623
(lp1624
s(S'PAX3'
p1625
S'ELK1'
p1626
S'increases'
p1627
tp1628
(lp1629
s(S'DOK-R'
p1630
S'RASGAP'
p1631
S'binds'
p1632
tp1633
(lp1634
s(S'HOXA4'
p1635
S'HOXA9'
p1636
S'increases'
p1637
tp1638
(lp1639
s(S'MAX'
p1640
S'POU3F2'
p1641
S'increases'
p1642
tp1643
(lp1644
s(S'Estradiol'
p1645
S'KRAS MRNA'
p1646
S'decreases'
p1647
tp1648
(lp1649
s(S'KRAS ISOFORM 4B/GTP'
p1650
S'CAM/CA2+'
p1651
S'binds'
p1652
tp1653
(lp1654
s(S'MAZ'
p1655
S'FOXO4'
p1656
S'increases'
p1657
tp1658
(lp1659
s(S'hsa-miR-181a-5p'
p1660
S'KRAS'
p1661
S'decreases'
p1662
tp1663
(lp1664
s(S'GATA1'
p1665
S'CYP26A1'
p1666
S'increases'
p1667
tp1668
(lp1669
s(S'PGR'
p1670
S'ETS1'
p1671
S'increases'
p1672
tp1673
(lp1674
s(S'GATA1'
p1675
S'POU2F1'
p1676
S'increases'
p1677
tp1678
(lp1679
s(S'BRAF'
p1680
S'MEK1-2'
p1681
S'increases_activity'
p1682
tp1683
(lp1684
s(S'LEF1'
p1685
S'GABPB2'
p1686
S'increases'
p1687
tp1688
(lp1689
s(S'CYP26A1'
p1690
S'MYC'
p1691
S'increases'
p1692
tp1693
(lp1694
s(S'STAT1'
p1695
S'IRF1'
p1696
S'increases'
p1697
tp1698
(lp1699
s(S'SMAD1'
p1700
S'RUNX2'
p1701
S'increases'
p1702
tp1703
(lp1704
s(S'ZEB1'
p1705
S'TLX2'
p1706
S'increases'
p1707
tp1708
(lp1709
s(S'STAT5B'
p1710
S'IRF1'
p1711
S'increases'
p1712
tp1713
(lp1714
s(S'POU6F1'
p1715
S'CYP26A1'
p1716
S'increases'
p1717
tp1718
(lp1719
s(S'Vincristine'
p1720
S'HRAS MRNA'
p1721
S'increases'
p1722
tp1723
(lp1724
s(S'DAG'
p1725
S'RASGRP1'
p1726
S'adds_modification'
p1727
tp1728
(lp1729
s(S'PI3K'
p1730
S'PDK1'
p1731
S'increases_activity'
p1732
tp1733
(lp1734
S'In particular, the PI3K pathway can activate serum and glucocorticoid-induced kinanse-1 (SGK1), a portent regulator of ENaC, by phosphorylation of PDK1 and mTORC2 ['
p1735
as(S'ETS2'
p1736
S'PAX4'
p1737
S'increases'
p1738
tp1739
(lp1740
s(S'NR3C1'
p1741
S'ONECUT1'
p1742
S'increases'
p1743
tp1744
(lp1745
s(S'CUX1'
p1746
S'CYP26A1'
p1747
S'increases'
p1748
tp1749
(lp1750
s(S'ZEB1'
p1751
S'GATA1'
p1752
S'increases'
p1753
tp1754
(lp1755
s(S'NRF1'
p1756
S'POU2F1'
p1757
S'increases'
p1758
tp1759
(lp1760
s(S'FOXJ2'
p1761
S'MECOM'
p1762
S'increases'
p1763
tp1764
(lp1765
s(S'MAZ'
p1766
S'MYCN'
p1767
S'increases'
p1768
tp1769
(lp1770
s(S'Hydrogen Peroxide'
p1771
S'HRAS MRNA'
p1772
S'increases'
p1773
tp1774
(lp1775
s(S'RASA1'
p1776
S'P-EPHBS:EFNBS'
p1777
S'binds'
p1778
tp1779
(lp1780
s(S'SPI1'
p1781
S'CEBPG'
p1782
S'increases'
p1783
tp1784
(lp1785
s(S'EGR1'
p1786
S'LEF1'
p1787
S'increases'
p1788
tp1789
(lp1790
s(S'RET51/GFRALPHA1/GDNF'
p1791
S'P62DOK'
p1792
S'binds'
p1793
tp1794
(lp1795
s(S'TFDP2'
p1796
S'CYP26A1'
p1797
S'increases'
p1798
tp1799
(lp1800
s(S'matrine'
p1801
S'NRAS MRNA'
p1802
S'increases'
p1803
tp1804
(lp1805
s(S'Isotretinoin'
p1806
S'KRAS MRNA'
p1807
S'decreases'
p1808
tp1809
(lp1810
s(S'PITX2'
p1811
S'FOXF2'
p1812
S'increases'
p1813
tp1814
(lp1815
s(S'MYOD1'
p1816
S'POU2F1'
p1817
S'increases'
p1818
tp1819
(lp1820
s(S'sodium arsenite'
p1821
S'KRAS PROTEIN'
p1822
S'increases'
p1823
tp1824
(lp1825
s(S'TCF4'
p1826
S'CBFA2T3'
p1827
S'increases'
p1828
tp1829
(lp1830
s(S'CYP26A1'
p1831
S'FOXA1'
p1832
S'increases'
p1833
tp1834
(lp1835
s(S'TP53'
p1836
S'CYP26A1'
p1837
S'increases'
p1838
tp1839
(lp1840
s(S'ATF3'
p1841
S'FOXD3'
p1842
S'increases'
p1843
tp1844
(lp1845
s(S'POU2F1'
p1846
S'NRAS'
p1847
S'increases'
p1848
tp1849
(lp1850
s(S'NRF1'
p1851
S'GABPB2'
p1852
S'increases'
p1853
tp1854
(lp1855
s(S'PAX4'
p1856
S'TLX2'
p1857
S'increases'
p1858
tp1859
(lp1860
s(S'PITX2'
p1861
S'FOXA1'
p1862
S'increases'
p1863
tp1864
(lp1865
s(S'GTF3A'
p1866
S'POU2F1'
p1867
S'increases'
p1868
tp1869
(lp1870
s(S'HLF'
p1871
S'FOXO3'
p1872
S'increases'
p1873
tp1874
(lp1875
s(S'PAX4'
p1876
S'FOXO4'
p1877
S'increases'
p1878
tp1879
(lp1880
s(S'CEBPA'
p1881
S'FOXD3'
p1882
S'increases'
p1883
tp1884
(lp1885
s(S'NFE2'
p1886
S'CYP26A1'
p1887
S'increases'
p1888
tp1889
(lp1890
s(S'MYB'
p1891
S'GABPB2'
p1892
S'increases'
p1893
tp1894
(lp1895
s(S'MYC'
p1896
S'CEBPA'
p1897
S'increases'
p1898
tp1899
(lp1900
s(S'ELK1'
p1901
S'EN1'
p1902
S'increases'
p1903
tp1904
(lp1905
s(S'E2F1'
p1906
S'CDC5L'
p1907
S'increases'
p1908
tp1909
(lp1910
s(S'YWHAZ (DIMER)'
p1911
S'RAF1'
p1912
S'binds'
p1913
tp1914
(lp1915
s(S'ATF6'
p1916
S'CYP26A1'
p1917
S'increases'
p1918
tp1919
(lp1920
s(S'sodium arsenite'
p1921
S'HRAS MRNA'
p1922
S'increases'
p1923
tp1924
(lp1925
s(S'EGR3'
p1926
S'CYP26A1'
p1927
S'increases'
p1928
tp1929
(lp1930
s(S'lead acetate'
p1931
S'HRAS PROTEIN'
p1932
S'increases_activity'
p1933
tp1934
(lp1935
s(S'REPIN1'
p1936
S'MYC'
p1937
S'increases'
p1938
tp1939
(lp1940
s(S'CEBPA'
p1941
S'NRAS'
p1942
S'increases'
p1943
tp1944
(lp1945
s(S'Quercetin'
p1946
S'NRAS MRNA'
p1947
S'decreases'
p1948
tp1949
(lp1950
s(S'14-3-3 E'
p1951
S'TERT'
p1952
S'binds'
p1953
tp1954
(lp1955
s(S'Antigen/IgE/Fc epsilon R1/LYN/SYK'
p1956
S'BTK'
p1957
S'adds_modification'
p1958
tp1959
(lp1960
s(S'HSF2'
p1961
S'CBFA2T3'
p1962
S'increases'
p1963
tp1964
(lp1965
s(S'Fluorouracil'
p1966
S'HRAS MRNA'
p1967
S'increases'
p1968
tp1969
(lp1970
s(S'STAT4'
p1971
S'MECOM'
p1972
S'increases'
p1973
tp1974
(lp1975
s(S'ETS2'
p1976
S'ETS1'
p1977
S'increases'
p1978
tp1979
(lp1980
s(S'CEBPG'
p1981
S'CYP26A1'
p1982
S'increases'
p1983
tp1984
(lp1985
s(S'Complex (PDGF receptor A/PDGF receptor B)'
p1986
S'NCK'
p1987
S'adds_modification'
p1988
tp1989
(lp1990
s(S'Fog1'
p1991
S'MYB'
p1992
S'decreases'
p1993
tp1994
(lp1995
s(S'CREB1'
p1996
S'FOXD3'
p1997
S'increases'
p1998
tp1999
(lp2000
s(S'Numb'
p2001
S'NICS'
p2002
S'translocates'
p2003
tp2004
(lp2005
s(S'STAT6'
p2006
S'STAT5A'
p2007
S'increases'
p2008
tp2009
(lp2010
s(S'RAF1/14-3-3'
p2011
S'BRAF/14-3-3'
p2012
S'binds'
p2013
tp2014
(lp2015
s(S'B-cell antigen/BCR complex/LYN/SYK/BLNK'
p2016
S'SHC/GRB2/SOS1'
p2017
S'increases_activity'
p2018
tp2019
(lp2020
s(S'IRF2'
p2021
S'CYP26A1'
p2022
S'increases'
p2023
tp2024
(lp2025
s(S'GATA6'
p2026
S'CYP26A1'
p2027
S'increases'
p2028
tp2029
(lp2030
s(S'HMGA1'
p2031
S'CYP26A1'
p2032
S'increases'
p2033
tp2034
(lp2035
s(S'MTF1'
p2036
S'FOXO4'
p2037
S'increases'
p2038
tp2039
(lp2040
s(S'STAT1'
p2041
S'GABPB2'
p2042
S'increases'
p2043
tp2044
(lp2045
s(S'manumycin'
p2046
S'HRAS PROTEIN'
p2047
S'decreases'
p2048
tp2049
(lp2050
s(S'STAT5A'
p2051
S'ETS1'
p2052
S'increases'
p2053
tp2054
(lp2055
s(S'SPI1'
p2056
S'CBFA2T3'
p2057
S'increases'
p2058
tp2059
(lp2060
s(S'GMCSF/GMR ALPHA/CSF2RB/JAK2 (DODECAMER)/SHC'
p2061
S'GRB2/SOS1'
p2062
S'binds'
p2063
tp2064
(lp2065
s(S'7,8-Dihydro-7,8-dihydroxybenzo(a)pyrene 9,10-oxide'
p2066
S'NRAS PROTEIN'
p2067
S'increases'
p2068
tp2069
(lp2070
s(S'CDC5L'
p2071
S'CYP26A1'
p2072
S'increases'
p2073
tp2074
(lp2075
s(S'PAX4'
p2076
S'POU3F2'
p2077
S'increases'
p2078
tp2079
(lp2080
s(S'SPRED2'
p2081
S'HRAS'
p2082
S'binds'
p2083
tp2084
(lp2085
s(S'PITX2'
p2086
S'FOXO4'
p2087
S'increases'
p2088
tp2089
(lp2090
s(S'FOXD3'
p2091
S'CYP26A1'
p2092
S'increases'
p2093
tp2094
(lp2095
s(S'NFIL3'
p2096
S'FOXO3'
p2097
S'increases'
p2098
tp2099
(lp2100
s(S'MTF1'
p2101
S'POU2F1'
p2102
S'increases'
p2103
tp2104
(lp2105
s(S'TFCP2'
p2106
S'BACH1'
p2107
S'increases'
p2108
tp2109
(lp2110
s(S'NF1'
p2111
S'MECOM'
p2112
S'increases'
p2113
tp2114
(lp2115
s(S'FOXO3'
p2116
S'FOXD3'
p2117
S'increases'
p2118
tp2119
(lp2120
s(S'STAT5A'
p2121
S'TLX2'
p2122
S'increases'
p2123
tp2124
(lp2125
s(S'RIN1'
p2126
S'HRAS/GTP'
p2127
S'adds_modification'
p2128
tp2129
(lp2130
s(S'STAT5A'
p2131
S'CEBPG'
p2132
S'increases'
p2133
tp2134
(lp2135
s(S'DAG'
p2136
S'PKC'
p2137
S'increases_activity'
p2138
tp2139
(lp2140
S'A possible activation of protein kinase C (PKC) through diacylglycerol (DAG) has also been suggested ['
p2141
as(S'HNF4A'
p2142
S'FOXA1'
p2143
S'increases'
p2144
tp2145
(lp2146
s(S'LEF1'
p2147
S'MAZ'
p2148
S'increases'
p2149
tp2150
(lp2151
s(S'hsa-miR-124-3p'
p2152
S'NRAS'
p2153
S'decreases'
p2154
tp2155
(lp2156
s(S'RAF1'
p2157
S'14-3-3 E'
p2158
S'binds'
p2159
tp2160
(lp2161
s(S'GATA1'
p2162
S'MYB'
p2163
S'decreases'
p2164
tp2165
(lp2166
s(S'LMO2'
p2167
S'GATA1'
p2168
S'increases'
p2169
tp2170
(lp2171
s(S'HRAS/GTP'
p2172
S'RAF1'
p2173
S'increases_activity'
p2174
tp2175
(lp2176
s(S'MYCN'
p2177
S'RUNX2'
p2178
S'increases'
p2179
tp2180
(lp2181
s(S'STAT5B'
p2182
S'CYP26A1'
p2183
S'increases'
p2184
tp2185
(lp2186
s(S'ZIC2'
p2187
S'MYCN'
p2188
S'increases'
p2189
tp2190
(lp2191
s(S'FOXL1'
p2192
S'FOXD3'
p2193
S'increases'
p2194
tp2195
(lp2196
s(S'ZBTB18'
p2197
S'CBFA2T3'
p2198
S'increases'
p2199
tp2200
(lp2201
s(S'HSF1'
p2202
S'IRF1'
p2203
S'increases'
p2204
tp2205
(lp2206
s(S'SPZ1'
p2207
S'MAZ'
p2208
S'increases'
p2209
tp2210
(lp2211
s(S'SRY'
p2212
S'CYP26A1'
p2213
S'increases'
p2214
tp2215
(lp2216
s(S'FOXO4'
p2217
S'HOXA9'
p2218
S'increases'
p2219
tp2220
(lp2221
s(S'IGF-1R heterotetramer/IGF1/IRS1/GRB2/Sos'
p2222
S'HRAS/GDP'
p2223
S'increases_activity'
p2224
tp2225
(lp2226
s(S'hsa-miR-615-3p'
p2227
S'HRAS'
p2228
S'decreases'
p2229
tp2230
(lp2231
s(S'ESRRA'
p2232
S'FOXD3'
p2233
S'increases'
p2234
tp2235
(lp2236
s(S'ELK1'
p2237
S'CYP26A1'
p2238
S'increases'
p2239
tp2240
(lp2241
s(S'Hexane-1,6-Diol'
p2242
S'HRAS'
p2243
S'increases_activity'
p2244
tp2245
(lp2246
s(S'MAZ'
p2247
S'NRAS'
p2248
S'increases'
p2249
tp2250
(lp2251
s(S'MIF'
p2252
S'CYP26A1'
p2253
S'increases'
p2254
tp2255
(lp2256
s(S'AHR'
p2257
S'POU2F1'
p2258
S'increases'
p2259
tp2260
(lp2261
s(S'SMAD3'
p2262
S'CYP26A1'
p2263
S'increases'
p2264
tp2265
(lp2266
s(S'PI-3-4-5-P3'
p2267
S'GELSOLIN'
p2268
S'binds'
p2269
tp2270
(lp2271
s(S'ADP'
p2272
S'P-S724-IRE1 DIMER'
p2273
S'binds'
p2274
tp2275
(lp2276
s(S'testosterone enanthate'
p2277
S'KRAS MRNA'
p2278
S'increases'
p2279
tp2280
(lp2281
s(S'CYP26A1'
p2282
S'ONECUT1'
p2283
S'increases'
p2284
tp2285
(lp2286
s(S'Valproic Acid'
p2287
S'NRAS MRNA'
p2288
S'decreases'
p2289
tp2290
(lp2291
s(S'GTF2A2'
p2292
S'CYP26A1'
p2293
S'increases'
p2294
tp2295
(lp2296
s(S'CEBPA'
p2297
S'FOXO3'
p2298
S'increases'
p2299
tp2300
(lp2301
s(S'GATA3'
p2302
S'POU2F1'
p2303
S'increases'
p2304
tp2305
(lp2306
s(S'PI3K'
p2307
S'RAC1B/GDP'
p2308
S'increases_activity'
p2309
tp2310
(lp2311
s(S'CDC25C'
p2312
S'YWHAB'
p2313
S'binds'
p2314
tp2315
(lp2316
s(S'RAC1/GTP'
p2317
S'PAK1/BETAPIX/PKL/NCK1-2'
p2318
S'increases_activity'
p2319
tp2320
(lp2321
s(S'SMAD1'
p2322
S'CYP26A1'
p2323
S'increases'
p2324
tp2325
(lp2326
s(S'PI3K'
p2327
S'FAK'
p2328
S'adds_modification'
p2329
tp2330
(lp2331
s(S'NRF1'
p2332
S'MAX'
p2333
S'increases'
p2334
tp2335
(lp2336
s(S'FOXI1'
p2337
S'RUNX2'
p2338
S'increases'
p2339
tp2340
(lp2341
s(S'7,8-Dihydro-7,8-dihydroxybenzo(a)pyrene 9,10-oxide'
p2342
S'HRAS MRNA'
p2343
S'increases'
p2344
tp2345
(lp2346
s(S'ETS1'
p2347
S'CBFA2T3'
p2348
S'increases'
p2349
tp2350
(lp2351
s(S'hsa-miR-98-5p'
p2352
S'NRAS'
p2353
S'decreases'
p2354
tp2355
(lp2356
s(S'PHOSPHORYLATED BRF1 (SER92, SER203):MRNA COMPLEX'
p2357
S'YWHAB'
p2358
S'binds'
p2359
tp2360
(lp2361
s(S'LMO2'
p2362
S'CYP26A1'
p2363
S'increases'
p2364
tp2365
(lp2366
s(S'SOS1'
p2367
S'GRB2:PFAK BOUND TO NCAM1:PFYN'
p2368
S'binds'
p2369
tp2370
(lp2371
s(S'GTF3A'
p2372
S'GATA6'
p2373
S'increases'
p2374
tp2375
(lp2376
s(S'ZIC2'
p2377
S'CYP26A1'
p2378
S'increases'
p2379
tp2380
(lp2381
s(S'PAX2'
p2382
S'POU3F2'
p2383
S'increases'
p2384
tp2385
(lp2386
s(S'CEBPD'
p2387
S'FOXO3'
p2388
S'increases'
p2389
tp2390
(lp2391
s(S'NF1'
p2392
S'CYP26A1'
p2393
S'increases'
p2394
tp2395
(lp2396
s(S'BRAF'
p2397
S'MEK2'
p2398
S'adds_modification'
p2399
tp2400
(lp2401
s(S'TFAP4'
p2402
S'RUNX1'
p2403
S'increases'
p2404
tp2405
(lp2406
s(S'FAK'
p2407
S'SOS'
p2408
S'binds'
p2409
tp2410
(lp2411
s(S'EGR1'
p2412
S'RUNX1'
p2413
S'increases'
p2414
tp2415
(lp2416
s(S'TCF4'
p2417
S'FOXO4'
p2418
S'increases'
p2419
tp2420
(lp2421
s(S'MAZ'
p2422
S'CBFA2T3'
p2423
S'increases'
p2424
tp2425
(lp2426
s(S'MEIS1'
p2427
S'HRAS'
p2428
S'increases'
p2429
tp2430
(lp2431
s(S'RELA'
p2432
S'CYP26A1'
p2433
S'increases'
p2434
tp2435
(lp2436
s(S'hsa-miR-877-3p'
p2437
S'NRAS'
p2438
S'decreases'
p2439
tp2440
(lp2441
s(S'MYC'
p2442
S'LEF1'
p2443
S'increases'
p2444
tp2445
(lp2446
s(S'FOXO4'
p2447
S'RUNX1'
p2448
S'increases'
p2449
tp2450
(lp2451
s(S'LEF1'
p2452
S'RUNX1'
p2453
S'increases'
p2454
tp2455
(lp2456
s(S'TFDP2'
p2457
S'GATA1'
p2458
S'increases'
p2459
tp2460
(lp2461
s(S'AHR'
p2462
S'CYP26A1'
p2463
S'increases'
p2464
tp2465
(lp2466
s(S'4-Nitroquinoline-1-oxide'
p2467
S'PTGS2 MRNA'
p2468
S'increases'
p2469
tp2470
(lp2471
s(S'TGIF'
p2472
S'FOXO3'
p2473
S'increases'
p2474
tp2475
(lp2476
s(S'FOXF2'
p2477
S'CEBPA'
p2478
S'increases'
p2479
tp2480
(lp2481
s(S'NFE2L1'
p2482
S'POU2F1'
p2483
S'increases'
p2484
tp2485
(lp2486
s(S'LHX3'
p2487
S'CYP26A1'
p2488
S'increases'
p2489
tp2490
(lp2491
s(S'HMGA1'
p2492
S'MEIS1'
p2493
S'increases'
p2494
tp2495
(lp2496
s(S'POU2F1'
p2497
S'CYP26A1'
p2498
S'increases'
p2499
tp2500
(lp2501
s(S'PRRX2'
p2502
S'HOXA9'
p2503
S'increases'
p2504
tp2505
(lp2506
s(S'ETS2'
p2507
S'CEBPG'
p2508
S'increases'
p2509
tp2510
(lp2511
s(S'hsa-miR-193b-3p'
p2512
S'KRAS'
p2513
S'decreases'
p2514
tp2515
(lp2516
s(S'RREB1'
p2517
S'RUNX1'
p2518
S'increases'
p2519
tp2520
(lp2521
s(S'IL2/IL2R BETA/GAMMA/JAK1/FYN/JAK3'
p2522
S'PI3K'
p2523
S'binds'
p2524
tp2525
(lp2526
s(S'ELK1'
p2527
S'MEIS1'
p2528
S'increases'
p2529
tp2530
(lp2531
s(S'CYP26A1'
p2532
S'HOXA9'
p2533
S'increases'
p2534
tp2535
(lp2536
s(S'SPZ1'
p2537
S'HOXA9'
p2538
S'increases'
p2539
tp2540
(lp2541
s(S'ERK1'
p2542
S'P-S218,222-MEK1'
p2543
S'binds'
p2544
tp2545
(lp2546
s(S'NHLH1'
p2547
S'MYC'
p2548
S'increases'
p2549
tp2550
(lp2551
s(S'Daunorubicin'
p2552
S'NRAS MRNA'
p2553
S'increases'
p2554
tp2555
(lp2556
s(S'HNF1A'
p2557
S'FOXA1'
p2558
S'increases'
p2559
tp2560
(lp2561
s(S'MYC'
p2562
S'ONECUT1'
p2563
S'increases'
p2564
tp2565
(lp2566
s(S'Vanadates'
p2567
S'HRAS PROTEIN'
p2568
S'increases'
p2569
tp2570
(lp2571
s(S'Purine nucleotide'
p2572
S'H+'
p2573
S'translocates'
p2574
tp2575
(lp2576
s(S'NFE2'
p2577
S'BACH1'
p2578
S'increases'
p2579
tp2580
(lp2581
s(S'EGR4'
p2582
S'CYP26A1'
p2583
S'increases'
p2584
tp2585
(lp2586
s(S'NRF1'
p2587
S'ONECUT1'
p2588
S'increases'
p2589
tp2590
(lp2591
s(S'GFI1'
p2592
S'HOXA9'
p2593
S'increases'
p2594
tp2595
(lp2596
s(S'NR1H4'
p2597
S'FOXD3'
p2598
S'increases'
p2599
tp2600
(lp2601
s(S'STAT6'
p2602
S'FOXA1'
p2603
S'increases'
p2604
tp2605
(lp2606
s(S'INSULIN RECEPTOR/INSULI/IRS1/GRB2/SHC'
p2607
S'SOS1'
p2608
S'binds'
p2609
tp2610
(lp2611
s(S'Tetrachlorodibenzodioxin'
p2612
S'KRAS MRNA'
p2613
S'increases'
p2614
tp2615
(lp2616
s(S'TCF3'
p2617
S'MYC'
p2618
S'increases'
p2619
tp2620
(lp2621
s(S'BACH1'
p2622
S'EN1'
p2623
S'increases'
p2624
tp2625
(lp2626
s(S'RFX1'
p2627
S'CYP26A1'
p2628
S'increases'
p2629
tp2630
(lp2631
s(S'ZEB1'
p2632
S'FOXD3'
p2633
S'increases'
p2634
tp2635
(lp2636
s(S'IRF7'
p2637
S'EN1'
p2638
S'increases'
p2639
tp2640
(lp2641
s(S'GAB2/GRB2/SOS1'
p2642
S'IL2/IL2R ALPHA/BETA/GAMMA/JAK1/LCK/JAK3/SHC'
p2643
S'binds'
p2644
tp2645
(lp2646
s(S'GATA3'
p2647
S'FOXA1'
p2648
S'increases'
p2649
tp2650
(lp2651
s(S'TFAP4'
p2652
S'CYP26A1'
p2653
S'increases'
p2654
tp2655
(lp2656
s(S'FOXF2'
p2657
S'MECOM'
p2658
S'increases'
p2659
tp2660
(lp2661
s(S'NF1'
p2662
S'POU2F1'
p2663
S'increases'
p2664
tp2665
(lp2666
s(S'IRF1'
p2667
S'FOXA1'
p2668
S'increases'
p2669
tp2670
(lp2671
s(S'Rho Family GTPase-active'
p2672
S'PIP5K1A'
p2673
S'increases_activity'
p2674
tp2675
(lp2676
s(S'POU6F1'
p2677
S'EN1'
p2678
S'increases'
p2679
tp2680
(lp2681
s(S'TCF4'
p2682
S'LEF1'
p2683
S'increases'
p2684
tp2685
(lp2686
s(S'MAZ'
p2687
S'FOXO3'
p2688
S'increases'
p2689
tp2690
(lp2691
s(S'POU3F2'
p2692
S'MECOM'
p2693
S'increases'
p2694
tp2695
(lp2696
s(S'GTF3A'
p2697
S'CYP26A1'
p2698
S'increases'
p2699
tp2700
(lp2701
s(S'PI-3-4-5-P3'
p2702
S'AKT2'
p2703
S'adds_modification'
p2704
tp2705
(lp2706
s(S'VSX1'
p2707
S'POU2F1'
p2708
S'increases'
p2709
tp2710
(lp2711
s(S'PHOSPHORYLATED TTP:MRNA COMPLEX'
p2712
S'YWHAB'
p2713
S'binds'
p2714
tp2715
(lp2716
s(S'MEIS1'
p2717
S'MYC'
p2718
S'increases'
p2719
tp2720
(lp2721
s(S'Complex (PDGF receptor A/PDGF receptor B)'
p2722
S'RASGAP'
p2723
S'adds_modification'
p2724
tp2725
(lp2726
s(S'RORA'
p2727
S'CYP26A1'
p2728
S'increases'
p2729
tp2730
(lp2731
s(S'ATF4'
p2732
S'CDC5L'
p2733
S'increases'
p2734
tp2735
(lp2736
s(S'SHC/RasGAP'
p2737
S'RAS FAMILY/GTP'
p2738
S'increases_activity'
p2739
tp2740
(lp2741
s(S'NKX2-1'
p2742
S'MYC'
p2743
S'increases'
p2744
tp2745
(lp2746
s(S'NF1'
p2747
S'SRF'
p2748
S'increases'
p2749
tp2750
(lp2751
s(S'STAT4'
p2752
S'NRAS'
p2753
S'increases'
p2754
tp2755
(lp2756
s(S'POU6F1'
p2757
S'MEIS1'
p2758
S'increases'
p2759
tp2760
(lp2761
s(S'P-KIT COMPLEX'
p2762
S'GRB2:SOS1'
p2763
S'binds'
p2764
tp2765
(lp2766
s(S'MYCN'
p2767
S'MAX'
p2768
S'increases'
p2769
tp2770
(lp2771
s(S'STAT5A'
p2772
S'CYP26A1'
p2773
S'increases'
p2774
tp2775
(lp2776
s(S'GATA3'
p2777
S'EN1'
p2778
S'increases'
p2779
tp2780
(lp2781
s(S'E4F1'
p2782
S'FOXD3'
p2783
S'increases'
p2784
tp2785
(lp2786
s(S'MYB'
p2787
S'ONECUT1'
p2788
S'increases'
p2789
tp2790
(lp2791
s(S'Cadmium Chloride'
p2792
S'NRAS PROTEIN'
p2793
S'increases'
p2794
tp2795
(lp2796
s(S'Deoxycholic Acid'
p2797
S'HRAS PROTEIN'
p2798
S'increases_activity'
p2799
tp2800
(lp2801
s(S'HLF'
p2802
S'CYP26A1'
p2803
S'increases'
p2804
tp2805
(lp2806
s(S'GMCSF/GMR ALPHA/CSF2RB/JAK2 (DIMER)'
p2807
S'YWHAZ'
p2808
S'binds'
p2809
tp2810
(lp2811
s(S'HNF1A'
p2812
S'FOXF2'
p2813
S'increases'
p2814
tp2815
(lp2816
s(S'FOXF2'
p2817
S'GATA6'
p2818
S'increases'
p2819
tp2820
(lp2821
s(S'Arsenic'
p2822
S'GSS PROTEIN'
p2823
S'increases'
p2824
tp2825
(lp2826
s(S'COMPLEX (SOS/GRB2)'
p2827
S'FGFR1-4'
p2828
S'binds'
p2829
tp2830
(lp2831
s(S'MYOD1'
p2832
S'NRAS'
p2833
S'increases'
p2834
tp2835
(lp2836
s(S'MECOM'
p2837
S'CYP26A1'
p2838
S'increases'
p2839
tp2840
(lp2841
s(S'PBX1'
p2842
S'CYP26A1'
p2843
S'increases'
p2844
tp2845
(lp2846
s(S'MAZ'
p2847
S'MEIS1'
p2848
S'increases'
p2849
tp2850
(lp2851
s(S'PAX4'
p2852
S'ELK1'
p2853
S'increases'
p2854
tp2855
(lp2856
s(S'ESRRA'
p2857
S'MECOM'
p2858
S'increases'
p2859
tp2860
(lp2861
s(S'CEBPD'
p2862
S'TLX2'
p2863
S'increases'
p2864
tp2865
(lp2866
s(S'CRX'
p2867
S'FOXA1'
p2868
S'increases'
p2869
tp2870
(lp2871
s(S'GABPB1'
p2872
S'NRAS'
p2873
S'increases'
p2874
tp2875
(lp2876
s(S'CRX'
p2877
S'MEIS1'
p2878
S'increases'
p2879
tp2880
(lp2881
s(S'pirinixic acid/PPARA protein'
p2882
S'KRAS MRNA'
p2883
S'increases'
p2884
tp2885
(lp2886
s(S'BACH2'
p2887
S'FOXA1'
p2888
S'increases'
p2889
tp2890
(lp2891
s(S'JUN'
p2892
S'MECOM'
p2893
S'increases'
p2894
tp2895
(lp2896
s(S'7,8-Dihydro-7,8-dihydroxybenzo(a)pyrene 9,10-oxide'
p2897
S'KRAS MRNA'
p2898
S'decreases'
p2899
tp2900
(lp2901
s(S'SRY'
p2902
S'FOXO4'
p2903
S'increases'
p2904
tp2905
(lp2906
s(S'PI3K'
p2907
S'AKT1'
p2908
S'adds_modification'
p2909
tp2910
(lp2911
s(S'GATA3'
p2912
S'CYP26A1'
p2913
S'increases'
p2914
tp2915
(lp2916
s(S'RAS:GTP'
p2917
S'P-EPHBS:EFNBS:RASA1'
p2918
S'binds'
p2919
tp2920
(lp2921
s(S'STAT5A'
p2922
S'MECOM'
p2923
S'increases'
p2924
tp2925
(lp2926
s(S'RAS family/GTP'
p2927
S'RAF1'
p2928
S'increases_activity'
p2929
tp2930
(lp2931
s(S'RHOA/GTP'
p2932
S'PLD1-2'
p2933
S'increases_activity'
p2934
tp2935
(lp2936
s(S'FOXJ2'
p2937
S'CYP26A1'
p2938
S'increases'
p2939
tp2940
(lp2941
s(S'LEF1'
p2942
S'MECOM'
p2943
S'increases'
p2944
tp2945
(lp2946
s(S'GABPB2'
p2947
S'CDC5L'
p2948
S'increases'
p2949
tp2950
(lp2951
s(S'ESRRA'
p2952
S'CYP26A1'
p2953
S'increases'
p2954
tp2955
(lp2956
s(S'PI-3-4-5-P3'
p2957
S'WAVE2/NAP1/SRA1/ABI1/HSPC300'
p2958
S'translocates'
p2959
tp2960
(lp2961
s(S'CUX1'
p2962
S'MECOM'
p2963
S'increases'
p2964
tp2965
(lp2966
s(S'MAX'
p2967
S'CYP26A1'
p2968
S'increases'
p2969
tp2970
(lp2971
s(S'RXRB'
p2972
S'FOXD3'
p2973
S'increases'
p2974
tp2975
(lp2976
s(S'IRF1'
p2977
S'NRAS'
p2978
S'increases'
p2979
tp2980
(lp2981
s(S'MECOM'
p2982
S'MAX'
p2983
S'increases'
p2984
tp2985
(lp2986
s(S'PAX6'
p2987
S'CYP26A1'
p2988
S'increases'
p2989
tp2990
(lp2991
s(S'GRB2/SOS1'
p2992
S'EGFR/EGFR/EGF/EGF/P46 SHC'
p2993
S'binds'
p2994
tp2995
(lp2996
s(S'POU6F1'
p2997
S'POU2F1'
p2998
S'increases'
p2999
tp3000
(lp3001
s(S'RUNX1'
p3002
S'MYOD1'
p3003
S'increases'
p3004
tp3005
(lp3006
s(S'COMPLEX (GRB2/SOS)'
p3007
S'EGFR'
p3008
S'binds'
p3009
tp3010
(lp3011
s(S'MAZ'
p3012
S'MECOM'
p3013
S'increases'
p3014
tp3015
(lp3016
s(S'REPIN1'
p3017
S'EN1'
p3018
S'increases'
p3019
tp3020
(lp3021
s(S'RAS family/GTP'
p3022
S'RAF1'
p3023
S'adds_modification'
p3024
tp3025
(lp3026
s(S'E4F1'
p3027
S'CYP26A1'
p3028
S'increases'
p3029
tp3030
(lp3031
s(S'Rac'
p3032
S'MEKK1-5'
p3033
S'adds_modification'
p3034
tp3035
(lp3036
s(S'HAND1'
p3037
S'CYP26A1'
p3038
S'increases'
p3039
tp3040
(lp3041
s(S'Quercetin'
p3042
S'NRAS PROTEIN'
p3043
S'decreases'
p3044
tp3045
(lp3046
s(S'HRAS:GTP'
p3047
S'CRAF'
p3048
S'binds'
p3049
tp3050
(lp3051
s(S'REPIN1'
p3052
S'FOXA1'
p3053
S'increases'
p3054
tp3055
(lp3056
s(S'hsa-miR-155-5p'
p3057
S'KRAS'
p3058
S'decreases'
p3059
tp3060
(lp3061
s(S'PAX4'
p3062
S'EN1'
p3063
S'increases'
p3064
tp3065
(lp3066
s(S'FOXN1'
p3067
S'JUN'
p3068
S'increases'
p3069
tp3070
(lp3071
s(S'TFCP2'
p3072
S'GATA1'
p3073
S'increases'
p3074
tp3075
(lp3076
s(S'SHC'
p3077
S'GRAP2'
p3078
S'binds'
p3079
tp3080
(lp3081
s(S'CEBPG'
p3082
S'NRAS'
p3083
S'increases'
p3084
tp3085
(lp3086
s(S'FOXN1'
p3087
S'FOXO4'
p3088
S'increases'
p3089
tp3090
(lp3091
s(S'IL2/IL2R ALPHA/BETA/GAMMA/JAK1/LCK/JAK3/IRS1-2'
p3092
S'PI3K'
p3093
S'binds'
p3094
tp3095
(lp3096
s(S'POU1F1'
p3097
S'EN1'
p3098
S'increases'
p3099
tp3100
(lp3101
s(S'FOXJ1'
p3102
S'POU2F1'
p3103
S'increases'
p3104
tp3105
(lp3106
s(S'YY1'
p3107
S'POU2F1'
p3108
S'increases'
p3109
tp3110
(lp3111
s(S'7,8-Dihydro-7,8-dihydroxybenzo(a)pyrene 9,10-oxide'
p3112
S'NRAS MRNA'
p3113
S'increases'
p3114
tp3115
(lp3116
s(S'EGF/EGFR'
p3117
S'HRAS/GDP'
p3118
S'increases_activity'
p3119
tp3120
(lp3121
s(S'TFAP4'
p3122
S'GABPB2'
p3123
S'increases'
p3124
tp3125
(lp3126
s(S'TFAP2A'
p3127
S'POU3F2'
p3128
S'increases'
p3129
tp3130
(lp3131
s(S'TCF12'
p3132
S'CBFA2T3'
p3133
S'increases'
p3134
tp3135
(lp3136
s(S'STAT3'
p3137
S'IRF1'
p3138
S'increases'
p3139
tp3140
(lp3141
s(S'MYOD1'
p3142
S'GATA1'
p3143
S'increases'
p3144
tp3145
(lp3146
s(S'REPIN1'
p3147
S'HRAS'
p3148
S'increases'
p3149
tp3150
(lp3151
s(S'PAX4'
p3152
S'MAX'
p3153
S'increases'
p3154
tp3155
(lp3156
s(S'PAX2'
p3157
S'FOXA1'
p3158
S'increases'
p3159
tp3160
(lp3161
s(S'Lipopolysaccharides'
p3162
S'HRAS PROTEIN'
p3163
S'increases_activity'
p3164
tp3165
(lp3166
s(S'7,8-Dihydro-7,8-dihydroxybenzo(a)pyrene 9,10-oxide'
p3167
S'KRAS MRNA'
p3168
S'increases'
p3169
tp3170
(lp3171
s(S'REPIN1'
p3172
S'GATA1'
p3173
S'increases'
p3174
tp3175
(lp3176
s(S'Formaldehyde'
p3177
S'HRAS MRNA'
p3178
S'increases'
p3179
tp3180
(lp3181
s(S'ESRRA'
p3182
S'STAT5A'
p3183
S'increases'
p3184
tp3185
(lp3186
s(S'farnesylthiosalicylic acid'
p3187
S'HRAS PROTEIN'
p3188
S'decreases'
p3189
tp3190
(lp3191
s(S'JUN'
p3192
S'RUNX1'
p3193
S'increases'
p3194
tp3195
(lp3196
s(S'FOXD3'
p3197
S'RUNX1'
p3198
S'increases'
p3199
tp3200
(lp3201
s(S'SOX9'
p3202
S'CYP26A1'
p3203
S'increases'
p3204
tp3205
(lp3206
s(S'hexabromocyclododecane'
p3207
S'HRAS MRNA'
p3208
S'increases'
p3209
tp3210
(lp3211
s(S'RUNX2'
p3212
S'KRAS'
p3213
S'increases'
p3214
tp3215
(lp3216
s(S'PGR'
p3217
S'CYP26A1'
p3218
S'increases'
p3219
tp3220
(lp3221
s(S'CYP26A1'
p3222
S'MAZ'
p3223
S'increases'
p3224
tp3225
(lp3226
s(S'RAC1/GTP'
p3227
S'AKT1'
p3228
S'adds_modification'
p3229
tp3230
(lp3231
s(S'FOXO3'
p3232
S'CYP26A1'
p3233
S'increases'
p3234
tp3235
(lp3236
s(S'MAX'
p3237
S'SRF'
p3238
S'increases'
p3239
tp3240
(lp3241
s(S'RUNX2'
p3242
S'NRAS'
p3243
S'increases'
p3244
tp3245
(lp3246
s(S'HSF2'
p3247
S'CYP26A1'
p3248
S'increases'
p3249
tp3250
(lp3251
s(S'IL2/IL2R ALPHA/BETA/GAMMA/JAK1/LCK/JAK3/SHC/GRB2/SOS1/GAB2/SHP2'
p3252
S'PI3K'
p3253
S'binds'
p3254
tp3255
(lp3256
s(S'SPI1'
p3257
S'STAT5A'
p3258
S'increases'
p3259
tp3260
(lp3261
s(S'ZHX2'
p3262
S'MYC'
p3263
S'increases'
p3264
tp3265
(lp3266
s(S'RAF1-BRAF'
p3267
S'MEK1-2'
p3268
S'increases_activity'
p3269
tp3270
(lp3271
s(S'SHC'
p3272
S'GRB2'
p3273
S'binds'
p3274
tp3275
(lp3276
s(S'RB1'
p3277
S'GATA1'
p3278
S'increases'
p3279
tp3280
(lp3281
s(S'TCF3'
p3282
S'FOXJ2'
p3283
S'increases'
p3284
tp3285
(lp3286
s(S'FOXJ2'
p3287
S'NRAS'
p3288
S'increases'
p3289
tp3290
(lp3291
s(S'REPIN1'
p3292
S'LEF1'
p3293
S'increases'
p3294
tp3295
(lp3296
s(S'Aflatoxin B1'
p3297
S'HRAS MRNA'
p3298
S'increases'
p3299
tp3300
(lp3301
s(S'PAX4'
p3302
S'MEIS1'
p3303
S'increases'
p3304
tp3305
(lp3306
s(S'FOXF2'
p3307
S'FOXD3'
p3308
S'increases'
p3309
tp3310
(lp3311
s(S'CBFA2T3'
p3312
S'RUNX1'
p3313
S'increases'
p3314
tp3315
(lp3316
s(S'FOXC1'
p3317
S'HOXA9'
p3318
S'increases'
p3319
tp3320
(lp3321
s(S'DBP'
p3322
S'CYP26A1'
p3323
S'increases'
p3324
tp3325
(lp3326
s(S'TGIF'
p3327
S'EN1'
p3328
S'increases'
p3329
tp3330
(lp3331
s(S'PI-3-4-5-P3'
p3332
S'P62DOK'
p3333
S'adds_modification'
p3334
tp3335
(lp3336
s(S'JUN'
p3337
S'TLX2'
p3338
S'increases'
p3339
tp3340
(lp3341
s(S'Benzo(a)pyrene'
p3342
S'HRAS MRNA'
p3343
S'increases'
p3344
tp3345
(lp3346
s(S'STAT4'
p3347
S'CYP26A1'
p3348
S'increases'
p3349
tp3350
(lp3351
s(S'EGFR/EGFR/EGF/EGF'
p3352
S'SRC'
p3353
S'adds_modification'
p3354
tp3355
(lp3356
s(S'FOXQ1'
p3357
S'FOXD3'
p3358
S'increases'
p3359
tp3360
(lp3361
s(S'FOXJ1'
p3362
S'NRAS'
p3363
S'increases'
p3364
tp3365
(lp3366
s(S'TCF3'
p3367
S'POU2F1'
p3368
S'increases'
p3369
tp3370
(lp3371
s(S'MYB'
p3372
S'CYP26A1'
p3373
S'increases'
p3374
tp3375
(lp3376
s(S'GATA4'
p3377
S'CYP26A1'
p3378
S'increases'
p3379
tp3380
(lp3381
s(S'ELK1'
p3382
S'STAT4'
p3383
S'increases'
p3384
tp3385
(lp3386
s(S'CYP26A1'
p3387
S'LEF1'
p3388
S'increases'
p3389
tp3390
(lp3391
s(S"Guanosine-5'-Diphosphate"
p3392
S'HRAS'
p3393
S'increases_activity'
p3394
tp3395
(lp3396
s(S'ETV4'
p3397
S'CYP26A1'
p3398
S'increases'
p3399
tp3400
(lp3401
s(S'EPHRIN B/EPHB2'
p3402
S'RASGAP'
p3403
S'binds'
p3404
tp3405
(lp3406
s(S'ESR1'
p3407
S'FOXF2'
p3408
S'increases'
p3409
tp3410
(lp3411
s(S'CDC5L'
p3412
S'FOXA1'
p3413
S'increases'
p3414
tp3415
(lp3416
s(S'MAZ'
p3417
S'HOXA9'
p3418
S'increases'
p3419
tp3420
(lp3421
s(S'HIF1A'
p3422
S'MAX'
p3423
S'increases'
p3424
tp3425
(lp3426
s(S'FOXN1'
p3427
S'HOXA9'
p3428
S'increases'
p3429
tp3430
(lp3431
s(S'LEF1'
p3432
S'BACH1'
p3433
S'increases'
p3434
tp3435
(lp3436
s(S'PDX1'
p3437
S'FOXO3'
p3438
S'increases'
p3439
tp3440
(lp3441
s(S'CBFA2T3'
p3442
S'CYP26A1'
p3443
S'increases'
p3444
tp3445
(lp3446
s(S'Rabex5'
p3447
S'HRAS/GTP'
p3448
S'adds_modification'
p3449
tp3450
(lp3451
s(S'CBFA2T3'
p3452
S'RUNX2'
p3453
S'increases'
p3454
tp3455
(lp3456
s(S'PI-3-4-5-P3'
p3457
S'ARAP3'
p3458
S'translocates'
p3459
tp3460
(lp3461
s(S'CART1'
p3462
S'CYP26A1'
p3463
S'increases'
p3464
tp3465
(lp3466
s(S'Arsenic'
p3467
S'NRAS MRNA'
p3468
S'increases'
p3469
tp3470
(lp3471
s(S'NRF1'
p3472
S'CDC5L'
p3473
S'increases'
p3474
tp3475
(lp3476
s(S'Quercetin'
p3477
S'HRAS PROTEIN'
p3478
S'decreases'
p3479
tp3480
(lp3481
s(S"N,N'-DIMETHYL-N-(ACETYL)-N'-(7-NITROBENZ-2-OXA-1,3-DIAZOL-4-YL)ETHYLENEDIAMINE"
p3482
S'HRAS'
p3483
S'increases_activity'
p3484
tp3485
(lp3486
s(S'TFDP1'
p3487
S'FOXD3'
p3488
S'increases'
p3489
tp3490
(lp3491
s(S'AR'
p3492
S'TLX2'
p3493
S'increases'
p3494
tp3495
(lp3496
s(S'hsa-miR-181c-5p'
p3497
S'KRAS'
p3498
S'decreases'
p3499
tp3500
(lp3501
s(S'SMAD3'
p3502
S'CBFA2T3'
p3503
S'increases'
p3504
tp3505
(lp3506
s(S'HOXA9'
p3507
S'NRAS'
p3508
S'increases'
p3509
tp3510
(lp3511
s(S'PITX2'
p3512
S'CYP26A1'
p3513
S'increases'
p3514
tp3515
(lp3516
s(S'ATF3'
p3517
S'CYP26A1'
p3518
S'increases'
p3519
tp3520
(lp3521
s(S'E2F1'
p3522
S'MAZ'
p3523
S'increases'
p3524
tp3525
(lp3526
s(S'Ethyl Methanesulfonate'
p3527
S'HRAS MRNA'
p3528
S'increases'
p3529
tp3530
(lp3531
s(S'LMO2'
p3532
S'FOXA1'
p3533
S'increases'
p3534
tp3535
(lp3536
s(S'FOXC1'
p3537
S'POU2F1'
p3538
S'increases'
p3539
tp3540
(lp3541
s(S'DDIT3'
p3542
S'CYP26A1'
p3543
S'increases'
p3544
tp3545
(lp3546
s(S'PAX8'
p3547
S'CYP26A1'
p3548
S'increases'
p3549
tp3550
(lp3551
s(S'LHX3'
p3552
S'EN1'
p3553
S'increases'
p3554
tp3555
(lp3556
s(S'KAT2B'
p3557
S'CYP26A1'
p3558
S'increases'
p3559
tp3560
(lp3561
s(S'P100'
p3562
S'MYB'
p3563
S'binds'
p3564
tp3565
(lp3566
s(S'SOX9'
p3567
S'FOXA1'
p3568
S'increases'
p3569
tp3570
(lp3571
s(S'HIF1A'
p3572
S'EN1'
p3573
S'increases'
p3574
tp3575
(lp3576
s(S'REPIN1'
p3577
S'RUNX1'
p3578
S'increases'
p3579
tp3580
(lp3581
s(S'MYOD1'
p3582
S'BACH1'
p3583
S'increases'
p3584
tp3585
(lp3586
s(S'EBF2'
p3587
S'REPIN1'
p3588
S'increases'
p3589
tp3590
(lp3591
s(S'bisphenol A'
p3592
S'HRAS MRNA'
p3593
S'increases'
p3594
tp3595
(lp3596
s(S'E2F1'
p3597
S'EN1'
p3598
S'increases'
p3599
tp3600
(lp3601
s(S'MYC/Max/MIZ-1'
p3602
S'GALECTIN-1'
p3603
S'decreases'
p3604
tp3605
(lp3606
s(S'PI-3-4-5-P3'
p3607
S'WAVE2/NAP1/SRA1/ABI1/HSPC300'
p3608
S'adds_modification'
p3609
tp3610
(lp3611
s(S'FOXF2'
p3612
S'FOXO3'
p3613
S'increases'
p3614
tp3615
(lp3616
s(S'REPIN1'
p3617
S'STAT5A'
p3618
S'increases'
p3619
tp3620
(lp3621
s(S'RUNX1'
p3622
S'NRAS'
p3623
S'increases'
p3624
tp3625
(lp3626
s(S'benzo(a)pyrene 7,8-dihydrodiol'
p3627
S'HRAS MRNA'
p3628
S'increases'
p3629
tp3630
(lp3631
s(S'RAC1/GTP'
p3632
S'PAK1 (DIMER)'
p3633
S'adds_modification'
p3634
tp3635
(lp3636
s(S'PAX4'
p3637
S'POU2F1'
p3638
S'increases'
p3639
tp3640
(lp3641
s(S'MYOD1'
p3642
S'CBFA2T3'
p3643
S'increases'
p3644
tp3645
(lp3646
s(S'STAT5A'
p3647
S'RUNX2'
p3648
S'increases'
p3649
tp3650
(lp3651
s(S'EBF2'
p3652
S'FOXJ2'
p3653
S'increases'
p3654
tp3655
(lp3656
s(S'Estradiol'
p3657
S'KRAS MRNA'
p3658
S'increases'
p3659
tp3660
(lp3661
s(S'RXRB'
p3662
S'CYP26A1'
p3663
S'increases'
p3664
tp3665
(lp3666
s(S'bisphenol A'
p3667
S'KRAS MRNA'
p3668
S'decreases'
p3669
tp3670
(lp3671
s(S'COMPLEX (GRB2/SOS)'
p3672
S'FGFR1-4'
p3673
S'binds'
p3674
tp3675
(lp3676
s(S'POU2F1'
p3677
S'RUNX1'
p3678
S'increases'
p3679
tp3680
(lp3681
s(S'TCF3'
p3682
S'TLX2'
p3683
S'increases'
p3684
tp3685
(lp3686
s(S'SPZ1'
p3687
S'POU2F1'
p3688
S'increases'
p3689
tp3690
(lp3691
s(S'TFAP4'
p3692
S'FOXO4'
p3693
S'increases'
p3694
tp3695
(lp3696
s(S'OR5I1'
p3697
S'MECOM'
p3698
S'increases'
p3699
tp3700
(lp3701
s(S'Rho Family GTPase-active'
p3702
S'JNK1'
p3703
S'adds_modification'
p3704
tp3705
(lp3706
s(S'TFDP1'
p3707
S'POU2F1'
p3708
S'increases'
p3709
tp3710
(lp3711
s(S'AHR'
p3712
S'MAX'
p3713
S'increases'
p3714
tp3715
(lp3716
s(S'BACH1'
p3717
S'CYP26A1'
p3718
S'increases'
p3719
tp3720
(lp3721
s(S'ZBTB14'
p3722
S'MAZ'
p3723
S'increases'
p3724
tp3725
(lp3726
s(S'TCF3'
p3727
S'FOXO4'
p3728
S'increases'
p3729
tp3730
(lp3731
s(S'MASTERMIND'
p3732
S'NICS'
p3733
S'binds'
p3734
tp3735
(lp3736
s(S'BPTF'
p3737
S'FOXO4'
p3738
S'increases'
p3739
tp3740
(lp3741
s(S'MYOD1'
p3742
S'RUNX1'
p3743
S'increases'
p3744
tp3745
(lp3746
s(S'JUN'
p3747
S'CYP26A1'
p3748
S'increases'
p3749
tp3750
(lp3751
s(S'BPTF'
p3752
S'CYP26A1'
p3753
S'increases'
p3754
tp3755
(lp3756
s(S'POU3F1'
p3757
S'CYP26A1'
p3758
S'increases'
p3759
tp3760
(lp3761
s(S'NRF1'
p3762
S'CYP26A1'
p3763
S'increases'
p3764
tp3765
(lp3766
s(S'TFAP2C'
p3767
S'POU3F2'
p3768
S'increases'
p3769
tp3770
(lp3771
s(S'NFAT1-C-4-INACTIVE2'
p3772
S'YWHAQ'
p3773
S'binds'
p3774
tp3775
(lp3776
s(S'STAT6'
p3777
S'ONECUT1'
p3778
S'increases'
p3779
tp3780
(lp3781
s(S'RUNX1'
p3782
S'RUNX2'
p3783
S'increases'
p3784
tp3785
(lp3786
g797
as(S'ZIC3'
p3787
S'MYCN'
p3788
S'increases'
p3789
tp3790
(lp3791
s(S'CYP26A1'
p3792
S'MAX'
p3793
S'increases'
p3794
tp3795
(lp3796
s(S'ETS2'
p3797
S'FOXO4'
p3798
S'increases'
p3799
tp3800
(lp3801
s(S'GATA6'
p3802
S'FOXA1'
p3803
S'increases'
p3804
tp3805
(lp3806
s(S'Doxorubicin'
p3807
S'HRAS MRNA'
p3808
S'increases'
p3809
tp3810
(lp3811
s(S'PPARA'
p3812
S'HOXA9'
p3813
S'increases'
p3814
tp3815
(lp3816
s(S'REPIN1'
p3817
S'GABPB2'
p3818
S'increases'
p3819
tp3820
(lp3821
s(S'FOXN1'
p3822
S'FOXA1'
p3823
S'increases'
p3824
tp3825
(lp3826
s(S'Dronabinol'
p3827
S'KRAS MRNA'
p3828
S'increases'
p3829
tp3830
(lp3831
s(S'FOXO1'
p3832
S'RUNX1'
p3833
S'increases'
p3834
tp3835
(lp3836
s(S'SMAD4'
p3837
S'HOXA9'
p3838
S'increases'
p3839
tp3840
(lp3841
s(S'PAX4'
p3842
S'JUN'
p3843
S'increases'
p3844
tp3845
(lp3846
s(S'Raf-1'
p3847
S'MEK'
p3848
S'adds_modification'
p3849
tp3850
(lp3851
s(S'PIM1'
p3852
S'MYC/MAX'
p3853
S'binds'
p3854
tp3855
(lp3856
s(S'YY1'
p3857
S'MECOM'
p3858
S'increases'
p3859
tp3860
(lp3861
s(S'NRF1'
p3862
S'MAZ'
p3863
S'increases'
p3864
tp3865
(lp3866
s(S'GATA1'
p3867
S'MECOM'
p3868
S'increases'
p3869
tp3870
(lp3871
s(S'PDGF/PDGFRA'
p3872
S'SHC/GRB2/SOS1'
p3873
S'increases_activity'
p3874
tp3875
(lp3876
s(S'GRB2/SOS1'
p3877
S'FAK'
p3878
S'binds'
p3879
tp3880
(lp3881
s(S'HNF4A'
p3882
S'HOXA9'
p3883
S'increases'
p3884
tp3885
(lp3886
s(S'FOXA2'
p3887
S'CYP26A1'
p3888
S'increases'
p3889
tp3890
(lp3891
s(S'FOXI1'
p3892
S'CYP26A1'
p3893
S'increases'
p3894
tp3895
(lp3896
s(S'GRB2 BOUND TO TIE2'
p3897
S'SOS1'
p3898
S'binds'
p3899
tp3900
(lp3901
s(S'PHOSPHORYLATED BRF1 (SER54, SER92, SER203):MRNA COMPLEX'
p3902
S'YWHAB'
p3903
S'binds'
p3904
tp3905
(lp3906
s(S'COMPLEX (GRB2/SOS)'
p3907
S'GAB'
p3908
S'binds'
p3909
tp3910
(lp3911
s(S'NFE2'
p3912
S'TLX2'
p3913
S'increases'
p3914
tp3915
(lp3916
s(S'MAX'
p3917
S'FOXF2'
p3918
S'increases'
p3919
tp3920
(lp3921
s(S'GRB2:SOS1'
p3922
S'ACTIVATED FGFR:P-FRS2'
p3923
S'binds'
p3924
tp3925
(lp3926
s(S'FOXO4'
p3927
S'MECOM'
p3928
S'increases'
p3929
tp3930
(lp3931
s(S'TCF3'
p3932
S'LEF1'
p3933
S'increases'
p3934
tp3935
(lp3936
s(S'ZIC1'
p3937
S'LEF1'
p3938
S'increases'
p3939
tp3940
(lp3941
s(S'NFIL3'
p3942
S'CYP26A1'
p3943
S'increases'
p3944
tp3945
(lp3946
s(S'RAF1'
p3947
S'MEK1'
p3948
S'increases_activity'
p3949
tp3950
(lp3951
s(S'AR'
p3952
S'FOXA1'
p3953
S'increases'
p3954
tp3955
(lp3956
s(S'POU2F1'
p3957
S'POU3F2'
p3958
S'increases'
p3959
tp3960
(lp3961
s(S'PCBP1'
p3962
S'MAZ'
p3963
S'increases'
p3964
tp3965
(lp3966
s(S'LEF1'
p3967
S'HOXA9'
p3968
S'increases'
p3969
tp3970
(lp3971
s(S'NR6A1'
p3972
S'CYP26A1'
p3973
S'increases'
p3974
tp3975
(lp3976
s(S'PI3K'
p3977
S'BTK'
p3978
S'translocates'
p3979
tp3980
(lp3981
s(S'AHR'
p3982
S'RUNX1'
p3983
S'increases'
p3984
tp3985
(lp3986
s(S'NR1H4'
p3987
S'CYP26A1'
p3988
S'increases'
p3989
tp3990
(lp3991
s(S'NR2F2'
p3992
S'CYP26A1'
p3993
S'increases'
p3994
tp3995
(lp3996
s(S'GNB1/GNG2'
p3997
S'PI3K'
p3998
S'binds'
p3999
tp4000
(lp4001
s(S'RHOA/GTP'
p4002
S'PKN2'
p4003
S'increases_activity'
p4004
tp4005
(lp4006
s(S'MAZ'
p4007
S'LEF1'
p4008
S'increases'
p4009
tp4010
(lp4011
s(S'RFX1'
p4012
S'MECOM'
p4013
S'increases'
p4014
tp4015
(lp4016
s(S'RUNX1'
p4017
S'HOXA9'
p4018
S'increases'
p4019
tp4020
(lp4021
s(S'FOXL1'
p4022
S'POU2F1'
p4023
S'increases'
p4024
tp4025
(lp4026
s(S'GRB2:SOS1'
p4027
S'PHOSPHORYLATED ERBB2:EGFR HETERODIMERS'
p4028
S'binds'
p4029
tp4030
(lp4031
s(S'TFAP4'
p4032
S'MYCN'
p4033
S'increases'
p4034
tp4035
(lp4036
s(S'E2F1'
p4037
S'GATA1'
p4038
S'increases'
p4039
tp4040
(lp4041
s(S'PTF1A'
p4042
S'GATA6'
p4043
S'increases'
p4044
tp4045
(lp4046
s(S'REL'
p4047
S'CYP26A1'
p4048
S'increases'
p4049
tp4050
(lp4051
s(S'MTF1'
p4052
S'JUN'
p4053
S'increases'
p4054
tp4055
(lp4056
s(S'ZEB1'
p4057
S'REPIN1'
p4058
S'increases'
p4059
tp4060
(lp4061
s(S'IRF8'
p4062
S'GATA6'
p4063
S'increases'
p4064
tp4065
(lp4066
s(S'P-Y349,350-SHC1:PHOSPHORYLATED ERBB2 HETERODIMERS'
p4067
S'GRB2:SOS1'
p4068
S'binds'
p4069
tp4070
(lp4071
s(S'BACH2'
p4072
S'EN1'
p4073
S'increases'
p4074
tp4075
(lp4076
s(S'GFI1'
p4077
S'MEIS1'
p4078
S'increases'
p4079
tp4080
(lp4081
s(S'FOXN1'
p4082
S'LEF1'
p4083
S'increases'
p4084
tp4085
(lp4086
s(S'CYP26A1'
p4087
S'JUN'
p4088
S'increases'
p4089
tp4090
(lp4091
s(S'TCF3'
p4092
S'ONECUT1'
p4093
S'increases'
p4094
tp4095
(lp4096
s(S'FOXF2'
p4097
S'POU2F1'
p4098
S'increases'
p4099
tp4100
(lp4101
s(S'MAZ'
p4102
S'MAX'
p4103
S'increases'
p4104
tp4105
(lp4106
s(S'FOXN1'
p4107
S'CYP26A1'
p4108
S'increases'
p4109
tp4110
(lp4111
s(S'HNF1A'
p4112
S'FOXD3'
p4113
S'increases'
p4114
tp4115
(lp4116
s(S'EGR2'
p4117
S'RUNX1'
p4118
S'increases'
p4119
tp4120
(lp4121
s(S'MYC'
p4122
S'RUNX2'
p4123
S'increases'
p4124
tp4125
(lp4126
s(S'TFAP2A'
p4127
S'IRF1'
p4128
S'increases'
p4129
tp4130
(lp4131
s(S'FOXO4'
p4132
S'YY1'
p4133
S'increases'
p4134
tp4135
(lp4136
s(S'VEGFR2 (dimer)/VEGFA (dimer)'
p4137
S'SRC'
p4138
S'adds_modification'
p4139
tp4140
(lp4141
s(S'resveratrol'
p4142
S'KRAS MRNA'
p4143
S'decreases'
p4144
tp4145
(lp4146
s(S'FOXO4'
p4147
S'CYP26A1'
p4148
S'increases'
p4149
tp4150
(lp4151
s(S'STAT3'
p4152
S'FOXO4'
p4153
S'increases'
p4154
tp4155
(lp4156
s(S'GRB2/SOS1'
p4157
S'FRS2 FAMILY/SHP2'
p4158
S'binds'
p4159
tp4160
(lp4161
s(S'LEF1'
p4162
S'CYP26A1'
p4163
S'increases'
p4164
tp4165
(lp4166
s(S'GTF2A2'
p4167
S'SRF'
p4168
S'increases'
p4169
tp4170
(lp4171
s(S'PPARA'
p4172
S'STAT5A'
p4173
S'increases'
p4174
tp4175
(lp4176
s(S'hsa-miR-143-3p'
p4177
S'KRAS'
p4178
S'decreases'
p4179
tp4180
(lp4181
s(S'GFI1'
p4182
S'CYP26A1'
p4183
S'increases'
p4184
tp4185
(lp4186
s(S'RAC1/GTP'
p4187
S'MKK4-MKK7'
p4188
S'increases_activity'
p4189
tp4190
(lp4191
s(S'REPIN1'
p4192
S'ETS1'
p4193
S'increases'
p4194
tp4195
(lp4196
s(S'ZIC1'
p4197
S'GATA6'
p4198
S'increases'
p4199
tp4200
(lp4201
s(S'INTERLEUKIN RECEPTOR COMPLEXES WITH ACTIVATED SHC1'
p4202
S'GRB2:SOS1'
p4203
S'binds'
p4204
tp4205
(lp4206
s(S'Selenium'
p4207
S'HRAS MRNA'
p4208
S'increases'
p4209
tp4210
(lp4211
s(S'HOXA4'
p4212
S'CYP26A1'
p4213
S'increases'
p4214
tp4215
(lp4216
s(S'NKX2-1'
p4217
S'POU2F1'
p4218
S'increases'
p4219
tp4220
(lp4221
s(S'VSX1'
p4222
S'MAX'
p4223
S'increases'
p4224
tp4225
(lp4226
s(S'FOXD1'
p4227
S'FOXD3'
p4228
S'increases'
p4229
tp4230
(lp4231
s(S'MAX'
p4232
S'NRAS'
p4233
S'increases'
p4234
tp4235
(lp4236
s(S'HOXA9'
p4237
S'TCF3'
p4238
S'increases'
p4239
tp4240
(lp4241
s(S'IRF1'
p4242
S'CYP26A1'
p4243
S'increases'
p4244
tp4245
(lp4246
s(S'HRAS'
p4247
S'RAF1'
p4248
S'adds_modification'
p4249
tp4250
(lp4251
s(S'CUX1'
p4252
S'HOXA9'
p4253
S'increases'
p4254
tp4255
(lp4256
s(S'ZHX2'
p4257
S'FOXA1'
p4258
S'increases'
p4259
tp4260
(lp4261
s(S'TFDP1'
p4262
S'MYC'
p4263
S'increases'
p4264
tp4265
(lp4266
s(S'RAC1/GTP'
p4267
S'PAK1'
p4268
S'increases_activity'
p4269
tp4270
(lp4271
s(S'AHR'
p4272
S'MAZ'
p4273
S'increases'
p4274
tp4275
(lp4276
s(S'BRAF/14-3-3'
p4277
S'KSR/14-3-3 /MEK1-2'
p4278
S'increases_activity'
p4279
tp4280
(lp4281
s(S'PPARA'
p4282
S'CYP26A1'
p4283
S'increases'
p4284
tp4285
(lp4286
s(S'REPIN1'
p4287
S'SRF'
p4288
S'increases'
p4289
tp4290
(lp4291
s(S'PAX5'
p4292
S'SRF'
p4293
S'increases'
p4294
tp4295
(lp4296
s(S'PAX4'
p4297
S'FOXJ2'
p4298
S'increases'
p4299
tp4300
(lp4301
s(S'REPIN1'
p4302
S'MYCN'
p4303
S'increases'
p4304
tp4305
(lp4306
s(S'RALA/GTP'
p4307
S'SRC'
p4308
S'adds_modification'
p4309
tp4310
(lp4311
s(S'FOXO4'
p4312
S'ETS1'
p4313
S'increases'
p4314
tp4315
(lp4316
s(S'TFDP1'
p4317
S'CDC5L'
p4318
S'increases'
p4319
tp4320
(lp4321
s(S'TFDP1'
p4322
S'CYP26A1'
p4323
S'increases'
p4324
tp4325
(lp4326
s(S'GATA6'
p4327
S'RUNX2'
p4328
S'increases'
p4329
tp4330
(lp4331
s(S'FOXM1'
p4332
S'CYP26A1'
p4333
S'increases'
p4334
tp4335
(lp4336
s(S'sodium arsenite'
p4337
S'HRAS PROTEIN'
p4338
S'increases'
p4339
tp4340
(lp4341
s(S'STAT5A'
p4342
S'RUNX1'
p4343
S'increases'
p4344
tp4345
(lp4346
s(S'CEBPA'
p4347
S'EN1'
p4348
S'increases'
p4349
tp4350
(lp4351
s(S'MSX1'
p4352
S'POU2F1'
p4353
S'increases'
p4354
tp4355
(lp4356
s(S'NHLH1'
p4357
S'CBFA2T3'
p4358
S'increases'
p4359
tp4360
(lp4361
s(S'Parathion'
p4362
S'HRAS PROTEIN'
p4363
S'increases'
p4364
tp4365
(lp4366
s(S'SMAD4'
p4367
S'CYP26A1'
p4368
S'increases'
p4369
tp4370
(lp4371
s(S'E2F1'
p4372
S'MYC'
p4373
S'increases'
p4374
tp4375
(lp4376
s(S'CYP26A1'
p4377
S'FOXO3'
p4378
S'increases'
p4379
tp4380
(lp4381
s(S'TCF3'
p4382
S'CBFA2T3'
p4383
S'increases'
p4384
tp4385
(lp4386
s(S'ZHX2'
p4387
S'FOXF2'
p4388
S'increases'
p4389
tp4390
(lp4391
s(S'POU2F1'
p4392
S'MECOM'
p4393
S'increases'
p4394
tp4395
(lp4396
s(S'CYP26A1'
p4397
S'POU2F1'
p4398
S'increases'
p4399
tp4400
(lp4401
s(S'MYOD1'
p4402
S'CYP26A1'
p4403
S'increases'
p4404
tp4405
(lp4406
s(S'RAF'
p4407
S'COMPLEX (RAS/GTP)'
p4408
S'binds'
p4409
tp4410
(lp4411
s(S'RET51/GFRalpha1/GDNF/DOK1'
p4412
S'HRAS/GDP'
p4413
S'increases_activity'
p4414
tp4415
(lp4416
s(S'MAFG'
p4417
S'CYP26A1'
p4418
S'increases'
p4419
tp4420
(lp4421
s(S'CRX'
p4422
S'CYP26A1'
p4423
S'increases'
p4424
tp4425
(lp4426
s(S'hsa-miR-126-3p'
p4427
S'KRAS'
p4428
S'decreases'
p4429
tp4430
(lp4431
s(S'EBF2'
p4432
S'CYP26A1'
p4433
S'increases'
p4434
tp4435
(lp4436
s(S'RUNX1'
p4437
S'CYP26A1'
p4438
S'increases'
p4439
tp4440
(lp4441
s(S'HOXA5'
p4442
S'FOXA1'
p4443
S'increases'
p4444
tp4445
(lp4446
s(S'benzo(a)pyrene-3,6-quinone'
p4447
S'HRAS MRNA'
p4448
S'increases'
p4449
tp4450
(lp4451
s(S'K 7174'
p4452
S'HRAS MRNA'
p4453
S'decreases'
p4454
tp4455
(lp4456
s(S'LEF1'
p4457
S'NRAS'
p4458
S'increases'
p4459
tp4460
(lp4461
s(S'SPI1'
p4462
S'FOXA1'
p4463
S'increases'
p4464
tp4465
(lp4466
s(S'hsa-let-7b-5p'
p4467
S'NRAS'
p4468
S'decreases'
p4469
tp4470
(lp4471
s(S'CEBPA'
p4472
S'JUN'
p4473
S'increases'
p4474
tp4475
(lp4476
s(S'GABPB2'
p4477
S'CYP26A1'
p4478
S'increases'
p4479
tp4480
(lp4481
s(S'PI-3-4-5-P3'
p4482
S'MTOR'
p4483
S'increases_activity'
p4484
tp4485
(lp4486
s(S'GRB2:SOS1'
p4487
S'EGF:P-6Y-EGFR'
p4488
S'binds'
p4489
tp4490
(lp4491
s(S'HNF1A'
p4492
S'CYP26A1'
p4493
S'increases'
p4494
tp4495
(lp4496
s(S'HIF1A'
p4497
S'FOXO4'
p4498
S'increases'
p4499
tp4500
(lp4501
s(S'FOXJ1'
p4502
S'HOXA9'
p4503
S'increases'
p4504
tp4505
(lp4506
s(S'hsa-miR-96-5p'
p4507
S'KRAS'
p4508
S'decreases'
p4509
tp4510
(lp4511
s(S'SRC'
p4512
S'SYNDECAN-2/RASGAP'
p4513
S'binds'
p4514
tp4515
(lp4516
s(S'FOXA1'
p4517
S'MEIS1'
p4518
S'increases'
p4519
tp4520
(lp4521
s(S'LEF1'
p4522
S'MEIS1'
p4523
S'increases'
p4524
tp4525
(lp4526
s(S'PAX3'
p4527
S'CYP26A1'
p4528
S'increases'
p4529
tp4530
(lp4531
s(S'PAX4'
p4532
S'HOXA9'
p4533
S'increases'
p4534
tp4535
(lp4536
s(S'hsa-miR-18a-3p'
p4537
S'KRAS'
p4538
S'decreases'
p4539
tp4540
(lp4541
s(S'FOXF2'
p4542
S'EN1'
p4543
S'increases'
p4544
tp4545
(lp4546
s(S'Pyk2'
p4547
S'SRC FAMILY KINASES'
p4548
S'increases_activity'
p4549
tp4550
(lp4551
s(S'TP53'
p4552
S'HOXA9'
p4553
S'increases'
p4554
tp4555
(lp4556
s(S'Genistein'
p4557
S'KRAS MRNA'
p4558
S'decreases'
p4559
tp4560
(lp4561
s(S'POU1F1'
p4562
S'CYP26A1'
p4563
S'increases'
p4564
tp4565
(lp4566
s(S'manumycin'
p4567
S'KRAS PROTEIN'
p4568
S'decreases_activity'
p4569
tp4570
(lp4571
s(S'Ginkgo biloba extract 761'
p4572
S'GCLC PROTEIN'
p4573
S'increases'
p4574
tp4575
(lp4576
s(S'GATA1'
p4577
S'NRAS'
p4578
S'increases'
p4579
tp4580
(lp4581
s(S'CBFA2T3'
p4582
S'FOXF2'
p4583
S'increases'
p4584
tp4585
(lp4586
s(S'PCBP1'
p4587
S'ELK1'
p4588
S'increases'
p4589
tp4590
(lp4591
s(S'MYC'
p4592
S'FOXF2'
p4593
S'increases'
p4594
tp4595
(lp4596
s(S'hsa-mir-622'
p4597
S'KRAS'
p4598
S'decreases'
p4599
tp4600
(lp4601
s(S'TCF3'
p4602
S'MAZ'
p4603
S'increases'
p4604
tp4605
(lp4606
s(S'STAT2'
p4607
S'MEIS1'
p4608
S'increases'
p4609
tp4610
(lp4611
s(S'CYP26A1'
p4612
S'YY1'
p4613
S'increases'
p4614
tp4615
(lp4616
s(S'CYP26A1'
p4617
S'EN1'
p4618
S'increases'
p4619
tp4620
(lp4621
s(S'GRB2/SOS1'
p4622
S'SHC'
p4623
S'binds'
p4624
tp4625
(lp4626
s(S'BAD'
p4627
S'YWHAZ'
p4628
S'binds'
p4629
tp4630
(lp4631
s(S'SPI1'
p4632
S'MAX'
p4633
S'increases'
p4634
tp4635
(lp4636
s(S'PI-3-4-5-P3'
p4637
S'CENTA1'
p4638
S'translocates'
p4639
tp4640
(lp4641
s(S'XBP1'
p4642
S'CYP26A1'
p4643
S'increases'
p4644
tp4645
(lp4646
s(S'PAX4'
p4647
S'NRAS'
p4648
S'increases'
p4649
tp4650
(lp4651
s(S'PI3K'
p4652
S'EPHRIN A1/EPHA2'
p4653
S'binds'
p4654
tp4655
(lp4656
s(S'POU1F1'
p4657
S'MEIS1'
p4658
S'increases'
p4659
tp4660
(lp4661
s(S'NR3C1'
p4662
S'ETS1'
p4663
S'increases'
p4664
tp4665
(lp4666
s(S'MAZ'
p4667
S'POU3F2'
p4668
S'increases'
p4669
tp4670
(lp4671
s(S'Estradiol'
p4672
S'HRAS MRNA'
p4673
S'increases'
p4674
tp4675
(lp4676
s(S'Aflatoxin B1'
p4677
S'HRAS PROTEIN'
p4678
S'increases'
p4679
tp4680
(lp4681
s(S'ETV7'
p4682
S'STAT4'
p4683
S'increases'
p4684
tp4685
(lp4686
s(S'PBX1'
p4687
S'LEF1'
p4688
S'increases'
p4689
tp4690
(lp4691
s(S'CEBPB'
p4692
S'CYP26A1'
p4693
S'increases'
p4694
tp4695
(lp4696
s(S'MAZ'
p4697
S'JUN'
p4698
S'increases'
p4699
tp4700
(lp4701
s(S'FOXF2'
p4702
S'MYC'
p4703
S'increases'
p4704
tp4705
(lp4706
s(S'FOXJ2'
p4707
S'HOXA9'
p4708
S'increases'
p4709
tp4710
(lp4711
s(S'Capsaicin'
p4712
S'HRAS MRNA'
p4713
S'increases'
p4714
tp4715
(lp4716
s(S'POU3F1'
p4717
S'GATA6'
p4718
S'increases'
p4719
tp4720
(lp4721
s(S'EIF2A'
p4722
S'14-3-3 E'
p4723
S'binds'
p4724
tp4725
(lp4726
s(S'RAS family/GTP'
p4727
S'RAF1-BRAF'
p4728
S'increases_activity'
p4729
tp4730
(lp4731
s(S'GATA6'
p4732
S'GATA1'
p4733
S'increases'
p4734
tp4735
(lp4736
s(S'RASA1'
p4737
S'PHOSPHO PDGF BETA RECEPTOR: PDGF CHAIN B HOMODIMER'
p4738
S'binds'
p4739
tp4740
(lp4741
s(S'CART1'
p4742
S'POU2F1'
p4743
S'increases'
p4744
tp4745
(lp4746
s(S'ZIC3'
p4747
S'POU2F1'
p4748
S'increases'
p4749
tp4750
(lp4751
s(S'TCF4'
p4752
S'FOXA1'
p4753
S'increases'
p4754
tp4755
(lp4756
s(S'PKC theta'
p4757
S'RASGRP1'
p4758
S'adds_modification'
p4759
tp4760
(lp4761
s(S'PTF1A'
p4762
S'STAT5A'
p4763
S'increases'
p4764
tp4765
(lp4766
s(S'SPI1'
p4767
S'FOXO4'
p4768
S'increases'
p4769
tp4770
(lp4771
s(S'HNF1A'
p4772
S'GATA6'
p4773
S'increases'
p4774
tp4775
(lp4776
s(S'FOXJ1'
p4777
S'RUNX1'
p4778
S'increases'
p4779
tp4780
(lp4781
s(S'STAT2'
p4782
S'GATA6'
p4783
S'increases'
p4784
tp4785
(lp4786
s(S'RAS FAMILY/GTP'
p4787
S'PI3K'
p4788
S'binds'
p4789
tp4790
(lp4791
s(S'PAX4'
p4792
S'IRF1'
p4793
S'increases'
p4794
tp4795
(lp4796
s(S'PAX3'
p4797
S'HOXA9'
p4798
S'increases'
p4799
tp4800
(lp4801
s(S'MYB'
p4802
S'MAZ'
p4803
S'increases'
p4804
tp4805
(lp4806
s(S"Guanosine-5'-Triphosphate"
p4807
S'HRAS'
p4808
S'increases_activity'
p4809
tp4810
(lp4811
s(S'alpha9/beta1 Integrin/Tenascin C'
p4812
S'SRC'
p4813
S'adds_modification'
p4814
tp4815
(lp4816
s(S'RAF1'
p4817
S'MEK1'
p4818
S'adds_modification'
p4819
tp4820
(lp4821
s(S'JUN'
p4822
S'FOXA1'
p4823
S'increases'
p4824
tp4825
(lp4826
s(S'NFE2L2'
p4827
S'BACH1'
p4828
S'increases'
p4829
tp4830
(lp4831
s(S'CUX1'
p4832
S'FOXD3'
p4833
S'increases'
p4834
tp4835
(lp4836
s(S'JUN'
p4837
S'EN1'
p4838
S'increases'
p4839
tp4840
(lp4841
s(S'ESR1'
p4842
S'CYP26A1'
p4843
S'increases'
p4844
tp4845
(lp4846
s(S'ESRRA'
p4847
S'FOXA1'
p4848
S'increases'
p4849
tp4850
(lp4851
s(S'POU2F1'
p4852
S'MEIS1'
p4853
S'increases'
p4854
tp4855
(lp4856
s(S'TFCP2'
p4857
S'FOXA1'
p4858
S'increases'
p4859
tp4860
(lp4861
s(S'PI-3-4-5-P3'
p4862
S'PDK1'
p4863
S'increases_activity'
p4864
tp4865
(lp4866
s(S'TCF3'
p4867
S'FOXA1'
p4868
S'increases'
p4869
tp4870
(lp4871
s(S'STAT3'
p4872
S'CYP26A1'
p4873
S'increases'
p4874
tp4875
(lp4876
s(S'CYP26A1'
p4877
S'POU3F2'
p4878
S'increases'
p4879
tp4880
(lp4881
s(S'Curcumin'
p4882
S'KRAS MRNA'
p4883
S'decreases'
p4884
tp4885
(lp4886
s(S'STAT1'
p4887
S'CYP26A1'
p4888
S'increases'
p4889
tp4890
(lp4891
s(S'GFI1'
p4892
S'POU2F1'
p4893
S'increases'
p4894
tp4895
(lp4896
s(S'ZIC1'
p4897
S'POU2F1'
p4898
S'increases'
p4899
tp4900
(lp4901
s(S'PI-3-4-5-P3'
p4902
S'AKT3'
p4903
S'adds_modification'
p4904
tp4905
(lp4906
s(S'BACH1'
p4907
S'NRAS'
p4908
S'increases'
p4909
tp4910
(lp4911
s(S'SCF/KIT'
p4912
S'SHC/GRB2/SOS1'
p4913
S'increases_activity'
p4914
tp4915
(lp4916
s(S'CDX2'
p4917
S'CYP26A1'
p4918
S'increases'
p4919
tp4920
(lp4921
s(S'RET51/GFRalpha1/GDNF/DOK/RasGAP/NCK'
p4922
S'HRAS/GDP'
p4923
S'decreases_activity'
p4924
tp4925
(lp4926
s(S'BETAPIX'
p4927
S'RAC1/GTP'
p4928
S'binds'
p4929
tp4930
(lp4931
s(S'RHOA/GTP'
p4932
S'CITRON'
p4933
S'increases_activity'
p4934
tp4935
(lp4936
s(S'P-SHC1:GRB2:SOS'
p4937
S'P-5Y-LAT-2'
p4938
S'binds'
p4939
tp4940
(lp4941
s(S'PAX4'
p4942
S'CYP26A1'
p4943
S'increases'
p4944
tp4945
(lp4946
s(S'TCF3'
p4947
S'KRAS'
p4948
S'increases'
p4949
tp4950
(lp4951
s(S'GRB2:SOS1'
p4952
S'PHOSPHORYLATED ERBB2:ERBB4 HETERODIMERS'
p4953
S'binds'
p4954
tp4955
(lp4956
s(S'CDX2'
p4957
S'MEIS1'
p4958
S'increases'
p4959
tp4960
(lp4961
s(S'SP3'
p4962
S'RUNX1'
p4963
S'increases'
p4964
tp4965
(lp4966
s(S'REST'
p4967
S'CYP26A1'
p4968
S'increases'
p4969
tp4970
(lp4971
s(S'PTF1A'
p4972
S'CYP26A1'
p4973
S'increases'
p4974
tp4975
(lp4976
s(S'PI-3-4-5-P3'
p4977
S'PI3K/GAB1'
p4978
S'translocates'
p4979
tp4980
(lp4981
s(S'LMO2'
p4982
S'FOXO4'
p4983
S'increases'
p4984
tp4985
(lp4986
s(S'STAT4'
p4987
S'ETS1'
p4988
S'increases'
p4989
tp4990
(lp4991
s(S'GTF2A2'
p4992
S'HOXA9'
p4993
S'increases'
p4994
tp4995
(lp4996
s(S'FOXF2'
p4997
S'POU3F2'
p4998
S'increases'
p4999
tp5000
(lp5001
s(S'GATA1'
p5002
S'GABPB2'
p5003
S'increases'
p5004
tp5005
(lp5006
s(S'Polychlorinated Biphenyls'
p5007
S'KRAS MRNA'
p5008
S'decreases'
p5009
tp5010
(lp5011
s(S'GRB2/SOS1'
p5012
S'EGF/EGFR DIMER/SHC'
p5013
S'binds'
p5014
tp5015
(lp5016
s(S'CYP26A1'
p5017
S'FOXF2'
p5018
S'increases'
p5019
tp5020
(lp5021
s(S'EGR1'
p5022
S'CYP26A1'
p5023
S'increases'
p5024
tp5025
(lp5026
s(S'MAX'
p5027
S'FOXO3'
p5028
S'increases'
p5029
tp5030
(lp5031
s(S'T-DHT/AR/PELP1'
p5032
S'SRC'
p5033
S'binds'
p5034
tp5035
(lp5036
s(S'CUX1'
p5037
S'FOXF2'
p5038
S'increases'
p5039
tp5040
(lp5041
s(S'CEBPD'
p5042
S'CYP26A1'
p5043
S'increases'
p5044
tp5045
(lp5046
s(S'CBFA2T3'
p5047
S'NRAS'
p5048
S'increases'
p5049
tp5050
(lp5051
s(S'Cisplatin'
p5052
S'HRAS MRNA'
p5053
S'translocates'
p5054
tp5055
(lp5056
s(S'BAD/BCL-X(L)'
p5057
S'YWHAZ'
p5058
S'binds'
p5059
tp5060
(lp5061
s(S'GATA1'
p5062
S'FOXA1'
p5063
S'increases'
p5064
tp5065
(lp5066
s(S'RREB1'
p5067
S'CYP26A1'
p5068
S'increases'
p5069
tp5070
(lp5071
s(S'STAT4'
p5072
S'RUNX2'
p5073
S'increases'
p5074
tp5075
(lp5076
s(S'FOXD3'
p5077
S'NRAS'
p5078
S'increases'
p5079
tp5080
(lp5081
s(S'NDEL1'
p5082
S'14-3-3 E'
p5083
S'binds'
p5084
tp5085
(lp5086
s(S'CYP26A1'
p5087
S'REPIN1'
p5088
S'increases'
p5089
tp5090
(lp5091
s(S'MAF'
p5092
S'CDC5L'
p5093
S'increases'
p5094
tp5095
(lp5096
s(S'CYP26A1'
p5097
S'ELK1'
p5098
S'increases'
p5099
tp5100
(lp5101
s(S'MYC'
p5102
S'FOXD3'
p5103
S'increases'
p5104
tp5105
(lp5106
s(S'MAX'
p5107
S'FOXD3'
p5108
S'increases'
p5109
tp5110
(lp5111
s(S'POU1F1'
p5112
S'GATA6'
p5113
S'increases'
p5114
tp5115
(lp5116
s(S'POU2F1'
p5117
S'STAT4'
p5118
S'increases'
p5119
tp5120
(lp5121
s(S'GTF3A'
p5122
S'FOXO3'
p5123
S'increases'
p5124
tp5125
(lp5126
s(S'MYB'
p5127
S'FOXF2'
p5128
S'increases'
p5129
tp5130
(lp5131
s(S'ZIC3'
p5132
S'CYP26A1'
p5133
S'increases'
p5134
tp5135
(lp5136
s(S'POU2F1'
p5137
S'EN1'
p5138
S'increases'
p5139
tp5140
(lp5141
s(S'JUN'
p5142
S'STAT1'
p5143
S'increases'
p5144
tp5145
(lp5146
S'They included several genes such as NR2F1, PNN, Smad4, Smad5, STAT5B, JUN, TGIF2, and ATF1 that were over-expressed while RUNX3, STAT1, STAT6, EGR3, GAS7, Smad1, and EDF1 were underexpressed in leiomyomas as compared to keloid/incisional scars.'
p5147
as(S'TEF'
p5148
S'CYP26A1'
p5149
S'increases'
p5150
tp5151
(lp5152
s(S'MAF'
p5153
S'CYP26A1'
p5154
S'increases'
p5155
tp5156
(lp5157
s(S'PAX4'
p5158
S'GATA6'
p5159
S'increases'
p5160
tp5161
(lp5162
s(S'ZIC2'
p5163
S'GATA6'
p5164
S'increases'
p5165
tp5166
(lp5167
s(S'hsa-miR-181d-5p'
p5168
S'HRAS'
p5169
S'decreases'
p5170
tp5171
(lp5172
s(S'BACH2'
p5173
S'CYP26A1'
p5174
S'increases'
p5175
tp5176
(lp5177
s(S'TCF12'
p5178
S'CYP26A1'
p5179
S'increases'
p5180
tp5181
(lp5182
s(S'GATA1'
p5183
S'FOXO4'
p5184
S'increases'
p5185
tp5186
(lp5187
s(S'RFX1'
p5188
S'FOXD3'
p5189
S'increases'
p5190
tp5191
(lp5192
s(S'FOXJ1'
p5193
S'CYP26A1'
p5194
S'increases'
p5195
tp5196
(lp5197
s(S'GTF2A2'
p5198
S'POU2F1'
p5199
S'increases'
p5200
tp5201
(lp5202
s(S'YY1'
p5203
S'SRF'
p5204
S'increases'
p5205
tp5206
(lp5207
s(S'AHR'
p5208
S'REPIN1'
p5209
S'increases'
p5210
tp5211
(lp5212
s(S'MAZ'
p5213
S'CYP26A1'
p5214
S'increases'
p5215
tp5216
(lp5217
s(S'Quercetin'
p5218
S'HRAS MRNA'
p5219
S'increases'
p5220
tp5221
(lp5222
s(S'ELK1'
p5223
S'NRAS'
p5224
S'increases'
p5225
tp5226
(lp5227
s(S'HIF1A'
p5228
S'ONECUT1'
p5229
S'increases'
p5230
tp5231
(lp5232
s(S'FOXF2'
p5233
S'CYP26A1'
p5234
S'increases'
p5235
tp5236
(lp5237
s(S'SOX9'
p5238
S'ETS1'
p5239
S'increases'
p5240
tp5241
(lp5242
s(S'HSF1'
p5243
S'JUN'
p5244
S'increases'
p5245
tp5246
(lp5247
S'Three examples in which phosphorylation of the TF inhibits DNA binding and TF activation are HSF1, SP1 and c-JUN.'
p5248
as(S'CEBPA'
p5249
S'CYP26A1'
p5250
S'increases'
p5251
tp5252
(lp5253
s(S'NR1H4'
p5254
S'MEIS1'
p5255
S'increases'
p5256
tp5257
(lp5258
s(S'SMAD1'
p5259
S'GATA1'
p5260
S'increases'
p5261
tp5262
(lp5263
s(S'Quercetin'
p5264
S'HRAS MRNA'
p5265
S'decreases'
p5266
tp5267
(lp5268
s(S'Glycyrrhetinic Acid'
p5269
S'HRAS PROTEIN'
p5270
S'decreases'
p5271
tp5272
(lp5273
s(S'HOXA4'
p5274
S'POU2F1'
p5275
S'increases'
p5276
tp5277
(lp5278
s(S'FOXQ1'
p5279
S'CYP26A1'
p5280
S'increases'
p5281
tp5282
(lp5283
s(S'FOXI1'
p5284
S'CEBPA'
p5285
S'increases'
p5286
tp5287
(lp5288
s(S'GTF3A'
p5289
S'MYCN'
p5290
S'increases'
p5291
tp5292
(lp5293
s(S'LMO2'
p5294
S'IRF1'
p5295
S'increases'
p5296
tp5297
(lp5298
s(S'FOXO1'
p5299
S'CYP26A1'
p5300
S'increases'
p5301
tp5302
(lp5303
s(S'Copper Sulfate'
p5304
S'NRAS MRNA'
p5305
S'increases'
p5306
tp5307
(lp5308
s(S'TFAP2A'
p5309
S'CYP26A1'
p5310
S'increases'
p5311
tp5312
(lp5313
s(S'FOXJ1'
p5314
S'EN1'
p5315
S'increases'
p5316
tp5317
(lp5318
s(S'MEIS1'
p5319
S'RUNX1'
p5320
S'increases'
p5321
tp5322
(lp5323
s(S'MAZ'
p5324
S'FOXA1'
p5325
S'increases'
p5326
tp5327
(lp5328
s(S'ETS1'
p5329
S'FOXO4'
p5330
S'increases'
p5331
tp5332
(lp5333
s(S'ZBTB14'
p5334
S'FOXD3'
p5335
S'increases'
p5336
tp5337
(lp5338
s(S'FOXC1'
p5339
S'LEF1'
p5340
S'increases'
p5341
tp5342
(lp5343
s(S'IRF1'
p5344
S'EN1'
p5345
S'increases'
p5346
tp5347
(lp5348
s(S'NR3C1'
p5349
S'CYP26A1'
p5350
S'increases'
p5351
tp5352
(lp5353
s(S'VSX1'
p5354
S'BACH1'
p5355
S'increases'
p5356
tp5357
(lp5358
s(S'CYP26A1'
p5359
S'ETS1'
p5360
S'increases'
p5361
tp5362
(lp5363
s(S'CEBPA'
p5364
S'MEIS1'
p5365
S'increases'
p5366
tp5367
(lp5368
s(S'ELF1'
p5369
S'FOXO4'
p5370
S'increases'
p5371
tp5372
(lp5373
s(S'RXRA'
p5374
S'CYP26A1'
p5375
S'increases'
p5376
tp5377
(lp5378
s(S'CREB1'
p5379
S'CYP26A1'
p5380
S'increases'
p5381
tp5382
(lp5383
s(S'IRF7'
p5384
S'GATA6'
p5385
S'increases'
p5386
tp5387
(lp5388
s(S'ZEB1'
p5389
S'CYP26A1'
p5390
S'increases'
p5391
tp5392
(lp5393
s(S'AR'
p5394
S'CYP26A1'
p5395
S'increases'
p5396
tp5397
(lp5398
s(S'TFDP2'
p5399
S'MYC'
p5400
S'increases'
p5401
tp5402
(lp5403
s(S'hsa-mir-217'
p5404
S'KRAS'
p5405
S'decreases'
p5406
tp5407
(lp5408
s(S'MEK'
p5409
S'ERK'
p5410
S'adds_modification'
p5411
tp5412
(lp5413
S'The BRAF gene encodes a serine/threonine protein kinase of the RAS/RAF/MEK/ERK kinase pathway and it is also involved in CRC carcinogenesis.'
p5414
aS'VASP: vasodilator-stimulated phosphoprotein; CaMK1: calcium/calmodulin-dependent protein kinase-1; ERK: extracellular signal-regulated kinases; MEK / MKK: mitogen-activated protein kinase kinase; FAK: focal adhesion kinase.'
p5415
aS'JSRV: Jaagsiekte sheep retrovirus; Env: Envelope; PI3K: phosphatidyl inositol 3-kinase; ERK: extracellular signal regulated kinase; STAT3: signal transducer of activator of transcription 3; PTEN: phosphatase and tensin homologue; MAPK: mitogen-activated protein kinase; MMP: matrix metalloproteinase; SCID: severe combined immunodeficiency; TIMP: tissue inhibitor of metalloproteinase; HYAL2: hyaluronidase 2; MEK: mitogen-activated protein kinase/extracellular signal-regulated kinase'
p5416
ag652
ag653
ag654
aS'In contrast to the marked inhibitory effect on phosphoproteins expression seen in HESC, sPIF did not affect recombinant kinases involved in the MAPK pathway ERK1,2, MEK-1, p-38-MAPK, or NFkB activity '
p5417
ag655
aS'Perhaps the most crucial signaling node identified in our studies is the mitogen-activated protein kinase (MAPK)/extracellular signal-regulated kinase (ERK) or MEK pathway.'
p5418
aS'The MEK/ERK pathway is upstream of many of the other signaling nodes identified in our analysis, which indicates that it may be a master regulator of the majority of the signaling pathways and cascades involved in the pathogenesis of endometriosis and, therefore, highly important as a potential therapeutic target ['
p5419
aS'Selumetinib and other MEK/ERK inhibitors are being primarily developed and studied for cancer treatment.'
p5420
aS'Our network analysis identified the STAT proteins, the SMAD transcription factors, and the MEK/ERK pathways as central regulators for the pathophysiological processes that drive development of endometriosis.'
p5421
aS'Extracellular regulated kinase kinase (MEK) acts upstream of ERK1/2 to phosphorylate and activate ERK1/2 ['
p5422
ag656
aS'Moreover, we investigated whether EGFr-phospho-Akt and EGFr-MEK-ERK pathways can induce GBM radioresistance using inhibitors of activation of ERK (PD098059) and Akt (wortmannin).'
p5423
aS'These results indicate that the PI3K-Akt and MEK-ERK pathways triggered by EGFr confer GBM radioresistance.'
p5424
aS'Moreover, we investigated whether EGFr-phospho-Akt and EGFr-MEK-ERK pathways can promote GBM radioresistance.'
p5425
aS'Thus, we further examined whether the MEK-ERK cascade was involved in the transduction of the signals generated by EGFr in response to irradiation.'
p5426
aS'In summary, the results of the current study demonstrate that EGFr signaling mediated by MEK-ERK and PI3K-Akt is involved in the response of GBM spheroids to radiation.'
p5427
aS'Thus, we can propose that MEK-ERK and PI3K-Akt signaling are associated to protective effects against radiation induced cell death in radioresistant GBMs.'
p5428
aS'In conclusion, our findings indicate that the PI3K-Akt and MEK-ERK pathways may have a critical role in radiosensitivity of GBM cells.'
p5429
aS'Therefore, selective inhibitors that specifically target PI3K-Akt and MEK-ERK signaling may have important therapeutic implications when used in combination with radiation in the treatment of GBM patients.'
p5430
aS'Thus, the MEK1-ERK1/2 pathway may be the first identified signaling pathway capable of specifically directing the mode of cardiomyocyte hypertrophy.'
p5431
ag657
ag659
ag660
aS'Furthermore, we examined the involvement of P38 mitogen-actiated protein kinase (MAPK) or MEK/ERK1/2 pathway in this mechanism.'
p5432
aS'No significant differences in the cell viability were found at these concentrations in the experiments using JNK, MAPK and MEK/ERK1/2 inhibitors (Additional file '
p5433
aS'To determine if ERK activation in response to BCG resulted in production of nitric oxide, cells were pre-treated with U0126, an inhibitor of the upstream kinases MEK-1 and MEK-2 required for ERK activation.'
p5434
aS'In this study, we found that NO donation by NOR-1 activated ERK1/2 but not p38 and this ERK1/2 activation was inhibited by several types of PKC inhibitors and by MEK inhibitor, PD98059 (figure '
p5435
aS'Saline or lipopolysaccharide (LPS, 6 mg/kg of body weight) was administered intratracheally with a 1-hour pretreatment with SP600125 (a JNK inhibitor; 30 mg/kg, IO), or PD98059 (an MEK/ERK inhibitor; 30 mg/kg, IO).'
p5436
aS'Non-phospho-antibodies detect total levels of endogenous unphosphorylated MEK and ERK.'
p5437
aS'pMEK antibody signals were normalized against total MEK, while pERK, and pJNK antibody signals were normalized against total ERK.'
p5438
aS'We tested for cross-reactivity with guinea pig and found bands specifically labeled for the unphosphorylated and phosphorylated forms of MEK, the unphosphorylated and phosphorylated forms of ERK, and pJNK.'
p5439
aS'Expression of phosphorylated MEK (pMEK) was normalized to total MEK, phosphorylated ERK (pERK), and phosphorylated JNK (pJNK) were normalized to total ERK expression in fetal lungs from the same experimental conditions.'
p5440
aS'Cav-BC was as effective as CSD in inhibiting fibroblast collagen I and ASMA expression and MEK/ERK signaling.'
p5441
aS'Cav-C and Cav-AB also inhibited collagen I expression, but in many cases did not affect ASMA or MEK/ERK.'
p5442
aS'In order to identify CSD subdomains that may be more useful than full-length CSD in treating human diseases, here we have compared the ability of CSD and several subdomains and mutated versions (each attached to the Antennapedia Internalization Sequence) to reverse effects associated with low caveolin-1 on the behavior of monocytes (migration toward CXCL12; expression of CXCR4 and F-actin and Smad 2/3 activation; differentiation into fibrocytes) and fibroblasts (collagen I and ASMA expression, MEK/ERK activation).'
p5443
aS'To determine whether these same amino acids are critical in the ability of CSD to regulate monocyte migration and differentiation and to regulate collagen I, pERK, pMEK, and ASMA expression in fibroblasts, we compared the activities of CSD and the mutated versions of CSD described as 92A and 90-92A.'
p5444
aS'We previously reported that collagen I expression and MEK/ERK signaling in fibroblasts (both NLF and SLF) is inhibited by CSD but that ASMA expression is only inhibited by CSD in cells expressing it at high levels (i.e.'
p5445
aS'The development of more specific MEK-ERK and JNK-targeted drugs would support this approach to treat T cell dominated diseases such as asthma.'
p5446
aS'Phosphorylation of MEK1 was assayed to determine the mechanism of LTA-induced ERK1/2 activation (Figure \n'
p5447
ag661
aS'Moreover, the signal-transducing mechanisms of LTA-caused regulation of SP-A expression arise through the cascade phosphorylations of MEK1 and ERK1/2.'
p5448
aS'Soluble core antigen has been shown to inhibit human T cell responses via the complement receptor, gC1qR, which interestingly involved an inhibition of the ERK/MEK MAPK signaling pathway in these T cells ['
p5449
aS'In parallel, the activation of PKC leads to the stimulation of MEK1/2 inducing the phosphorylation of ERK1/2.'
p5450
aS'We and others previously demonstrated that thrombin promotes human PAVSM cell proliferation via ERK1/2 signaling while PDGF acts via activation of two major pro-proliferative pathways, PI3K-mTOR and MEK-ERK1/2 ['
p5451
as(S'ZBTB18'
p5452
S'ONECUT1'
p5453
S'increases'
p5454
tp5455
(lp5456
s(S'TGIF'
p5457
S'MAX'
p5458
S'increases'
p5459
tp5460
(lp5461
s(S'ETS1'
p5462
S'NRAS'
p5463
S'increases'
p5464
tp5465
(lp5466
s(S'KLF12'
p5467
S'GATA1'
p5468
S'increases'
p5469
tp5470
(lp5471
s(S'HRAS/GTP'
p5472
S'PAK2'
p5473
S'increases_activity'
p5474
tp5475
(lp5476
s(S'CYP26A1'
p5477
S'FOXD3'
p5478
S'increases'
p5479
tp5480
(lp5481
s(S'LMO2'
p5482
S'RUNX1'
p5483
S'increases'
p5484
tp5485
(lp5486
s(S'MLK3'
p5487
S'MKK3/6'
p5488
S'adds_modification'
p5489
tp5490
(lp5491
s(S'TAK'
p5492
S'MKK3/6'
p5493
S'adds_modification'
p5494
tp5495
(lp5496
s(S'GRB2:SOS1'
p5497
S'HB-EGF:P-6Y-EGFR DIMER'
p5498
S'binds'
p5499
tp5500
(lp5501
s(S'FOXO4'
p5502
S'NRAS'
p5503
S'increases'
p5504
tp5505
(lp5506
s(S'MECOM'
p5507
S'NRAS'
p5508
S'increases'
p5509
tp5510
(lp5511
s(S'KLF12'
p5512
S'CYP26A1'
p5513
S'increases'
p5514
tp5515
(lp5516
s(S'RAS family/GTP/PI3K'
p5517
S'TRPV1'
p5518
S'adds_modification'
p5519
tp5520
(lp5521
s(S'hsa-let-7a-5p'
p5522
S'NRAS'
p5523
S'decreases'
p5524
tp5525
(lp5526
s(S'NF1'
p5527
S'HOXA9'
p5528
S'increases'
p5529
tp5530
(lp5531
s(S'REPIN1'
p5532
S'FOXD3'
p5533
S'increases'
p5534
tp5535
(lp5536
s(S'CYP26A1'
p5537
S'FOXJ2'
p5538
S'increases'
p5539
tp5540
(lp5541
s(S'FOXO4'
p5542
S'MEIS1'
p5543
S'increases'
p5544
tp5545
(lp5546
s(S'EBF2'
p5547
S'MECOM'
p5548
S'increases'
p5549
tp5550
(lp5551
s(S'ETS1'
p5552
S'FOXO3'
p5553
S'increases'
p5554
tp5555
(lp5556
s(S'SP3'
p5557
S'CYP26A1'
p5558
S'increases'
p5559
tp5560
(lp5561
s(S'LNXp80'
p5562
S'NUMB'
p5563
S'decreases'
p5564
tp5565
(lp5566
s(S'RUNX2'
p5567
S'CYP26A1'
p5568
S'increases'
p5569
tp5570
(lp5571
s(S'AHR'
p5572
S'FOXO3'
p5573
S'increases'
p5574
tp5575
(lp5576
s(S'VSX1'
p5577
S'FOXF2'
p5578
S'increases'
p5579
tp5580
(lp5581
s(S'BPTF'
p5582
S'RUNX1'
p5583
S'increases'
p5584
tp5585
(lp5586
s(S'7,8-Dihydro-7,8-dihydroxybenzo(a)pyrene 9,10-oxide'
p5587
S'HRAS PROTEIN'
p5588
S'increases'
p5589
tp5590
(lp5591
s(S'TCF3'
p5592
S'POU3F2'
p5593
S'increases'
p5594
tp5595
(lp5596
s(S'TCF3'
p5597
S'IRF1'
p5598
S'increases'
p5599
tp5600
(lp5601
s(S'SREBF1'
p5602
S'EN1'
p5603
S'increases'
p5604
tp5605
(lp5606
s(S'FOXO4'
p5607
S'RUNX2'
p5608
S'increases'
p5609
tp5610
(lp5611
s(S'hsa-miR-181a-5p'
p5612
S'HRAS'
p5613
S'decreases'
p5614
tp5615
(lp5616
s(S'Myb'
p5617
S'NRAS'
p5618
S'decreases'
p5619
tp5620
(lp5621
s(S'HSPA8'
p5622
S'ADP'
p5623
S'binds'
p5624
tp5625
(lp5626
s(S'SOCS3'
p5627
S'RASGAP'
p5628
S'binds'
p5629
tp5630
(lp5631
s(S'ONECUT1'
p5632
S'NRAS'
p5633
S'increases'
p5634
tp5635
(lp5636
s(S'PITX2'
p5637
S'EN1'
p5638
S'increases'
p5639
tp5640
(lp5641
s(S'HGF(dimer)/MET(dimer)'
p5642
S'SRC'
p5643
S'adds_modification'
p5644
tp5645
(lp5646
s(S'2-amino-1-methyl-6-phenylimidazo(4,5-b)pyridine'
p5647
S'HRAS PROTEIN'
p5648
S'increases'
p5649
tp5650
(lp5651
s(S'GFI1'
p5652
S'POU3F2'
p5653
S'increases'
p5654
tp5655
(lp5656
s(S'FARNESYL DIPHOSPHATE'
p5657
S'KRAS'
p5658
S'increases_activity'
p5659
tp5660
(lp5661
s(S'IL2/IL2R BETA/GAMMA/JAK1/LCK/JAK3'
p5662
S'PI3K'
p5663
S'binds'
p5664
tp5665
(lp5666
s(S'GTF3A'
p5667
S'MECOM'
p5668
S'increases'
p5669
tp5670
(lp5671
s(S'EGR2'
p5672
S'CYP26A1'
p5673
S'increases'
p5674
tp5675
(lp5676
s(S'RUNX1'
p5677
S'FOXF2'
p5678
S'increases'
p5679
tp5680
(lp5681
s(S'IL3/IL3RA/CSF2RB (DODECAMER)'
p5682
S'YWHAZ'
p5683
S'binds'
p5684
tp5685
(lp5686
s(S'RAF1'
p5687
S'BRAF'
p5688
S'binds'
p5689
tp5690
(lp5691
s(S'MYC'
p5692
S'CYP26A1'
p5693
S'increases'
p5694
tp5695
(lp5696
s(S'UBP1'
p5697
S'CYP26A1'
p5698
S'increases'
p5699
tp5700
(lp5701
s(S'MTF1'
p5702
S'REPIN1'
p5703
S'increases'
p5704
tp5705
(lp5706
s(S'HNF1A'
p5707
S'RUNX1'
p5708
S'increases'
p5709
tp5710
(lp5711
s(S'NHLH1'
p5712
S'FOXA1'
p5713
S'increases'
p5714
tp5715
(lp5716
s(S'HLF'
p5717
S'FOXA1'
p5718
S'increases'
p5719
tp5720
(lp5721
s(S'MEIS1'
p5722
S'GATA6'
p5723
S'increases'
p5724
tp5725
(lp5726
s(S'PDGF-BB/PDGFRB (DIMER)/SHP2'
p5727
S'GRB2/SOS1'
p5728
S'binds'
p5729
tp5730
(lp5731
s(S'ZBTB14'
p5732
S'EN1'
p5733
S'increases'
p5734
tp5735
(lp5736
s(S'alpha6/beta4 Integrin'
p5737
S'HRAS/GDP'
p5738
S'increases_activity'
p5739
tp5740
(lp5741
s(S'ErbB2'
p5742
S'HRAS/GDP'
p5743
S'increases_activity'
p5744
tp5745
(lp5746
s(S'MEIS1'
p5747
S'FOXO3'
p5748
S'increases'
p5749
tp5750
(lp5751
s(S'RELA'
p5752
S'IRF1'
p5753
S'increases'
p5754
tp5755
(lp5756
s(S'MYCN'
p5757
S'FOXO3'
p5758
S'increases'
p5759
tp5760
(lp5761
s(S'RHOA/GTP'
p5762
S'DIA'
p5763
S'increases_activity'
p5764
tp5765
(lp5766
s(S'Fluorouracil'
p5767
S'KRAS PROTEIN'
p5768
S'decreases'
p5769
tp5770
(lp5771
s(S'ATF2'
p5772
S'CYP26A1'
p5773
S'increases'
p5774
tp5775
(lp5776
s(S'GNAI2/GTP'
p5777
S'SRC FAMILY KINASES'
p5778
S'increases_activity'
p5779
tp5780
(lp5781
s(S'HAND1'
p5782
S'POU2F1'
p5783
S'increases'
p5784
tp5785
(lp5786
s(S'PI5K Type 1 family'
p5787
S'PI-4-P'
p5788
S'translocates'
p5789
tp5790
(lp5791
s(S'HSF1'
p5792
S'CBFA2T3'
p5793
S'increases'
p5794
tp5795
(lp5796
s(S'BACH1'
p5797
S'FOXA1'
p5798
S'increases'
p5799
tp5800
(lp5801
s(S'PI-3-4-5-P3'
p5802
S'SGK1'
p5803
S'adds_modification'
p5804
tp5805
(lp5806
s(S'hsa-miR-20a-5p'
p5807
S'NRAS'
p5808
S'decreases'
p5809
tp5810
(lp5811
s(S'CYP26A1'
p5812
S'MECOM'
p5813
S'increases'
p5814
tp5815
(lp5816
s(S'FOXF2'
p5817
S'RUNX1'
p5818
S'increases'
p5819
tp5820
(lp5821
s(S'EGR2'
p5822
S'SRF'
p5823
S'increases'
p5824
tp5825
(lp5826
s(S'LEF1'
p5827
S'FOXD3'
p5828
S'increases'
p5829
tp5830
(lp5831
s(S'TFAP2C'
p5832
S'MECOM'
p5833
S'increases'
p5834
tp5835
(lp5836
s(S'SHC'
p5837
S'GRB2/SOS1'
p5838
S'binds'
p5839
tp5840
(lp5841
s(S'CA2+'
p5842
S'CAM'
p5843
S'binds'
p5844
tp5845
(lp5846
s(S'MYC'
p5847
S'POU3F2'
p5848
S'increases'
p5849
tp5850
(lp5851
s(S'PAX8'
p5852
S'HOXA9'
p5853
S'increases'
p5854
tp5855
(lp5856
s(S'TFDP2'
p5857
S'CDC5L'
p5858
S'increases'
p5859
tp5860
(lp5861
s(S'RAF1/14-3-3'
p5862
S'KSR/14-3-3 /MEK1-2'
p5863
S'increases_activity'
p5864
tp5865
(lp5866
s(S'DDIT3'
p5867
S'MEIS1'
p5868
S'increases'
p5869
tp5870
(lp5871
s(S'GNB1/GNG2'
p5872
S'HRAS/GDP'
p5873
S'increases_activity'
p5874
tp5875
(lp5876
s(S'ACTIVATED FGFR MUTANTS:P-FRS2ALPHA'
p5877
S'GRB2:SOS1'
p5878
S'binds'
p5879
tp5880
(lp5881
s(S'HIF1A'
p5882
S'CYP26A1'
p5883
S'increases'
p5884
tp5885
(lp5886
s(S'RAF1-BRAF'
p5887
S'ERK1-2'
p5888
S'increases_activity'
p5889
tp5890
(lp5891
s(S'SMAD4'
p5892
S'CBFA2T3'
p5893
S'increases'
p5894
tp5895
(lp5896
s(S'resveratrol'
p5897
S'HRAS PROTEIN'
p5898
S'increases'
p5899
tp5900
(lp5901
s(S'Malathion'
p5902
S'HRAS MRNA'
p5903
S'increases'
p5904
tp5905
(lp5906
s(S'NRF1'
p5907
S'FOXO4'
p5908
S'increases'
p5909
tp5910
(lp5911
s(S'CREB1'
p5912
S'JUN'
p5913
S'increases'
p5914
tp5915
(lp5916
s(S'CDC5L'
p5917
S'HOXA9'
p5918
S'increases'
p5919
tp5920
(lp5921
s(S'CDX2'
p5922
S'HOXA9'
p5923
S'increases'
p5924
tp5925
(lp5926
s(S'HMGA1'
p5927
S'POU2F1'
p5928
S'increases'
p5929
tp5930
(lp5931
s(S'Coumestrol'
p5932
S'KRAS MRNA'
p5933
S'decreases'
p5934
tp5935
(lp5936
s(S'LEF1'
p5937
S'FOXO3'
p5938
S'increases'
p5939
tp5940
(lp5941
s(S'CYP26A1'
p5942
S'MEIS1'
p5943
S'increases'
p5944
tp5945
(lp5946
s(S'GTF2A2'
p5947
S'MEIS1'
p5948
S'increases'
p5949
tp5950
(lp5951
s(S'REPIN1'
p5952
S'CBFA2T3'
p5953
S'increases'
p5954
tp5955
(lp5956
s(S'hsa-miR-143-3p'
p5957
S'HRAS'
p5958
S'decreases'
p5959
tp5960
(lp5961
s(S'[(3,7,11-TRIMETHYL-DODECA-2,6,10-TRIENYLOXYCARBAMOYL)-METHYL]-PHOSPHONIC ACID'
p5962
S'KRAS'
p5963
S'increases_activity'
p5964
tp5965
(lp5966
s(S'TFDP1'
p5967
S'ONECUT1'
p5968
S'increases'
p5969
tp5970
(lp5971
s(S'YY1'
p5972
S'CYP26A1'
p5973
S'increases'
p5974
tp5975
(lp5976
s(S'PITX2'
p5977
S'RUNX1'
p5978
S'increases'
p5979
tp5980
(lp5981
s(S'STAT5A'
p5982
S'NRAS'
p5983
S'increases'
p5984
tp5985
(lp5986
s(S'Valproic Acid'
p5987
S'HRAS MRNA'
p5988
S'increases'
p5989
tp5990
(lp5991
s(S'Malathion'
p5992
S'HRAS PROTEIN'
p5993
S'increases'
p5994
tp5995
(lp5996
s(S'TFAP4'
p5997
S'CBFA2T3'
p5998
S'increases'
p5999
tp6000
(lp6001
s(S'TFAP4'
p6002
S'EN1'
p6003
S'increases'
p6004
tp6005
(lp6006
s(S'POU3F2'
p6007
S'CYP26A1'
p6008
S'increases'
p6009
tp6010
(lp6011
s(S'PAX3'
p6012
S'FOXD3'
p6013
S'increases'
p6014
tp6015
(lp6016
s(S'FOXA2'
p6017
S'RUNX2'
p6018
S'increases'
p6019
tp6020
(lp6021
s(S'MAX'
p6022
S'BACH1'
p6023
S'increases'
p6024
tp6025
(lp6026
s(S'PDX1'
p6027
S'CYP26A1'
p6028
S'increases'
p6029
tp6030
(lp6031
s(S'EPO/EPOR (dimer)/JAK2'
p6032
S'SHC/GRB2/SOS1'
p6033
S'increases_activity'
p6034
tp6035
(lp6036
s(S'E2F1'
p6037
S'MEIS1'
p6038
S'increases'
p6039
tp6040
(lp6041
s(S'FOXF2'
p6042
S'MEIS1'
p6043
S'increases'
p6044
tp6045
(lp6046
s(S'SPZ1'
p6047
S'FOXJ2'
p6048
S'increases'
p6049
tp6050
(lp6051
s(S'SRY'
p6052
S'NRAS'
p6053
S'increases'
p6054
tp6055
(lp6056
s(S'REPIN1'
p6057
S'CYP26A1'
p6058
S'increases'
p6059
tp6060
(lp6061
s(S'VEGFR3/VEGFC-D'
p6062
S'PKC'
p6063
S'increases_activity'
p6064
tp6065
(lp6066
s(S'MEIS1'
p6067
S'EN1'
p6068
S'increases'
p6069
tp6070
(lp6071
s(S'FOXJ1'
p6072
S'FOXD3'
p6073
S'increases'
p6074
tp6075
(lp6076
s(S'SPZ1'
p6077
S'FOXO4'
p6078
S'increases'
p6079
tp6080
(lp6081
s(S'RHOA/GTP'
p6082
S'ROCK1-ROCK2'
p6083
S'increases_activity'
p6084
tp6085
(lp6086
s(S'HMGA1'
p6087
S'ONECUT1'
p6088
S'increases'
p6089
tp6090
(lp6091
s(S'uPA/uPAR/alphav/beta3 Integrin/Vitronectin'
p6092
S'SRC'
p6093
S'adds_modification'
p6094
tp6095
(lp6096
s(S'ETS1'
p6097
S'CYP26A1'
p6098
S'increases'
p6099
tp6100
(lp6101
s(S'ESRRA'
p6102
S'TLX2'
p6103
S'increases'
p6104
tp6105
(lp6106
s(S'ROCK2'
p6107
S'RHO FAMILY GTPASE-ACTIVE'
p6108
S'binds'
p6109
tp6110
(lp6111
s(S'ATF4'
p6112
S'CYP26A1'
p6113
S'increases'
p6114
tp6115
(lp6116
s(S'OR5I1'
p6117
S'CYP26A1'
p6118
S'increases'
p6119
tp6120
(lp6121
s(S'PITX2'
p6122
S'GATA1'
p6123
S'increases'
p6124
tp6125
(lp6126
s(S'AHR'
p6127
S'ONECUT1'
p6128
S'increases'
p6129
tp6130
(lp6131
s(S'PTF1A'
p6132
S'MECOM'
p6133
S'increases'
p6134
tp6135
(lp6136
s(S'arsenic trioxide'
p6137
S'HRAS MRNA'
p6138
S'increases'
p6139
tp6140
(lp6141
s(S'TCF3'
p6142
S'REPIN1'
p6143
S'increases'
p6144
tp6145
(lp6146
s(S'STAT6'
p6147
S'FOXO3'
p6148
S'increases'
p6149
tp6150
(lp6151
s(S'POU1F1'
p6152
S'POU2F1'
p6153
S'increases'
p6154
tp6155
(lp6156
s(S'RHOA/GTP'
p6157
S'ROCK'
p6158
S'increases_activity'
p6159
tp6160
(lp6161
s(S'PITPNA'
p6162
S'PI-4-5-P2'
p6163
S'translocates'
p6164
tp6165
(lp6166
s(S'MDM-2'
p6167
S'P14/19 ARF'
p6168
S'binds'
p6169
tp6170
(lp6171
s(S'TEAD1'
p6172
S'FOXO3'
p6173
S'increases'
p6174
tp6175
(lp6176
s(S'MYC'
p6177
S'MAX'
p6178
S'increases'
p6179
tp6180
(lp6181
s(S'GRB2:SOS1'
p6182
S'EGF:PHOSPHO-EGFR:PHOSPHO-SHC'
p6183
S'binds'
p6184
tp6185
(lp6186
s(S'NF1'
p6187
S'RUNX1'
p6188
S'increases'
p6189
tp6190
(lp6191
s(S'ZEB1'
p6192
S'GATA6'
p6193
S'increases'
p6194
tp6195
(lp6196
s(S'TBP'
p6197
S'EN1'
p6198
S'increases'
p6199
tp6200
(lp6201
s(S'FOXA1'
p6202
S'FOXD3'
p6203
S'increases'
p6204
tp6205
(lp6206
s(S'CART1'
p6207
S'EN1'
p6208
S'increases'
p6209
tp6210
(lp6211
s(S'MAX'
p6212
S'CEBPA'
p6213
S'increases'
p6214
tp6215
(lp6216
s(S'GATA6'
p6217
S'NRAS'
p6218
S'increases'
p6219
tp6220
(lp6221
s(S'PTF1A'
p6222
S'FOXO3'
p6223
S'increases'
p6224
tp6225
(lp6226
s(S'LEF1'
p6227
S'FOXA1'
p6228
S'increases'
p6229
tp6230
(lp6231
s(S'hsa-let-7g-5p'
p6232
S'KRAS'
p6233
S'decreases'
p6234
tp6235
(lp6236
s(S'ZBTB14'
p6237
S'CYP26A1'
p6238
S'increases'
p6239
tp6240
(lp6241
s(S'POU1F1'
p6242
S'FOXO4'
p6243
S'increases'
p6244
tp6245
(lp6246
s(S'PI3K'
p6247
S'PI-4-5-P2'
p6248
S'translocates'
p6249
tp6250
(lp6251
s(S'GABPB2'
p6252
S'NRAS'
p6253
S'increases'
p6254
tp6255
(lp6256
s(S'ELK1'
p6257
S'LEF1'
p6258
S'increases'
p6259
tp6260
(lp6261
s(S'Estrogens'
p6262
S'HRAS MRNA'
p6263
S'increases'
p6264
tp6265
(lp6266
s(S'CYP26A1'
p6267
S'CEBPA'
p6268
S'increases'
p6269
tp6270
(lp6271
s(S'SPI1'
p6272
S'POU2F1'
p6273
S'increases'
p6274
tp6275
(lp6276
s(S'PPARG'
p6277
S'CYP26A1'
p6278
S'increases'
p6279
tp6280
(lp6281
s(S'Asbestos, Serpentine'
p6282
S'HRAS PROTEIN'
p6283
S'increases'
p6284
tp6285
(lp6286
s(S'RET51/GFRALPHA1/GDNF/DOK1'
p6287
S'RASGAP'
p6288
S'binds'
p6289
tp6290
(lp6291
s(S'FOXO1'
p6292
S'GATA6'
p6293
S'increases'
p6294
tp6295
(lp6296
s(S'Cadmium'
p6297
S'KRAS PROTEIN'
p6298
S'increases'
p6299
tp6300
(lp6301
s(S'MAX'
p6302
S'EN1'
p6303
S'increases'
p6304
tp6305
(lp6306
s(S'TLX2'
p6307
S'NRAS'
p6308
S'increases'
p6309
tp6310
(lp6311
s(S'SREBF1'
p6312
S'CYP26A1'
p6313
S'increases'
p6314
tp6315
(lp6316
s(S'SMAD3'
p6317
S'MEIS1'
p6318
S'increases'
p6319
tp6320
(lp6321
s(S'Acetaminophen'
p6322
S'NRAS MRNA'
p6323
S'decreases'
p6324
tp6325
(lp6326
s(S'LEF1'
p6327
S'ETS1'
p6328
S'increases'
p6329
tp6330
(lp6331
s(S'SRF'
p6332
S'MEIS1'
p6333
S'increases'
p6334
tp6335
(lp6336
s(S'BRAF'
p6337
S'MKK3-MKK6'
p6338
S'increases_activity'
p6339
tp6340
(lp6341
s(S'HRAS/GTP'
p6342
S'RAF1'
p6343
S'adds_modification'
p6344
tp6345
(lp6346
s(S'MSX1'
p6347
S'CYP26A1'
p6348
S'increases'
p6349
tp6350
(lp6351
s(S'GATA4'
p6352
S'ETS1'
p6353
S'increases'
p6354
tp6355
(lp6356
s(S'E4F1'
p6357
S'FOXA1'
p6358
S'increases'
p6359
tp6360
(lp6361
s(S'FOXD1'
p6362
S'LEF1'
p6363
S'increases'
p6364
tp6365
(lp6366
s(S'CUX1'
p6367
S'MAX'
p6368
S'increases'
p6369
tp6370
(lp6371
s(S'CYP26A1'
p6372
S'CBFA2T3'
p6373
S'increases'
p6374
tp6375
(lp6376
s(S'CAM/CA2+'
p6377
S'KRAS ISOFORM 4B/GTP'
p6378
S'binds'
p6379
tp6380
(lp6381
s(S'MYOG'
p6382
S'STAT5A'
p6383
S'increases'
p6384
tp6385
(lp6386
s(S'MYOD1'
p6387
S'STAT5A'
p6388
S'increases'
p6389
tp6390
(lp6391
s(S'HNF1A'
p6392
S'POU3F2'
p6393
S'increases'
p6394
tp6395
(lp6396
s(S'EPH'
p6397
S'EPHR'
p6398
S'binds'
p6399
tp6400
(lp6401
s(S'PDGF:PHOSPHO-PDGF RECEPTOR DIMER'
p6402
S'GRB2:SOS1'
p6403
S'binds'
p6404
tp6405
(lp6406
s(S'HRAS/GTP'
p6407
S'PI3K'
p6408
S'increases_activity'
p6409
tp6410
(lp6411
s(S'RUNX1'
p6412
S'TLX2'
p6413
S'increases'
p6414
tp6415
(lp6416
s(S'MYOG'
p6417
S'CYP26A1'
p6418
S'increases'
p6419
tp6420
(lp6421
s(S'PAX2'
p6422
S'EN1'
p6423
S'increases'
p6424
tp6425
(lp6426
s(S'TFCP2'
p6427
S'CYP26A1'
p6428
S'increases'
p6429
tp6430
(lp6431
s(S'hsa-miR-145-5p'
p6432
S'NRAS'
p6433
S'decreases'
p6434
tp6435
(lp6436
s(S'KAT2B'
p6437
S'GATA1'
p6438
S'increases'
p6439
tp6440
(lp6441
s(S'P-EGFR MUTANTS:P-Y349,350-SHC1'
p6442
S'GRB2:SOS1'
p6443
S'binds'
p6444
tp6445
(lp6446
s(S'E2F1'
p6447
S'MECOM'
p6448
S'increases'
p6449
tp6450
(lp6451
s(S'GNB1/GNG2'
p6452
S'SRC'
p6453
S'adds_modification'
p6454
tp6455
(lp6456
s(S'ZBTB14'
p6457
S'MAX'
p6458
S'increases'
p6459
tp6460
(lp6461
s(S'RALGDS'
p6462
S'P21 RAS:GTP'
p6463
S'binds'
p6464
tp6465
(lp6466
s(S'RHOA/GTP'
p6467
S'ROCK2'
p6468
S'increases_activity'
p6469
tp6470
(lp6471
s(S'NR1H3'
p6472
S'FOXD3'
p6473
S'increases'
p6474
tp6475
(lp6476
s(S'TFAP4'
p6477
S'GATA1'
p6478
S'increases'
p6479
tp6480
(lp6481
s(S'FOXA1'
p6482
S'GATA6'
p6483
S'increases'
p6484
tp6485
(lp6486
s(S'GRB2:SOS1'
p6487
S'P-SHC'
p6488
S'binds'
p6489
tp6490
(lp6491
s(S'E2F1'
p6492
S'FOXO3'
p6493
S'increases'
p6494
tp6495
(lp6496
s.