(dp0
(S'ZEB1'
p1
S'FOXA1'
p2
S'increases'
p3
tp4
(lp5
s(S'FOXJ1'
p6
S'GATA6'
p7
S'increases'
p8
tp9
(lp10
s(S'TFAP4'
p11
S'FOXD3'
p12
S'increases'
p13
tp14
(lp15
s(S'TBP'
p16
S'MEIS1'
p17
S'increases'
p18
tp19
(lp20
s(S'GCM1'
p21
S'GATA6'
p22
S'increases'
p23
tp24
(lp25
s(S'T-DHT'
p26
S'SRC'
p27
S'adds_modification'
p28
tp29
(lp30
s(S'MAZ'
p31
S'GABPB2'
p32
S'increases'
p33
tp34
(lp35
s(S'HMGA1'
p36
S'EN1'
p37
S'increases'
p38
tp39
(lp40
s(S'CYP26A1'
p41
S'NRAS'
p42
S'increases'
p43
tp44
(lp45
s(S'CUX1'
p46
S'MEIS1'
p47
S'increases'
p48
tp49
(lp50
s(S'REPIN1'
p51
S'BACH1'
p52
S'increases'
p53
tp54
(lp55
s(S'TFDP1'
p56
S'HOXA9'
p57
S'increases'
p58
tp59
(lp60
s(S'NFE2L1'
p61
S'CYP26A1'
p62
S'increases'
p63
tp64
(lp65
s(S'MAZ'
p66
S'GATA1'
p67
S'increases'
p68
tp69
(lp70
s(S'TCF12'
p71
S'GABPB2'
p72
S'increases'
p73
tp74
(lp75
s(S'ETS2'
p76
S'FOXO3'
p77
S'increases'
p78
tp79
(lp80
s(S'hsa-let-7c-5p'
p81
S'NRAS'
p82
S'decreases'
p83
tp84
(lp85
s(S'SPI1'
p86
S'CYP26A1'
p87
S'increases'
p88
tp89
(lp90
s(S'RAC1/GTP'
p91
S'MKK4'
p92
S'adds_modification'
p93
tp94
(lp95
s(S'Quercetin'
p96
S'KRAS MRNA'
p97
S'decreases'
p98
tp99
(lp100
s(S'INSULIN RECEPTOR/INSULIN/SHC'
p101
S'GRB2'
p102
S'binds'
p103
tp104
(lp105
s(S'TAp63a (tetramer)'
p106
S'PKC DELTA'
p107
S'increases'
p108
tp109
(lp110
s(S'FOXO1'
p111
S'POU2F1'
p112
S'increases'
p113
tp114
(lp115
s(S'FOXL1'
p116
S'EN1'
p117
S'increases'
p118
tp119
(lp120
s(S'TBP'
p121
S'CYP26A1'
p122
S'increases'
p123
tp124
(lp125
s(S'Heptachlor'
p126
S'HRAS MRNA'
p127
S'decreases'
p128
tp129
(lp130
s(S'PCBP1'
p131
S'CYP26A1'
p132
S'increases'
p133
tp134
(lp135
s(S'ZBTB18'
p136
S'CYP26A1'
p137
S'increases'
p138
tp139
(lp140
s(S'GATA2'
p141
S'CYP26A1'
p142
S'increases'
p143
tp144
(lp145
s(S'Cadmium'
p146
S'KRAS MRNA'
p147
S'increases'
p148
tp149
(lp150
s(S'HNF1A'
p151
S'POU2F1'
p152
S'increases'
p153
tp154
(lp155
s(S'ABT-100'
p156
S'HRAS PROTEIN'
p157
S'inhibits_modification'
p158
tp159
(lp160
s(S'ELF1'
p161
S'CYP26A1'
p162
S'increases'
p163
tp164
(lp165
s(S'LEF1'
p166
S'KRAS'
p167
S'increases'
p168
tp169
(lp170
s(S'NKX2-1'
p171
S'FOXD3'
p172
S'increases'
p173
tp174
(lp175
s(S'PI-3-4-5-P3'
p176
S'BTK-ITK'
p177
S'translocates'
p178
tp179
(lp180
s(S'POU6F1'
p181
S'HOXA9'
p182
S'increases'
p183
tp184
(lp185
s(S'Myb'
p186
S'MYB'
p187
S'increases'
p188
tp189
(lp190
s(S'PAX5'
p191
S'CYP26A1'
p192
S'increases'
p193
tp194
(lp195
s(S'FOXO4'
p196
S'FOXD3'
p197
S'increases'
p198
tp199
(lp200
s(S'CYP26A1'
p201
S'FOXO4'
p202
S'increases'
p203
tp204
(lp205
s(S'cell adhesion'
p206
S'HRAS/GDP'
p207
S'increases_activity'
p208
tp209
(lp210
s(S'IRF7'
p211
S'CYP26A1'
p212
S'increases'
p213
tp214
(lp215
s(S'7,8-Dihydro-7,8-dihydroxybenzo(a)pyrene 9,10-oxide'
p216
S'KRAS PROTEIN'
p217
S'increases'
p218
tp219
(lp220
s(S'PITX2'
p221
S'POU2F1'
p222
S'increases'
p223
tp224
(lp225
s(S'E2F1'
p226
S'CYP26A1'
p227
S'increases'
p228
tp229
(lp230
s(S'ATF1'
p231
S'CYP26A1'
p232
S'increases'
p233
tp234
(lp235
s(S'PI3K'
p236
S'PKC DELTA'
p237
S'adds_modification'
p238
tp239
(lp240
s(S'SOX5'
p241
S'HOXA9'
p242
S'increases'
p243
tp244
(lp245
s(S'FOXO4'
p246
S'POU2F1'
p247
S'increases'
p248
tp249
(lp250
s(S'FOXO4'
p251
S'GATA6'
p252
S'increases'
p253
tp254
(lp255
s(S'LEF1'
p256
S'FOXF2'
p257
S'increases'
p258
tp259
(lp260
s(S'Insulin Receptor/Insuli/IRS1/GRB2/SHC/Sos'
p261
S'HRAS/GDP'
p262
S'increases_activity'
p263
tp264
(lp265
s(S'TLX2'
p266
S'RUNX1'
p267
S'increases'
p268
tp269
(lp270
s(S'ALX4'
p271
S'JUN'
p272
S'increases'
p273
tp274
(lp275
s(S'RHOA/GTP'
p276
S'RHOGDI'
p277
S'binds'
p278
tp279
(lp280
s(S'GCM1'
p281
S'CYP26A1'
p282
S'increases'
p283
tp284
(lp285
s(S'RB1'
p286
S'ONECUT1'
p287
S'increases'
p288
tp289
(lp290
s(S'NHLH1'
p291
S'CYP26A1'
p292
S'increases'
p293
tp294
(lp295
s(S'NR3C1'
p296
S'BACH1'
p297
S'increases'
p298
tp299
(lp300
s(S'HNF4A'
p301
S'CYP26A1'
p302
S'increases'
p303
tp304
(lp305
s(S'YY1'
p306
S'FOXO3'
p307
S'increases'
p308
tp309
(lp310
s(S'GRB2:SOS1'
p311
S'P-EGFR MUTANTS DIMER'
p312
S'binds'
p313
tp314
(lp315
s(S'P-Y349,350-SHC1:P-ERBB4'
p316
S'GRB2:SOS1'
p317
S'binds'
p318
tp319
(lp320
s(S'FOXN1'
p321
S'ONECUT1'
p322
S'increases'
p323
tp324
(lp325
s(S'TFAP4'
p326
S'MYC'
p327
S'increases'
p328
tp329
(lp330
s(S'MYC'
p331
S'EN1'
p332
S'increases'
p333
tp334
(lp335
s(S'Antigen/IgE/Fc epsilon R1/LYN/SYK'
p336
S'SHC/GRB2/SOS1'
p337
S'increases_activity'
p338
tp339
(lp340
s(S'14-3-3 BETA, ZETA'
p341
S'GARNL4'
p342
S'binds'
p343
tp344
(lp345
s(S'SMAD1'
p346
S'EN1'
p347
S'increases'
p348
tp349
(lp350
s(S'Raf-1'
p351
S'MEK1-2'
p352
S'adds_modification'
p353
tp354
(lp355
s(S'POU2F1'
p356
S'FOXO3'
p357
S'increases'
p358
tp359
(lp360
s(S'NGF (dimer)/TRKA'
p361
S'RASGRF1'
p362
S'adds_modification'
p363
tp364
(lp365
s(S'TCF4'
p366
S'CYP26A1'
p367
S'increases'
p368
tp369
(lp370
s(S'STAT5B'
p371
S'TLX2'
p372
S'increases'
p373
tp374
(lp375
s(S'CYP26A1'
p376
S'SRF'
p377
S'increases'
p378
tp379
(lp380
s(S'STAT1'
p381
S'NRAS'
p382
S'increases'
p383
tp384
(lp385
s(S'TFDP1'
p386
S'GATA1'
p387
S'increases'
p388
tp389
(lp390
s(S'PI3K'
p391
S'ALPHA6/BETA4 INTEGRIN/LAMININ'
p392
S'binds'
p393
tp394
(lp395
s(S'FOXF2'
p396
S'NRAS'
p397
S'increases'
p398
tp399
(lp400
s(S'CUX1'
p401
S'POU2F1'
p402
S'increases'
p403
tp404
(lp405
s(S'ETS2'
p406
S'STAT4'
p407
S'increases'
p408
tp409
(lp410
s(S'EN1'
p411
S'CYP26A1'
p412
S'increases'
p413
tp414
(lp415
s(S'COMPLEX (RAS/GTP)'
p416
S'RAF'
p417
S'binds'
p418
tp419
(lp420
s(S'LEF1'
p421
S'EN1'
p422
S'increases'
p423
tp424
(lp425
s(S'FOXL1'
p426
S'NRAS'
p427
S'increases'
p428
tp429
(lp430
s(S'ELF2'
p431
S'CYP26A1'
p432
S'increases'
p433
tp434
(lp435
s(S'Src Family Kinases-active'
p436
S'EGF/EGFR'
p437
S'adds_modification'
p438
tp439
(lp440
s(S'RUNX1'
p441
S'POU2F1'
p442
S'increases'
p443
tp444
(lp445
s(S'RHOA/GTP'
p446
S'CITRON-N'
p447
S'increases_activity'
p448
tp449
(lp450
s(S'PAX4'
p451
S'SRF'
p452
S'increases'
p453
tp454
(lp455
s(S'Vitamin E'
p456
S'HRAS MRNA'
p457
S'increases'
p458
tp459
(lp460
s(S'CDX2'
p461
S'FOXD3'
p462
S'increases'
p463
tp464
(lp465
s(S'Plant Extracts'
p466
S'KEAP1 PROTEIN'
p467
S'decreases'
p468
tp469
(lp470
s(S'PAX4'
p471
S'CBFA2T3'
p472
S'increases'
p473
tp474
(lp475
s(S'FOXD1'
p476
S'CYP26A1'
p477
S'increases'
p478
tp479
(lp480
s(S'Antigen/IgE/Fc epsilon R1/LYN/SYK'
p481
S'VAV1'
p482
S'adds_modification'
p483
tp484
(lp485
s(S'PCBP1'
p486
S'MEIS1'
p487
S'increases'
p488
tp489
(lp490
s(S'FOXI1'
p491
S'FOXD3'
p492
S'increases'
p493
tp494
(lp495
s(S'GATA4'
p496
S'MEIS1'
p497
S'increases'
p498
tp499
(lp500
s(S'STAT5B'
p501
S'CEBPG'
p502
S'increases'
p503
tp504
(lp505
s(S'TFDP2'
p506
S'MAZ'
p507
S'increases'
p508
tp509
(lp510
s(S'PI3K'
p511
S'SHP2'
p512
S'binds'
p513
tp514
(lp515
s(S'SPI1'
p516
S'ONECUT1'
p517
S'increases'
p518
tp519
(lp520
s(S'STAT6'
p521
S'EN1'
p522
S'increases'
p523
tp524
(lp525
s(S'TLX2'
p526
S'CYP26A1'
p527
S'increases'
p528
tp529
(lp530
s(S'RAF1'
p531
S'MEK1-2'
p532
S'increases_activity'
p533
tp534
(lp535
s(S'STAT5A'
p536
S'IRF1'
p537
S'increases'
p538
tp539
(lp540
s(S'2-amino-1-methyl-6-phenylimidazo(4,5-b)pyridine'
p541
S'HRAS MRNA'
p542
S'increases'
p543
tp544
(lp545
s(S'MAZ'
p546
S'POU2F1'
p547
S'increases'
p548
tp549
(lp550
s(S'MAZ'
p551
S'SRF'
p552
S'increases'
p553
tp554
(lp555
s(S'GATA1'
p556
S'JUN'
p557
S'increases'
p558
tp559
(lp560
s(S'FOXA1'
p561
S'NRAS'
p562
S'increases'
p563
tp564
(lp565
s(S'STAT1'
p566
S'EN1'
p567
S'increases'
p568
tp569
(lp570
s(S'GTF2A2'
p571
S'MAX'
p572
S'increases'
p573
tp574
(lp575
s(S'LMO2'
p576
S'EN1'
p577
S'increases'
p578
tp579
(lp580
s(S'MYOD1'
p581
S'LEF1'
p582
S'increases'
p583
tp584
(lp585
s(S'ATF3'
p586
S'JUN'
p587
S'increases'
p588
tp589
(lp590
s(S'GRB2:SOS1'
p591
S'ACTIVATED FGFR:P-SHC1'
p592
S'binds'
p593
tp594
(lp595
s(S'MAFG'
p596
S'BACH1'
p597
S'increases'
p598
tp599
(lp600
s(S'POU3F2'
p601
S'POU2F1'
p602
S'increases'
p603
tp604
(lp605
s(S'K 7174'
p606
S'KRAS MRNA'
p607
S'increases'
p608
tp609
(lp610
s(S'POU1F1'
p611
S'RUNX1'
p612
S'increases'
p613
tp614
(lp615
s(S'HRAS protein'
p616
S'CCND1 MRNA'
p617
S'increases'
p618
tp619
(lp620
s(S'YY1'
p621
S'EN1'
p622
S'increases'
p623
tp624
(lp625
s(S'resveratrol'
p626
S'HRAS MRNA'
p627
S'increases'
p628
tp629
(lp630
s(S'NKX2-1'
p631
S'HOXA9'
p632
S'increases'
p633
tp634
(lp635
s(S'HSF1'
p636
S'CYP26A1'
p637
S'increases'
p638
tp639
(lp640
s(S'MYC'
p641
S'HOXA9'
p642
S'increases'
p643
tp644
(lp645
s(S'Raf'
p646
S'MEK'
p647
S'adds_modification'
p648
tp649
(lp650
S'HBx transactivates viral and host genes and stimulates the Ras-Raf-MEK-ERK signal transduction pathway.'
p651
as(S'TFDP1'
p652
S'MAZ'
p653
S'increases'
p654
tp655
(lp656
s(S'SPRED1'
p657
S'HRAS'
p658
S'binds'
p659
tp660
(lp661
s(S'MYCN'
p662
S'CYP26A1'
p663
S'increases'
p664
tp665
(lp666
s(S'AHR'
p667
S'FOXD3'
p668
S'increases'
p669
tp670
(lp671
s(S'SF1'
p672
S'CYP26A1'
p673
S'increases'
p674
tp675
(lp676
s(S'MEIS1'
p677
S'ETS1'
p678
S'increases'
p679
tp680
(lp681
s(S'Copper Sulfate'
p682
S'HRAS MRNA'
p683
S'decreases'
p684
tp685
(lp686
s(S'MAZ'
p687
S'MYC'
p688
S'increases'
p689
tp690
(lp691
s(S'E4F1'
p692
S'HOXA9'
p693
S'increases'
p694
tp695
(lp696
s(S'GATA1'
p697
S'GATA6'
p698
S'increases'
p699
tp700
(lp701
s(S'RUNX2'
p702
S'POU2F1'
p703
S'increases'
p704
tp705
(lp706
s(S'CYP26A1'
p707
S'GATA6'
p708
S'increases'
p709
tp710
(lp711
s(S'PAX4'
p712
S'GATA1'
p713
S'increases'
p714
tp715
(lp716
s(S'ELF2'
p717
S'STAT5A'
p718
S'increases'
p719
tp720
(lp721
s(S'CART1'
p722
S'NRAS'
p723
S'increases'
p724
tp725
(lp726
s(S'IGF-1R heterotetramer/IGF1/GRB2/Sos/Shc'
p727
S'HRAS/GDP'
p728
S'increases_activity'
p729
tp730
(lp731
s(S'RB1'
p732
S'CYP26A1'
p733
S'increases'
p734
tp735
(lp736
s(S'CEBPG'
p737
S'HOXA9'
p738
S'increases'
p739
tp740
(lp741
s(S'GRB2/SOS1/SHC'
p742
S'IGF-1R HETEROTETRAMER/IGF1'
p743
S'binds'
p744
tp745
(lp746
s(S'PRRX2'
p747
S'CYP26A1'
p748
S'increases'
p749
tp750
(lp751
s(S'TEAD1'
p752
S'CYP26A1'
p753
S'increases'
p754
tp755
(lp756
s(S'STAT5A'
p757
S'FOXA1'
p758
S'increases'
p759
tp760
(lp761
s(S'ATF2'
p762
S'FOXD3'
p763
S'increases'
p764
tp765
(lp766
s(S'REPIN1'
p767
S'FOXO4'
p768
S'increases'
p769
tp770
(lp771
s(S'FOXF2'
p772
S'ETS1'
p773
S'increases'
p774
tp775
(lp776
s(S'ETV7'
p777
S'MEIS1'
p778
S'increases'
p779
tp780
(lp781
s(S'RUNX2'
p782
S'RUNX1'
p783
S'increases'
p784
tp785
(lp786
s(S'OR5I1'
p787
S'GATA1'
p788
S'increases'
p789
tp790
(lp791
s(S'MSX1'
p792
S'EN1'
p793
S'increases'
p794
tp795
(lp796
s(S'GTF3A'
p797
S'IRF1'
p798
S'increases'
p799
tp800
(lp801
s(S'POU2F1'
p802
S'SRF'
p803
S'increases'
p804
tp805
(lp806
s(S'PLC-GAMMA'
p807
S'COMPLEX (GADS/SLP-76)'
p808
S'binds'
p809
tp810
(lp811
s(S'STAT4'
p812
S'STAT5A'
p813
S'increases'
p814
tp815
(lp816
s(S'JUN'
p817
S'BACH1'
p818
S'increases'
p819
tp820
(lp821
s(S'POU1F1'
p822
S'HOXA9'
p823
S'increases'
p824
tp825
(lp826
s(S'docetaxel'
p827
S'HRAS PROTEIN'
p828
S'increases'
p829
tp830
(lp831
s(S'MAX'
p832
S'LEF1'
p833
S'increases'
p834
tp835
(lp836
s(S'FOXA1'
p837
S'CYP26A1'
p838
S'increases'
p839
tp840
(lp841
s(S'GATA4'
p842
S'FOXD3'
p843
S'increases'
p844
tp845
(lp846
s(S'ZBTB18'
p847
S'RUNX1'
p848
S'increases'
p849
tp850
(lp851
s(S'ATF3'
p852
S'RUNX1'
p853
S'increases'
p854
tp855
(lp856
s(S'NKX2-1'
p857
S'CYP26A1'
p858
S'increases'
p859
tp860
(lp861
s(S'NR3C1'
p862
S'FOXA1'
p863
S'increases'
p864
tp865
(lp866
s(S'RAS family/GTP'
p867
S'RIN1'
p868
S'increases_activity'
p869
tp870
(lp871
s(S'COMPLEX (RAS/GTP/ RAF)'
p872
S'MEK'
p873
S'binds'
p874
tp875
(lp876
s(S'CDC5L'
p877
S'NRAS'
p878
S'increases'
p879
tp880
(lp881
s(S'Vitamin E'
p882
S'NRAS MRNA'
p883
S'decreases'
p884
tp885
(lp886
s(S'NF1'
p887
S'LEF1'
p888
S'increases'
p889
tp890
(lp891
s(S'ETS1'
p892
S'EN1'
p893
S'increases'
p894
tp895
(lp896
s(S'CRAF'
p897
S'YWHAB'
p898
S'binds'
p899
tp900
(lp901
s(S'CEBPD'
p902
S'JUN'
p903
S'increases'
p904
tp905
(lp906
s(S'MAX'
p907
S'RUNX2'
p908
S'increases'
p909
tp910
(lp911
s(S'CEBPA'
p912
S'MECOM'
p913
S'increases'
p914
tp915
(lp916
s(S'PAX2'
p917
S'GATA1'
p918
S'increases'
p919
tp920
(lp921
s(S'CYP26A1'
p922
S'TLX2'
p923
S'increases'
p924
tp925
(lp926
s(S'GFI1'
p927
S'ETS1'
p928
S'increases'
p929
tp930
(lp931
s(S'14-3-3:P-S259,Y340,Y341,S621-RAF1:RAS:GTP'
p932
S'MEK'
p933
S'binds'
p934
tp935
(lp936
s(S'P-S,T-MEK2'
p937
S'ERK2'
p938
S'binds'
p939
tp940
(lp941
s(S'HRAS/GTP'
p942
S'RIN2'
p943
S'increases_activity'
p944
tp945
(lp946
s(S'Ras-GTP'
p947
S'P42/P44MAPKS'
p948
S'adds_modification'
p949
tp950
(lp951
s(S'SRF'
p952
S'CYP26A1'
p953
S'increases'
p954
tp955
(lp956
s(S'FOXL1'
p957
S'RUNX2'
p958
S'increases'
p959
tp960
(lp961
s(S'EGR4'
p962
S'LEF1'
p963
S'increases'
p964
tp965
(lp966
s(S'P-IRS1,2'
p967
S'GRB2:SOS1'
p968
S'binds'
p969
tp970
(lp971
s(S'VEGFR2 (dimer)/VEGFA (dimer)/alphav/beta3 Integrin/Vitronectin'
p972
S'SRC'
p973
S'adds_modification'
p974
tp975
(lp976
s(S'BACH2'
p977
S'BACH1'
p978
S'increases'
p979
tp980
(lp981
s(S'ONECUT1'
p982
S'RUNX1'
p983
S'increases'
p984
tp985
(lp986
s(S'FOXJ2'
p987
S'RUNX2'
p988
S'increases'
p989
tp990
(lp991
s(S'PI-3-4-5-P3'
p992
S'AKT1'
p993
S'translocates'
p994
tp995
(lp996
s(S'TFAP4'
p997
S'BACH1'
p998
S'increases'
p999
tp1000
(lp1001
s(S'MEKK1/4'
p1002
S'MKK3/6'
p1003
S'adds_modification'
p1004
tp1005
(lp1006
s(S'VSX1'
p1007
S'MECOM'
p1008
S'increases'
p1009
tp1010
(lp1011
s(S'IRF1'
p1012
S'GATA6'
p1013
S'increases'
p1014
tp1015
(lp1016
s(S'MAX'
p1017
S'HOXA9'
p1018
S'increases'
p1019
tp1020
(lp1021
s(S'RB1'
p1022
S'MAZ'
p1023
S'increases'
p1024
tp1025
(lp1026
s(S'GATA1'
p1027
S'EN1'
p1028
S'increases'
p1029
tp1030
(lp1031
s(S'HIF1A'
p1032
S'SRF'
p1033
S'increases'
p1034
tp1035
(lp1036
s(S'IRF8'
p1037
S'CYP26A1'
p1038
S'increases'
p1039
tp1040
(lp1041
s(S'MTF1'
p1042
S'CYP26A1'
p1043
S'increases'
p1044
tp1045
(lp1046
s(S'PI-3-4-5-P3'
p1047
S'GAB1'
p1048
S'translocates'
p1049
tp1050
(lp1051
s(S'PI-3-4-5-P3'
p1052
S'AKT1'
p1053
S'adds_modification'
p1054
tp1055
(lp1056
s(S'RXRA'
p1057
S'HOXA9'
p1058
S'increases'
p1059
tp1060
(lp1061
s(S'AKT1'
p1062
S'RAF1'
p1063
S'binds'
p1064
tp1065
(lp1066
s(S'HSF2'
p1067
S'JUN'
p1068
S'increases'
p1069
tp1070
(lp1071
s(S'PAX2'
p1072
S'CYP26A1'
p1073
S'increases'
p1074
tp1075
(lp1076
s(S'ETV7'
p1077
S'CYP26A1'
p1078
S'increases'
p1079
tp1080
(lp1081
s(S'FOXO3'
p1082
S'NRAS'
p1083
S'increases'
p1084
tp1085
(lp1086
s(S'TP53'
p1087
S'REPIN1'
p1088
S'increases'
p1089
tp1090
(lp1091
s(S'STAT6'
p1092
S'CYP26A1'
p1093
S'increases'
p1094
tp1095
(lp1096
s(S'JUN'
p1097
S'NRAS'
p1098
S'increases'
p1099
tp1100
(lp1101
s(S'MYCN'
p1102
S'NRAS'
p1103
S'increases'
p1104
tp1105
(lp1106
s(S'STAT3'
p1107
S'YY1'
p1108
S'increases'
p1109
tp1110
(lp1111
s(S'Methyl Methanesulfonate'
p1112
S'HRAS MRNA'
p1113
S'increases'
p1114
tp1115
(lp1116
s(S'RHOA/GTP'
p1117
S'PKN'
p1118
S'increases_activity'
p1119
tp1120
(lp1121
s(S'NHLH1'
p1122
S'FOXJ2'
p1123
S'increases'
p1124
tp1125
(lp1126
s(S'RAS family/GTP'
p1127
S'BRAF'
p1128
S'adds_modification'
p1129
tp1130
(lp1131
s(S'RELA'
p1132
S'FOXJ2'
p1133
S'increases'
p1134
tp1135
(lp1136
s(S'TCF3'
p1137
S'RUNX1'
p1138
S'increases'
p1139
tp1140
(lp1141
s(S'FOXF2'
p1142
S'FOXO4'
p1143
S'increases'
p1144
tp1145
(lp1146
s(S'ATF4'
p1147
S'FOXD3'
p1148
S'increases'
p1149
tp1150
(lp1151
s(S'HAND1'
p1152
S'MECOM'
p1153
S'increases'
p1154
tp1155
(lp1156
s(S'RHOA/GTP'
p1157
S'P27KIP1'
p1158
S'adds_modification'
p1159
tp1160
(lp1161
s(S'SRF'
p1162
S'NRAS'
p1163
S'increases'
p1164
tp1165
(lp1166
s(S'ESRRA'
p1167
S'POU3F2'
p1168
S'increases'
p1169
tp1170
(lp1171
s(S'BRAF'
p1172
S'MEK1'
p1173
S'adds_modification'
p1174
tp1175
(lp1176
s(S'Cadmium Chloride'
p1177
S'KRAS PROTEIN'
p1178
S'increases'
p1179
tp1180
(lp1181
s(S'PRRX2'
p1182
S'MEIS1'
p1183
S'increases'
p1184
tp1185
(lp1186
s(S'MYC'
p1187
S'NRAS'
p1188
S'increases'
p1189
tp1190
(lp1191
s(S'MAZ'
p1192
S'KRAS'
p1193
S'increases'
p1194
tp1195
(lp1196
s(S'Rho Family GTPase-active'
p1197
S'PI3K'
p1198
S'increases_activity'
p1199
tp1200
(lp1201
s(S'STAT2'
p1202
S'CYP26A1'
p1203
S'increases'
p1204
tp1205
(lp1206
s(S'hsa-let-7a-5p'
p1207
S'KRAS'
p1208
S'decreases'
p1209
tp1210
(lp1211
s(S'POU3F2'
p1212
S'NRAS'
p1213
S'increases'
p1214
tp1215
(lp1216
s(S'SRF'
p1217
S'FOXO4'
p1218
S'increases'
p1219
tp1220
(lp1221
s(S'S1P1/Sphingosine-1-phosphate/PDGF-BB/PDGFRB (dimer)'
p1222
S'SRC FAMILY KINASES'
p1223
S'increases_activity'
p1224
tp1225
(lp1226
s(S'MYC/Max'
p1227
S'ERBB2'
p1228
S'decreases'
p1229
tp1230
(lp1231
s(S'SREBF1'
p1232
S'CBFA2T3'
p1233
S'increases'
p1234
tp1235
(lp1236
s(S'PI3K'
p1237
S'GELSOLIN/PI-3-4-5-P3'
p1238
S'binds'
p1239
tp1240
(lp1241
s(S'NHLH1'
p1242
S'EN1'
p1243
S'increases'
p1244
tp1245
(lp1246
s(S'LMO2'
p1247
S'GATA6'
p1248
S'increases'
p1249
tp1250
(lp1251
s(S'POU1F1'
p1252
S'FOXD3'
p1253
S'increases'
p1254
tp1255
(lp1256
s(S'hsa-miR-148b-3p'
p1257
S'NRAS'
p1258
S'decreases'
p1259
tp1260
(lp1261
s(S'Quercetin'
p1262
S'KRAS PROTEIN'
p1263
S'decreases'
p1264
tp1265
(lp1266
s(S'PAK2'
p1267
S'MEKK1'
p1268
S'adds_modification'
p1269
tp1270
(lp1271
s(S'LMO2'
p1272
S'MAZ'
p1273
S'increases'
p1274
tp1275
(lp1276
s(S'FOXO1'
p1277
S'POU3F2'
p1278
S'increases'
p1279
tp1280
(lp1281
s(S'NKX2-1'
p1282
S'MAZ'
p1283
S'increases'
p1284
tp1285
(lp1286
s(S'GRB2/SOS1'
p1287
S'PDGF-BB/PDGFRB (DIMER)/P52 SHC'
p1288
S'binds'
p1289
tp1290
(lp1291
s(S'PI3K'
p1292
S'CRK/P130 CAS/PAXILLIN'
p1293
S'increases_activity'
p1294
tp1295
(lp1296
s(S'ATF1'
p1297
S'FOXD3'
p1298
S'increases'
p1299
tp1300
(lp1301
s(S'GATA1'
p1302
S'SRF'
p1303
S'increases'
p1304
tp1305
(lp1306
s(S'TFAP2C'
p1307
S'CYP26A1'
p1308
S'increases'
p1309
tp1310
(lp1311
s(S'AHR'
p1312
S'MEIS1'
p1313
S'increases'
p1314
tp1315
(lp1316
s(S'ETS2'
p1317
S'CYP26A1'
p1318
S'increases'
p1319
tp1320
(lp1321
s(S'Estradiol'
p1322
S'NRAS MRNA'
p1323
S'increases'
p1324
tp1325
(lp1326
s(S'E2F1'
p1327
S'HOXA9'
p1328
S'increases'
p1329
tp1330
(lp1331
s(S'PDGF-BB/PDGFRB (DIMER)'
p1332
S'RASGAP'
p1333
S'binds'
p1334
tp1335
(lp1336
s(S'E2F1'
p1337
S'GABPB2'
p1338
S'increases'
p1339
tp1340
(lp1341
s(S'FOXJ1'
p1342
S'POU3F2'
p1343
S'increases'
p1344
tp1345
(lp1346
s(S'VSX1'
p1347
S'CYP26A1'
p1348
S'increases'
p1349
tp1350
(lp1351
s(S'SPI1'
p1352
S'CDC5L'
p1353
S'increases'
p1354
tp1355
(lp1356
s(S'Gi family'
p1357
S'HRAS/GDP'
p1358
S'increases_activity'
p1359
tp1360
(lp1361
s(S'TCF3'
p1362
S'CYP26A1'
p1363
S'increases'
p1364
tp1365
(lp1366
s(S'IGF-1R HETEROTETRAMER/IGF1/IRS1'
p1367
S'GRB2/SOS1'
p1368
S'binds'
p1369
tp1370
(lp1371
s(S'RAS family/GTP'
p1372
S'RALGDS'
p1373
S'translocates'
p1374
tp1375
(lp1376
s(S'PI3K'
p1377
S'RAC1/GDP'
p1378
S'increases_activity'
p1379
tp1380
(lp1381
s(S'Ca2+'
p1382
S'PKC'
p1383
S'increases_activity'
p1384
tp1385
(lp1386
s(S'ZIC1'
p1387
S'CYP26A1'
p1388
S'increases'
p1389
tp1390
(lp1391
s(S'IRF7'
p1392
S'TLX2'
p1393
S'increases'
p1394
tp1395
(lp1396
s(S'SHC/SHIP'
p1397
S'HRAS/GDP'
p1398
S'decreases_activity'
p1399
tp1400
(lp1401
s(S'hsa-let-7a-5p'
p1402
S'HRAS'
p1403
S'decreases'
p1404
tp1405
(lp1406
s(S'GATA4'
p1407
S'MAZ'
p1408
S'increases'
p1409
tp1410
(lp1411
s(S'EN1'
p1412
S'NRAS'
p1413
S'increases'
p1414
tp1415
(lp1416
s(S'PI3K'
p1417
S'BAM32'
p1418
S'adds_modification'
p1419
tp1420
(lp1421
s(S'GABPB1'
p1422
S'CYP26A1'
p1423
S'increases'
p1424
tp1425
(lp1426
s(S'Trifluoroethanol'
p1427
S'HRAS'
p1428
S'increases_activity'
p1429
tp1430
(lp1431
s(S'SOX5'
p1432
S'CYP26A1'
p1433
S'increases'
p1434
tp1435
(lp1436
s(S'GRB2/SOS1'
p1437
S'HGF(DIMER)/MET(DIMER)/P52 SHC'
p1438
S'binds'
p1439
tp1440
(lp1441
s(S'TCF12'
p1442
S'EN1'
p1443
S'increases'
p1444
tp1445
(lp1446
s(S'SOX9'
p1447
S'MEIS1'
p1448
S'increases'
p1449
tp1450
(lp1451
s(S'RB1'
p1452
S'MYC'
p1453
S'increases'
p1454
tp1455
(lp1456
s(S'RXRA'
p1457
S'FOXA1'
p1458
S'increases'
p1459
tp1460
(lp1461
s(S'decitabine'
p1462
S'HRAS MRNA'
p1463
S'decreases'
p1464
tp1465
(lp1466
s(S'VSX1'
p1467
S'EN1'
p1468
S'increases'
p1469
tp1470
(lp1471
s(S'FOXL1'
p1472
S'CYP26A1'
p1473
S'increases'
p1474
tp1475
(lp1476
s(S'PAX2'
p1477
S'RUNX1'
p1478
S'increases'
p1479
tp1480
(lp1481
s(S'MEKK1/4'
p1482
S'MKK4/7'
p1483
S'adds_modification'
p1484
tp1485
(lp1486
s(S'HOXA9'
p1487
S'CYP26A1'
p1488
S'increases'
p1489
tp1490
(lp1491
s(S'TRKC'
p1492
S'NT3 (DIMER)'
p1493
S'binds'
p1494
tp1495
(lp1496
s(S'PTF1A'
p1497
S'REPIN1'
p1498
S'increases'
p1499
tp1500
(lp1501
s(S'TGIF'
p1502
S'CYP26A1'
p1503
S'increases'
p1504
tp1505
(lp1506
s(S'MYOD1'
p1507
S'MYC'
p1508
S'increases'
p1509
tp1510
(lp1511
s(S'PKCT'
p1512
S'KRAS ISO2'
p1513
S'adds_modification'
p1514
tp1515
(lp1516
s(S'RAS family/GTP'
p1517
S'BRAF'
p1518
S'increases_activity'
p1519
tp1520
(lp1521
s(S'SPZ1'
p1522
S'CYP26A1'
p1523
S'increases'
p1524
tp1525
(lp1526
s(S'HRAS/GTP'
p1527
S'GALECTIN-1'
p1528
S'binds'
p1529
tp1530
(lp1531
s(S'DBP'
p1532
S'FOXD3'
p1533
S'increases'
p1534
tp1535
(lp1536
s(S'E2F1'
p1537
S'POU2F1'
p1538
S'increases'
p1539
tp1540
(lp1541
s(S'MEIS1'
p1542
S'CYP26A1'
p1543
S'increases'
p1544
tp1545
(lp1546
s(S'YY1'
p1547
S'NRAS'
p1548
S'increases'
p1549
tp1550
(lp1551
s(S'RAS:RAF'
p1552
S'YWHAB'
p1553
S'binds'
p1554
tp1555
(lp1556
s(S'NFE2L2'
p1557
S'CYP26A1'
p1558
S'increases'
p1559
tp1560
(lp1561
s(S'FARNESYL'
p1562
S'KRAS'
p1563
S'increases_activity'
p1564
tp1565
(lp1566
s(S'MTF1'
p1567
S'MECOM'
p1568
S'increases'
p1569
tp1570
(lp1571
s(S'TLX2'
p1572
S'FOXD3'
p1573
S'increases'
p1574
tp1575
(lp1576
s(S'Insulin Receptor/Insulin/SHC/GRB2/Sos1'
p1577
S'HRAS/GDP'
p1578
S'increases_activity'
p1579
tp1580
(lp1581
s(S'MYC'
p1582
S'ELK1'
p1583
S'increases'
p1584
tp1585
(lp1586
s(S'ONECUT1'
p1587
S'POU2F1'
p1588
S'increases'
p1589
tp1590
(lp1591
s(S'Paraquat'
p1592
S'HRAS MRNA'
p1593
S'translocates'
p1594
tp1595
(lp1596
s(S'GRB2/SOS1'
p1597
S'PDGF-BB/PDGFRB (DIMER)/SHP2'
p1598
S'binds'
p1599
tp1600
(lp1601
s(S'ONECUT1'
p1602
S'CYP26A1'
p1603
S'increases'
p1604
tp1605
(lp1606
s(S'MYC'
p1607
S'FOXO3'
p1608
S'increases'
p1609
tp1610
(lp1611
s(S'PAX3'
p1612
S'ELK1'
p1613
S'increases'
p1614
tp1615
(lp1616
s(S'DOK-R'
p1617
S'RASGAP'
p1618
S'binds'
p1619
tp1620
(lp1621
s(S'HOXA4'
p1622
S'HOXA9'
p1623
S'increases'
p1624
tp1625
(lp1626
s(S'MAX'
p1627
S'POU3F2'
p1628
S'increases'
p1629
tp1630
(lp1631
s(S'Estradiol'
p1632
S'KRAS MRNA'
p1633
S'decreases'
p1634
tp1635
(lp1636
s(S'KRAS ISOFORM 4B/GTP'
p1637
S'CAM/CA2+'
p1638
S'binds'
p1639
tp1640
(lp1641
s(S'MAZ'
p1642
S'FOXO4'
p1643
S'increases'
p1644
tp1645
(lp1646
s(S'hsa-miR-181a-5p'
p1647
S'KRAS'
p1648
S'decreases'
p1649
tp1650
(lp1651
s(S'GATA1'
p1652
S'CYP26A1'
p1653
S'increases'
p1654
tp1655
(lp1656
s(S'PGR'
p1657
S'ETS1'
p1658
S'increases'
p1659
tp1660
(lp1661
s(S'GATA1'
p1662
S'POU2F1'
p1663
S'increases'
p1664
tp1665
(lp1666
s(S'BRAF'
p1667
S'MEK1-2'
p1668
S'increases_activity'
p1669
tp1670
(lp1671
s(S'LEF1'
p1672
S'GABPB2'
p1673
S'increases'
p1674
tp1675
(lp1676
s(S'CYP26A1'
p1677
S'MYC'
p1678
S'increases'
p1679
tp1680
(lp1681
s(S'STAT1'
p1682
S'IRF1'
p1683
S'increases'
p1684
tp1685
(lp1686
s(S'SMAD1'
p1687
S'RUNX2'
p1688
S'increases'
p1689
tp1690
(lp1691
s(S'ZEB1'
p1692
S'TLX2'
p1693
S'increases'
p1694
tp1695
(lp1696
s(S'STAT5B'
p1697
S'IRF1'
p1698
S'increases'
p1699
tp1700
(lp1701
s(S'POU6F1'
p1702
S'CYP26A1'
p1703
S'increases'
p1704
tp1705
(lp1706
s(S'Vincristine'
p1707
S'HRAS MRNA'
p1708
S'increases'
p1709
tp1710
(lp1711
s(S'DAG'
p1712
S'RASGRP1'
p1713
S'adds_modification'
p1714
tp1715
(lp1716
s(S'PI3K'
p1717
S'PDK1'
p1718
S'increases_activity'
p1719
tp1720
(lp1721
s(S'ETS2'
p1722
S'PAX4'
p1723
S'increases'
p1724
tp1725
(lp1726
s(S'NR3C1'
p1727
S'ONECUT1'
p1728
S'increases'
p1729
tp1730
(lp1731
s(S'CUX1'
p1732
S'CYP26A1'
p1733
S'increases'
p1734
tp1735
(lp1736
s(S'ZEB1'
p1737
S'GATA1'
p1738
S'increases'
p1739
tp1740
(lp1741
s(S'NRF1'
p1742
S'POU2F1'
p1743
S'increases'
p1744
tp1745
(lp1746
s(S'FOXJ2'
p1747
S'MECOM'
p1748
S'increases'
p1749
tp1750
(lp1751
s(S'MAZ'
p1752
S'MYCN'
p1753
S'increases'
p1754
tp1755
(lp1756
s(S'Hydrogen Peroxide'
p1757
S'HRAS MRNA'
p1758
S'increases'
p1759
tp1760
(lp1761
s(S'RASA1'
p1762
S'P-EPHBS:EFNBS'
p1763
S'binds'
p1764
tp1765
(lp1766
s(S'SPI1'
p1767
S'CEBPG'
p1768
S'increases'
p1769
tp1770
(lp1771
s(S'EGR1'
p1772
S'LEF1'
p1773
S'increases'
p1774
tp1775
(lp1776
s(S'RET51/GFRALPHA1/GDNF'
p1777
S'P62DOK'
p1778
S'binds'
p1779
tp1780
(lp1781
s(S'TFDP2'
p1782
S'CYP26A1'
p1783
S'increases'
p1784
tp1785
(lp1786
s(S'matrine'
p1787
S'NRAS MRNA'
p1788
S'increases'
p1789
tp1790
(lp1791
s(S'Isotretinoin'
p1792
S'KRAS MRNA'
p1793
S'decreases'
p1794
tp1795
(lp1796
s(S'PITX2'
p1797
S'FOXF2'
p1798
S'increases'
p1799
tp1800
(lp1801
s(S'MYOD1'
p1802
S'POU2F1'
p1803
S'increases'
p1804
tp1805
(lp1806
s(S'sodium arsenite'
p1807
S'KRAS PROTEIN'
p1808
S'increases'
p1809
tp1810
(lp1811
s(S'TCF4'
p1812
S'CBFA2T3'
p1813
S'increases'
p1814
tp1815
(lp1816
s(S'CYP26A1'
p1817
S'FOXA1'
p1818
S'increases'
p1819
tp1820
(lp1821
s(S'TP53'
p1822
S'CYP26A1'
p1823
S'increases'
p1824
tp1825
(lp1826
s(S'ATF3'
p1827
S'FOXD3'
p1828
S'increases'
p1829
tp1830
(lp1831
s(S'POU2F1'
p1832
S'NRAS'
p1833
S'increases'
p1834
tp1835
(lp1836
s(S'NRF1'
p1837
S'GABPB2'
p1838
S'increases'
p1839
tp1840
(lp1841
s(S'PAX4'
p1842
S'TLX2'
p1843
S'increases'
p1844
tp1845
(lp1846
s(S'PITX2'
p1847
S'FOXA1'
p1848
S'increases'
p1849
tp1850
(lp1851
s(S'GTF3A'
p1852
S'POU2F1'
p1853
S'increases'
p1854
tp1855
(lp1856
s(S'HLF'
p1857
S'FOXO3'
p1858
S'increases'
p1859
tp1860
(lp1861
s(S'PAX4'
p1862
S'FOXO4'
p1863
S'increases'
p1864
tp1865
(lp1866
s(S'CEBPA'
p1867
S'FOXD3'
p1868
S'increases'
p1869
tp1870
(lp1871
s(S'NFE2'
p1872
S'CYP26A1'
p1873
S'increases'
p1874
tp1875
(lp1876
s(S'MYB'
p1877
S'GABPB2'
p1878
S'increases'
p1879
tp1880
(lp1881
s(S'MYC'
p1882
S'CEBPA'
p1883
S'increases'
p1884
tp1885
(lp1886
s(S'ELK1'
p1887
S'EN1'
p1888
S'increases'
p1889
tp1890
(lp1891
s(S'E2F1'
p1892
S'CDC5L'
p1893
S'increases'
p1894
tp1895
(lp1896
s(S'YWHAZ (DIMER)'
p1897
S'RAF1'
p1898
S'binds'
p1899
tp1900
(lp1901
s(S'ATF6'
p1902
S'CYP26A1'
p1903
S'increases'
p1904
tp1905
(lp1906
s(S'sodium arsenite'
p1907
S'HRAS MRNA'
p1908
S'increases'
p1909
tp1910
(lp1911
s(S'EGR3'
p1912
S'CYP26A1'
p1913
S'increases'
p1914
tp1915
(lp1916
s(S'lead acetate'
p1917
S'HRAS PROTEIN'
p1918
S'increases_activity'
p1919
tp1920
(lp1921
s(S'REPIN1'
p1922
S'MYC'
p1923
S'increases'
p1924
tp1925
(lp1926
s(S'CEBPA'
p1927
S'NRAS'
p1928
S'increases'
p1929
tp1930
(lp1931
s(S'Quercetin'
p1932
S'NRAS MRNA'
p1933
S'decreases'
p1934
tp1935
(lp1936
s(S'14-3-3 E'
p1937
S'TERT'
p1938
S'binds'
p1939
tp1940
(lp1941
s(S'Antigen/IgE/Fc epsilon R1/LYN/SYK'
p1942
S'BTK'
p1943
S'adds_modification'
p1944
tp1945
(lp1946
s(S'HSF2'
p1947
S'CBFA2T3'
p1948
S'increases'
p1949
tp1950
(lp1951
s(S'Fluorouracil'
p1952
S'HRAS MRNA'
p1953
S'increases'
p1954
tp1955
(lp1956
s(S'STAT4'
p1957
S'MECOM'
p1958
S'increases'
p1959
tp1960
(lp1961
s(S'ETS2'
p1962
S'ETS1'
p1963
S'increases'
p1964
tp1965
(lp1966
s(S'CEBPG'
p1967
S'CYP26A1'
p1968
S'increases'
p1969
tp1970
(lp1971
s(S'Complex (PDGF receptor A/PDGF receptor B)'
p1972
S'NCK'
p1973
S'adds_modification'
p1974
tp1975
(lp1976
s(S'Fog1'
p1977
S'MYB'
p1978
S'decreases'
p1979
tp1980
(lp1981
s(S'CREB1'
p1982
S'FOXD3'
p1983
S'increases'
p1984
tp1985
(lp1986
s(S'Numb'
p1987
S'NICS'
p1988
S'translocates'
p1989
tp1990
(lp1991
s(S'STAT6'
p1992
S'STAT5A'
p1993
S'increases'
p1994
tp1995
(lp1996
s(S'RAF1/14-3-3'
p1997
S'BRAF/14-3-3'
p1998
S'binds'
p1999
tp2000
(lp2001
s(S'B-cell antigen/BCR complex/LYN/SYK/BLNK'
p2002
S'SHC/GRB2/SOS1'
p2003
S'increases_activity'
p2004
tp2005
(lp2006
s(S'IRF2'
p2007
S'CYP26A1'
p2008
S'increases'
p2009
tp2010
(lp2011
s(S'GATA6'
p2012
S'CYP26A1'
p2013
S'increases'
p2014
tp2015
(lp2016
s(S'HMGA1'
p2017
S'CYP26A1'
p2018
S'increases'
p2019
tp2020
(lp2021
s(S'MTF1'
p2022
S'FOXO4'
p2023
S'increases'
p2024
tp2025
(lp2026
s(S'STAT1'
p2027
S'GABPB2'
p2028
S'increases'
p2029
tp2030
(lp2031
s(S'manumycin'
p2032
S'HRAS PROTEIN'
p2033
S'decreases'
p2034
tp2035
(lp2036
s(S'STAT5A'
p2037
S'ETS1'
p2038
S'increases'
p2039
tp2040
(lp2041
s(S'SPI1'
p2042
S'CBFA2T3'
p2043
S'increases'
p2044
tp2045
(lp2046
s(S'GMCSF/GMR ALPHA/CSF2RB/JAK2 (DODECAMER)/SHC'
p2047
S'GRB2/SOS1'
p2048
S'binds'
p2049
tp2050
(lp2051
s(S'7,8-Dihydro-7,8-dihydroxybenzo(a)pyrene 9,10-oxide'
p2052
S'NRAS PROTEIN'
p2053
S'increases'
p2054
tp2055
(lp2056
s(S'CDC5L'
p2057
S'CYP26A1'
p2058
S'increases'
p2059
tp2060
(lp2061
s(S'PAX4'
p2062
S'POU3F2'
p2063
S'increases'
p2064
tp2065
(lp2066
s(S'SPRED2'
p2067
S'HRAS'
p2068
S'binds'
p2069
tp2070
(lp2071
s(S'PITX2'
p2072
S'FOXO4'
p2073
S'increases'
p2074
tp2075
(lp2076
s(S'FOXD3'
p2077
S'CYP26A1'
p2078
S'increases'
p2079
tp2080
(lp2081
s(S'NFIL3'
p2082
S'FOXO3'
p2083
S'increases'
p2084
tp2085
(lp2086
s(S'MTF1'
p2087
S'POU2F1'
p2088
S'increases'
p2089
tp2090
(lp2091
s(S'TFCP2'
p2092
S'BACH1'
p2093
S'increases'
p2094
tp2095
(lp2096
s(S'NF1'
p2097
S'MECOM'
p2098
S'increases'
p2099
tp2100
(lp2101
s(S'FOXO3'
p2102
S'FOXD3'
p2103
S'increases'
p2104
tp2105
(lp2106
s(S'STAT5A'
p2107
S'TLX2'
p2108
S'increases'
p2109
tp2110
(lp2111
s(S'RIN1'
p2112
S'HRAS/GTP'
p2113
S'adds_modification'
p2114
tp2115
(lp2116
s(S'STAT5A'
p2117
S'CEBPG'
p2118
S'increases'
p2119
tp2120
(lp2121
s(S'DAG'
p2122
S'PKC'
p2123
S'increases_activity'
p2124
tp2125
(lp2126
S'Contraction of normal esophageal circular muscle (ESO) in response to acetylcholine (ACh) is linked to M2 muscarinic receptors activating at least three intracellular phospholipases, i.e., phosphatidylcholine-specific phospholipase C (PC-PLC), phospholipase D (PLD), and the high molecular weight (85 kDa) cytosolic phospholipase A2 (cPLA2) to induce phosphatidylcholine (PC) metabolism, production of diacylglycerol (DAG) and arachidonic acid (AA), resulting in activation of a protein kinase C (PKC)-dependent pathway.'
p2127
aS'Resting LES tone is associated with submaximal PI hydrolysis resulting in submaximal levels of inositol trisphosphate (IP3-induced Ca++ release, and interaction with DAG to activate PKC.'
p2128
as(S'HNF4A'
p2129
S'FOXA1'
p2130
S'increases'
p2131
tp2132
(lp2133
s(S'LEF1'
p2134
S'MAZ'
p2135
S'increases'
p2136
tp2137
(lp2138
s(S'hsa-miR-124-3p'
p2139
S'NRAS'
p2140
S'decreases'
p2141
tp2142
(lp2143
s(S'RAF1'
p2144
S'14-3-3 E'
p2145
S'binds'
p2146
tp2147
(lp2148
s(S'GATA1'
p2149
S'MYB'
p2150
S'decreases'
p2151
tp2152
(lp2153
s(S'LMO2'
p2154
S'GATA1'
p2155
S'increases'
p2156
tp2157
(lp2158
s(S'HRAS/GTP'
p2159
S'RAF1'
p2160
S'increases_activity'
p2161
tp2162
(lp2163
s(S'MYCN'
p2164
S'RUNX2'
p2165
S'increases'
p2166
tp2167
(lp2168
s(S'STAT5B'
p2169
S'CYP26A1'
p2170
S'increases'
p2171
tp2172
(lp2173
s(S'ZIC2'
p2174
S'MYCN'
p2175
S'increases'
p2176
tp2177
(lp2178
s(S'FOXL1'
p2179
S'FOXD3'
p2180
S'increases'
p2181
tp2182
(lp2183
s(S'ZBTB18'
p2184
S'CBFA2T3'
p2185
S'increases'
p2186
tp2187
(lp2188
s(S'HSF1'
p2189
S'IRF1'
p2190
S'increases'
p2191
tp2192
(lp2193
s(S'SPZ1'
p2194
S'MAZ'
p2195
S'increases'
p2196
tp2197
(lp2198
s(S'SRY'
p2199
S'CYP26A1'
p2200
S'increases'
p2201
tp2202
(lp2203
s(S'FOXO4'
p2204
S'HOXA9'
p2205
S'increases'
p2206
tp2207
(lp2208
s(S'IGF-1R heterotetramer/IGF1/IRS1/GRB2/Sos'
p2209
S'HRAS/GDP'
p2210
S'increases_activity'
p2211
tp2212
(lp2213
s(S'hsa-miR-615-3p'
p2214
S'HRAS'
p2215
S'decreases'
p2216
tp2217
(lp2218
s(S'ESRRA'
p2219
S'FOXD3'
p2220
S'increases'
p2221
tp2222
(lp2223
s(S'ELK1'
p2224
S'CYP26A1'
p2225
S'increases'
p2226
tp2227
(lp2228
s(S'Hexane-1,6-Diol'
p2229
S'HRAS'
p2230
S'increases_activity'
p2231
tp2232
(lp2233
s(S'MAZ'
p2234
S'NRAS'
p2235
S'increases'
p2236
tp2237
(lp2238
s(S'MIF'
p2239
S'CYP26A1'
p2240
S'increases'
p2241
tp2242
(lp2243
s(S'AHR'
p2244
S'POU2F1'
p2245
S'increases'
p2246
tp2247
(lp2248
s(S'SMAD3'
p2249
S'CYP26A1'
p2250
S'increases'
p2251
tp2252
(lp2253
s(S'PI-3-4-5-P3'
p2254
S'GELSOLIN'
p2255
S'binds'
p2256
tp2257
(lp2258
s(S'ADP'
p2259
S'P-S724-IRE1 DIMER'
p2260
S'binds'
p2261
tp2262
(lp2263
s(S'testosterone enanthate'
p2264
S'KRAS MRNA'
p2265
S'increases'
p2266
tp2267
(lp2268
s(S'CYP26A1'
p2269
S'ONECUT1'
p2270
S'increases'
p2271
tp2272
(lp2273
s(S'Valproic Acid'
p2274
S'NRAS MRNA'
p2275
S'decreases'
p2276
tp2277
(lp2278
s(S'GTF2A2'
p2279
S'CYP26A1'
p2280
S'increases'
p2281
tp2282
(lp2283
s(S'CEBPA'
p2284
S'FOXO3'
p2285
S'increases'
p2286
tp2287
(lp2288
s(S'GATA3'
p2289
S'POU2F1'
p2290
S'increases'
p2291
tp2292
(lp2293
s(S'PI3K'
p2294
S'RAC1B/GDP'
p2295
S'increases_activity'
p2296
tp2297
(lp2298
s(S'CDC25C'
p2299
S'YWHAB'
p2300
S'binds'
p2301
tp2302
(lp2303
s(S'RAC1/GTP'
p2304
S'PAK1/BETAPIX/PKL/NCK1-2'
p2305
S'increases_activity'
p2306
tp2307
(lp2308
s(S'SMAD1'
p2309
S'CYP26A1'
p2310
S'increases'
p2311
tp2312
(lp2313
s(S'PI3K'
p2314
S'FAK'
p2315
S'adds_modification'
p2316
tp2317
(lp2318
s(S'NRF1'
p2319
S'MAX'
p2320
S'increases'
p2321
tp2322
(lp2323
s(S'FOXI1'
p2324
S'RUNX2'
p2325
S'increases'
p2326
tp2327
(lp2328
s(S'7,8-Dihydro-7,8-dihydroxybenzo(a)pyrene 9,10-oxide'
p2329
S'HRAS MRNA'
p2330
S'increases'
p2331
tp2332
(lp2333
s(S'ETS1'
p2334
S'CBFA2T3'
p2335
S'increases'
p2336
tp2337
(lp2338
s(S'hsa-miR-98-5p'
p2339
S'NRAS'
p2340
S'decreases'
p2341
tp2342
(lp2343
s(S'PHOSPHORYLATED BRF1 (SER92, SER203):MRNA COMPLEX'
p2344
S'YWHAB'
p2345
S'binds'
p2346
tp2347
(lp2348
s(S'LMO2'
p2349
S'CYP26A1'
p2350
S'increases'
p2351
tp2352
(lp2353
s(S'SOS1'
p2354
S'GRB2:PFAK BOUND TO NCAM1:PFYN'
p2355
S'binds'
p2356
tp2357
(lp2358
s(S'GTF3A'
p2359
S'GATA6'
p2360
S'increases'
p2361
tp2362
(lp2363
s(S'ZIC2'
p2364
S'CYP26A1'
p2365
S'increases'
p2366
tp2367
(lp2368
s(S'PAX2'
p2369
S'POU3F2'
p2370
S'increases'
p2371
tp2372
(lp2373
s(S'CEBPD'
p2374
S'FOXO3'
p2375
S'increases'
p2376
tp2377
(lp2378
s(S'NF1'
p2379
S'CYP26A1'
p2380
S'increases'
p2381
tp2382
(lp2383
s(S'BRAF'
p2384
S'MEK2'
p2385
S'adds_modification'
p2386
tp2387
(lp2388
s(S'TFAP4'
p2389
S'RUNX1'
p2390
S'increases'
p2391
tp2392
(lp2393
s(S'FAK'
p2394
S'SOS'
p2395
S'binds'
p2396
tp2397
(lp2398
s(S'EGR1'
p2399
S'RUNX1'
p2400
S'increases'
p2401
tp2402
(lp2403
s(S'TCF4'
p2404
S'FOXO4'
p2405
S'increases'
p2406
tp2407
(lp2408
s(S'MAZ'
p2409
S'CBFA2T3'
p2410
S'increases'
p2411
tp2412
(lp2413
s(S'MEIS1'
p2414
S'HRAS'
p2415
S'increases'
p2416
tp2417
(lp2418
s(S'RELA'
p2419
S'CYP26A1'
p2420
S'increases'
p2421
tp2422
(lp2423
s(S'hsa-miR-877-3p'
p2424
S'NRAS'
p2425
S'decreases'
p2426
tp2427
(lp2428
s(S'MYC'
p2429
S'LEF1'
p2430
S'increases'
p2431
tp2432
(lp2433
s(S'FOXO4'
p2434
S'RUNX1'
p2435
S'increases'
p2436
tp2437
(lp2438
s(S'LEF1'
p2439
S'RUNX1'
p2440
S'increases'
p2441
tp2442
(lp2443
s(S'TFDP2'
p2444
S'GATA1'
p2445
S'increases'
p2446
tp2447
(lp2448
s(S'AHR'
p2449
S'CYP26A1'
p2450
S'increases'
p2451
tp2452
(lp2453
s(S'4-Nitroquinoline-1-oxide'
p2454
S'PTGS2 MRNA'
p2455
S'increases'
p2456
tp2457
(lp2458
s(S'TGIF'
p2459
S'FOXO3'
p2460
S'increases'
p2461
tp2462
(lp2463
s(S'FOXF2'
p2464
S'CEBPA'
p2465
S'increases'
p2466
tp2467
(lp2468
s(S'NFE2L1'
p2469
S'POU2F1'
p2470
S'increases'
p2471
tp2472
(lp2473
s(S'LHX3'
p2474
S'CYP26A1'
p2475
S'increases'
p2476
tp2477
(lp2478
s(S'HMGA1'
p2479
S'MEIS1'
p2480
S'increases'
p2481
tp2482
(lp2483
s(S'POU2F1'
p2484
S'CYP26A1'
p2485
S'increases'
p2486
tp2487
(lp2488
s(S'PRRX2'
p2489
S'HOXA9'
p2490
S'increases'
p2491
tp2492
(lp2493
s(S'ETS2'
p2494
S'CEBPG'
p2495
S'increases'
p2496
tp2497
(lp2498
s(S'hsa-miR-193b-3p'
p2499
S'KRAS'
p2500
S'decreases'
p2501
tp2502
(lp2503
s(S'RREB1'
p2504
S'RUNX1'
p2505
S'increases'
p2506
tp2507
(lp2508
s(S'IL2/IL2R BETA/GAMMA/JAK1/FYN/JAK3'
p2509
S'PI3K'
p2510
S'binds'
p2511
tp2512
(lp2513
s(S'ELK1'
p2514
S'MEIS1'
p2515
S'increases'
p2516
tp2517
(lp2518
s(S'CYP26A1'
p2519
S'HOXA9'
p2520
S'increases'
p2521
tp2522
(lp2523
s(S'SPZ1'
p2524
S'HOXA9'
p2525
S'increases'
p2526
tp2527
(lp2528
s(S'ERK1'
p2529
S'P-S218,222-MEK1'
p2530
S'binds'
p2531
tp2532
(lp2533
s(S'NHLH1'
p2534
S'MYC'
p2535
S'increases'
p2536
tp2537
(lp2538
s(S'Daunorubicin'
p2539
S'NRAS MRNA'
p2540
S'increases'
p2541
tp2542
(lp2543
s(S'HNF1A'
p2544
S'FOXA1'
p2545
S'increases'
p2546
tp2547
(lp2548
s(S'MYC'
p2549
S'ONECUT1'
p2550
S'increases'
p2551
tp2552
(lp2553
s(S'Vanadates'
p2554
S'HRAS PROTEIN'
p2555
S'increases'
p2556
tp2557
(lp2558
s(S'Purine nucleotide'
p2559
S'H+'
p2560
S'translocates'
p2561
tp2562
(lp2563
s(S'NFE2'
p2564
S'BACH1'
p2565
S'increases'
p2566
tp2567
(lp2568
s(S'EGR4'
p2569
S'CYP26A1'
p2570
S'increases'
p2571
tp2572
(lp2573
s(S'NRF1'
p2574
S'ONECUT1'
p2575
S'increases'
p2576
tp2577
(lp2578
s(S'GFI1'
p2579
S'HOXA9'
p2580
S'increases'
p2581
tp2582
(lp2583
s(S'NR1H4'
p2584
S'FOXD3'
p2585
S'increases'
p2586
tp2587
(lp2588
s(S'STAT6'
p2589
S'FOXA1'
p2590
S'increases'
p2591
tp2592
(lp2593
s(S'INSULIN RECEPTOR/INSULI/IRS1/GRB2/SHC'
p2594
S'SOS1'
p2595
S'binds'
p2596
tp2597
(lp2598
s(S'Tetrachlorodibenzodioxin'
p2599
S'KRAS MRNA'
p2600
S'increases'
p2601
tp2602
(lp2603
s(S'TCF3'
p2604
S'MYC'
p2605
S'increases'
p2606
tp2607
(lp2608
s(S'BACH1'
p2609
S'EN1'
p2610
S'increases'
p2611
tp2612
(lp2613
s(S'RFX1'
p2614
S'CYP26A1'
p2615
S'increases'
p2616
tp2617
(lp2618
s(S'ZEB1'
p2619
S'FOXD3'
p2620
S'increases'
p2621
tp2622
(lp2623
s(S'IRF7'
p2624
S'EN1'
p2625
S'increases'
p2626
tp2627
(lp2628
s(S'GAB2/GRB2/SOS1'
p2629
S'IL2/IL2R ALPHA/BETA/GAMMA/JAK1/LCK/JAK3/SHC'
p2630
S'binds'
p2631
tp2632
(lp2633
s(S'GATA3'
p2634
S'FOXA1'
p2635
S'increases'
p2636
tp2637
(lp2638
s(S'TFAP4'
p2639
S'CYP26A1'
p2640
S'increases'
p2641
tp2642
(lp2643
s(S'FOXF2'
p2644
S'MECOM'
p2645
S'increases'
p2646
tp2647
(lp2648
s(S'NF1'
p2649
S'POU2F1'
p2650
S'increases'
p2651
tp2652
(lp2653
s(S'IRF1'
p2654
S'FOXA1'
p2655
S'increases'
p2656
tp2657
(lp2658
s(S'Rho Family GTPase-active'
p2659
S'PIP5K1A'
p2660
S'increases_activity'
p2661
tp2662
(lp2663
s(S'POU6F1'
p2664
S'EN1'
p2665
S'increases'
p2666
tp2667
(lp2668
s(S'TCF4'
p2669
S'LEF1'
p2670
S'increases'
p2671
tp2672
(lp2673
s(S'MAZ'
p2674
S'FOXO3'
p2675
S'increases'
p2676
tp2677
(lp2678
s(S'POU3F2'
p2679
S'MECOM'
p2680
S'increases'
p2681
tp2682
(lp2683
s(S'GTF3A'
p2684
S'CYP26A1'
p2685
S'increases'
p2686
tp2687
(lp2688
s(S'PI-3-4-5-P3'
p2689
S'AKT2'
p2690
S'adds_modification'
p2691
tp2692
(lp2693
s(S'VSX1'
p2694
S'POU2F1'
p2695
S'increases'
p2696
tp2697
(lp2698
s(S'PHOSPHORYLATED TTP:MRNA COMPLEX'
p2699
S'YWHAB'
p2700
S'binds'
p2701
tp2702
(lp2703
s(S'MEIS1'
p2704
S'MYC'
p2705
S'increases'
p2706
tp2707
(lp2708
s(S'Complex (PDGF receptor A/PDGF receptor B)'
p2709
S'RASGAP'
p2710
S'adds_modification'
p2711
tp2712
(lp2713
s(S'RORA'
p2714
S'CYP26A1'
p2715
S'increases'
p2716
tp2717
(lp2718
s(S'ATF4'
p2719
S'CDC5L'
p2720
S'increases'
p2721
tp2722
(lp2723
s(S'SHC/RasGAP'
p2724
S'RAS FAMILY/GTP'
p2725
S'increases_activity'
p2726
tp2727
(lp2728
s(S'NKX2-1'
p2729
S'MYC'
p2730
S'increases'
p2731
tp2732
(lp2733
s(S'NF1'
p2734
S'SRF'
p2735
S'increases'
p2736
tp2737
(lp2738
s(S'STAT4'
p2739
S'NRAS'
p2740
S'increases'
p2741
tp2742
(lp2743
s(S'POU6F1'
p2744
S'MEIS1'
p2745
S'increases'
p2746
tp2747
(lp2748
s(S'P-KIT COMPLEX'
p2749
S'GRB2:SOS1'
p2750
S'binds'
p2751
tp2752
(lp2753
s(S'MYCN'
p2754
S'MAX'
p2755
S'increases'
p2756
tp2757
(lp2758
s(S'STAT5A'
p2759
S'CYP26A1'
p2760
S'increases'
p2761
tp2762
(lp2763
s(S'GATA3'
p2764
S'EN1'
p2765
S'increases'
p2766
tp2767
(lp2768
s(S'E4F1'
p2769
S'FOXD3'
p2770
S'increases'
p2771
tp2772
(lp2773
s(S'MYB'
p2774
S'ONECUT1'
p2775
S'increases'
p2776
tp2777
(lp2778
s(S'Cadmium Chloride'
p2779
S'NRAS PROTEIN'
p2780
S'increases'
p2781
tp2782
(lp2783
s(S'Deoxycholic Acid'
p2784
S'HRAS PROTEIN'
p2785
S'increases_activity'
p2786
tp2787
(lp2788
s(S'HLF'
p2789
S'CYP26A1'
p2790
S'increases'
p2791
tp2792
(lp2793
s(S'GMCSF/GMR ALPHA/CSF2RB/JAK2 (DIMER)'
p2794
S'YWHAZ'
p2795
S'binds'
p2796
tp2797
(lp2798
s(S'HNF1A'
p2799
S'FOXF2'
p2800
S'increases'
p2801
tp2802
(lp2803
s(S'FOXF2'
p2804
S'GATA6'
p2805
S'increases'
p2806
tp2807
(lp2808
s(S'Arsenic'
p2809
S'GSS PROTEIN'
p2810
S'increases'
p2811
tp2812
(lp2813
s(S'COMPLEX (SOS/GRB2)'
p2814
S'FGFR1-4'
p2815
S'binds'
p2816
tp2817
(lp2818
s(S'MYOD1'
p2819
S'NRAS'
p2820
S'increases'
p2821
tp2822
(lp2823
s(S'MECOM'
p2824
S'CYP26A1'
p2825
S'increases'
p2826
tp2827
(lp2828
s(S'PBX1'
p2829
S'CYP26A1'
p2830
S'increases'
p2831
tp2832
(lp2833
s(S'MAZ'
p2834
S'MEIS1'
p2835
S'increases'
p2836
tp2837
(lp2838
s(S'PAX4'
p2839
S'ELK1'
p2840
S'increases'
p2841
tp2842
(lp2843
s(S'ESRRA'
p2844
S'MECOM'
p2845
S'increases'
p2846
tp2847
(lp2848
s(S'CEBPD'
p2849
S'TLX2'
p2850
S'increases'
p2851
tp2852
(lp2853
s(S'CRX'
p2854
S'FOXA1'
p2855
S'increases'
p2856
tp2857
(lp2858
s(S'GABPB1'
p2859
S'NRAS'
p2860
S'increases'
p2861
tp2862
(lp2863
s(S'CRX'
p2864
S'MEIS1'
p2865
S'increases'
p2866
tp2867
(lp2868
s(S'pirinixic acid/PPARA protein'
p2869
S'KRAS MRNA'
p2870
S'increases'
p2871
tp2872
(lp2873
s(S'BACH2'
p2874
S'FOXA1'
p2875
S'increases'
p2876
tp2877
(lp2878
s(S'JUN'
p2879
S'MECOM'
p2880
S'increases'
p2881
tp2882
(lp2883
s(S'7,8-Dihydro-7,8-dihydroxybenzo(a)pyrene 9,10-oxide'
p2884
S'KRAS MRNA'
p2885
S'decreases'
p2886
tp2887
(lp2888
s(S'SRY'
p2889
S'FOXO4'
p2890
S'increases'
p2891
tp2892
(lp2893
s(S'PI3K'
p2894
S'AKT1'
p2895
S'adds_modification'
p2896
tp2897
(lp2898
s(S'GATA3'
p2899
S'CYP26A1'
p2900
S'increases'
p2901
tp2902
(lp2903
s(S'RAS:GTP'
p2904
S'P-EPHBS:EFNBS:RASA1'
p2905
S'binds'
p2906
tp2907
(lp2908
s(S'STAT5A'
p2909
S'MECOM'
p2910
S'increases'
p2911
tp2912
(lp2913
s(S'RAS family/GTP'
p2914
S'RAF1'
p2915
S'increases_activity'
p2916
tp2917
(lp2918
s(S'RHOA/GTP'
p2919
S'PLD1-2'
p2920
S'increases_activity'
p2921
tp2922
(lp2923
s(S'FOXJ2'
p2924
S'CYP26A1'
p2925
S'increases'
p2926
tp2927
(lp2928
s(S'LEF1'
p2929
S'MECOM'
p2930
S'increases'
p2931
tp2932
(lp2933
s(S'GABPB2'
p2934
S'CDC5L'
p2935
S'increases'
p2936
tp2937
(lp2938
s(S'ESRRA'
p2939
S'CYP26A1'
p2940
S'increases'
p2941
tp2942
(lp2943
s(S'PI-3-4-5-P3'
p2944
S'WAVE2/NAP1/SRA1/ABI1/HSPC300'
p2945
S'translocates'
p2946
tp2947
(lp2948
s(S'CUX1'
p2949
S'MECOM'
p2950
S'increases'
p2951
tp2952
(lp2953
s(S'MAX'
p2954
S'CYP26A1'
p2955
S'increases'
p2956
tp2957
(lp2958
s(S'RXRB'
p2959
S'FOXD3'
p2960
S'increases'
p2961
tp2962
(lp2963
s(S'IRF1'
p2964
S'NRAS'
p2965
S'increases'
p2966
tp2967
(lp2968
s(S'MECOM'
p2969
S'MAX'
p2970
S'increases'
p2971
tp2972
(lp2973
s(S'PAX6'
p2974
S'CYP26A1'
p2975
S'increases'
p2976
tp2977
(lp2978
s(S'GRB2/SOS1'
p2979
S'EGFR/EGFR/EGF/EGF/P46 SHC'
p2980
S'binds'
p2981
tp2982
(lp2983
s(S'POU6F1'
p2984
S'POU2F1'
p2985
S'increases'
p2986
tp2987
(lp2988
s(S'RUNX1'
p2989
S'MYOD1'
p2990
S'increases'
p2991
tp2992
(lp2993
s(S'COMPLEX (GRB2/SOS)'
p2994
S'EGFR'
p2995
S'binds'
p2996
tp2997
(lp2998
s(S'MAZ'
p2999
S'MECOM'
p3000
S'increases'
p3001
tp3002
(lp3003
s(S'REPIN1'
p3004
S'EN1'
p3005
S'increases'
p3006
tp3007
(lp3008
s(S'RAS family/GTP'
p3009
S'RAF1'
p3010
S'adds_modification'
p3011
tp3012
(lp3013
s(S'E4F1'
p3014
S'CYP26A1'
p3015
S'increases'
p3016
tp3017
(lp3018
s(S'Rac'
p3019
S'MEKK1-5'
p3020
S'adds_modification'
p3021
tp3022
(lp3023
s(S'HAND1'
p3024
S'CYP26A1'
p3025
S'increases'
p3026
tp3027
(lp3028
s(S'Quercetin'
p3029
S'NRAS PROTEIN'
p3030
S'decreases'
p3031
tp3032
(lp3033
s(S'HRAS:GTP'
p3034
S'CRAF'
p3035
S'binds'
p3036
tp3037
(lp3038
s(S'REPIN1'
p3039
S'FOXA1'
p3040
S'increases'
p3041
tp3042
(lp3043
s(S'hsa-miR-155-5p'
p3044
S'KRAS'
p3045
S'decreases'
p3046
tp3047
(lp3048
s(S'PAX4'
p3049
S'EN1'
p3050
S'increases'
p3051
tp3052
(lp3053
s(S'FOXN1'
p3054
S'JUN'
p3055
S'increases'
p3056
tp3057
(lp3058
s(S'TFCP2'
p3059
S'GATA1'
p3060
S'increases'
p3061
tp3062
(lp3063
s(S'SHC'
p3064
S'GRAP2'
p3065
S'binds'
p3066
tp3067
(lp3068
s(S'CEBPG'
p3069
S'NRAS'
p3070
S'increases'
p3071
tp3072
(lp3073
s(S'FOXN1'
p3074
S'FOXO4'
p3075
S'increases'
p3076
tp3077
(lp3078
s(S'IL2/IL2R ALPHA/BETA/GAMMA/JAK1/LCK/JAK3/IRS1-2'
p3079
S'PI3K'
p3080
S'binds'
p3081
tp3082
(lp3083
s(S'POU1F1'
p3084
S'EN1'
p3085
S'increases'
p3086
tp3087
(lp3088
s(S'FOXJ1'
p3089
S'POU2F1'
p3090
S'increases'
p3091
tp3092
(lp3093
s(S'YY1'
p3094
S'POU2F1'
p3095
S'increases'
p3096
tp3097
(lp3098
s(S'7,8-Dihydro-7,8-dihydroxybenzo(a)pyrene 9,10-oxide'
p3099
S'NRAS MRNA'
p3100
S'increases'
p3101
tp3102
(lp3103
s(S'EGF/EGFR'
p3104
S'HRAS/GDP'
p3105
S'increases_activity'
p3106
tp3107
(lp3108
s(S'TFAP4'
p3109
S'GABPB2'
p3110
S'increases'
p3111
tp3112
(lp3113
s(S'TFAP2A'
p3114
S'POU3F2'
p3115
S'increases'
p3116
tp3117
(lp3118
s(S'TCF12'
p3119
S'CBFA2T3'
p3120
S'increases'
p3121
tp3122
(lp3123
s(S'STAT3'
p3124
S'IRF1'
p3125
S'increases'
p3126
tp3127
(lp3128
s(S'MYOD1'
p3129
S'GATA1'
p3130
S'increases'
p3131
tp3132
(lp3133
s(S'REPIN1'
p3134
S'HRAS'
p3135
S'increases'
p3136
tp3137
(lp3138
s(S'PAX4'
p3139
S'MAX'
p3140
S'increases'
p3141
tp3142
(lp3143
s(S'PAX2'
p3144
S'FOXA1'
p3145
S'increases'
p3146
tp3147
(lp3148
s(S'Lipopolysaccharides'
p3149
S'HRAS PROTEIN'
p3150
S'increases_activity'
p3151
tp3152
(lp3153
s(S'7,8-Dihydro-7,8-dihydroxybenzo(a)pyrene 9,10-oxide'
p3154
S'KRAS MRNA'
p3155
S'increases'
p3156
tp3157
(lp3158
s(S'REPIN1'
p3159
S'GATA1'
p3160
S'increases'
p3161
tp3162
(lp3163
s(S'Formaldehyde'
p3164
S'HRAS MRNA'
p3165
S'increases'
p3166
tp3167
(lp3168
s(S'ESRRA'
p3169
S'STAT5A'
p3170
S'increases'
p3171
tp3172
(lp3173
s(S'farnesylthiosalicylic acid'
p3174
S'HRAS PROTEIN'
p3175
S'decreases'
p3176
tp3177
(lp3178
s(S'JUN'
p3179
S'RUNX1'
p3180
S'increases'
p3181
tp3182
(lp3183
s(S'FOXD3'
p3184
S'RUNX1'
p3185
S'increases'
p3186
tp3187
(lp3188
s(S'SOX9'
p3189
S'CYP26A1'
p3190
S'increases'
p3191
tp3192
(lp3193
s(S'hexabromocyclododecane'
p3194
S'HRAS MRNA'
p3195
S'increases'
p3196
tp3197
(lp3198
s(S'RUNX2'
p3199
S'KRAS'
p3200
S'increases'
p3201
tp3202
(lp3203
s(S'PGR'
p3204
S'CYP26A1'
p3205
S'increases'
p3206
tp3207
(lp3208
s(S'CYP26A1'
p3209
S'MAZ'
p3210
S'increases'
p3211
tp3212
(lp3213
s(S'RAC1/GTP'
p3214
S'AKT1'
p3215
S'adds_modification'
p3216
tp3217
(lp3218
s(S'FOXO3'
p3219
S'CYP26A1'
p3220
S'increases'
p3221
tp3222
(lp3223
s(S'MAX'
p3224
S'SRF'
p3225
S'increases'
p3226
tp3227
(lp3228
s(S'RUNX2'
p3229
S'NRAS'
p3230
S'increases'
p3231
tp3232
(lp3233
s(S'HSF2'
p3234
S'CYP26A1'
p3235
S'increases'
p3236
tp3237
(lp3238
s(S'IL2/IL2R ALPHA/BETA/GAMMA/JAK1/LCK/JAK3/SHC/GRB2/SOS1/GAB2/SHP2'
p3239
S'PI3K'
p3240
S'binds'
p3241
tp3242
(lp3243
s(S'SPI1'
p3244
S'STAT5A'
p3245
S'increases'
p3246
tp3247
(lp3248
s(S'ZHX2'
p3249
S'MYC'
p3250
S'increases'
p3251
tp3252
(lp3253
s(S'RAF1-BRAF'
p3254
S'MEK1-2'
p3255
S'increases_activity'
p3256
tp3257
(lp3258
s(S'SHC'
p3259
S'GRB2'
p3260
S'binds'
p3261
tp3262
(lp3263
s(S'RB1'
p3264
S'GATA1'
p3265
S'increases'
p3266
tp3267
(lp3268
s(S'TCF3'
p3269
S'FOXJ2'
p3270
S'increases'
p3271
tp3272
(lp3273
s(S'FOXJ2'
p3274
S'NRAS'
p3275
S'increases'
p3276
tp3277
(lp3278
s(S'REPIN1'
p3279
S'LEF1'
p3280
S'increases'
p3281
tp3282
(lp3283
s(S'Aflatoxin B1'
p3284
S'HRAS MRNA'
p3285
S'increases'
p3286
tp3287
(lp3288
s(S'PAX4'
p3289
S'MEIS1'
p3290
S'increases'
p3291
tp3292
(lp3293
s(S'FOXF2'
p3294
S'FOXD3'
p3295
S'increases'
p3296
tp3297
(lp3298
s(S'CBFA2T3'
p3299
S'RUNX1'
p3300
S'increases'
p3301
tp3302
(lp3303
s(S'FOXC1'
p3304
S'HOXA9'
p3305
S'increases'
p3306
tp3307
(lp3308
s(S'DBP'
p3309
S'CYP26A1'
p3310
S'increases'
p3311
tp3312
(lp3313
s(S'TGIF'
p3314
S'EN1'
p3315
S'increases'
p3316
tp3317
(lp3318
s(S'PI-3-4-5-P3'
p3319
S'P62DOK'
p3320
S'adds_modification'
p3321
tp3322
(lp3323
s(S'JUN'
p3324
S'TLX2'
p3325
S'increases'
p3326
tp3327
(lp3328
s(S'Benzo(a)pyrene'
p3329
S'HRAS MRNA'
p3330
S'increases'
p3331
tp3332
(lp3333
s(S'STAT4'
p3334
S'CYP26A1'
p3335
S'increases'
p3336
tp3337
(lp3338
s(S'EGFR/EGFR/EGF/EGF'
p3339
S'SRC'
p3340
S'adds_modification'
p3341
tp3342
(lp3343
s(S'FOXQ1'
p3344
S'FOXD3'
p3345
S'increases'
p3346
tp3347
(lp3348
s(S'FOXJ1'
p3349
S'NRAS'
p3350
S'increases'
p3351
tp3352
(lp3353
s(S'TCF3'
p3354
S'POU2F1'
p3355
S'increases'
p3356
tp3357
(lp3358
s(S'MYB'
p3359
S'CYP26A1'
p3360
S'increases'
p3361
tp3362
(lp3363
s(S'GATA4'
p3364
S'CYP26A1'
p3365
S'increases'
p3366
tp3367
(lp3368
s(S'ELK1'
p3369
S'STAT4'
p3370
S'increases'
p3371
tp3372
(lp3373
s(S'CYP26A1'
p3374
S'LEF1'
p3375
S'increases'
p3376
tp3377
(lp3378
s(S"Guanosine-5'-Diphosphate"
p3379
S'HRAS'
p3380
S'increases_activity'
p3381
tp3382
(lp3383
s(S'ETV4'
p3384
S'CYP26A1'
p3385
S'increases'
p3386
tp3387
(lp3388
s(S'EPHRIN B/EPHB2'
p3389
S'RASGAP'
p3390
S'binds'
p3391
tp3392
(lp3393
s(S'ESR1'
p3394
S'FOXF2'
p3395
S'increases'
p3396
tp3397
(lp3398
s(S'CDC5L'
p3399
S'FOXA1'
p3400
S'increases'
p3401
tp3402
(lp3403
s(S'MAZ'
p3404
S'HOXA9'
p3405
S'increases'
p3406
tp3407
(lp3408
s(S'HIF1A'
p3409
S'MAX'
p3410
S'increases'
p3411
tp3412
(lp3413
s(S'FOXN1'
p3414
S'HOXA9'
p3415
S'increases'
p3416
tp3417
(lp3418
s(S'LEF1'
p3419
S'BACH1'
p3420
S'increases'
p3421
tp3422
(lp3423
s(S'PDX1'
p3424
S'FOXO3'
p3425
S'increases'
p3426
tp3427
(lp3428
s(S'CBFA2T3'
p3429
S'CYP26A1'
p3430
S'increases'
p3431
tp3432
(lp3433
s(S'Rabex5'
p3434
S'HRAS/GTP'
p3435
S'adds_modification'
p3436
tp3437
(lp3438
s(S'CBFA2T3'
p3439
S'RUNX2'
p3440
S'increases'
p3441
tp3442
(lp3443
s(S'PI-3-4-5-P3'
p3444
S'ARAP3'
p3445
S'translocates'
p3446
tp3447
(lp3448
s(S'CART1'
p3449
S'CYP26A1'
p3450
S'increases'
p3451
tp3452
(lp3453
s(S'Arsenic'
p3454
S'NRAS MRNA'
p3455
S'increases'
p3456
tp3457
(lp3458
s(S'NRF1'
p3459
S'CDC5L'
p3460
S'increases'
p3461
tp3462
(lp3463
s(S'Quercetin'
p3464
S'HRAS PROTEIN'
p3465
S'decreases'
p3466
tp3467
(lp3468
s(S"N,N'-DIMETHYL-N-(ACETYL)-N'-(7-NITROBENZ-2-OXA-1,3-DIAZOL-4-YL)ETHYLENEDIAMINE"
p3469
S'HRAS'
p3470
S'increases_activity'
p3471
tp3472
(lp3473
s(S'TFDP1'
p3474
S'FOXD3'
p3475
S'increases'
p3476
tp3477
(lp3478
s(S'AR'
p3479
S'TLX2'
p3480
S'increases'
p3481
tp3482
(lp3483
s(S'hsa-miR-181c-5p'
p3484
S'KRAS'
p3485
S'decreases'
p3486
tp3487
(lp3488
s(S'SMAD3'
p3489
S'CBFA2T3'
p3490
S'increases'
p3491
tp3492
(lp3493
s(S'HOXA9'
p3494
S'NRAS'
p3495
S'increases'
p3496
tp3497
(lp3498
s(S'PITX2'
p3499
S'CYP26A1'
p3500
S'increases'
p3501
tp3502
(lp3503
s(S'ATF3'
p3504
S'CYP26A1'
p3505
S'increases'
p3506
tp3507
(lp3508
s(S'E2F1'
p3509
S'MAZ'
p3510
S'increases'
p3511
tp3512
(lp3513
s(S'Ethyl Methanesulfonate'
p3514
S'HRAS MRNA'
p3515
S'increases'
p3516
tp3517
(lp3518
s(S'LMO2'
p3519
S'FOXA1'
p3520
S'increases'
p3521
tp3522
(lp3523
s(S'FOXC1'
p3524
S'POU2F1'
p3525
S'increases'
p3526
tp3527
(lp3528
s(S'DDIT3'
p3529
S'CYP26A1'
p3530
S'increases'
p3531
tp3532
(lp3533
s(S'PAX8'
p3534
S'CYP26A1'
p3535
S'increases'
p3536
tp3537
(lp3538
s(S'LHX3'
p3539
S'EN1'
p3540
S'increases'
p3541
tp3542
(lp3543
s(S'KAT2B'
p3544
S'CYP26A1'
p3545
S'increases'
p3546
tp3547
(lp3548
s(S'P100'
p3549
S'MYB'
p3550
S'binds'
p3551
tp3552
(lp3553
s(S'SOX9'
p3554
S'FOXA1'
p3555
S'increases'
p3556
tp3557
(lp3558
s(S'HIF1A'
p3559
S'EN1'
p3560
S'increases'
p3561
tp3562
(lp3563
s(S'REPIN1'
p3564
S'RUNX1'
p3565
S'increases'
p3566
tp3567
(lp3568
s(S'MYOD1'
p3569
S'BACH1'
p3570
S'increases'
p3571
tp3572
(lp3573
s(S'EBF2'
p3574
S'REPIN1'
p3575
S'increases'
p3576
tp3577
(lp3578
s(S'bisphenol A'
p3579
S'HRAS MRNA'
p3580
S'increases'
p3581
tp3582
(lp3583
s(S'E2F1'
p3584
S'EN1'
p3585
S'increases'
p3586
tp3587
(lp3588
s(S'MYC/Max/MIZ-1'
p3589
S'GALECTIN-1'
p3590
S'decreases'
p3591
tp3592
(lp3593
s(S'PI-3-4-5-P3'
p3594
S'WAVE2/NAP1/SRA1/ABI1/HSPC300'
p3595
S'adds_modification'
p3596
tp3597
(lp3598
s(S'FOXF2'
p3599
S'FOXO3'
p3600
S'increases'
p3601
tp3602
(lp3603
s(S'REPIN1'
p3604
S'STAT5A'
p3605
S'increases'
p3606
tp3607
(lp3608
s(S'RUNX1'
p3609
S'NRAS'
p3610
S'increases'
p3611
tp3612
(lp3613
s(S'benzo(a)pyrene 7,8-dihydrodiol'
p3614
S'HRAS MRNA'
p3615
S'increases'
p3616
tp3617
(lp3618
s(S'RAC1/GTP'
p3619
S'PAK1 (DIMER)'
p3620
S'adds_modification'
p3621
tp3622
(lp3623
s(S'PAX4'
p3624
S'POU2F1'
p3625
S'increases'
p3626
tp3627
(lp3628
s(S'MYOD1'
p3629
S'CBFA2T3'
p3630
S'increases'
p3631
tp3632
(lp3633
s(S'STAT5A'
p3634
S'RUNX2'
p3635
S'increases'
p3636
tp3637
(lp3638
s(S'EBF2'
p3639
S'FOXJ2'
p3640
S'increases'
p3641
tp3642
(lp3643
s(S'Estradiol'
p3644
S'KRAS MRNA'
p3645
S'increases'
p3646
tp3647
(lp3648
s(S'RXRB'
p3649
S'CYP26A1'
p3650
S'increases'
p3651
tp3652
(lp3653
s(S'bisphenol A'
p3654
S'KRAS MRNA'
p3655
S'decreases'
p3656
tp3657
(lp3658
s(S'COMPLEX (GRB2/SOS)'
p3659
S'FGFR1-4'
p3660
S'binds'
p3661
tp3662
(lp3663
s(S'POU2F1'
p3664
S'RUNX1'
p3665
S'increases'
p3666
tp3667
(lp3668
s(S'TCF3'
p3669
S'TLX2'
p3670
S'increases'
p3671
tp3672
(lp3673
s(S'SPZ1'
p3674
S'POU2F1'
p3675
S'increases'
p3676
tp3677
(lp3678
s(S'TFAP4'
p3679
S'FOXO4'
p3680
S'increases'
p3681
tp3682
(lp3683
s(S'OR5I1'
p3684
S'MECOM'
p3685
S'increases'
p3686
tp3687
(lp3688
s(S'Rho Family GTPase-active'
p3689
S'JNK1'
p3690
S'adds_modification'
p3691
tp3692
(lp3693
s(S'TFDP1'
p3694
S'POU2F1'
p3695
S'increases'
p3696
tp3697
(lp3698
s(S'AHR'
p3699
S'MAX'
p3700
S'increases'
p3701
tp3702
(lp3703
s(S'BACH1'
p3704
S'CYP26A1'
p3705
S'increases'
p3706
tp3707
(lp3708
s(S'ZBTB14'
p3709
S'MAZ'
p3710
S'increases'
p3711
tp3712
(lp3713
s(S'TCF3'
p3714
S'FOXO4'
p3715
S'increases'
p3716
tp3717
(lp3718
s(S'MASTERMIND'
p3719
S'NICS'
p3720
S'binds'
p3721
tp3722
(lp3723
s(S'BPTF'
p3724
S'FOXO4'
p3725
S'increases'
p3726
tp3727
(lp3728
s(S'MYOD1'
p3729
S'RUNX1'
p3730
S'increases'
p3731
tp3732
(lp3733
s(S'JUN'
p3734
S'CYP26A1'
p3735
S'increases'
p3736
tp3737
(lp3738
s(S'BPTF'
p3739
S'CYP26A1'
p3740
S'increases'
p3741
tp3742
(lp3743
s(S'POU3F1'
p3744
S'CYP26A1'
p3745
S'increases'
p3746
tp3747
(lp3748
s(S'NRF1'
p3749
S'CYP26A1'
p3750
S'increases'
p3751
tp3752
(lp3753
s(S'TFAP2C'
p3754
S'POU3F2'
p3755
S'increases'
p3756
tp3757
(lp3758
s(S'NFAT1-C-4-INACTIVE2'
p3759
S'YWHAQ'
p3760
S'binds'
p3761
tp3762
(lp3763
s(S'STAT6'
p3764
S'ONECUT1'
p3765
S'increases'
p3766
tp3767
(lp3768
s(S'RUNX1'
p3769
S'RUNX2'
p3770
S'increases'
p3771
tp3772
(lp3773
s(S'ZIC3'
p3774
S'MYCN'
p3775
S'increases'
p3776
tp3777
(lp3778
s(S'CYP26A1'
p3779
S'MAX'
p3780
S'increases'
p3781
tp3782
(lp3783
s(S'ETS2'
p3784
S'FOXO4'
p3785
S'increases'
p3786
tp3787
(lp3788
s(S'GATA6'
p3789
S'FOXA1'
p3790
S'increases'
p3791
tp3792
(lp3793
s(S'Doxorubicin'
p3794
S'HRAS MRNA'
p3795
S'increases'
p3796
tp3797
(lp3798
s(S'PPARA'
p3799
S'HOXA9'
p3800
S'increases'
p3801
tp3802
(lp3803
s(S'REPIN1'
p3804
S'GABPB2'
p3805
S'increases'
p3806
tp3807
(lp3808
s(S'FOXN1'
p3809
S'FOXA1'
p3810
S'increases'
p3811
tp3812
(lp3813
s(S'Dronabinol'
p3814
S'KRAS MRNA'
p3815
S'increases'
p3816
tp3817
(lp3818
s(S'FOXO1'
p3819
S'RUNX1'
p3820
S'increases'
p3821
tp3822
(lp3823
s(S'SMAD4'
p3824
S'HOXA9'
p3825
S'increases'
p3826
tp3827
(lp3828
s(S'PAX4'
p3829
S'JUN'
p3830
S'increases'
p3831
tp3832
(lp3833
s(S'Raf-1'
p3834
S'MEK'
p3835
S'adds_modification'
p3836
tp3837
(lp3838
s(S'PIM1'
p3839
S'MYC/MAX'
p3840
S'binds'
p3841
tp3842
(lp3843
s(S'YY1'
p3844
S'MECOM'
p3845
S'increases'
p3846
tp3847
(lp3848
s(S'NRF1'
p3849
S'MAZ'
p3850
S'increases'
p3851
tp3852
(lp3853
s(S'GATA1'
p3854
S'MECOM'
p3855
S'increases'
p3856
tp3857
(lp3858
s(S'PDGF/PDGFRA'
p3859
S'SHC/GRB2/SOS1'
p3860
S'increases_activity'
p3861
tp3862
(lp3863
s(S'GRB2/SOS1'
p3864
S'FAK'
p3865
S'binds'
p3866
tp3867
(lp3868
s(S'HNF4A'
p3869
S'HOXA9'
p3870
S'increases'
p3871
tp3872
(lp3873
s(S'FOXA2'
p3874
S'CYP26A1'
p3875
S'increases'
p3876
tp3877
(lp3878
s(S'FOXI1'
p3879
S'CYP26A1'
p3880
S'increases'
p3881
tp3882
(lp3883
s(S'GRB2 BOUND TO TIE2'
p3884
S'SOS1'
p3885
S'binds'
p3886
tp3887
(lp3888
s(S'PHOSPHORYLATED BRF1 (SER54, SER92, SER203):MRNA COMPLEX'
p3889
S'YWHAB'
p3890
S'binds'
p3891
tp3892
(lp3893
s(S'COMPLEX (GRB2/SOS)'
p3894
S'GAB'
p3895
S'binds'
p3896
tp3897
(lp3898
s(S'NFE2'
p3899
S'TLX2'
p3900
S'increases'
p3901
tp3902
(lp3903
s(S'MAX'
p3904
S'FOXF2'
p3905
S'increases'
p3906
tp3907
(lp3908
s(S'GRB2:SOS1'
p3909
S'ACTIVATED FGFR:P-FRS2'
p3910
S'binds'
p3911
tp3912
(lp3913
s(S'FOXO4'
p3914
S'MECOM'
p3915
S'increases'
p3916
tp3917
(lp3918
s(S'TCF3'
p3919
S'LEF1'
p3920
S'increases'
p3921
tp3922
(lp3923
s(S'ZIC1'
p3924
S'LEF1'
p3925
S'increases'
p3926
tp3927
(lp3928
s(S'NFIL3'
p3929
S'CYP26A1'
p3930
S'increases'
p3931
tp3932
(lp3933
s(S'RAF1'
p3934
S'MEK1'
p3935
S'increases_activity'
p3936
tp3937
(lp3938
s(S'AR'
p3939
S'FOXA1'
p3940
S'increases'
p3941
tp3942
(lp3943
s(S'POU2F1'
p3944
S'POU3F2'
p3945
S'increases'
p3946
tp3947
(lp3948
s(S'PCBP1'
p3949
S'MAZ'
p3950
S'increases'
p3951
tp3952
(lp3953
s(S'LEF1'
p3954
S'HOXA9'
p3955
S'increases'
p3956
tp3957
(lp3958
s(S'NR6A1'
p3959
S'CYP26A1'
p3960
S'increases'
p3961
tp3962
(lp3963
s(S'PI3K'
p3964
S'BTK'
p3965
S'translocates'
p3966
tp3967
(lp3968
s(S'AHR'
p3969
S'RUNX1'
p3970
S'increases'
p3971
tp3972
(lp3973
s(S'NR1H4'
p3974
S'CYP26A1'
p3975
S'increases'
p3976
tp3977
(lp3978
s(S'NR2F2'
p3979
S'CYP26A1'
p3980
S'increases'
p3981
tp3982
(lp3983
s(S'GNB1/GNG2'
p3984
S'PI3K'
p3985
S'binds'
p3986
tp3987
(lp3988
s(S'RHOA/GTP'
p3989
S'PKN2'
p3990
S'increases_activity'
p3991
tp3992
(lp3993
s(S'MAZ'
p3994
S'LEF1'
p3995
S'increases'
p3996
tp3997
(lp3998
s(S'RFX1'
p3999
S'MECOM'
p4000
S'increases'
p4001
tp4002
(lp4003
s(S'RUNX1'
p4004
S'HOXA9'
p4005
S'increases'
p4006
tp4007
(lp4008
s(S'FOXL1'
p4009
S'POU2F1'
p4010
S'increases'
p4011
tp4012
(lp4013
s(S'GRB2:SOS1'
p4014
S'PHOSPHORYLATED ERBB2:EGFR HETERODIMERS'
p4015
S'binds'
p4016
tp4017
(lp4018
s(S'TFAP4'
p4019
S'MYCN'
p4020
S'increases'
p4021
tp4022
(lp4023
s(S'E2F1'
p4024
S'GATA1'
p4025
S'increases'
p4026
tp4027
(lp4028
s(S'PTF1A'
p4029
S'GATA6'
p4030
S'increases'
p4031
tp4032
(lp4033
s(S'REL'
p4034
S'CYP26A1'
p4035
S'increases'
p4036
tp4037
(lp4038
s(S'MTF1'
p4039
S'JUN'
p4040
S'increases'
p4041
tp4042
(lp4043
s(S'ZEB1'
p4044
S'REPIN1'
p4045
S'increases'
p4046
tp4047
(lp4048
s(S'IRF8'
p4049
S'GATA6'
p4050
S'increases'
p4051
tp4052
(lp4053
s(S'P-Y349,350-SHC1:PHOSPHORYLATED ERBB2 HETERODIMERS'
p4054
S'GRB2:SOS1'
p4055
S'binds'
p4056
tp4057
(lp4058
s(S'BACH2'
p4059
S'EN1'
p4060
S'increases'
p4061
tp4062
(lp4063
s(S'GFI1'
p4064
S'MEIS1'
p4065
S'increases'
p4066
tp4067
(lp4068
s(S'FOXN1'
p4069
S'LEF1'
p4070
S'increases'
p4071
tp4072
(lp4073
s(S'CYP26A1'
p4074
S'JUN'
p4075
S'increases'
p4076
tp4077
(lp4078
s(S'TCF3'
p4079
S'ONECUT1'
p4080
S'increases'
p4081
tp4082
(lp4083
s(S'FOXF2'
p4084
S'POU2F1'
p4085
S'increases'
p4086
tp4087
(lp4088
s(S'MAZ'
p4089
S'MAX'
p4090
S'increases'
p4091
tp4092
(lp4093
s(S'FOXN1'
p4094
S'CYP26A1'
p4095
S'increases'
p4096
tp4097
(lp4098
s(S'HNF1A'
p4099
S'FOXD3'
p4100
S'increases'
p4101
tp4102
(lp4103
s(S'EGR2'
p4104
S'RUNX1'
p4105
S'increases'
p4106
tp4107
(lp4108
s(S'MYC'
p4109
S'RUNX2'
p4110
S'increases'
p4111
tp4112
(lp4113
s(S'TFAP2A'
p4114
S'IRF1'
p4115
S'increases'
p4116
tp4117
(lp4118
s(S'FOXO4'
p4119
S'YY1'
p4120
S'increases'
p4121
tp4122
(lp4123
s(S'VEGFR2 (dimer)/VEGFA (dimer)'
p4124
S'SRC'
p4125
S'adds_modification'
p4126
tp4127
(lp4128
s(S'resveratrol'
p4129
S'KRAS MRNA'
p4130
S'decreases'
p4131
tp4132
(lp4133
s(S'FOXO4'
p4134
S'CYP26A1'
p4135
S'increases'
p4136
tp4137
(lp4138
s(S'STAT3'
p4139
S'FOXO4'
p4140
S'increases'
p4141
tp4142
(lp4143
s(S'GRB2/SOS1'
p4144
S'FRS2 FAMILY/SHP2'
p4145
S'binds'
p4146
tp4147
(lp4148
s(S'LEF1'
p4149
S'CYP26A1'
p4150
S'increases'
p4151
tp4152
(lp4153
s(S'GTF2A2'
p4154
S'SRF'
p4155
S'increases'
p4156
tp4157
(lp4158
s(S'PPARA'
p4159
S'STAT5A'
p4160
S'increases'
p4161
tp4162
(lp4163
s(S'hsa-miR-143-3p'
p4164
S'KRAS'
p4165
S'decreases'
p4166
tp4167
(lp4168
s(S'GFI1'
p4169
S'CYP26A1'
p4170
S'increases'
p4171
tp4172
(lp4173
s(S'RAC1/GTP'
p4174
S'MKK4-MKK7'
p4175
S'increases_activity'
p4176
tp4177
(lp4178
s(S'REPIN1'
p4179
S'ETS1'
p4180
S'increases'
p4181
tp4182
(lp4183
s(S'ZIC1'
p4184
S'GATA6'
p4185
S'increases'
p4186
tp4187
(lp4188
s(S'INTERLEUKIN RECEPTOR COMPLEXES WITH ACTIVATED SHC1'
p4189
S'GRB2:SOS1'
p4190
S'binds'
p4191
tp4192
(lp4193
s(S'Selenium'
p4194
S'HRAS MRNA'
p4195
S'increases'
p4196
tp4197
(lp4198
s(S'HOXA4'
p4199
S'CYP26A1'
p4200
S'increases'
p4201
tp4202
(lp4203
s(S'NKX2-1'
p4204
S'POU2F1'
p4205
S'increases'
p4206
tp4207
(lp4208
s(S'VSX1'
p4209
S'MAX'
p4210
S'increases'
p4211
tp4212
(lp4213
s(S'FOXD1'
p4214
S'FOXD3'
p4215
S'increases'
p4216
tp4217
(lp4218
s(S'MAX'
p4219
S'NRAS'
p4220
S'increases'
p4221
tp4222
(lp4223
s(S'HOXA9'
p4224
S'TCF3'
p4225
S'increases'
p4226
tp4227
(lp4228
s(S'IRF1'
p4229
S'CYP26A1'
p4230
S'increases'
p4231
tp4232
(lp4233
s(S'HRAS'
p4234
S'RAF1'
p4235
S'adds_modification'
p4236
tp4237
(lp4238
s(S'CUX1'
p4239
S'HOXA9'
p4240
S'increases'
p4241
tp4242
(lp4243
s(S'ZHX2'
p4244
S'FOXA1'
p4245
S'increases'
p4246
tp4247
(lp4248
s(S'TFDP1'
p4249
S'MYC'
p4250
S'increases'
p4251
tp4252
(lp4253
s(S'RAC1/GTP'
p4254
S'PAK1'
p4255
S'increases_activity'
p4256
tp4257
(lp4258
s(S'AHR'
p4259
S'MAZ'
p4260
S'increases'
p4261
tp4262
(lp4263
s(S'BRAF/14-3-3'
p4264
S'KSR/14-3-3 /MEK1-2'
p4265
S'increases_activity'
p4266
tp4267
(lp4268
s(S'PPARA'
p4269
S'CYP26A1'
p4270
S'increases'
p4271
tp4272
(lp4273
s(S'REPIN1'
p4274
S'SRF'
p4275
S'increases'
p4276
tp4277
(lp4278
s(S'PAX5'
p4279
S'SRF'
p4280
S'increases'
p4281
tp4282
(lp4283
s(S'PAX4'
p4284
S'FOXJ2'
p4285
S'increases'
p4286
tp4287
(lp4288
s(S'REPIN1'
p4289
S'MYCN'
p4290
S'increases'
p4291
tp4292
(lp4293
s(S'RALA/GTP'
p4294
S'SRC'
p4295
S'adds_modification'
p4296
tp4297
(lp4298
s(S'FOXO4'
p4299
S'ETS1'
p4300
S'increases'
p4301
tp4302
(lp4303
s(S'TFDP1'
p4304
S'CDC5L'
p4305
S'increases'
p4306
tp4307
(lp4308
s(S'TFDP1'
p4309
S'CYP26A1'
p4310
S'increases'
p4311
tp4312
(lp4313
s(S'GATA6'
p4314
S'RUNX2'
p4315
S'increases'
p4316
tp4317
(lp4318
s(S'FOXM1'
p4319
S'CYP26A1'
p4320
S'increases'
p4321
tp4322
(lp4323
s(S'sodium arsenite'
p4324
S'HRAS PROTEIN'
p4325
S'increases'
p4326
tp4327
(lp4328
s(S'STAT5A'
p4329
S'RUNX1'
p4330
S'increases'
p4331
tp4332
(lp4333
s(S'CEBPA'
p4334
S'EN1'
p4335
S'increases'
p4336
tp4337
(lp4338
s(S'MSX1'
p4339
S'POU2F1'
p4340
S'increases'
p4341
tp4342
(lp4343
s(S'NHLH1'
p4344
S'CBFA2T3'
p4345
S'increases'
p4346
tp4347
(lp4348
s(S'Parathion'
p4349
S'HRAS PROTEIN'
p4350
S'increases'
p4351
tp4352
(lp4353
s(S'SMAD4'
p4354
S'CYP26A1'
p4355
S'increases'
p4356
tp4357
(lp4358
s(S'E2F1'
p4359
S'MYC'
p4360
S'increases'
p4361
tp4362
(lp4363
s(S'CYP26A1'
p4364
S'FOXO3'
p4365
S'increases'
p4366
tp4367
(lp4368
s(S'TCF3'
p4369
S'CBFA2T3'
p4370
S'increases'
p4371
tp4372
(lp4373
s(S'ZHX2'
p4374
S'FOXF2'
p4375
S'increases'
p4376
tp4377
(lp4378
s(S'POU2F1'
p4379
S'MECOM'
p4380
S'increases'
p4381
tp4382
(lp4383
s(S'CYP26A1'
p4384
S'POU2F1'
p4385
S'increases'
p4386
tp4387
(lp4388
s(S'MYOD1'
p4389
S'CYP26A1'
p4390
S'increases'
p4391
tp4392
(lp4393
s(S'RAF'
p4394
S'COMPLEX (RAS/GTP)'
p4395
S'binds'
p4396
tp4397
(lp4398
s(S'RET51/GFRalpha1/GDNF/DOK1'
p4399
S'HRAS/GDP'
p4400
S'increases_activity'
p4401
tp4402
(lp4403
s(S'MAFG'
p4404
S'CYP26A1'
p4405
S'increases'
p4406
tp4407
(lp4408
s(S'CRX'
p4409
S'CYP26A1'
p4410
S'increases'
p4411
tp4412
(lp4413
s(S'hsa-miR-126-3p'
p4414
S'KRAS'
p4415
S'decreases'
p4416
tp4417
(lp4418
s(S'EBF2'
p4419
S'CYP26A1'
p4420
S'increases'
p4421
tp4422
(lp4423
s(S'RUNX1'
p4424
S'CYP26A1'
p4425
S'increases'
p4426
tp4427
(lp4428
s(S'HOXA5'
p4429
S'FOXA1'
p4430
S'increases'
p4431
tp4432
(lp4433
s(S'benzo(a)pyrene-3,6-quinone'
p4434
S'HRAS MRNA'
p4435
S'increases'
p4436
tp4437
(lp4438
s(S'K 7174'
p4439
S'HRAS MRNA'
p4440
S'decreases'
p4441
tp4442
(lp4443
s(S'LEF1'
p4444
S'NRAS'
p4445
S'increases'
p4446
tp4447
(lp4448
s(S'SPI1'
p4449
S'FOXA1'
p4450
S'increases'
p4451
tp4452
(lp4453
s(S'hsa-let-7b-5p'
p4454
S'NRAS'
p4455
S'decreases'
p4456
tp4457
(lp4458
s(S'CEBPA'
p4459
S'JUN'
p4460
S'increases'
p4461
tp4462
(lp4463
s(S'GABPB2'
p4464
S'CYP26A1'
p4465
S'increases'
p4466
tp4467
(lp4468
s(S'PI-3-4-5-P3'
p4469
S'MTOR'
p4470
S'increases_activity'
p4471
tp4472
(lp4473
s(S'GRB2:SOS1'
p4474
S'EGF:P-6Y-EGFR'
p4475
S'binds'
p4476
tp4477
(lp4478
s(S'HNF1A'
p4479
S'CYP26A1'
p4480
S'increases'
p4481
tp4482
(lp4483
s(S'HIF1A'
p4484
S'FOXO4'
p4485
S'increases'
p4486
tp4487
(lp4488
s(S'FOXJ1'
p4489
S'HOXA9'
p4490
S'increases'
p4491
tp4492
(lp4493
s(S'hsa-miR-96-5p'
p4494
S'KRAS'
p4495
S'decreases'
p4496
tp4497
(lp4498
s(S'SRC'
p4499
S'SYNDECAN-2/RASGAP'
p4500
S'binds'
p4501
tp4502
(lp4503
s(S'FOXA1'
p4504
S'MEIS1'
p4505
S'increases'
p4506
tp4507
(lp4508
s(S'LEF1'
p4509
S'MEIS1'
p4510
S'increases'
p4511
tp4512
(lp4513
s(S'PAX3'
p4514
S'CYP26A1'
p4515
S'increases'
p4516
tp4517
(lp4518
s(S'PAX4'
p4519
S'HOXA9'
p4520
S'increases'
p4521
tp4522
(lp4523
s(S'hsa-miR-18a-3p'
p4524
S'KRAS'
p4525
S'decreases'
p4526
tp4527
(lp4528
s(S'FOXF2'
p4529
S'EN1'
p4530
S'increases'
p4531
tp4532
(lp4533
s(S'Pyk2'
p4534
S'SRC FAMILY KINASES'
p4535
S'increases_activity'
p4536
tp4537
(lp4538
s(S'TP53'
p4539
S'HOXA9'
p4540
S'increases'
p4541
tp4542
(lp4543
s(S'Genistein'
p4544
S'KRAS MRNA'
p4545
S'decreases'
p4546
tp4547
(lp4548
s(S'POU1F1'
p4549
S'CYP26A1'
p4550
S'increases'
p4551
tp4552
(lp4553
s(S'manumycin'
p4554
S'KRAS PROTEIN'
p4555
S'decreases_activity'
p4556
tp4557
(lp4558
s(S'Ginkgo biloba extract 761'
p4559
S'GCLC PROTEIN'
p4560
S'increases'
p4561
tp4562
(lp4563
s(S'GATA1'
p4564
S'NRAS'
p4565
S'increases'
p4566
tp4567
(lp4568
s(S'CBFA2T3'
p4569
S'FOXF2'
p4570
S'increases'
p4571
tp4572
(lp4573
s(S'PCBP1'
p4574
S'ELK1'
p4575
S'increases'
p4576
tp4577
(lp4578
s(S'MYC'
p4579
S'FOXF2'
p4580
S'increases'
p4581
tp4582
(lp4583
s(S'hsa-mir-622'
p4584
S'KRAS'
p4585
S'decreases'
p4586
tp4587
(lp4588
s(S'TCF3'
p4589
S'MAZ'
p4590
S'increases'
p4591
tp4592
(lp4593
s(S'STAT2'
p4594
S'MEIS1'
p4595
S'increases'
p4596
tp4597
(lp4598
s(S'CYP26A1'
p4599
S'YY1'
p4600
S'increases'
p4601
tp4602
(lp4603
s(S'CYP26A1'
p4604
S'EN1'
p4605
S'increases'
p4606
tp4607
(lp4608
s(S'GRB2/SOS1'
p4609
S'SHC'
p4610
S'binds'
p4611
tp4612
(lp4613
s(S'BAD'
p4614
S'YWHAZ'
p4615
S'binds'
p4616
tp4617
(lp4618
s(S'SPI1'
p4619
S'MAX'
p4620
S'increases'
p4621
tp4622
(lp4623
s(S'PI-3-4-5-P3'
p4624
S'CENTA1'
p4625
S'translocates'
p4626
tp4627
(lp4628
s(S'XBP1'
p4629
S'CYP26A1'
p4630
S'increases'
p4631
tp4632
(lp4633
s(S'PAX4'
p4634
S'NRAS'
p4635
S'increases'
p4636
tp4637
(lp4638
s(S'PI3K'
p4639
S'EPHRIN A1/EPHA2'
p4640
S'binds'
p4641
tp4642
(lp4643
s(S'POU1F1'
p4644
S'MEIS1'
p4645
S'increases'
p4646
tp4647
(lp4648
s(S'NR3C1'
p4649
S'ETS1'
p4650
S'increases'
p4651
tp4652
(lp4653
s(S'MAZ'
p4654
S'POU3F2'
p4655
S'increases'
p4656
tp4657
(lp4658
s(S'Estradiol'
p4659
S'HRAS MRNA'
p4660
S'increases'
p4661
tp4662
(lp4663
s(S'Aflatoxin B1'
p4664
S'HRAS PROTEIN'
p4665
S'increases'
p4666
tp4667
(lp4668
s(S'ETV7'
p4669
S'STAT4'
p4670
S'increases'
p4671
tp4672
(lp4673
s(S'PBX1'
p4674
S'LEF1'
p4675
S'increases'
p4676
tp4677
(lp4678
s(S'CEBPB'
p4679
S'CYP26A1'
p4680
S'increases'
p4681
tp4682
(lp4683
s(S'MAZ'
p4684
S'JUN'
p4685
S'increases'
p4686
tp4687
(lp4688
s(S'FOXF2'
p4689
S'MYC'
p4690
S'increases'
p4691
tp4692
(lp4693
s(S'FOXJ2'
p4694
S'HOXA9'
p4695
S'increases'
p4696
tp4697
(lp4698
s(S'Capsaicin'
p4699
S'HRAS MRNA'
p4700
S'increases'
p4701
tp4702
(lp4703
s(S'POU3F1'
p4704
S'GATA6'
p4705
S'increases'
p4706
tp4707
(lp4708
s(S'EIF2A'
p4709
S'14-3-3 E'
p4710
S'binds'
p4711
tp4712
(lp4713
s(S'RAS family/GTP'
p4714
S'RAF1-BRAF'
p4715
S'increases_activity'
p4716
tp4717
(lp4718
s(S'GATA6'
p4719
S'GATA1'
p4720
S'increases'
p4721
tp4722
(lp4723
s(S'RASA1'
p4724
S'PHOSPHO PDGF BETA RECEPTOR: PDGF CHAIN B HOMODIMER'
p4725
S'binds'
p4726
tp4727
(lp4728
s(S'CART1'
p4729
S'POU2F1'
p4730
S'increases'
p4731
tp4732
(lp4733
s(S'ZIC3'
p4734
S'POU2F1'
p4735
S'increases'
p4736
tp4737
(lp4738
s(S'TCF4'
p4739
S'FOXA1'
p4740
S'increases'
p4741
tp4742
(lp4743
s(S'PKC theta'
p4744
S'RASGRP1'
p4745
S'adds_modification'
p4746
tp4747
(lp4748
s(S'PTF1A'
p4749
S'STAT5A'
p4750
S'increases'
p4751
tp4752
(lp4753
s(S'SPI1'
p4754
S'FOXO4'
p4755
S'increases'
p4756
tp4757
(lp4758
s(S'HNF1A'
p4759
S'GATA6'
p4760
S'increases'
p4761
tp4762
(lp4763
s(S'FOXJ1'
p4764
S'RUNX1'
p4765
S'increases'
p4766
tp4767
(lp4768
s(S'STAT2'
p4769
S'GATA6'
p4770
S'increases'
p4771
tp4772
(lp4773
s(S'RAS FAMILY/GTP'
p4774
S'PI3K'
p4775
S'binds'
p4776
tp4777
(lp4778
s(S'PAX4'
p4779
S'IRF1'
p4780
S'increases'
p4781
tp4782
(lp4783
s(S'PAX3'
p4784
S'HOXA9'
p4785
S'increases'
p4786
tp4787
(lp4788
s(S'MYB'
p4789
S'MAZ'
p4790
S'increases'
p4791
tp4792
(lp4793
s(S"Guanosine-5'-Triphosphate"
p4794
S'HRAS'
p4795
S'increases_activity'
p4796
tp4797
(lp4798
s(S'alpha9/beta1 Integrin/Tenascin C'
p4799
S'SRC'
p4800
S'adds_modification'
p4801
tp4802
(lp4803
s(S'RAF1'
p4804
S'MEK1'
p4805
S'adds_modification'
p4806
tp4807
(lp4808
s(S'JUN'
p4809
S'FOXA1'
p4810
S'increases'
p4811
tp4812
(lp4813
s(S'NFE2L2'
p4814
S'BACH1'
p4815
S'increases'
p4816
tp4817
(lp4818
s(S'CUX1'
p4819
S'FOXD3'
p4820
S'increases'
p4821
tp4822
(lp4823
s(S'JUN'
p4824
S'EN1'
p4825
S'increases'
p4826
tp4827
(lp4828
s(S'ESR1'
p4829
S'CYP26A1'
p4830
S'increases'
p4831
tp4832
(lp4833
s(S'ESRRA'
p4834
S'FOXA1'
p4835
S'increases'
p4836
tp4837
(lp4838
s(S'POU2F1'
p4839
S'MEIS1'
p4840
S'increases'
p4841
tp4842
(lp4843
s(S'TFCP2'
p4844
S'FOXA1'
p4845
S'increases'
p4846
tp4847
(lp4848
s(S'PI-3-4-5-P3'
p4849
S'PDK1'
p4850
S'increases_activity'
p4851
tp4852
(lp4853
s(S'TCF3'
p4854
S'FOXA1'
p4855
S'increases'
p4856
tp4857
(lp4858
s(S'STAT3'
p4859
S'CYP26A1'
p4860
S'increases'
p4861
tp4862
(lp4863
s(S'CYP26A1'
p4864
S'POU3F2'
p4865
S'increases'
p4866
tp4867
(lp4868
s(S'Curcumin'
p4869
S'KRAS MRNA'
p4870
S'decreases'
p4871
tp4872
(lp4873
s(S'STAT1'
p4874
S'CYP26A1'
p4875
S'increases'
p4876
tp4877
(lp4878
s(S'GFI1'
p4879
S'POU2F1'
p4880
S'increases'
p4881
tp4882
(lp4883
s(S'ZIC1'
p4884
S'POU2F1'
p4885
S'increases'
p4886
tp4887
(lp4888
s(S'PI-3-4-5-P3'
p4889
S'AKT3'
p4890
S'adds_modification'
p4891
tp4892
(lp4893
s(S'BACH1'
p4894
S'NRAS'
p4895
S'increases'
p4896
tp4897
(lp4898
s(S'SCF/KIT'
p4899
S'SHC/GRB2/SOS1'
p4900
S'increases_activity'
p4901
tp4902
(lp4903
s(S'CDX2'
p4904
S'CYP26A1'
p4905
S'increases'
p4906
tp4907
(lp4908
s(S'RET51/GFRalpha1/GDNF/DOK/RasGAP/NCK'
p4909
S'HRAS/GDP'
p4910
S'decreases_activity'
p4911
tp4912
(lp4913
s(S'BETAPIX'
p4914
S'RAC1/GTP'
p4915
S'binds'
p4916
tp4917
(lp4918
s(S'RHOA/GTP'
p4919
S'CITRON'
p4920
S'increases_activity'
p4921
tp4922
(lp4923
s(S'P-SHC1:GRB2:SOS'
p4924
S'P-5Y-LAT-2'
p4925
S'binds'
p4926
tp4927
(lp4928
s(S'PAX4'
p4929
S'CYP26A1'
p4930
S'increases'
p4931
tp4932
(lp4933
s(S'TCF3'
p4934
S'KRAS'
p4935
S'increases'
p4936
tp4937
(lp4938
s(S'GRB2:SOS1'
p4939
S'PHOSPHORYLATED ERBB2:ERBB4 HETERODIMERS'
p4940
S'binds'
p4941
tp4942
(lp4943
s(S'CDX2'
p4944
S'MEIS1'
p4945
S'increases'
p4946
tp4947
(lp4948
s(S'SP3'
p4949
S'RUNX1'
p4950
S'increases'
p4951
tp4952
(lp4953
s(S'REST'
p4954
S'CYP26A1'
p4955
S'increases'
p4956
tp4957
(lp4958
s(S'PTF1A'
p4959
S'CYP26A1'
p4960
S'increases'
p4961
tp4962
(lp4963
s(S'PI-3-4-5-P3'
p4964
S'PI3K/GAB1'
p4965
S'translocates'
p4966
tp4967
(lp4968
s(S'LMO2'
p4969
S'FOXO4'
p4970
S'increases'
p4971
tp4972
(lp4973
s(S'STAT4'
p4974
S'ETS1'
p4975
S'increases'
p4976
tp4977
(lp4978
s(S'GTF2A2'
p4979
S'HOXA9'
p4980
S'increases'
p4981
tp4982
(lp4983
s(S'FOXF2'
p4984
S'POU3F2'
p4985
S'increases'
p4986
tp4987
(lp4988
s(S'GATA1'
p4989
S'GABPB2'
p4990
S'increases'
p4991
tp4992
(lp4993
s(S'Polychlorinated Biphenyls'
p4994
S'KRAS MRNA'
p4995
S'decreases'
p4996
tp4997
(lp4998
s(S'GRB2/SOS1'
p4999
S'EGF/EGFR DIMER/SHC'
p5000
S'binds'
p5001
tp5002
(lp5003
s(S'CYP26A1'
p5004
S'FOXF2'
p5005
S'increases'
p5006
tp5007
(lp5008
s(S'EGR1'
p5009
S'CYP26A1'
p5010
S'increases'
p5011
tp5012
(lp5013
s(S'MAX'
p5014
S'FOXO3'
p5015
S'increases'
p5016
tp5017
(lp5018
s(S'T-DHT/AR/PELP1'
p5019
S'SRC'
p5020
S'binds'
p5021
tp5022
(lp5023
s(S'CUX1'
p5024
S'FOXF2'
p5025
S'increases'
p5026
tp5027
(lp5028
s(S'CEBPD'
p5029
S'CYP26A1'
p5030
S'increases'
p5031
tp5032
(lp5033
s(S'CBFA2T3'
p5034
S'NRAS'
p5035
S'increases'
p5036
tp5037
(lp5038
s(S'Cisplatin'
p5039
S'HRAS MRNA'
p5040
S'translocates'
p5041
tp5042
(lp5043
s(S'BAD/BCL-X(L)'
p5044
S'YWHAZ'
p5045
S'binds'
p5046
tp5047
(lp5048
s(S'GATA1'
p5049
S'FOXA1'
p5050
S'increases'
p5051
tp5052
(lp5053
s(S'RREB1'
p5054
S'CYP26A1'
p5055
S'increases'
p5056
tp5057
(lp5058
s(S'STAT4'
p5059
S'RUNX2'
p5060
S'increases'
p5061
tp5062
(lp5063
s(S'FOXD3'
p5064
S'NRAS'
p5065
S'increases'
p5066
tp5067
(lp5068
s(S'NDEL1'
p5069
S'14-3-3 E'
p5070
S'binds'
p5071
tp5072
(lp5073
s(S'CYP26A1'
p5074
S'REPIN1'
p5075
S'increases'
p5076
tp5077
(lp5078
s(S'MAF'
p5079
S'CDC5L'
p5080
S'increases'
p5081
tp5082
(lp5083
s(S'CYP26A1'
p5084
S'ELK1'
p5085
S'increases'
p5086
tp5087
(lp5088
s(S'MYC'
p5089
S'FOXD3'
p5090
S'increases'
p5091
tp5092
(lp5093
s(S'MAX'
p5094
S'FOXD3'
p5095
S'increases'
p5096
tp5097
(lp5098
s(S'POU1F1'
p5099
S'GATA6'
p5100
S'increases'
p5101
tp5102
(lp5103
s(S'POU2F1'
p5104
S'STAT4'
p5105
S'increases'
p5106
tp5107
(lp5108
s(S'GTF3A'
p5109
S'FOXO3'
p5110
S'increases'
p5111
tp5112
(lp5113
s(S'MYB'
p5114
S'FOXF2'
p5115
S'increases'
p5116
tp5117
(lp5118
s(S'ZIC3'
p5119
S'CYP26A1'
p5120
S'increases'
p5121
tp5122
(lp5123
s(S'POU2F1'
p5124
S'EN1'
p5125
S'increases'
p5126
tp5127
(lp5128
s(S'JUN'
p5129
S'STAT1'
p5130
S'increases'
p5131
tp5132
(lp5133
s(S'TEF'
p5134
S'CYP26A1'
p5135
S'increases'
p5136
tp5137
(lp5138
s(S'MAF'
p5139
S'CYP26A1'
p5140
S'increases'
p5141
tp5142
(lp5143
s(S'PAX4'
p5144
S'GATA6'
p5145
S'increases'
p5146
tp5147
(lp5148
s(S'ZIC2'
p5149
S'GATA6'
p5150
S'increases'
p5151
tp5152
(lp5153
s(S'hsa-miR-181d-5p'
p5154
S'HRAS'
p5155
S'decreases'
p5156
tp5157
(lp5158
s(S'BACH2'
p5159
S'CYP26A1'
p5160
S'increases'
p5161
tp5162
(lp5163
s(S'TCF12'
p5164
S'CYP26A1'
p5165
S'increases'
p5166
tp5167
(lp5168
s(S'GATA1'
p5169
S'FOXO4'
p5170
S'increases'
p5171
tp5172
(lp5173
s(S'RFX1'
p5174
S'FOXD3'
p5175
S'increases'
p5176
tp5177
(lp5178
s(S'FOXJ1'
p5179
S'CYP26A1'
p5180
S'increases'
p5181
tp5182
(lp5183
s(S'GTF2A2'
p5184
S'POU2F1'
p5185
S'increases'
p5186
tp5187
(lp5188
s(S'YY1'
p5189
S'SRF'
p5190
S'increases'
p5191
tp5192
(lp5193
s(S'AHR'
p5194
S'REPIN1'
p5195
S'increases'
p5196
tp5197
(lp5198
s(S'MAZ'
p5199
S'CYP26A1'
p5200
S'increases'
p5201
tp5202
(lp5203
s(S'Quercetin'
p5204
S'HRAS MRNA'
p5205
S'increases'
p5206
tp5207
(lp5208
s(S'ELK1'
p5209
S'NRAS'
p5210
S'increases'
p5211
tp5212
(lp5213
s(S'HIF1A'
p5214
S'ONECUT1'
p5215
S'increases'
p5216
tp5217
(lp5218
s(S'FOXF2'
p5219
S'CYP26A1'
p5220
S'increases'
p5221
tp5222
(lp5223
s(S'SOX9'
p5224
S'ETS1'
p5225
S'increases'
p5226
tp5227
(lp5228
s(S'HSF1'
p5229
S'JUN'
p5230
S'increases'
p5231
tp5232
(lp5233
s(S'CEBPA'
p5234
S'CYP26A1'
p5235
S'increases'
p5236
tp5237
(lp5238
s(S'NR1H4'
p5239
S'MEIS1'
p5240
S'increases'
p5241
tp5242
(lp5243
s(S'SMAD1'
p5244
S'GATA1'
p5245
S'increases'
p5246
tp5247
(lp5248
s(S'Quercetin'
p5249
S'HRAS MRNA'
p5250
S'decreases'
p5251
tp5252
(lp5253
s(S'Glycyrrhetinic Acid'
p5254
S'HRAS PROTEIN'
p5255
S'decreases'
p5256
tp5257
(lp5258
s(S'HOXA4'
p5259
S'POU2F1'
p5260
S'increases'
p5261
tp5262
(lp5263
s(S'FOXQ1'
p5264
S'CYP26A1'
p5265
S'increases'
p5266
tp5267
(lp5268
s(S'FOXI1'
p5269
S'CEBPA'
p5270
S'increases'
p5271
tp5272
(lp5273
s(S'GTF3A'
p5274
S'MYCN'
p5275
S'increases'
p5276
tp5277
(lp5278
s(S'LMO2'
p5279
S'IRF1'
p5280
S'increases'
p5281
tp5282
(lp5283
s(S'FOXO1'
p5284
S'CYP26A1'
p5285
S'increases'
p5286
tp5287
(lp5288
s(S'Copper Sulfate'
p5289
S'NRAS MRNA'
p5290
S'increases'
p5291
tp5292
(lp5293
s(S'TFAP2A'
p5294
S'CYP26A1'
p5295
S'increases'
p5296
tp5297
(lp5298
s(S'FOXJ1'
p5299
S'EN1'
p5300
S'increases'
p5301
tp5302
(lp5303
s(S'MEIS1'
p5304
S'RUNX1'
p5305
S'increases'
p5306
tp5307
(lp5308
s(S'MAZ'
p5309
S'FOXA1'
p5310
S'increases'
p5311
tp5312
(lp5313
s(S'ETS1'
p5314
S'FOXO4'
p5315
S'increases'
p5316
tp5317
(lp5318
s(S'ZBTB14'
p5319
S'FOXD3'
p5320
S'increases'
p5321
tp5322
(lp5323
s(S'FOXC1'
p5324
S'LEF1'
p5325
S'increases'
p5326
tp5327
(lp5328
s(S'IRF1'
p5329
S'EN1'
p5330
S'increases'
p5331
tp5332
(lp5333
s(S'NR3C1'
p5334
S'CYP26A1'
p5335
S'increases'
p5336
tp5337
(lp5338
s(S'VSX1'
p5339
S'BACH1'
p5340
S'increases'
p5341
tp5342
(lp5343
s(S'CYP26A1'
p5344
S'ETS1'
p5345
S'increases'
p5346
tp5347
(lp5348
s(S'CEBPA'
p5349
S'MEIS1'
p5350
S'increases'
p5351
tp5352
(lp5353
s(S'ELF1'
p5354
S'FOXO4'
p5355
S'increases'
p5356
tp5357
(lp5358
s(S'RXRA'
p5359
S'CYP26A1'
p5360
S'increases'
p5361
tp5362
(lp5363
s(S'CREB1'
p5364
S'CYP26A1'
p5365
S'increases'
p5366
tp5367
(lp5368
s(S'IRF7'
p5369
S'GATA6'
p5370
S'increases'
p5371
tp5372
(lp5373
s(S'ZEB1'
p5374
S'CYP26A1'
p5375
S'increases'
p5376
tp5377
(lp5378
s(S'AR'
p5379
S'CYP26A1'
p5380
S'increases'
p5381
tp5382
(lp5383
s(S'TFDP2'
p5384
S'MYC'
p5385
S'increases'
p5386
tp5387
(lp5388
s(S'hsa-mir-217'
p5389
S'KRAS'
p5390
S'decreases'
p5391
tp5392
(lp5393
s(S'MEK'
p5394
S'ERK'
p5395
S'adds_modification'
p5396
tp5397
(lp5398
S"A number of agents designed to inhibit the kinase components of those\nsignaling pathways, including mitogen-activated protein kinase kinase (MEK)-extracellular\nsignal-regulated kinase kinase (ERK) and phosphatidylinositol 3'-kinase (PI3K)/Akt, have\nbeen developed and clinically tested in cancer treatment, such as lung, breast cancer and\nmelanoma."
p5399
aS'treated ovarian cancer cell lines with CDDP and any of a PI3K inhibitor (LY294002),\na MEK inhibitor (PD98059), or a MEK/ERK activator [phorbol 12-myristate 13-acetate (PMA)],\nand assessed cell viability, expression of MEK/ERK and PI3K/Akt, cell cycle distribution and\napoptosis.'
p5400
ag651
as(S'ZBTB18'
p5401
S'ONECUT1'
p5402
S'increases'
p5403
tp5404
(lp5405
s(S'TGIF'
p5406
S'MAX'
p5407
S'increases'
p5408
tp5409
(lp5410
s(S'ETS1'
p5411
S'NRAS'
p5412
S'increases'
p5413
tp5414
(lp5415
s(S'KLF12'
p5416
S'GATA1'
p5417
S'increases'
p5418
tp5419
(lp5420
s(S'HRAS/GTP'
p5421
S'PAK2'
p5422
S'increases_activity'
p5423
tp5424
(lp5425
s(S'CYP26A1'
p5426
S'FOXD3'
p5427
S'increases'
p5428
tp5429
(lp5430
s(S'LMO2'
p5431
S'RUNX1'
p5432
S'increases'
p5433
tp5434
(lp5435
s(S'MLK3'
p5436
S'MKK3/6'
p5437
S'adds_modification'
p5438
tp5439
(lp5440
s(S'TAK'
p5441
S'MKK3/6'
p5442
S'adds_modification'
p5443
tp5444
(lp5445
s(S'GRB2:SOS1'
p5446
S'HB-EGF:P-6Y-EGFR DIMER'
p5447
S'binds'
p5448
tp5449
(lp5450
s(S'FOXO4'
p5451
S'NRAS'
p5452
S'increases'
p5453
tp5454
(lp5455
s(S'MECOM'
p5456
S'NRAS'
p5457
S'increases'
p5458
tp5459
(lp5460
s(S'KLF12'
p5461
S'CYP26A1'
p5462
S'increases'
p5463
tp5464
(lp5465
s(S'RAS family/GTP/PI3K'
p5466
S'TRPV1'
p5467
S'adds_modification'
p5468
tp5469
(lp5470
s(S'hsa-let-7a-5p'
p5471
S'NRAS'
p5472
S'decreases'
p5473
tp5474
(lp5475
s(S'NF1'
p5476
S'HOXA9'
p5477
S'increases'
p5478
tp5479
(lp5480
s(S'REPIN1'
p5481
S'FOXD3'
p5482
S'increases'
p5483
tp5484
(lp5485
s(S'CYP26A1'
p5486
S'FOXJ2'
p5487
S'increases'
p5488
tp5489
(lp5490
s(S'FOXO4'
p5491
S'MEIS1'
p5492
S'increases'
p5493
tp5494
(lp5495
s(S'EBF2'
p5496
S'MECOM'
p5497
S'increases'
p5498
tp5499
(lp5500
s(S'ETS1'
p5501
S'FOXO3'
p5502
S'increases'
p5503
tp5504
(lp5505
s(S'SP3'
p5506
S'CYP26A1'
p5507
S'increases'
p5508
tp5509
(lp5510
s(S'LNXp80'
p5511
S'NUMB'
p5512
S'decreases'
p5513
tp5514
(lp5515
s(S'RUNX2'
p5516
S'CYP26A1'
p5517
S'increases'
p5518
tp5519
(lp5520
s(S'AHR'
p5521
S'FOXO3'
p5522
S'increases'
p5523
tp5524
(lp5525
s(S'VSX1'
p5526
S'FOXF2'
p5527
S'increases'
p5528
tp5529
(lp5530
s(S'BPTF'
p5531
S'RUNX1'
p5532
S'increases'
p5533
tp5534
(lp5535
s(S'7,8-Dihydro-7,8-dihydroxybenzo(a)pyrene 9,10-oxide'
p5536
S'HRAS PROTEIN'
p5537
S'increases'
p5538
tp5539
(lp5540
s(S'TCF3'
p5541
S'POU3F2'
p5542
S'increases'
p5543
tp5544
(lp5545
s(S'TCF3'
p5546
S'IRF1'
p5547
S'increases'
p5548
tp5549
(lp5550
s(S'SREBF1'
p5551
S'EN1'
p5552
S'increases'
p5553
tp5554
(lp5555
s(S'FOXO4'
p5556
S'RUNX2'
p5557
S'increases'
p5558
tp5559
(lp5560
s(S'hsa-miR-181a-5p'
p5561
S'HRAS'
p5562
S'decreases'
p5563
tp5564
(lp5565
s(S'Myb'
p5566
S'NRAS'
p5567
S'decreases'
p5568
tp5569
(lp5570
s(S'HSPA8'
p5571
S'ADP'
p5572
S'binds'
p5573
tp5574
(lp5575
s(S'SOCS3'
p5576
S'RASGAP'
p5577
S'binds'
p5578
tp5579
(lp5580
s(S'ONECUT1'
p5581
S'NRAS'
p5582
S'increases'
p5583
tp5584
(lp5585
s(S'PITX2'
p5586
S'EN1'
p5587
S'increases'
p5588
tp5589
(lp5590
s(S'HGF(dimer)/MET(dimer)'
p5591
S'SRC'
p5592
S'adds_modification'
p5593
tp5594
(lp5595
s(S'2-amino-1-methyl-6-phenylimidazo(4,5-b)pyridine'
p5596
S'HRAS PROTEIN'
p5597
S'increases'
p5598
tp5599
(lp5600
s(S'GFI1'
p5601
S'POU3F2'
p5602
S'increases'
p5603
tp5604
(lp5605
s(S'FARNESYL DIPHOSPHATE'
p5606
S'KRAS'
p5607
S'increases_activity'
p5608
tp5609
(lp5610
s(S'IL2/IL2R BETA/GAMMA/JAK1/LCK/JAK3'
p5611
S'PI3K'
p5612
S'binds'
p5613
tp5614
(lp5615
s(S'GTF3A'
p5616
S'MECOM'
p5617
S'increases'
p5618
tp5619
(lp5620
s(S'EGR2'
p5621
S'CYP26A1'
p5622
S'increases'
p5623
tp5624
(lp5625
s(S'RUNX1'
p5626
S'FOXF2'
p5627
S'increases'
p5628
tp5629
(lp5630
s(S'IL3/IL3RA/CSF2RB (DODECAMER)'
p5631
S'YWHAZ'
p5632
S'binds'
p5633
tp5634
(lp5635
s(S'RAF1'
p5636
S'BRAF'
p5637
S'binds'
p5638
tp5639
(lp5640
s(S'MYC'
p5641
S'CYP26A1'
p5642
S'increases'
p5643
tp5644
(lp5645
s(S'UBP1'
p5646
S'CYP26A1'
p5647
S'increases'
p5648
tp5649
(lp5650
s(S'MTF1'
p5651
S'REPIN1'
p5652
S'increases'
p5653
tp5654
(lp5655
s(S'HNF1A'
p5656
S'RUNX1'
p5657
S'increases'
p5658
tp5659
(lp5660
s(S'NHLH1'
p5661
S'FOXA1'
p5662
S'increases'
p5663
tp5664
(lp5665
s(S'HLF'
p5666
S'FOXA1'
p5667
S'increases'
p5668
tp5669
(lp5670
s(S'MEIS1'
p5671
S'GATA6'
p5672
S'increases'
p5673
tp5674
(lp5675
s(S'PDGF-BB/PDGFRB (DIMER)/SHP2'
p5676
S'GRB2/SOS1'
p5677
S'binds'
p5678
tp5679
(lp5680
s(S'ZBTB14'
p5681
S'EN1'
p5682
S'increases'
p5683
tp5684
(lp5685
s(S'alpha6/beta4 Integrin'
p5686
S'HRAS/GDP'
p5687
S'increases_activity'
p5688
tp5689
(lp5690
s(S'ErbB2'
p5691
S'HRAS/GDP'
p5692
S'increases_activity'
p5693
tp5694
(lp5695
s(S'MEIS1'
p5696
S'FOXO3'
p5697
S'increases'
p5698
tp5699
(lp5700
s(S'RELA'
p5701
S'IRF1'
p5702
S'increases'
p5703
tp5704
(lp5705
s(S'MYCN'
p5706
S'FOXO3'
p5707
S'increases'
p5708
tp5709
(lp5710
s(S'RHOA/GTP'
p5711
S'DIA'
p5712
S'increases_activity'
p5713
tp5714
(lp5715
s(S'Fluorouracil'
p5716
S'KRAS PROTEIN'
p5717
S'decreases'
p5718
tp5719
(lp5720
s(S'ATF2'
p5721
S'CYP26A1'
p5722
S'increases'
p5723
tp5724
(lp5725
s(S'GNAI2/GTP'
p5726
S'SRC FAMILY KINASES'
p5727
S'increases_activity'
p5728
tp5729
(lp5730
s(S'HAND1'
p5731
S'POU2F1'
p5732
S'increases'
p5733
tp5734
(lp5735
s(S'PI5K Type 1 family'
p5736
S'PI-4-P'
p5737
S'translocates'
p5738
tp5739
(lp5740
s(S'HSF1'
p5741
S'CBFA2T3'
p5742
S'increases'
p5743
tp5744
(lp5745
s(S'BACH1'
p5746
S'FOXA1'
p5747
S'increases'
p5748
tp5749
(lp5750
s(S'PI-3-4-5-P3'
p5751
S'SGK1'
p5752
S'adds_modification'
p5753
tp5754
(lp5755
s(S'hsa-miR-20a-5p'
p5756
S'NRAS'
p5757
S'decreases'
p5758
tp5759
(lp5760
s(S'CYP26A1'
p5761
S'MECOM'
p5762
S'increases'
p5763
tp5764
(lp5765
s(S'FOXF2'
p5766
S'RUNX1'
p5767
S'increases'
p5768
tp5769
(lp5770
s(S'EGR2'
p5771
S'SRF'
p5772
S'increases'
p5773
tp5774
(lp5775
s(S'LEF1'
p5776
S'FOXD3'
p5777
S'increases'
p5778
tp5779
(lp5780
s(S'TFAP2C'
p5781
S'MECOM'
p5782
S'increases'
p5783
tp5784
(lp5785
s(S'SHC'
p5786
S'GRB2/SOS1'
p5787
S'binds'
p5788
tp5789
(lp5790
s(S'CA2+'
p5791
S'CAM'
p5792
S'binds'
p5793
tp5794
(lp5795
s(S'MYC'
p5796
S'POU3F2'
p5797
S'increases'
p5798
tp5799
(lp5800
s(S'PAX8'
p5801
S'HOXA9'
p5802
S'increases'
p5803
tp5804
(lp5805
s(S'TFDP2'
p5806
S'CDC5L'
p5807
S'increases'
p5808
tp5809
(lp5810
s(S'RAF1/14-3-3'
p5811
S'KSR/14-3-3 /MEK1-2'
p5812
S'increases_activity'
p5813
tp5814
(lp5815
s(S'DDIT3'
p5816
S'MEIS1'
p5817
S'increases'
p5818
tp5819
(lp5820
s(S'GNB1/GNG2'
p5821
S'HRAS/GDP'
p5822
S'increases_activity'
p5823
tp5824
(lp5825
s(S'ACTIVATED FGFR MUTANTS:P-FRS2ALPHA'
p5826
S'GRB2:SOS1'
p5827
S'binds'
p5828
tp5829
(lp5830
s(S'HIF1A'
p5831
S'CYP26A1'
p5832
S'increases'
p5833
tp5834
(lp5835
s(S'RAF1-BRAF'
p5836
S'ERK1-2'
p5837
S'increases_activity'
p5838
tp5839
(lp5840
s(S'SMAD4'
p5841
S'CBFA2T3'
p5842
S'increases'
p5843
tp5844
(lp5845
s(S'resveratrol'
p5846
S'HRAS PROTEIN'
p5847
S'increases'
p5848
tp5849
(lp5850
s(S'Malathion'
p5851
S'HRAS MRNA'
p5852
S'increases'
p5853
tp5854
(lp5855
s(S'NRF1'
p5856
S'FOXO4'
p5857
S'increases'
p5858
tp5859
(lp5860
s(S'CREB1'
p5861
S'JUN'
p5862
S'increases'
p5863
tp5864
(lp5865
s(S'CDC5L'
p5866
S'HOXA9'
p5867
S'increases'
p5868
tp5869
(lp5870
s(S'CDX2'
p5871
S'HOXA9'
p5872
S'increases'
p5873
tp5874
(lp5875
s(S'HMGA1'
p5876
S'POU2F1'
p5877
S'increases'
p5878
tp5879
(lp5880
s(S'Coumestrol'
p5881
S'KRAS MRNA'
p5882
S'decreases'
p5883
tp5884
(lp5885
s(S'LEF1'
p5886
S'FOXO3'
p5887
S'increases'
p5888
tp5889
(lp5890
s(S'CYP26A1'
p5891
S'MEIS1'
p5892
S'increases'
p5893
tp5894
(lp5895
s(S'GTF2A2'
p5896
S'MEIS1'
p5897
S'increases'
p5898
tp5899
(lp5900
s(S'REPIN1'
p5901
S'CBFA2T3'
p5902
S'increases'
p5903
tp5904
(lp5905
s(S'hsa-miR-143-3p'
p5906
S'HRAS'
p5907
S'decreases'
p5908
tp5909
(lp5910
s(S'[(3,7,11-TRIMETHYL-DODECA-2,6,10-TRIENYLOXYCARBAMOYL)-METHYL]-PHOSPHONIC ACID'
p5911
S'KRAS'
p5912
S'increases_activity'
p5913
tp5914
(lp5915
s(S'TFDP1'
p5916
S'ONECUT1'
p5917
S'increases'
p5918
tp5919
(lp5920
s(S'YY1'
p5921
S'CYP26A1'
p5922
S'increases'
p5923
tp5924
(lp5925
s(S'PITX2'
p5926
S'RUNX1'
p5927
S'increases'
p5928
tp5929
(lp5930
s(S'STAT5A'
p5931
S'NRAS'
p5932
S'increases'
p5933
tp5934
(lp5935
s(S'Valproic Acid'
p5936
S'HRAS MRNA'
p5937
S'increases'
p5938
tp5939
(lp5940
s(S'Malathion'
p5941
S'HRAS PROTEIN'
p5942
S'increases'
p5943
tp5944
(lp5945
s(S'TFAP4'
p5946
S'CBFA2T3'
p5947
S'increases'
p5948
tp5949
(lp5950
s(S'TFAP4'
p5951
S'EN1'
p5952
S'increases'
p5953
tp5954
(lp5955
s(S'POU3F2'
p5956
S'CYP26A1'
p5957
S'increases'
p5958
tp5959
(lp5960
s(S'PAX3'
p5961
S'FOXD3'
p5962
S'increases'
p5963
tp5964
(lp5965
s(S'FOXA2'
p5966
S'RUNX2'
p5967
S'increases'
p5968
tp5969
(lp5970
s(S'MAX'
p5971
S'BACH1'
p5972
S'increases'
p5973
tp5974
(lp5975
s(S'PDX1'
p5976
S'CYP26A1'
p5977
S'increases'
p5978
tp5979
(lp5980
s(S'EPO/EPOR (dimer)/JAK2'
p5981
S'SHC/GRB2/SOS1'
p5982
S'increases_activity'
p5983
tp5984
(lp5985
s(S'E2F1'
p5986
S'MEIS1'
p5987
S'increases'
p5988
tp5989
(lp5990
s(S'FOXF2'
p5991
S'MEIS1'
p5992
S'increases'
p5993
tp5994
(lp5995
s(S'SPZ1'
p5996
S'FOXJ2'
p5997
S'increases'
p5998
tp5999
(lp6000
s(S'SRY'
p6001
S'NRAS'
p6002
S'increases'
p6003
tp6004
(lp6005
s(S'REPIN1'
p6006
S'CYP26A1'
p6007
S'increases'
p6008
tp6009
(lp6010
s(S'VEGFR3/VEGFC-D'
p6011
S'PKC'
p6012
S'increases_activity'
p6013
tp6014
(lp6015
s(S'MEIS1'
p6016
S'EN1'
p6017
S'increases'
p6018
tp6019
(lp6020
s(S'FOXJ1'
p6021
S'FOXD3'
p6022
S'increases'
p6023
tp6024
(lp6025
s(S'SPZ1'
p6026
S'FOXO4'
p6027
S'increases'
p6028
tp6029
(lp6030
s(S'RHOA/GTP'
p6031
S'ROCK1-ROCK2'
p6032
S'increases_activity'
p6033
tp6034
(lp6035
s(S'HMGA1'
p6036
S'ONECUT1'
p6037
S'increases'
p6038
tp6039
(lp6040
s(S'uPA/uPAR/alphav/beta3 Integrin/Vitronectin'
p6041
S'SRC'
p6042
S'adds_modification'
p6043
tp6044
(lp6045
s(S'ETS1'
p6046
S'CYP26A1'
p6047
S'increases'
p6048
tp6049
(lp6050
s(S'ESRRA'
p6051
S'TLX2'
p6052
S'increases'
p6053
tp6054
(lp6055
s(S'ROCK2'
p6056
S'RHO FAMILY GTPASE-ACTIVE'
p6057
S'binds'
p6058
tp6059
(lp6060
s(S'ATF4'
p6061
S'CYP26A1'
p6062
S'increases'
p6063
tp6064
(lp6065
s(S'OR5I1'
p6066
S'CYP26A1'
p6067
S'increases'
p6068
tp6069
(lp6070
s(S'PITX2'
p6071
S'GATA1'
p6072
S'increases'
p6073
tp6074
(lp6075
s(S'AHR'
p6076
S'ONECUT1'
p6077
S'increases'
p6078
tp6079
(lp6080
s(S'PTF1A'
p6081
S'MECOM'
p6082
S'increases'
p6083
tp6084
(lp6085
s(S'arsenic trioxide'
p6086
S'HRAS MRNA'
p6087
S'increases'
p6088
tp6089
(lp6090
s(S'TCF3'
p6091
S'REPIN1'
p6092
S'increases'
p6093
tp6094
(lp6095
s(S'STAT6'
p6096
S'FOXO3'
p6097
S'increases'
p6098
tp6099
(lp6100
s(S'POU1F1'
p6101
S'POU2F1'
p6102
S'increases'
p6103
tp6104
(lp6105
s(S'RHOA/GTP'
p6106
S'ROCK'
p6107
S'increases_activity'
p6108
tp6109
(lp6110
s(S'PITPNA'
p6111
S'PI-4-5-P2'
p6112
S'translocates'
p6113
tp6114
(lp6115
s(S'MDM-2'
p6116
S'P14/19 ARF'
p6117
S'binds'
p6118
tp6119
(lp6120
s(S'TEAD1'
p6121
S'FOXO3'
p6122
S'increases'
p6123
tp6124
(lp6125
s(S'MYC'
p6126
S'MAX'
p6127
S'increases'
p6128
tp6129
(lp6130
s(S'GRB2:SOS1'
p6131
S'EGF:PHOSPHO-EGFR:PHOSPHO-SHC'
p6132
S'binds'
p6133
tp6134
(lp6135
s(S'NF1'
p6136
S'RUNX1'
p6137
S'increases'
p6138
tp6139
(lp6140
s(S'ZEB1'
p6141
S'GATA6'
p6142
S'increases'
p6143
tp6144
(lp6145
s(S'TBP'
p6146
S'EN1'
p6147
S'increases'
p6148
tp6149
(lp6150
s(S'FOXA1'
p6151
S'FOXD3'
p6152
S'increases'
p6153
tp6154
(lp6155
s(S'CART1'
p6156
S'EN1'
p6157
S'increases'
p6158
tp6159
(lp6160
s(S'MAX'
p6161
S'CEBPA'
p6162
S'increases'
p6163
tp6164
(lp6165
s(S'GATA6'
p6166
S'NRAS'
p6167
S'increases'
p6168
tp6169
(lp6170
s(S'PTF1A'
p6171
S'FOXO3'
p6172
S'increases'
p6173
tp6174
(lp6175
s(S'LEF1'
p6176
S'FOXA1'
p6177
S'increases'
p6178
tp6179
(lp6180
s(S'hsa-let-7g-5p'
p6181
S'KRAS'
p6182
S'decreases'
p6183
tp6184
(lp6185
s(S'ZBTB14'
p6186
S'CYP26A1'
p6187
S'increases'
p6188
tp6189
(lp6190
s(S'POU1F1'
p6191
S'FOXO4'
p6192
S'increases'
p6193
tp6194
(lp6195
s(S'PI3K'
p6196
S'PI-4-5-P2'
p6197
S'translocates'
p6198
tp6199
(lp6200
s(S'GABPB2'
p6201
S'NRAS'
p6202
S'increases'
p6203
tp6204
(lp6205
s(S'ELK1'
p6206
S'LEF1'
p6207
S'increases'
p6208
tp6209
(lp6210
s(S'Estrogens'
p6211
S'HRAS MRNA'
p6212
S'increases'
p6213
tp6214
(lp6215
s(S'CYP26A1'
p6216
S'CEBPA'
p6217
S'increases'
p6218
tp6219
(lp6220
s(S'SPI1'
p6221
S'POU2F1'
p6222
S'increases'
p6223
tp6224
(lp6225
s(S'PPARG'
p6226
S'CYP26A1'
p6227
S'increases'
p6228
tp6229
(lp6230
s(S'Asbestos, Serpentine'
p6231
S'HRAS PROTEIN'
p6232
S'increases'
p6233
tp6234
(lp6235
s(S'RET51/GFRALPHA1/GDNF/DOK1'
p6236
S'RASGAP'
p6237
S'binds'
p6238
tp6239
(lp6240
s(S'FOXO1'
p6241
S'GATA6'
p6242
S'increases'
p6243
tp6244
(lp6245
s(S'Cadmium'
p6246
S'KRAS PROTEIN'
p6247
S'increases'
p6248
tp6249
(lp6250
s(S'MAX'
p6251
S'EN1'
p6252
S'increases'
p6253
tp6254
(lp6255
s(S'TLX2'
p6256
S'NRAS'
p6257
S'increases'
p6258
tp6259
(lp6260
s(S'SREBF1'
p6261
S'CYP26A1'
p6262
S'increases'
p6263
tp6264
(lp6265
s(S'SMAD3'
p6266
S'MEIS1'
p6267
S'increases'
p6268
tp6269
(lp6270
s(S'Acetaminophen'
p6271
S'NRAS MRNA'
p6272
S'decreases'
p6273
tp6274
(lp6275
s(S'LEF1'
p6276
S'ETS1'
p6277
S'increases'
p6278
tp6279
(lp6280
s(S'SRF'
p6281
S'MEIS1'
p6282
S'increases'
p6283
tp6284
(lp6285
s(S'BRAF'
p6286
S'MKK3-MKK6'
p6287
S'increases_activity'
p6288
tp6289
(lp6290
s(S'HRAS/GTP'
p6291
S'RAF1'
p6292
S'adds_modification'
p6293
tp6294
(lp6295
s(S'MSX1'
p6296
S'CYP26A1'
p6297
S'increases'
p6298
tp6299
(lp6300
s(S'GATA4'
p6301
S'ETS1'
p6302
S'increases'
p6303
tp6304
(lp6305
s(S'E4F1'
p6306
S'FOXA1'
p6307
S'increases'
p6308
tp6309
(lp6310
s(S'FOXD1'
p6311
S'LEF1'
p6312
S'increases'
p6313
tp6314
(lp6315
s(S'CUX1'
p6316
S'MAX'
p6317
S'increases'
p6318
tp6319
(lp6320
s(S'CYP26A1'
p6321
S'CBFA2T3'
p6322
S'increases'
p6323
tp6324
(lp6325
s(S'CAM/CA2+'
p6326
S'KRAS ISOFORM 4B/GTP'
p6327
S'binds'
p6328
tp6329
(lp6330
s(S'MYOG'
p6331
S'STAT5A'
p6332
S'increases'
p6333
tp6334
(lp6335
s(S'MYOD1'
p6336
S'STAT5A'
p6337
S'increases'
p6338
tp6339
(lp6340
s(S'HNF1A'
p6341
S'POU3F2'
p6342
S'increases'
p6343
tp6344
(lp6345
s(S'EPH'
p6346
S'EPHR'
p6347
S'binds'
p6348
tp6349
(lp6350
s(S'PDGF:PHOSPHO-PDGF RECEPTOR DIMER'
p6351
S'GRB2:SOS1'
p6352
S'binds'
p6353
tp6354
(lp6355
s(S'HRAS/GTP'
p6356
S'PI3K'
p6357
S'increases_activity'
p6358
tp6359
(lp6360
s(S'RUNX1'
p6361
S'TLX2'
p6362
S'increases'
p6363
tp6364
(lp6365
s(S'MYOG'
p6366
S'CYP26A1'
p6367
S'increases'
p6368
tp6369
(lp6370
s(S'PAX2'
p6371
S'EN1'
p6372
S'increases'
p6373
tp6374
(lp6375
s(S'TFCP2'
p6376
S'CYP26A1'
p6377
S'increases'
p6378
tp6379
(lp6380
s(S'hsa-miR-145-5p'
p6381
S'NRAS'
p6382
S'decreases'
p6383
tp6384
(lp6385
s(S'KAT2B'
p6386
S'GATA1'
p6387
S'increases'
p6388
tp6389
(lp6390
s(S'P-EGFR MUTANTS:P-Y349,350-SHC1'
p6391
S'GRB2:SOS1'
p6392
S'binds'
p6393
tp6394
(lp6395
s(S'E2F1'
p6396
S'MECOM'
p6397
S'increases'
p6398
tp6399
(lp6400
s(S'GNB1/GNG2'
p6401
S'SRC'
p6402
S'adds_modification'
p6403
tp6404
(lp6405
s(S'ZBTB14'
p6406
S'MAX'
p6407
S'increases'
p6408
tp6409
(lp6410
s(S'RALGDS'
p6411
S'P21 RAS:GTP'
p6412
S'binds'
p6413
tp6414
(lp6415
s(S'RHOA/GTP'
p6416
S'ROCK2'
p6417
S'increases_activity'
p6418
tp6419
(lp6420
s(S'NR1H3'
p6421
S'FOXD3'
p6422
S'increases'
p6423
tp6424
(lp6425
s(S'TFAP4'
p6426
S'GATA1'
p6427
S'increases'
p6428
tp6429
(lp6430
s(S'FOXA1'
p6431
S'GATA6'
p6432
S'increases'
p6433
tp6434
(lp6435
s(S'GRB2:SOS1'
p6436
S'P-SHC'
p6437
S'binds'
p6438
tp6439
(lp6440
s(S'E2F1'
p6441
S'FOXO3'
p6442
S'increases'
p6443
tp6444
(lp6445
s.