(dp0
(S'ZEB1'
p1
S'FOXA1'
p2
S'increases'
p3
tp4
(lp5
s(S'FOXJ1'
p6
S'GATA6'
p7
S'increases'
p8
tp9
(lp10
s(S'TFAP4'
p11
S'FOXD3'
p12
S'increases'
p13
tp14
(lp15
s(S'TBP'
p16
S'MEIS1'
p17
S'increases'
p18
tp19
(lp20
s(S'GCM1'
p21
S'GATA6'
p22
S'increases'
p23
tp24
(lp25
s(S'T-DHT'
p26
S'SRC'
p27
S'adds_modification'
p28
tp29
(lp30
s(S'MAZ'
p31
S'GABPB2'
p32
S'increases'
p33
tp34
(lp35
s(S'HMGA1'
p36
S'EN1'
p37
S'increases'
p38
tp39
(lp40
s(S'CYP26A1'
p41
S'NRAS'
p42
S'increases'
p43
tp44
(lp45
s(S'CUX1'
p46
S'MEIS1'
p47
S'increases'
p48
tp49
(lp50
s(S'REPIN1'
p51
S'BACH1'
p52
S'increases'
p53
tp54
(lp55
s(S'TFDP1'
p56
S'HOXA9'
p57
S'increases'
p58
tp59
(lp60
s(S'NFE2L1'
p61
S'CYP26A1'
p62
S'increases'
p63
tp64
(lp65
s(S'MAZ'
p66
S'GATA1'
p67
S'increases'
p68
tp69
(lp70
s(S'TCF12'
p71
S'GABPB2'
p72
S'increases'
p73
tp74
(lp75
s(S'ETS2'
p76
S'FOXO3'
p77
S'increases'
p78
tp79
(lp80
s(S'hsa-let-7c-5p'
p81
S'NRAS'
p82
S'decreases'
p83
tp84
(lp85
s(S'SPI1'
p86
S'CYP26A1'
p87
S'increases'
p88
tp89
(lp90
s(S'RAC1/GTP'
p91
S'MKK4'
p92
S'adds_modification'
p93
tp94
(lp95
s(S'Quercetin'
p96
S'KRAS MRNA'
p97
S'decreases'
p98
tp99
(lp100
s(S'INSULIN RECEPTOR/INSULIN/SHC'
p101
S'GRB2'
p102
S'binds'
p103
tp104
(lp105
s(S'TAp63a (tetramer)'
p106
S'PKC DELTA'
p107
S'increases'
p108
tp109
(lp110
s(S'FOXO1'
p111
S'POU2F1'
p112
S'increases'
p113
tp114
(lp115
s(S'FOXL1'
p116
S'EN1'
p117
S'increases'
p118
tp119
(lp120
s(S'TBP'
p121
S'CYP26A1'
p122
S'increases'
p123
tp124
(lp125
s(S'Heptachlor'
p126
S'HRAS MRNA'
p127
S'decreases'
p128
tp129
(lp130
s(S'PCBP1'
p131
S'CYP26A1'
p132
S'increases'
p133
tp134
(lp135
s(S'ZBTB18'
p136
S'CYP26A1'
p137
S'increases'
p138
tp139
(lp140
s(S'GATA2'
p141
S'CYP26A1'
p142
S'increases'
p143
tp144
(lp145
s(S'Cadmium'
p146
S'KRAS MRNA'
p147
S'increases'
p148
tp149
(lp150
s(S'HNF1A'
p151
S'POU2F1'
p152
S'increases'
p153
tp154
(lp155
s(S'ABT-100'
p156
S'HRAS PROTEIN'
p157
S'inhibits_modification'
p158
tp159
(lp160
s(S'ELF1'
p161
S'CYP26A1'
p162
S'increases'
p163
tp164
(lp165
s(S'LEF1'
p166
S'KRAS'
p167
S'increases'
p168
tp169
(lp170
s(S'NKX2-1'
p171
S'FOXD3'
p172
S'increases'
p173
tp174
(lp175
s(S'PI-3-4-5-P3'
p176
S'BTK-ITK'
p177
S'translocates'
p178
tp179
(lp180
s(S'POU6F1'
p181
S'HOXA9'
p182
S'increases'
p183
tp184
(lp185
s(S'Myb'
p186
S'MYB'
p187
S'increases'
p188
tp189
(lp190
s(S'PAX5'
p191
S'CYP26A1'
p192
S'increases'
p193
tp194
(lp195
s(S'FOXO4'
p196
S'FOXD3'
p197
S'increases'
p198
tp199
(lp200
s(S'CYP26A1'
p201
S'FOXO4'
p202
S'increases'
p203
tp204
(lp205
s(S'cell adhesion'
p206
S'HRAS/GDP'
p207
S'increases_activity'
p208
tp209
(lp210
s(S'IRF7'
p211
S'CYP26A1'
p212
S'increases'
p213
tp214
(lp215
s(S'7,8-Dihydro-7,8-dihydroxybenzo(a)pyrene 9,10-oxide'
p216
S'KRAS PROTEIN'
p217
S'increases'
p218
tp219
(lp220
s(S'PITX2'
p221
S'POU2F1'
p222
S'increases'
p223
tp224
(lp225
s(S'E2F1'
p226
S'CYP26A1'
p227
S'increases'
p228
tp229
(lp230
s(S'ATF1'
p231
S'CYP26A1'
p232
S'increases'
p233
tp234
(lp235
s(S'PI3K'
p236
S'PKC DELTA'
p237
S'adds_modification'
p238
tp239
(lp240
s(S'SOX5'
p241
S'HOXA9'
p242
S'increases'
p243
tp244
(lp245
s(S'FOXO4'
p246
S'POU2F1'
p247
S'increases'
p248
tp249
(lp250
s(S'FOXO4'
p251
S'GATA6'
p252
S'increases'
p253
tp254
(lp255
s(S'LEF1'
p256
S'FOXF2'
p257
S'increases'
p258
tp259
(lp260
s(S'Insulin Receptor/Insuli/IRS1/GRB2/SHC/Sos'
p261
S'HRAS/GDP'
p262
S'increases_activity'
p263
tp264
(lp265
s(S'TLX2'
p266
S'RUNX1'
p267
S'increases'
p268
tp269
(lp270
s(S'ALX4'
p271
S'JUN'
p272
S'increases'
p273
tp274
(lp275
s(S'RHOA/GTP'
p276
S'RHOGDI'
p277
S'binds'
p278
tp279
(lp280
s(S'GCM1'
p281
S'CYP26A1'
p282
S'increases'
p283
tp284
(lp285
s(S'RB1'
p286
S'ONECUT1'
p287
S'increases'
p288
tp289
(lp290
s(S'NHLH1'
p291
S'CYP26A1'
p292
S'increases'
p293
tp294
(lp295
s(S'NR3C1'
p296
S'BACH1'
p297
S'increases'
p298
tp299
(lp300
s(S'HNF4A'
p301
S'CYP26A1'
p302
S'increases'
p303
tp304
(lp305
s(S'YY1'
p306
S'FOXO3'
p307
S'increases'
p308
tp309
(lp310
s(S'GRB2:SOS1'
p311
S'P-EGFR MUTANTS DIMER'
p312
S'binds'
p313
tp314
(lp315
s(S'P-Y349,350-SHC1:P-ERBB4'
p316
S'GRB2:SOS1'
p317
S'binds'
p318
tp319
(lp320
s(S'FOXN1'
p321
S'ONECUT1'
p322
S'increases'
p323
tp324
(lp325
s(S'TFAP4'
p326
S'MYC'
p327
S'increases'
p328
tp329
(lp330
s(S'MYC'
p331
S'EN1'
p332
S'increases'
p333
tp334
(lp335
s(S'Antigen/IgE/Fc epsilon R1/LYN/SYK'
p336
S'SHC/GRB2/SOS1'
p337
S'increases_activity'
p338
tp339
(lp340
s(S'14-3-3 BETA, ZETA'
p341
S'GARNL4'
p342
S'binds'
p343
tp344
(lp345
s(S'SMAD1'
p346
S'EN1'
p347
S'increases'
p348
tp349
(lp350
s(S'Raf-1'
p351
S'MEK1-2'
p352
S'adds_modification'
p353
tp354
(lp355
s(S'POU2F1'
p356
S'FOXO3'
p357
S'increases'
p358
tp359
(lp360
s(S'NGF (dimer)/TRKA'
p361
S'RASGRF1'
p362
S'adds_modification'
p363
tp364
(lp365
s(S'TCF4'
p366
S'CYP26A1'
p367
S'increases'
p368
tp369
(lp370
s(S'STAT5B'
p371
S'TLX2'
p372
S'increases'
p373
tp374
(lp375
s(S'CYP26A1'
p376
S'SRF'
p377
S'increases'
p378
tp379
(lp380
s(S'STAT1'
p381
S'NRAS'
p382
S'increases'
p383
tp384
(lp385
s(S'TFDP1'
p386
S'GATA1'
p387
S'increases'
p388
tp389
(lp390
s(S'PI3K'
p391
S'ALPHA6/BETA4 INTEGRIN/LAMININ'
p392
S'binds'
p393
tp394
(lp395
s(S'FOXF2'
p396
S'NRAS'
p397
S'increases'
p398
tp399
(lp400
s(S'CUX1'
p401
S'POU2F1'
p402
S'increases'
p403
tp404
(lp405
s(S'ETS2'
p406
S'STAT4'
p407
S'increases'
p408
tp409
(lp410
s(S'EN1'
p411
S'CYP26A1'
p412
S'increases'
p413
tp414
(lp415
s(S'COMPLEX (RAS/GTP)'
p416
S'RAF'
p417
S'binds'
p418
tp419
(lp420
s(S'LEF1'
p421
S'EN1'
p422
S'increases'
p423
tp424
(lp425
s(S'FOXL1'
p426
S'NRAS'
p427
S'increases'
p428
tp429
(lp430
s(S'ELF2'
p431
S'CYP26A1'
p432
S'increases'
p433
tp434
(lp435
s(S'Src Family Kinases-active'
p436
S'EGF/EGFR'
p437
S'adds_modification'
p438
tp439
(lp440
s(S'RUNX1'
p441
S'POU2F1'
p442
S'increases'
p443
tp444
(lp445
s(S'RHOA/GTP'
p446
S'CITRON-N'
p447
S'increases_activity'
p448
tp449
(lp450
s(S'PAX4'
p451
S'SRF'
p452
S'increases'
p453
tp454
(lp455
s(S'Vitamin E'
p456
S'HRAS MRNA'
p457
S'increases'
p458
tp459
(lp460
s(S'CDX2'
p461
S'FOXD3'
p462
S'increases'
p463
tp464
(lp465
s(S'Plant Extracts'
p466
S'KEAP1 PROTEIN'
p467
S'decreases'
p468
tp469
(lp470
s(S'PAX4'
p471
S'CBFA2T3'
p472
S'increases'
p473
tp474
(lp475
s(S'FOXD1'
p476
S'CYP26A1'
p477
S'increases'
p478
tp479
(lp480
s(S'Antigen/IgE/Fc epsilon R1/LYN/SYK'
p481
S'VAV1'
p482
S'adds_modification'
p483
tp484
(lp485
s(S'PCBP1'
p486
S'MEIS1'
p487
S'increases'
p488
tp489
(lp490
s(S'FOXI1'
p491
S'FOXD3'
p492
S'increases'
p493
tp494
(lp495
s(S'GATA4'
p496
S'MEIS1'
p497
S'increases'
p498
tp499
(lp500
s(S'STAT5B'
p501
S'CEBPG'
p502
S'increases'
p503
tp504
(lp505
s(S'TFDP2'
p506
S'MAZ'
p507
S'increases'
p508
tp509
(lp510
s(S'PI3K'
p511
S'SHP2'
p512
S'binds'
p513
tp514
(lp515
s(S'SPI1'
p516
S'ONECUT1'
p517
S'increases'
p518
tp519
(lp520
s(S'STAT6'
p521
S'EN1'
p522
S'increases'
p523
tp524
(lp525
s(S'TLX2'
p526
S'CYP26A1'
p527
S'increases'
p528
tp529
(lp530
s(S'RAF1'
p531
S'MEK1-2'
p532
S'increases_activity'
p533
tp534
(lp535
s(S'STAT5A'
p536
S'IRF1'
p537
S'increases'
p538
tp539
(lp540
s(S'2-amino-1-methyl-6-phenylimidazo(4,5-b)pyridine'
p541
S'HRAS MRNA'
p542
S'increases'
p543
tp544
(lp545
s(S'MAZ'
p546
S'POU2F1'
p547
S'increases'
p548
tp549
(lp550
s(S'MAZ'
p551
S'SRF'
p552
S'increases'
p553
tp554
(lp555
s(S'GATA1'
p556
S'JUN'
p557
S'increases'
p558
tp559
(lp560
s(S'FOXA1'
p561
S'NRAS'
p562
S'increases'
p563
tp564
(lp565
s(S'STAT1'
p566
S'EN1'
p567
S'increases'
p568
tp569
(lp570
s(S'GTF2A2'
p571
S'MAX'
p572
S'increases'
p573
tp574
(lp575
s(S'LMO2'
p576
S'EN1'
p577
S'increases'
p578
tp579
(lp580
s(S'MYOD1'
p581
S'LEF1'
p582
S'increases'
p583
tp584
(lp585
s(S'ATF3'
p586
S'JUN'
p587
S'increases'
p588
tp589
(lp590
s(S'GRB2:SOS1'
p591
S'ACTIVATED FGFR:P-SHC1'
p592
S'binds'
p593
tp594
(lp595
s(S'MAFG'
p596
S'BACH1'
p597
S'increases'
p598
tp599
(lp600
s(S'POU3F2'
p601
S'POU2F1'
p602
S'increases'
p603
tp604
(lp605
s(S'K 7174'
p606
S'KRAS MRNA'
p607
S'increases'
p608
tp609
(lp610
s(S'POU1F1'
p611
S'RUNX1'
p612
S'increases'
p613
tp614
(lp615
s(S'HRAS protein'
p616
S'CCND1 MRNA'
p617
S'increases'
p618
tp619
(lp620
s(S'YY1'
p621
S'EN1'
p622
S'increases'
p623
tp624
(lp625
s(S'resveratrol'
p626
S'HRAS MRNA'
p627
S'increases'
p628
tp629
(lp630
s(S'NKX2-1'
p631
S'HOXA9'
p632
S'increases'
p633
tp634
(lp635
s(S'HSF1'
p636
S'CYP26A1'
p637
S'increases'
p638
tp639
(lp640
s(S'MYC'
p641
S'HOXA9'
p642
S'increases'
p643
tp644
(lp645
s(S'Raf'
p646
S'MEK'
p647
S'adds_modification'
p648
tp649
(lp650
S'Recent publications indicate that the majority of gliomas display upregulated Raf/MEK/extracellular signal-regulated kinase (ERK) pathway, which is an essential serine/threonine kinase constituent of the mitogen-activated protein kinase (MAPK) pathway.'
p651
aS'The upregulation of the Raf/MEK/ERK pathway has been proven to take part in the amplification of mitogenic stimuli and promotion of cellular proliferation of malignant gliomas ['
p652
aS'In addition, it was revealed that NCTD may exert its anti-cancer activity through the suppression of the Raf/MEK/ERK pathway.'
p653
aS'The Raf/MEK/ERK pathway is downstream of Ras activation, and tyrosine phosphorylation of these proteins is essential for cancer cell proliferation.'
p654
aS'The upregulation of the Raf/MEK/ERK cascade is one of the principal Ras-regulated pathways, and has been proven to be associated with glioma cell proliferation, survival, and migration.'
p655
aS'It has been suggested that downregulation of the Raf/MEK/ERK pathway may be of great promise as a target for preventing tumor cell growth ['
p656
aS'The Raf/MEK/ERK (MAPK) signal transduction cascade is an important mediator of a number of cellular fates.'
p657
aS'The Ras/Raf/mitogen-extracellular signal-regulated kinase 1/2 (MEK1/2)/extracellular signal regulated kinase 1/2 (ERK1/2) cascade is activated by mitogenic factors, differentiation stimuli and cytokines ['
p658
aS'GnrH receptors and the associated Raf-1/MEK/ERK-1/2-pathway are potential targets for analogs in cancer treatment.'
p659
aS'We suspected a correlation between the lack of tumor growth, application of leuprolide and the Raf-1/MEK/ERK-1/2-pathway.'
p660
aS'GnrH receptors and the associated Raf-1/MEK/ERK-1/2-pathway are potential targets for analogs in cancer treatment.'
p661
aS'Activation of the Raf-1/MEK/ERK-1/2-pathway by leflunomide and teriflunomide can inhibit proliferation and growth of BON carcinoid cells in vitro and in vivo and also decrease expression of neuroendocrine markers in both BON and H727 carcinoid cells ['
p662
aS'GnrH receptors and the associated Raf-1/MEK/ERK-1/2-pathway are potential targets for analogs in cancer treatment.'
p663
aS'We suspected a correlation between the lack of tumor growth, application of leuprolide and the Raf-1/MEK/ERK-1/2-pathway.'
p664
aS'Our findings indicated that VK1 enhanced the cytotoxicity effect of sorafenib through inhibiting the Raf/MEK/ERK signaling pathway in glioma cells, and suggested that sorafenib in combination with VK1 maybe a new therapeutic option for patients with gliomas.'
p665
aS'As the Raf/MEK/ERK signaling pathway plays an important role in glioma cell growth, we assessed the expression of phospho-MEK and phospho-ERK by western blotting.'
p666
aS'The upregulation of the Raf/MEK/ERK cascade is one of the principal Ras-regulated pathways, and has been proven to be associated with glioma cell proliferation, survival and migration ['
p667
aS'The present study indicated that VK1 could enhance sorafenib-induced growth inhibition and apoptosis of glioma cells, and this synergistic effectiveness was associated with the downregulation of the Raf/MEK/ERK signaling pathway.'
p668
aS'The intracellular Ras-regulated Raf/MEK/ERK protein kinase signal cascade is a key pathway involved in cellular proliferation and survival.'
p669
aS'If this idea is correct, then it may be the case that the Ras-Raf-MEK-MAPK module serves in muscle as a central integrator of signals from other tissues, much as the polarization of the plasma membrane appears to do for proteasome based degradation.'
p670
aS'LET-60/Ras can act independently of Raf-MEK-ERK to stimulate an alternative pathway involving RGL-1 (related to mammalian Ral guanine nucleotide dissociation stimulator or RalGDS) and the RAL-1 GTPase ('
p671
aS'Raf, MEK and ERK activities depend in large part on their phosphorylation status ('
p672
aS'There is evidence that some genes may influence Raf-MEK-ERK signaling indirectly, by affecting neighboring cells.'
p673
as(S'TFDP1'
p674
S'MAZ'
p675
S'increases'
p676
tp677
(lp678
s(S'SPRED1'
p679
S'HRAS'
p680
S'binds'
p681
tp682
(lp683
s(S'MYCN'
p684
S'CYP26A1'
p685
S'increases'
p686
tp687
(lp688
s(S'AHR'
p689
S'FOXD3'
p690
S'increases'
p691
tp692
(lp693
s(S'SF1'
p694
S'CYP26A1'
p695
S'increases'
p696
tp697
(lp698
s(S'MEIS1'
p699
S'ETS1'
p700
S'increases'
p701
tp702
(lp703
s(S'Copper Sulfate'
p704
S'HRAS MRNA'
p705
S'decreases'
p706
tp707
(lp708
s(S'MAZ'
p709
S'MYC'
p710
S'increases'
p711
tp712
(lp713
s(S'E4F1'
p714
S'HOXA9'
p715
S'increases'
p716
tp717
(lp718
s(S'GATA1'
p719
S'GATA6'
p720
S'increases'
p721
tp722
(lp723
s(S'RUNX2'
p724
S'POU2F1'
p725
S'increases'
p726
tp727
(lp728
s(S'CYP26A1'
p729
S'GATA6'
p730
S'increases'
p731
tp732
(lp733
s(S'PAX4'
p734
S'GATA1'
p735
S'increases'
p736
tp737
(lp738
s(S'ELF2'
p739
S'STAT5A'
p740
S'increases'
p741
tp742
(lp743
s(S'CART1'
p744
S'NRAS'
p745
S'increases'
p746
tp747
(lp748
s(S'IGF-1R heterotetramer/IGF1/GRB2/Sos/Shc'
p749
S'HRAS/GDP'
p750
S'increases_activity'
p751
tp752
(lp753
s(S'RB1'
p754
S'CYP26A1'
p755
S'increases'
p756
tp757
(lp758
s(S'CEBPG'
p759
S'HOXA9'
p760
S'increases'
p761
tp762
(lp763
s(S'GRB2/SOS1/SHC'
p764
S'IGF-1R HETEROTETRAMER/IGF1'
p765
S'binds'
p766
tp767
(lp768
s(S'PRRX2'
p769
S'CYP26A1'
p770
S'increases'
p771
tp772
(lp773
s(S'TEAD1'
p774
S'CYP26A1'
p775
S'increases'
p776
tp777
(lp778
s(S'STAT5A'
p779
S'FOXA1'
p780
S'increases'
p781
tp782
(lp783
s(S'ATF2'
p784
S'FOXD3'
p785
S'increases'
p786
tp787
(lp788
s(S'REPIN1'
p789
S'FOXO4'
p790
S'increases'
p791
tp792
(lp793
s(S'FOXF2'
p794
S'ETS1'
p795
S'increases'
p796
tp797
(lp798
s(S'ETV7'
p799
S'MEIS1'
p800
S'increases'
p801
tp802
(lp803
s(S'RUNX2'
p804
S'RUNX1'
p805
S'increases'
p806
tp807
(lp808
s(S'OR5I1'
p809
S'GATA1'
p810
S'increases'
p811
tp812
(lp813
s(S'MSX1'
p814
S'EN1'
p815
S'increases'
p816
tp817
(lp818
s(S'GTF3A'
p819
S'IRF1'
p820
S'increases'
p821
tp822
(lp823
s(S'POU2F1'
p824
S'SRF'
p825
S'increases'
p826
tp827
(lp828
s(S'PLC-GAMMA'
p829
S'COMPLEX (GADS/SLP-76)'
p830
S'binds'
p831
tp832
(lp833
s(S'STAT4'
p834
S'STAT5A'
p835
S'increases'
p836
tp837
(lp838
s(S'JUN'
p839
S'BACH1'
p840
S'increases'
p841
tp842
(lp843
s(S'POU1F1'
p844
S'HOXA9'
p845
S'increases'
p846
tp847
(lp848
s(S'docetaxel'
p849
S'HRAS PROTEIN'
p850
S'increases'
p851
tp852
(lp853
s(S'MAX'
p854
S'LEF1'
p855
S'increases'
p856
tp857
(lp858
s(S'FOXA1'
p859
S'CYP26A1'
p860
S'increases'
p861
tp862
(lp863
s(S'GATA4'
p864
S'FOXD3'
p865
S'increases'
p866
tp867
(lp868
s(S'ZBTB18'
p869
S'RUNX1'
p870
S'increases'
p871
tp872
(lp873
s(S'ATF3'
p874
S'RUNX1'
p875
S'increases'
p876
tp877
(lp878
s(S'NKX2-1'
p879
S'CYP26A1'
p880
S'increases'
p881
tp882
(lp883
s(S'NR3C1'
p884
S'FOXA1'
p885
S'increases'
p886
tp887
(lp888
s(S'RAS family/GTP'
p889
S'RIN1'
p890
S'increases_activity'
p891
tp892
(lp893
s(S'COMPLEX (RAS/GTP/ RAF)'
p894
S'MEK'
p895
S'binds'
p896
tp897
(lp898
s(S'CDC5L'
p899
S'NRAS'
p900
S'increases'
p901
tp902
(lp903
s(S'Vitamin E'
p904
S'NRAS MRNA'
p905
S'decreases'
p906
tp907
(lp908
s(S'NF1'
p909
S'LEF1'
p910
S'increases'
p911
tp912
(lp913
s(S'ETS1'
p914
S'EN1'
p915
S'increases'
p916
tp917
(lp918
s(S'CRAF'
p919
S'YWHAB'
p920
S'binds'
p921
tp922
(lp923
s(S'CEBPD'
p924
S'JUN'
p925
S'increases'
p926
tp927
(lp928
s(S'MAX'
p929
S'RUNX2'
p930
S'increases'
p931
tp932
(lp933
s(S'CEBPA'
p934
S'MECOM'
p935
S'increases'
p936
tp937
(lp938
s(S'PAX2'
p939
S'GATA1'
p940
S'increases'
p941
tp942
(lp943
s(S'CYP26A1'
p944
S'TLX2'
p945
S'increases'
p946
tp947
(lp948
s(S'GFI1'
p949
S'ETS1'
p950
S'increases'
p951
tp952
(lp953
s(S'14-3-3:P-S259,Y340,Y341,S621-RAF1:RAS:GTP'
p954
S'MEK'
p955
S'binds'
p956
tp957
(lp958
s(S'P-S,T-MEK2'
p959
S'ERK2'
p960
S'binds'
p961
tp962
(lp963
s(S'HRAS/GTP'
p964
S'RIN2'
p965
S'increases_activity'
p966
tp967
(lp968
s(S'Ras-GTP'
p969
S'P42/P44MAPKS'
p970
S'adds_modification'
p971
tp972
(lp973
s(S'SRF'
p974
S'CYP26A1'
p975
S'increases'
p976
tp977
(lp978
s(S'FOXL1'
p979
S'RUNX2'
p980
S'increases'
p981
tp982
(lp983
s(S'EGR4'
p984
S'LEF1'
p985
S'increases'
p986
tp987
(lp988
s(S'P-IRS1,2'
p989
S'GRB2:SOS1'
p990
S'binds'
p991
tp992
(lp993
s(S'VEGFR2 (dimer)/VEGFA (dimer)/alphav/beta3 Integrin/Vitronectin'
p994
S'SRC'
p995
S'adds_modification'
p996
tp997
(lp998
s(S'BACH2'
p999
S'BACH1'
p1000
S'increases'
p1001
tp1002
(lp1003
s(S'ONECUT1'
p1004
S'RUNX1'
p1005
S'increases'
p1006
tp1007
(lp1008
s(S'FOXJ2'
p1009
S'RUNX2'
p1010
S'increases'
p1011
tp1012
(lp1013
s(S'PI-3-4-5-P3'
p1014
S'AKT1'
p1015
S'translocates'
p1016
tp1017
(lp1018
s(S'TFAP4'
p1019
S'BACH1'
p1020
S'increases'
p1021
tp1022
(lp1023
s(S'MEKK1/4'
p1024
S'MKK3/6'
p1025
S'adds_modification'
p1026
tp1027
(lp1028
s(S'VSX1'
p1029
S'MECOM'
p1030
S'increases'
p1031
tp1032
(lp1033
s(S'IRF1'
p1034
S'GATA6'
p1035
S'increases'
p1036
tp1037
(lp1038
s(S'MAX'
p1039
S'HOXA9'
p1040
S'increases'
p1041
tp1042
(lp1043
s(S'RB1'
p1044
S'MAZ'
p1045
S'increases'
p1046
tp1047
(lp1048
s(S'GATA1'
p1049
S'EN1'
p1050
S'increases'
p1051
tp1052
(lp1053
s(S'HIF1A'
p1054
S'SRF'
p1055
S'increases'
p1056
tp1057
(lp1058
s(S'IRF8'
p1059
S'CYP26A1'
p1060
S'increases'
p1061
tp1062
(lp1063
s(S'MTF1'
p1064
S'CYP26A1'
p1065
S'increases'
p1066
tp1067
(lp1068
s(S'PI-3-4-5-P3'
p1069
S'GAB1'
p1070
S'translocates'
p1071
tp1072
(lp1073
s(S'PI-3-4-5-P3'
p1074
S'AKT1'
p1075
S'adds_modification'
p1076
tp1077
(lp1078
s(S'RXRA'
p1079
S'HOXA9'
p1080
S'increases'
p1081
tp1082
(lp1083
s(S'AKT1'
p1084
S'RAF1'
p1085
S'binds'
p1086
tp1087
(lp1088
s(S'HSF2'
p1089
S'JUN'
p1090
S'increases'
p1091
tp1092
(lp1093
s(S'PAX2'
p1094
S'CYP26A1'
p1095
S'increases'
p1096
tp1097
(lp1098
s(S'ETV7'
p1099
S'CYP26A1'
p1100
S'increases'
p1101
tp1102
(lp1103
s(S'FOXO3'
p1104
S'NRAS'
p1105
S'increases'
p1106
tp1107
(lp1108
s(S'TP53'
p1109
S'REPIN1'
p1110
S'increases'
p1111
tp1112
(lp1113
s(S'STAT6'
p1114
S'CYP26A1'
p1115
S'increases'
p1116
tp1117
(lp1118
s(S'JUN'
p1119
S'NRAS'
p1120
S'increases'
p1121
tp1122
(lp1123
s(S'MYCN'
p1124
S'NRAS'
p1125
S'increases'
p1126
tp1127
(lp1128
s(S'STAT3'
p1129
S'YY1'
p1130
S'increases'
p1131
tp1132
(lp1133
s(S'Methyl Methanesulfonate'
p1134
S'HRAS MRNA'
p1135
S'increases'
p1136
tp1137
(lp1138
s(S'RHOA/GTP'
p1139
S'PKN'
p1140
S'increases_activity'
p1141
tp1142
(lp1143
s(S'NHLH1'
p1144
S'FOXJ2'
p1145
S'increases'
p1146
tp1147
(lp1148
s(S'RAS family/GTP'
p1149
S'BRAF'
p1150
S'adds_modification'
p1151
tp1152
(lp1153
s(S'RELA'
p1154
S'FOXJ2'
p1155
S'increases'
p1156
tp1157
(lp1158
s(S'TCF3'
p1159
S'RUNX1'
p1160
S'increases'
p1161
tp1162
(lp1163
s(S'FOXF2'
p1164
S'FOXO4'
p1165
S'increases'
p1166
tp1167
(lp1168
s(S'ATF4'
p1169
S'FOXD3'
p1170
S'increases'
p1171
tp1172
(lp1173
s(S'HAND1'
p1174
S'MECOM'
p1175
S'increases'
p1176
tp1177
(lp1178
s(S'RHOA/GTP'
p1179
S'P27KIP1'
p1180
S'adds_modification'
p1181
tp1182
(lp1183
s(S'SRF'
p1184
S'NRAS'
p1185
S'increases'
p1186
tp1187
(lp1188
s(S'ESRRA'
p1189
S'POU3F2'
p1190
S'increases'
p1191
tp1192
(lp1193
s(S'BRAF'
p1194
S'MEK1'
p1195
S'adds_modification'
p1196
tp1197
(lp1198
s(S'Cadmium Chloride'
p1199
S'KRAS PROTEIN'
p1200
S'increases'
p1201
tp1202
(lp1203
s(S'PRRX2'
p1204
S'MEIS1'
p1205
S'increases'
p1206
tp1207
(lp1208
s(S'MYC'
p1209
S'NRAS'
p1210
S'increases'
p1211
tp1212
(lp1213
s(S'MAZ'
p1214
S'KRAS'
p1215
S'increases'
p1216
tp1217
(lp1218
s(S'Rho Family GTPase-active'
p1219
S'PI3K'
p1220
S'increases_activity'
p1221
tp1222
(lp1223
s(S'STAT2'
p1224
S'CYP26A1'
p1225
S'increases'
p1226
tp1227
(lp1228
s(S'hsa-let-7a-5p'
p1229
S'KRAS'
p1230
S'decreases'
p1231
tp1232
(lp1233
s(S'POU3F2'
p1234
S'NRAS'
p1235
S'increases'
p1236
tp1237
(lp1238
s(S'SRF'
p1239
S'FOXO4'
p1240
S'increases'
p1241
tp1242
(lp1243
s(S'S1P1/Sphingosine-1-phosphate/PDGF-BB/PDGFRB (dimer)'
p1244
S'SRC FAMILY KINASES'
p1245
S'increases_activity'
p1246
tp1247
(lp1248
s(S'MYC/Max'
p1249
S'ERBB2'
p1250
S'decreases'
p1251
tp1252
(lp1253
s(S'SREBF1'
p1254
S'CBFA2T3'
p1255
S'increases'
p1256
tp1257
(lp1258
s(S'PI3K'
p1259
S'GELSOLIN/PI-3-4-5-P3'
p1260
S'binds'
p1261
tp1262
(lp1263
s(S'NHLH1'
p1264
S'EN1'
p1265
S'increases'
p1266
tp1267
(lp1268
s(S'LMO2'
p1269
S'GATA6'
p1270
S'increases'
p1271
tp1272
(lp1273
s(S'POU1F1'
p1274
S'FOXD3'
p1275
S'increases'
p1276
tp1277
(lp1278
s(S'hsa-miR-148b-3p'
p1279
S'NRAS'
p1280
S'decreases'
p1281
tp1282
(lp1283
s(S'Quercetin'
p1284
S'KRAS PROTEIN'
p1285
S'decreases'
p1286
tp1287
(lp1288
s(S'PAK2'
p1289
S'MEKK1'
p1290
S'adds_modification'
p1291
tp1292
(lp1293
s(S'LMO2'
p1294
S'MAZ'
p1295
S'increases'
p1296
tp1297
(lp1298
s(S'FOXO1'
p1299
S'POU3F2'
p1300
S'increases'
p1301
tp1302
(lp1303
s(S'NKX2-1'
p1304
S'MAZ'
p1305
S'increases'
p1306
tp1307
(lp1308
s(S'GRB2/SOS1'
p1309
S'PDGF-BB/PDGFRB (DIMER)/P52 SHC'
p1310
S'binds'
p1311
tp1312
(lp1313
s(S'PI3K'
p1314
S'CRK/P130 CAS/PAXILLIN'
p1315
S'increases_activity'
p1316
tp1317
(lp1318
s(S'ATF1'
p1319
S'FOXD3'
p1320
S'increases'
p1321
tp1322
(lp1323
s(S'GATA1'
p1324
S'SRF'
p1325
S'increases'
p1326
tp1327
(lp1328
s(S'TFAP2C'
p1329
S'CYP26A1'
p1330
S'increases'
p1331
tp1332
(lp1333
s(S'AHR'
p1334
S'MEIS1'
p1335
S'increases'
p1336
tp1337
(lp1338
s(S'ETS2'
p1339
S'CYP26A1'
p1340
S'increases'
p1341
tp1342
(lp1343
s(S'Estradiol'
p1344
S'NRAS MRNA'
p1345
S'increases'
p1346
tp1347
(lp1348
s(S'E2F1'
p1349
S'HOXA9'
p1350
S'increases'
p1351
tp1352
(lp1353
s(S'PDGF-BB/PDGFRB (DIMER)'
p1354
S'RASGAP'
p1355
S'binds'
p1356
tp1357
(lp1358
s(S'E2F1'
p1359
S'GABPB2'
p1360
S'increases'
p1361
tp1362
(lp1363
s(S'FOXJ1'
p1364
S'POU3F2'
p1365
S'increases'
p1366
tp1367
(lp1368
s(S'VSX1'
p1369
S'CYP26A1'
p1370
S'increases'
p1371
tp1372
(lp1373
s(S'SPI1'
p1374
S'CDC5L'
p1375
S'increases'
p1376
tp1377
(lp1378
s(S'Gi family'
p1379
S'HRAS/GDP'
p1380
S'increases_activity'
p1381
tp1382
(lp1383
s(S'TCF3'
p1384
S'CYP26A1'
p1385
S'increases'
p1386
tp1387
(lp1388
s(S'IGF-1R HETEROTETRAMER/IGF1/IRS1'
p1389
S'GRB2/SOS1'
p1390
S'binds'
p1391
tp1392
(lp1393
s(S'RAS family/GTP'
p1394
S'RALGDS'
p1395
S'translocates'
p1396
tp1397
(lp1398
s(S'PI3K'
p1399
S'RAC1/GDP'
p1400
S'increases_activity'
p1401
tp1402
(lp1403
s(S'Ca2+'
p1404
S'PKC'
p1405
S'increases_activity'
p1406
tp1407
(lp1408
s(S'ZIC1'
p1409
S'CYP26A1'
p1410
S'increases'
p1411
tp1412
(lp1413
s(S'IRF7'
p1414
S'TLX2'
p1415
S'increases'
p1416
tp1417
(lp1418
s(S'SHC/SHIP'
p1419
S'HRAS/GDP'
p1420
S'decreases_activity'
p1421
tp1422
(lp1423
s(S'hsa-let-7a-5p'
p1424
S'HRAS'
p1425
S'decreases'
p1426
tp1427
(lp1428
s(S'GATA4'
p1429
S'MAZ'
p1430
S'increases'
p1431
tp1432
(lp1433
s(S'EN1'
p1434
S'NRAS'
p1435
S'increases'
p1436
tp1437
(lp1438
s(S'PI3K'
p1439
S'BAM32'
p1440
S'adds_modification'
p1441
tp1442
(lp1443
s(S'GABPB1'
p1444
S'CYP26A1'
p1445
S'increases'
p1446
tp1447
(lp1448
s(S'Trifluoroethanol'
p1449
S'HRAS'
p1450
S'increases_activity'
p1451
tp1452
(lp1453
s(S'SOX5'
p1454
S'CYP26A1'
p1455
S'increases'
p1456
tp1457
(lp1458
s(S'GRB2/SOS1'
p1459
S'HGF(DIMER)/MET(DIMER)/P52 SHC'
p1460
S'binds'
p1461
tp1462
(lp1463
s(S'TCF12'
p1464
S'EN1'
p1465
S'increases'
p1466
tp1467
(lp1468
s(S'SOX9'
p1469
S'MEIS1'
p1470
S'increases'
p1471
tp1472
(lp1473
s(S'RB1'
p1474
S'MYC'
p1475
S'increases'
p1476
tp1477
(lp1478
s(S'RXRA'
p1479
S'FOXA1'
p1480
S'increases'
p1481
tp1482
(lp1483
s(S'decitabine'
p1484
S'HRAS MRNA'
p1485
S'decreases'
p1486
tp1487
(lp1488
s(S'VSX1'
p1489
S'EN1'
p1490
S'increases'
p1491
tp1492
(lp1493
s(S'FOXL1'
p1494
S'CYP26A1'
p1495
S'increases'
p1496
tp1497
(lp1498
s(S'PAX2'
p1499
S'RUNX1'
p1500
S'increases'
p1501
tp1502
(lp1503
s(S'MEKK1/4'
p1504
S'MKK4/7'
p1505
S'adds_modification'
p1506
tp1507
(lp1508
s(S'HOXA9'
p1509
S'CYP26A1'
p1510
S'increases'
p1511
tp1512
(lp1513
s(S'TRKC'
p1514
S'NT3 (DIMER)'
p1515
S'binds'
p1516
tp1517
(lp1518
s(S'PTF1A'
p1519
S'REPIN1'
p1520
S'increases'
p1521
tp1522
(lp1523
s(S'TGIF'
p1524
S'CYP26A1'
p1525
S'increases'
p1526
tp1527
(lp1528
s(S'MYOD1'
p1529
S'MYC'
p1530
S'increases'
p1531
tp1532
(lp1533
s(S'PKCT'
p1534
S'KRAS ISO2'
p1535
S'adds_modification'
p1536
tp1537
(lp1538
s(S'RAS family/GTP'
p1539
S'BRAF'
p1540
S'increases_activity'
p1541
tp1542
(lp1543
s(S'SPZ1'
p1544
S'CYP26A1'
p1545
S'increases'
p1546
tp1547
(lp1548
s(S'HRAS/GTP'
p1549
S'GALECTIN-1'
p1550
S'binds'
p1551
tp1552
(lp1553
s(S'DBP'
p1554
S'FOXD3'
p1555
S'increases'
p1556
tp1557
(lp1558
s(S'E2F1'
p1559
S'POU2F1'
p1560
S'increases'
p1561
tp1562
(lp1563
s(S'MEIS1'
p1564
S'CYP26A1'
p1565
S'increases'
p1566
tp1567
(lp1568
s(S'YY1'
p1569
S'NRAS'
p1570
S'increases'
p1571
tp1572
(lp1573
s(S'RAS:RAF'
p1574
S'YWHAB'
p1575
S'binds'
p1576
tp1577
(lp1578
s(S'NFE2L2'
p1579
S'CYP26A1'
p1580
S'increases'
p1581
tp1582
(lp1583
s(S'FARNESYL'
p1584
S'KRAS'
p1585
S'increases_activity'
p1586
tp1587
(lp1588
s(S'MTF1'
p1589
S'MECOM'
p1590
S'increases'
p1591
tp1592
(lp1593
s(S'TLX2'
p1594
S'FOXD3'
p1595
S'increases'
p1596
tp1597
(lp1598
s(S'Insulin Receptor/Insulin/SHC/GRB2/Sos1'
p1599
S'HRAS/GDP'
p1600
S'increases_activity'
p1601
tp1602
(lp1603
s(S'MYC'
p1604
S'ELK1'
p1605
S'increases'
p1606
tp1607
(lp1608
s(S'ONECUT1'
p1609
S'POU2F1'
p1610
S'increases'
p1611
tp1612
(lp1613
s(S'Paraquat'
p1614
S'HRAS MRNA'
p1615
S'translocates'
p1616
tp1617
(lp1618
s(S'GRB2/SOS1'
p1619
S'PDGF-BB/PDGFRB (DIMER)/SHP2'
p1620
S'binds'
p1621
tp1622
(lp1623
s(S'ONECUT1'
p1624
S'CYP26A1'
p1625
S'increases'
p1626
tp1627
(lp1628
s(S'MYC'
p1629
S'FOXO3'
p1630
S'increases'
p1631
tp1632
(lp1633
s(S'PAX3'
p1634
S'ELK1'
p1635
S'increases'
p1636
tp1637
(lp1638
s(S'DOK-R'
p1639
S'RASGAP'
p1640
S'binds'
p1641
tp1642
(lp1643
s(S'HOXA4'
p1644
S'HOXA9'
p1645
S'increases'
p1646
tp1647
(lp1648
s(S'MAX'
p1649
S'POU3F2'
p1650
S'increases'
p1651
tp1652
(lp1653
s(S'Estradiol'
p1654
S'KRAS MRNA'
p1655
S'decreases'
p1656
tp1657
(lp1658
s(S'KRAS ISOFORM 4B/GTP'
p1659
S'CAM/CA2+'
p1660
S'binds'
p1661
tp1662
(lp1663
s(S'MAZ'
p1664
S'FOXO4'
p1665
S'increases'
p1666
tp1667
(lp1668
s(S'hsa-miR-181a-5p'
p1669
S'KRAS'
p1670
S'decreases'
p1671
tp1672
(lp1673
s(S'GATA1'
p1674
S'CYP26A1'
p1675
S'increases'
p1676
tp1677
(lp1678
s(S'PGR'
p1679
S'ETS1'
p1680
S'increases'
p1681
tp1682
(lp1683
s(S'GATA1'
p1684
S'POU2F1'
p1685
S'increases'
p1686
tp1687
(lp1688
s(S'BRAF'
p1689
S'MEK1-2'
p1690
S'increases_activity'
p1691
tp1692
(lp1693
s(S'LEF1'
p1694
S'GABPB2'
p1695
S'increases'
p1696
tp1697
(lp1698
s(S'CYP26A1'
p1699
S'MYC'
p1700
S'increases'
p1701
tp1702
(lp1703
s(S'STAT1'
p1704
S'IRF1'
p1705
S'increases'
p1706
tp1707
(lp1708
s(S'SMAD1'
p1709
S'RUNX2'
p1710
S'increases'
p1711
tp1712
(lp1713
s(S'ZEB1'
p1714
S'TLX2'
p1715
S'increases'
p1716
tp1717
(lp1718
s(S'STAT5B'
p1719
S'IRF1'
p1720
S'increases'
p1721
tp1722
(lp1723
s(S'POU6F1'
p1724
S'CYP26A1'
p1725
S'increases'
p1726
tp1727
(lp1728
s(S'Vincristine'
p1729
S'HRAS MRNA'
p1730
S'increases'
p1731
tp1732
(lp1733
s(S'DAG'
p1734
S'RASGRP1'
p1735
S'adds_modification'
p1736
tp1737
(lp1738
s(S'PI3K'
p1739
S'PDK1'
p1740
S'increases_activity'
p1741
tp1742
(lp1743
s(S'ETS2'
p1744
S'PAX4'
p1745
S'increases'
p1746
tp1747
(lp1748
s(S'NR3C1'
p1749
S'ONECUT1'
p1750
S'increases'
p1751
tp1752
(lp1753
s(S'CUX1'
p1754
S'CYP26A1'
p1755
S'increases'
p1756
tp1757
(lp1758
s(S'ZEB1'
p1759
S'GATA1'
p1760
S'increases'
p1761
tp1762
(lp1763
s(S'NRF1'
p1764
S'POU2F1'
p1765
S'increases'
p1766
tp1767
(lp1768
s(S'FOXJ2'
p1769
S'MECOM'
p1770
S'increases'
p1771
tp1772
(lp1773
s(S'MAZ'
p1774
S'MYCN'
p1775
S'increases'
p1776
tp1777
(lp1778
s(S'Hydrogen Peroxide'
p1779
S'HRAS MRNA'
p1780
S'increases'
p1781
tp1782
(lp1783
s(S'RASA1'
p1784
S'P-EPHBS:EFNBS'
p1785
S'binds'
p1786
tp1787
(lp1788
s(S'SPI1'
p1789
S'CEBPG'
p1790
S'increases'
p1791
tp1792
(lp1793
s(S'EGR1'
p1794
S'LEF1'
p1795
S'increases'
p1796
tp1797
(lp1798
s(S'RET51/GFRALPHA1/GDNF'
p1799
S'P62DOK'
p1800
S'binds'
p1801
tp1802
(lp1803
s(S'TFDP2'
p1804
S'CYP26A1'
p1805
S'increases'
p1806
tp1807
(lp1808
s(S'matrine'
p1809
S'NRAS MRNA'
p1810
S'increases'
p1811
tp1812
(lp1813
s(S'Isotretinoin'
p1814
S'KRAS MRNA'
p1815
S'decreases'
p1816
tp1817
(lp1818
s(S'PITX2'
p1819
S'FOXF2'
p1820
S'increases'
p1821
tp1822
(lp1823
s(S'MYOD1'
p1824
S'POU2F1'
p1825
S'increases'
p1826
tp1827
(lp1828
s(S'sodium arsenite'
p1829
S'KRAS PROTEIN'
p1830
S'increases'
p1831
tp1832
(lp1833
s(S'TCF4'
p1834
S'CBFA2T3'
p1835
S'increases'
p1836
tp1837
(lp1838
s(S'CYP26A1'
p1839
S'FOXA1'
p1840
S'increases'
p1841
tp1842
(lp1843
s(S'TP53'
p1844
S'CYP26A1'
p1845
S'increases'
p1846
tp1847
(lp1848
s(S'ATF3'
p1849
S'FOXD3'
p1850
S'increases'
p1851
tp1852
(lp1853
s(S'POU2F1'
p1854
S'NRAS'
p1855
S'increases'
p1856
tp1857
(lp1858
s(S'NRF1'
p1859
S'GABPB2'
p1860
S'increases'
p1861
tp1862
(lp1863
s(S'PAX4'
p1864
S'TLX2'
p1865
S'increases'
p1866
tp1867
(lp1868
s(S'PITX2'
p1869
S'FOXA1'
p1870
S'increases'
p1871
tp1872
(lp1873
s(S'GTF3A'
p1874
S'POU2F1'
p1875
S'increases'
p1876
tp1877
(lp1878
s(S'HLF'
p1879
S'FOXO3'
p1880
S'increases'
p1881
tp1882
(lp1883
s(S'PAX4'
p1884
S'FOXO4'
p1885
S'increases'
p1886
tp1887
(lp1888
s(S'CEBPA'
p1889
S'FOXD3'
p1890
S'increases'
p1891
tp1892
(lp1893
s(S'NFE2'
p1894
S'CYP26A1'
p1895
S'increases'
p1896
tp1897
(lp1898
s(S'MYB'
p1899
S'GABPB2'
p1900
S'increases'
p1901
tp1902
(lp1903
s(S'MYC'
p1904
S'CEBPA'
p1905
S'increases'
p1906
tp1907
(lp1908
s(S'ELK1'
p1909
S'EN1'
p1910
S'increases'
p1911
tp1912
(lp1913
s(S'E2F1'
p1914
S'CDC5L'
p1915
S'increases'
p1916
tp1917
(lp1918
s(S'YWHAZ (DIMER)'
p1919
S'RAF1'
p1920
S'binds'
p1921
tp1922
(lp1923
s(S'ATF6'
p1924
S'CYP26A1'
p1925
S'increases'
p1926
tp1927
(lp1928
s(S'sodium arsenite'
p1929
S'HRAS MRNA'
p1930
S'increases'
p1931
tp1932
(lp1933
s(S'EGR3'
p1934
S'CYP26A1'
p1935
S'increases'
p1936
tp1937
(lp1938
s(S'lead acetate'
p1939
S'HRAS PROTEIN'
p1940
S'increases_activity'
p1941
tp1942
(lp1943
s(S'REPIN1'
p1944
S'MYC'
p1945
S'increases'
p1946
tp1947
(lp1948
s(S'CEBPA'
p1949
S'NRAS'
p1950
S'increases'
p1951
tp1952
(lp1953
s(S'Quercetin'
p1954
S'NRAS MRNA'
p1955
S'decreases'
p1956
tp1957
(lp1958
s(S'14-3-3 E'
p1959
S'TERT'
p1960
S'binds'
p1961
tp1962
(lp1963
s(S'Antigen/IgE/Fc epsilon R1/LYN/SYK'
p1964
S'BTK'
p1965
S'adds_modification'
p1966
tp1967
(lp1968
s(S'HSF2'
p1969
S'CBFA2T3'
p1970
S'increases'
p1971
tp1972
(lp1973
s(S'Fluorouracil'
p1974
S'HRAS MRNA'
p1975
S'increases'
p1976
tp1977
(lp1978
s(S'STAT4'
p1979
S'MECOM'
p1980
S'increases'
p1981
tp1982
(lp1983
s(S'ETS2'
p1984
S'ETS1'
p1985
S'increases'
p1986
tp1987
(lp1988
s(S'CEBPG'
p1989
S'CYP26A1'
p1990
S'increases'
p1991
tp1992
(lp1993
s(S'Complex (PDGF receptor A/PDGF receptor B)'
p1994
S'NCK'
p1995
S'adds_modification'
p1996
tp1997
(lp1998
s(S'Fog1'
p1999
S'MYB'
p2000
S'decreases'
p2001
tp2002
(lp2003
s(S'CREB1'
p2004
S'FOXD3'
p2005
S'increases'
p2006
tp2007
(lp2008
s(S'Numb'
p2009
S'NICS'
p2010
S'translocates'
p2011
tp2012
(lp2013
s(S'STAT6'
p2014
S'STAT5A'
p2015
S'increases'
p2016
tp2017
(lp2018
s(S'RAF1/14-3-3'
p2019
S'BRAF/14-3-3'
p2020
S'binds'
p2021
tp2022
(lp2023
s(S'B-cell antigen/BCR complex/LYN/SYK/BLNK'
p2024
S'SHC/GRB2/SOS1'
p2025
S'increases_activity'
p2026
tp2027
(lp2028
s(S'IRF2'
p2029
S'CYP26A1'
p2030
S'increases'
p2031
tp2032
(lp2033
s(S'GATA6'
p2034
S'CYP26A1'
p2035
S'increases'
p2036
tp2037
(lp2038
s(S'HMGA1'
p2039
S'CYP26A1'
p2040
S'increases'
p2041
tp2042
(lp2043
s(S'MTF1'
p2044
S'FOXO4'
p2045
S'increases'
p2046
tp2047
(lp2048
s(S'STAT1'
p2049
S'GABPB2'
p2050
S'increases'
p2051
tp2052
(lp2053
s(S'manumycin'
p2054
S'HRAS PROTEIN'
p2055
S'decreases'
p2056
tp2057
(lp2058
s(S'STAT5A'
p2059
S'ETS1'
p2060
S'increases'
p2061
tp2062
(lp2063
s(S'SPI1'
p2064
S'CBFA2T3'
p2065
S'increases'
p2066
tp2067
(lp2068
s(S'GMCSF/GMR ALPHA/CSF2RB/JAK2 (DODECAMER)/SHC'
p2069
S'GRB2/SOS1'
p2070
S'binds'
p2071
tp2072
(lp2073
s(S'7,8-Dihydro-7,8-dihydroxybenzo(a)pyrene 9,10-oxide'
p2074
S'NRAS PROTEIN'
p2075
S'increases'
p2076
tp2077
(lp2078
s(S'CDC5L'
p2079
S'CYP26A1'
p2080
S'increases'
p2081
tp2082
(lp2083
s(S'PAX4'
p2084
S'POU3F2'
p2085
S'increases'
p2086
tp2087
(lp2088
s(S'SPRED2'
p2089
S'HRAS'
p2090
S'binds'
p2091
tp2092
(lp2093
s(S'PITX2'
p2094
S'FOXO4'
p2095
S'increases'
p2096
tp2097
(lp2098
s(S'FOXD3'
p2099
S'CYP26A1'
p2100
S'increases'
p2101
tp2102
(lp2103
s(S'NFIL3'
p2104
S'FOXO3'
p2105
S'increases'
p2106
tp2107
(lp2108
s(S'MTF1'
p2109
S'POU2F1'
p2110
S'increases'
p2111
tp2112
(lp2113
s(S'TFCP2'
p2114
S'BACH1'
p2115
S'increases'
p2116
tp2117
(lp2118
s(S'NF1'
p2119
S'MECOM'
p2120
S'increases'
p2121
tp2122
(lp2123
s(S'FOXO3'
p2124
S'FOXD3'
p2125
S'increases'
p2126
tp2127
(lp2128
s(S'STAT5A'
p2129
S'TLX2'
p2130
S'increases'
p2131
tp2132
(lp2133
s(S'RIN1'
p2134
S'HRAS/GTP'
p2135
S'adds_modification'
p2136
tp2137
(lp2138
s(S'STAT5A'
p2139
S'CEBPG'
p2140
S'increases'
p2141
tp2142
(lp2143
s(S'DAG'
p2144
S'PKC'
p2145
S'increases_activity'
p2146
tp2147
(lp2148
s(S'HNF4A'
p2149
S'FOXA1'
p2150
S'increases'
p2151
tp2152
(lp2153
s(S'LEF1'
p2154
S'MAZ'
p2155
S'increases'
p2156
tp2157
(lp2158
s(S'hsa-miR-124-3p'
p2159
S'NRAS'
p2160
S'decreases'
p2161
tp2162
(lp2163
s(S'RAF1'
p2164
S'14-3-3 E'
p2165
S'binds'
p2166
tp2167
(lp2168
s(S'GATA1'
p2169
S'MYB'
p2170
S'decreases'
p2171
tp2172
(lp2173
s(S'LMO2'
p2174
S'GATA1'
p2175
S'increases'
p2176
tp2177
(lp2178
s(S'HRAS/GTP'
p2179
S'RAF1'
p2180
S'increases_activity'
p2181
tp2182
(lp2183
s(S'MYCN'
p2184
S'RUNX2'
p2185
S'increases'
p2186
tp2187
(lp2188
s(S'STAT5B'
p2189
S'CYP26A1'
p2190
S'increases'
p2191
tp2192
(lp2193
s(S'ZIC2'
p2194
S'MYCN'
p2195
S'increases'
p2196
tp2197
(lp2198
s(S'FOXL1'
p2199
S'FOXD3'
p2200
S'increases'
p2201
tp2202
(lp2203
s(S'ZBTB18'
p2204
S'CBFA2T3'
p2205
S'increases'
p2206
tp2207
(lp2208
s(S'HSF1'
p2209
S'IRF1'
p2210
S'increases'
p2211
tp2212
(lp2213
s(S'SPZ1'
p2214
S'MAZ'
p2215
S'increases'
p2216
tp2217
(lp2218
s(S'SRY'
p2219
S'CYP26A1'
p2220
S'increases'
p2221
tp2222
(lp2223
s(S'FOXO4'
p2224
S'HOXA9'
p2225
S'increases'
p2226
tp2227
(lp2228
s(S'IGF-1R heterotetramer/IGF1/IRS1/GRB2/Sos'
p2229
S'HRAS/GDP'
p2230
S'increases_activity'
p2231
tp2232
(lp2233
s(S'hsa-miR-615-3p'
p2234
S'HRAS'
p2235
S'decreases'
p2236
tp2237
(lp2238
s(S'ESRRA'
p2239
S'FOXD3'
p2240
S'increases'
p2241
tp2242
(lp2243
s(S'ELK1'
p2244
S'CYP26A1'
p2245
S'increases'
p2246
tp2247
(lp2248
s(S'Hexane-1,6-Diol'
p2249
S'HRAS'
p2250
S'increases_activity'
p2251
tp2252
(lp2253
s(S'MAZ'
p2254
S'NRAS'
p2255
S'increases'
p2256
tp2257
(lp2258
s(S'MIF'
p2259
S'CYP26A1'
p2260
S'increases'
p2261
tp2262
(lp2263
s(S'AHR'
p2264
S'POU2F1'
p2265
S'increases'
p2266
tp2267
(lp2268
s(S'SMAD3'
p2269
S'CYP26A1'
p2270
S'increases'
p2271
tp2272
(lp2273
s(S'PI-3-4-5-P3'
p2274
S'GELSOLIN'
p2275
S'binds'
p2276
tp2277
(lp2278
s(S'ADP'
p2279
S'P-S724-IRE1 DIMER'
p2280
S'binds'
p2281
tp2282
(lp2283
s(S'testosterone enanthate'
p2284
S'KRAS MRNA'
p2285
S'increases'
p2286
tp2287
(lp2288
s(S'CYP26A1'
p2289
S'ONECUT1'
p2290
S'increases'
p2291
tp2292
(lp2293
s(S'Valproic Acid'
p2294
S'NRAS MRNA'
p2295
S'decreases'
p2296
tp2297
(lp2298
s(S'GTF2A2'
p2299
S'CYP26A1'
p2300
S'increases'
p2301
tp2302
(lp2303
s(S'CEBPA'
p2304
S'FOXO3'
p2305
S'increases'
p2306
tp2307
(lp2308
s(S'GATA3'
p2309
S'POU2F1'
p2310
S'increases'
p2311
tp2312
(lp2313
s(S'PI3K'
p2314
S'RAC1B/GDP'
p2315
S'increases_activity'
p2316
tp2317
(lp2318
s(S'CDC25C'
p2319
S'YWHAB'
p2320
S'binds'
p2321
tp2322
(lp2323
s(S'RAC1/GTP'
p2324
S'PAK1/BETAPIX/PKL/NCK1-2'
p2325
S'increases_activity'
p2326
tp2327
(lp2328
s(S'SMAD1'
p2329
S'CYP26A1'
p2330
S'increases'
p2331
tp2332
(lp2333
s(S'PI3K'
p2334
S'FAK'
p2335
S'adds_modification'
p2336
tp2337
(lp2338
S'CCR9-CCL25 axis provides survival advantage to BrCa cells and inhibits cisplatin-induced apoptosis in a PI3K-dependent and focal adhesion kinase (FAK)-independent fashion.'
p2339
aS'This study investigates the role of CCR9-CCL25 interactions and requirement for PI3K and FAK activation in BrCa cell survival and cisplatin resistance.'
p2340
aS'We also show that CCR9-CCL25 interaction promotes cell proliferation and upregulated anti-apoptotic signaling, which is mediated by the PI3K/Akt survival pathway, independent of FAK.'
p2341
as(S'NRF1'
p2342
S'MAX'
p2343
S'increases'
p2344
tp2345
(lp2346
s(S'FOXI1'
p2347
S'RUNX2'
p2348
S'increases'
p2349
tp2350
(lp2351
s(S'7,8-Dihydro-7,8-dihydroxybenzo(a)pyrene 9,10-oxide'
p2352
S'HRAS MRNA'
p2353
S'increases'
p2354
tp2355
(lp2356
s(S'ETS1'
p2357
S'CBFA2T3'
p2358
S'increases'
p2359
tp2360
(lp2361
s(S'hsa-miR-98-5p'
p2362
S'NRAS'
p2363
S'decreases'
p2364
tp2365
(lp2366
s(S'PHOSPHORYLATED BRF1 (SER92, SER203):MRNA COMPLEX'
p2367
S'YWHAB'
p2368
S'binds'
p2369
tp2370
(lp2371
s(S'LMO2'
p2372
S'CYP26A1'
p2373
S'increases'
p2374
tp2375
(lp2376
s(S'SOS1'
p2377
S'GRB2:PFAK BOUND TO NCAM1:PFYN'
p2378
S'binds'
p2379
tp2380
(lp2381
s(S'GTF3A'
p2382
S'GATA6'
p2383
S'increases'
p2384
tp2385
(lp2386
s(S'ZIC2'
p2387
S'CYP26A1'
p2388
S'increases'
p2389
tp2390
(lp2391
s(S'PAX2'
p2392
S'POU3F2'
p2393
S'increases'
p2394
tp2395
(lp2396
s(S'CEBPD'
p2397
S'FOXO3'
p2398
S'increases'
p2399
tp2400
(lp2401
s(S'NF1'
p2402
S'CYP26A1'
p2403
S'increases'
p2404
tp2405
(lp2406
s(S'BRAF'
p2407
S'MEK2'
p2408
S'adds_modification'
p2409
tp2410
(lp2411
s(S'TFAP4'
p2412
S'RUNX1'
p2413
S'increases'
p2414
tp2415
(lp2416
s(S'FAK'
p2417
S'SOS'
p2418
S'binds'
p2419
tp2420
(lp2421
s(S'EGR1'
p2422
S'RUNX1'
p2423
S'increases'
p2424
tp2425
(lp2426
s(S'TCF4'
p2427
S'FOXO4'
p2428
S'increases'
p2429
tp2430
(lp2431
s(S'MAZ'
p2432
S'CBFA2T3'
p2433
S'increases'
p2434
tp2435
(lp2436
s(S'MEIS1'
p2437
S'HRAS'
p2438
S'increases'
p2439
tp2440
(lp2441
s(S'RELA'
p2442
S'CYP26A1'
p2443
S'increases'
p2444
tp2445
(lp2446
s(S'hsa-miR-877-3p'
p2447
S'NRAS'
p2448
S'decreases'
p2449
tp2450
(lp2451
s(S'MYC'
p2452
S'LEF1'
p2453
S'increases'
p2454
tp2455
(lp2456
s(S'FOXO4'
p2457
S'RUNX1'
p2458
S'increases'
p2459
tp2460
(lp2461
s(S'LEF1'
p2462
S'RUNX1'
p2463
S'increases'
p2464
tp2465
(lp2466
s(S'TFDP2'
p2467
S'GATA1'
p2468
S'increases'
p2469
tp2470
(lp2471
s(S'AHR'
p2472
S'CYP26A1'
p2473
S'increases'
p2474
tp2475
(lp2476
s(S'4-Nitroquinoline-1-oxide'
p2477
S'PTGS2 MRNA'
p2478
S'increases'
p2479
tp2480
(lp2481
s(S'TGIF'
p2482
S'FOXO3'
p2483
S'increases'
p2484
tp2485
(lp2486
s(S'FOXF2'
p2487
S'CEBPA'
p2488
S'increases'
p2489
tp2490
(lp2491
s(S'NFE2L1'
p2492
S'POU2F1'
p2493
S'increases'
p2494
tp2495
(lp2496
s(S'LHX3'
p2497
S'CYP26A1'
p2498
S'increases'
p2499
tp2500
(lp2501
s(S'HMGA1'
p2502
S'MEIS1'
p2503
S'increases'
p2504
tp2505
(lp2506
s(S'POU2F1'
p2507
S'CYP26A1'
p2508
S'increases'
p2509
tp2510
(lp2511
s(S'PRRX2'
p2512
S'HOXA9'
p2513
S'increases'
p2514
tp2515
(lp2516
s(S'ETS2'
p2517
S'CEBPG'
p2518
S'increases'
p2519
tp2520
(lp2521
s(S'hsa-miR-193b-3p'
p2522
S'KRAS'
p2523
S'decreases'
p2524
tp2525
(lp2526
s(S'RREB1'
p2527
S'RUNX1'
p2528
S'increases'
p2529
tp2530
(lp2531
s(S'IL2/IL2R BETA/GAMMA/JAK1/FYN/JAK3'
p2532
S'PI3K'
p2533
S'binds'
p2534
tp2535
(lp2536
s(S'ELK1'
p2537
S'MEIS1'
p2538
S'increases'
p2539
tp2540
(lp2541
s(S'CYP26A1'
p2542
S'HOXA9'
p2543
S'increases'
p2544
tp2545
(lp2546
s(S'SPZ1'
p2547
S'HOXA9'
p2548
S'increases'
p2549
tp2550
(lp2551
s(S'ERK1'
p2552
S'P-S218,222-MEK1'
p2553
S'binds'
p2554
tp2555
(lp2556
s(S'NHLH1'
p2557
S'MYC'
p2558
S'increases'
p2559
tp2560
(lp2561
s(S'Daunorubicin'
p2562
S'NRAS MRNA'
p2563
S'increases'
p2564
tp2565
(lp2566
s(S'HNF1A'
p2567
S'FOXA1'
p2568
S'increases'
p2569
tp2570
(lp2571
s(S'MYC'
p2572
S'ONECUT1'
p2573
S'increases'
p2574
tp2575
(lp2576
s(S'Vanadates'
p2577
S'HRAS PROTEIN'
p2578
S'increases'
p2579
tp2580
(lp2581
s(S'Purine nucleotide'
p2582
S'H+'
p2583
S'translocates'
p2584
tp2585
(lp2586
s(S'NFE2'
p2587
S'BACH1'
p2588
S'increases'
p2589
tp2590
(lp2591
s(S'EGR4'
p2592
S'CYP26A1'
p2593
S'increases'
p2594
tp2595
(lp2596
s(S'NRF1'
p2597
S'ONECUT1'
p2598
S'increases'
p2599
tp2600
(lp2601
s(S'GFI1'
p2602
S'HOXA9'
p2603
S'increases'
p2604
tp2605
(lp2606
s(S'NR1H4'
p2607
S'FOXD3'
p2608
S'increases'
p2609
tp2610
(lp2611
s(S'STAT6'
p2612
S'FOXA1'
p2613
S'increases'
p2614
tp2615
(lp2616
s(S'INSULIN RECEPTOR/INSULI/IRS1/GRB2/SHC'
p2617
S'SOS1'
p2618
S'binds'
p2619
tp2620
(lp2621
s(S'Tetrachlorodibenzodioxin'
p2622
S'KRAS MRNA'
p2623
S'increases'
p2624
tp2625
(lp2626
s(S'TCF3'
p2627
S'MYC'
p2628
S'increases'
p2629
tp2630
(lp2631
s(S'BACH1'
p2632
S'EN1'
p2633
S'increases'
p2634
tp2635
(lp2636
s(S'RFX1'
p2637
S'CYP26A1'
p2638
S'increases'
p2639
tp2640
(lp2641
s(S'ZEB1'
p2642
S'FOXD3'
p2643
S'increases'
p2644
tp2645
(lp2646
s(S'IRF7'
p2647
S'EN1'
p2648
S'increases'
p2649
tp2650
(lp2651
s(S'GAB2/GRB2/SOS1'
p2652
S'IL2/IL2R ALPHA/BETA/GAMMA/JAK1/LCK/JAK3/SHC'
p2653
S'binds'
p2654
tp2655
(lp2656
s(S'GATA3'
p2657
S'FOXA1'
p2658
S'increases'
p2659
tp2660
(lp2661
s(S'TFAP4'
p2662
S'CYP26A1'
p2663
S'increases'
p2664
tp2665
(lp2666
s(S'FOXF2'
p2667
S'MECOM'
p2668
S'increases'
p2669
tp2670
(lp2671
s(S'NF1'
p2672
S'POU2F1'
p2673
S'increases'
p2674
tp2675
(lp2676
s(S'IRF1'
p2677
S'FOXA1'
p2678
S'increases'
p2679
tp2680
(lp2681
s(S'Rho Family GTPase-active'
p2682
S'PIP5K1A'
p2683
S'increases_activity'
p2684
tp2685
(lp2686
s(S'POU6F1'
p2687
S'EN1'
p2688
S'increases'
p2689
tp2690
(lp2691
s(S'TCF4'
p2692
S'LEF1'
p2693
S'increases'
p2694
tp2695
(lp2696
s(S'MAZ'
p2697
S'FOXO3'
p2698
S'increases'
p2699
tp2700
(lp2701
s(S'POU3F2'
p2702
S'MECOM'
p2703
S'increases'
p2704
tp2705
(lp2706
s(S'GTF3A'
p2707
S'CYP26A1'
p2708
S'increases'
p2709
tp2710
(lp2711
s(S'PI-3-4-5-P3'
p2712
S'AKT2'
p2713
S'adds_modification'
p2714
tp2715
(lp2716
s(S'VSX1'
p2717
S'POU2F1'
p2718
S'increases'
p2719
tp2720
(lp2721
s(S'PHOSPHORYLATED TTP:MRNA COMPLEX'
p2722
S'YWHAB'
p2723
S'binds'
p2724
tp2725
(lp2726
s(S'MEIS1'
p2727
S'MYC'
p2728
S'increases'
p2729
tp2730
(lp2731
s(S'Complex (PDGF receptor A/PDGF receptor B)'
p2732
S'RASGAP'
p2733
S'adds_modification'
p2734
tp2735
(lp2736
s(S'RORA'
p2737
S'CYP26A1'
p2738
S'increases'
p2739
tp2740
(lp2741
s(S'ATF4'
p2742
S'CDC5L'
p2743
S'increases'
p2744
tp2745
(lp2746
s(S'SHC/RasGAP'
p2747
S'RAS FAMILY/GTP'
p2748
S'increases_activity'
p2749
tp2750
(lp2751
s(S'NKX2-1'
p2752
S'MYC'
p2753
S'increases'
p2754
tp2755
(lp2756
s(S'NF1'
p2757
S'SRF'
p2758
S'increases'
p2759
tp2760
(lp2761
s(S'STAT4'
p2762
S'NRAS'
p2763
S'increases'
p2764
tp2765
(lp2766
s(S'POU6F1'
p2767
S'MEIS1'
p2768
S'increases'
p2769
tp2770
(lp2771
s(S'P-KIT COMPLEX'
p2772
S'GRB2:SOS1'
p2773
S'binds'
p2774
tp2775
(lp2776
s(S'MYCN'
p2777
S'MAX'
p2778
S'increases'
p2779
tp2780
(lp2781
s(S'STAT5A'
p2782
S'CYP26A1'
p2783
S'increases'
p2784
tp2785
(lp2786
s(S'GATA3'
p2787
S'EN1'
p2788
S'increases'
p2789
tp2790
(lp2791
s(S'E4F1'
p2792
S'FOXD3'
p2793
S'increases'
p2794
tp2795
(lp2796
s(S'MYB'
p2797
S'ONECUT1'
p2798
S'increases'
p2799
tp2800
(lp2801
s(S'Cadmium Chloride'
p2802
S'NRAS PROTEIN'
p2803
S'increases'
p2804
tp2805
(lp2806
s(S'Deoxycholic Acid'
p2807
S'HRAS PROTEIN'
p2808
S'increases_activity'
p2809
tp2810
(lp2811
s(S'HLF'
p2812
S'CYP26A1'
p2813
S'increases'
p2814
tp2815
(lp2816
s(S'GMCSF/GMR ALPHA/CSF2RB/JAK2 (DIMER)'
p2817
S'YWHAZ'
p2818
S'binds'
p2819
tp2820
(lp2821
s(S'HNF1A'
p2822
S'FOXF2'
p2823
S'increases'
p2824
tp2825
(lp2826
s(S'FOXF2'
p2827
S'GATA6'
p2828
S'increases'
p2829
tp2830
(lp2831
s(S'Arsenic'
p2832
S'GSS PROTEIN'
p2833
S'increases'
p2834
tp2835
(lp2836
s(S'COMPLEX (SOS/GRB2)'
p2837
S'FGFR1-4'
p2838
S'binds'
p2839
tp2840
(lp2841
s(S'MYOD1'
p2842
S'NRAS'
p2843
S'increases'
p2844
tp2845
(lp2846
s(S'MECOM'
p2847
S'CYP26A1'
p2848
S'increases'
p2849
tp2850
(lp2851
s(S'PBX1'
p2852
S'CYP26A1'
p2853
S'increases'
p2854
tp2855
(lp2856
s(S'MAZ'
p2857
S'MEIS1'
p2858
S'increases'
p2859
tp2860
(lp2861
s(S'PAX4'
p2862
S'ELK1'
p2863
S'increases'
p2864
tp2865
(lp2866
s(S'ESRRA'
p2867
S'MECOM'
p2868
S'increases'
p2869
tp2870
(lp2871
s(S'CEBPD'
p2872
S'TLX2'
p2873
S'increases'
p2874
tp2875
(lp2876
s(S'CRX'
p2877
S'FOXA1'
p2878
S'increases'
p2879
tp2880
(lp2881
s(S'GABPB1'
p2882
S'NRAS'
p2883
S'increases'
p2884
tp2885
(lp2886
s(S'CRX'
p2887
S'MEIS1'
p2888
S'increases'
p2889
tp2890
(lp2891
s(S'pirinixic acid/PPARA protein'
p2892
S'KRAS MRNA'
p2893
S'increases'
p2894
tp2895
(lp2896
s(S'BACH2'
p2897
S'FOXA1'
p2898
S'increases'
p2899
tp2900
(lp2901
s(S'JUN'
p2902
S'MECOM'
p2903
S'increases'
p2904
tp2905
(lp2906
s(S'7,8-Dihydro-7,8-dihydroxybenzo(a)pyrene 9,10-oxide'
p2907
S'KRAS MRNA'
p2908
S'decreases'
p2909
tp2910
(lp2911
s(S'SRY'
p2912
S'FOXO4'
p2913
S'increases'
p2914
tp2915
(lp2916
s(S'PI3K'
p2917
S'AKT1'
p2918
S'adds_modification'
p2919
tp2920
(lp2921
s(S'GATA3'
p2922
S'CYP26A1'
p2923
S'increases'
p2924
tp2925
(lp2926
s(S'RAS:GTP'
p2927
S'P-EPHBS:EFNBS:RASA1'
p2928
S'binds'
p2929
tp2930
(lp2931
s(S'STAT5A'
p2932
S'MECOM'
p2933
S'increases'
p2934
tp2935
(lp2936
s(S'RAS family/GTP'
p2937
S'RAF1'
p2938
S'increases_activity'
p2939
tp2940
(lp2941
s(S'RHOA/GTP'
p2942
S'PLD1-2'
p2943
S'increases_activity'
p2944
tp2945
(lp2946
s(S'FOXJ2'
p2947
S'CYP26A1'
p2948
S'increases'
p2949
tp2950
(lp2951
s(S'LEF1'
p2952
S'MECOM'
p2953
S'increases'
p2954
tp2955
(lp2956
s(S'GABPB2'
p2957
S'CDC5L'
p2958
S'increases'
p2959
tp2960
(lp2961
s(S'ESRRA'
p2962
S'CYP26A1'
p2963
S'increases'
p2964
tp2965
(lp2966
s(S'PI-3-4-5-P3'
p2967
S'WAVE2/NAP1/SRA1/ABI1/HSPC300'
p2968
S'translocates'
p2969
tp2970
(lp2971
s(S'CUX1'
p2972
S'MECOM'
p2973
S'increases'
p2974
tp2975
(lp2976
s(S'MAX'
p2977
S'CYP26A1'
p2978
S'increases'
p2979
tp2980
(lp2981
s(S'RXRB'
p2982
S'FOXD3'
p2983
S'increases'
p2984
tp2985
(lp2986
s(S'IRF1'
p2987
S'NRAS'
p2988
S'increases'
p2989
tp2990
(lp2991
s(S'MECOM'
p2992
S'MAX'
p2993
S'increases'
p2994
tp2995
(lp2996
s(S'PAX6'
p2997
S'CYP26A1'
p2998
S'increases'
p2999
tp3000
(lp3001
s(S'GRB2/SOS1'
p3002
S'EGFR/EGFR/EGF/EGF/P46 SHC'
p3003
S'binds'
p3004
tp3005
(lp3006
s(S'POU6F1'
p3007
S'POU2F1'
p3008
S'increases'
p3009
tp3010
(lp3011
s(S'RUNX1'
p3012
S'MYOD1'
p3013
S'increases'
p3014
tp3015
(lp3016
s(S'COMPLEX (GRB2/SOS)'
p3017
S'EGFR'
p3018
S'binds'
p3019
tp3020
(lp3021
s(S'MAZ'
p3022
S'MECOM'
p3023
S'increases'
p3024
tp3025
(lp3026
s(S'REPIN1'
p3027
S'EN1'
p3028
S'increases'
p3029
tp3030
(lp3031
s(S'RAS family/GTP'
p3032
S'RAF1'
p3033
S'adds_modification'
p3034
tp3035
(lp3036
s(S'E4F1'
p3037
S'CYP26A1'
p3038
S'increases'
p3039
tp3040
(lp3041
s(S'Rac'
p3042
S'MEKK1-5'
p3043
S'adds_modification'
p3044
tp3045
(lp3046
s(S'HAND1'
p3047
S'CYP26A1'
p3048
S'increases'
p3049
tp3050
(lp3051
s(S'Quercetin'
p3052
S'NRAS PROTEIN'
p3053
S'decreases'
p3054
tp3055
(lp3056
s(S'HRAS:GTP'
p3057
S'CRAF'
p3058
S'binds'
p3059
tp3060
(lp3061
s(S'REPIN1'
p3062
S'FOXA1'
p3063
S'increases'
p3064
tp3065
(lp3066
s(S'hsa-miR-155-5p'
p3067
S'KRAS'
p3068
S'decreases'
p3069
tp3070
(lp3071
s(S'PAX4'
p3072
S'EN1'
p3073
S'increases'
p3074
tp3075
(lp3076
s(S'FOXN1'
p3077
S'JUN'
p3078
S'increases'
p3079
tp3080
(lp3081
s(S'TFCP2'
p3082
S'GATA1'
p3083
S'increases'
p3084
tp3085
(lp3086
s(S'SHC'
p3087
S'GRAP2'
p3088
S'binds'
p3089
tp3090
(lp3091
s(S'CEBPG'
p3092
S'NRAS'
p3093
S'increases'
p3094
tp3095
(lp3096
s(S'FOXN1'
p3097
S'FOXO4'
p3098
S'increases'
p3099
tp3100
(lp3101
s(S'IL2/IL2R ALPHA/BETA/GAMMA/JAK1/LCK/JAK3/IRS1-2'
p3102
S'PI3K'
p3103
S'binds'
p3104
tp3105
(lp3106
s(S'POU1F1'
p3107
S'EN1'
p3108
S'increases'
p3109
tp3110
(lp3111
s(S'FOXJ1'
p3112
S'POU2F1'
p3113
S'increases'
p3114
tp3115
(lp3116
s(S'YY1'
p3117
S'POU2F1'
p3118
S'increases'
p3119
tp3120
(lp3121
s(S'7,8-Dihydro-7,8-dihydroxybenzo(a)pyrene 9,10-oxide'
p3122
S'NRAS MRNA'
p3123
S'increases'
p3124
tp3125
(lp3126
s(S'EGF/EGFR'
p3127
S'HRAS/GDP'
p3128
S'increases_activity'
p3129
tp3130
(lp3131
s(S'TFAP4'
p3132
S'GABPB2'
p3133
S'increases'
p3134
tp3135
(lp3136
s(S'TFAP2A'
p3137
S'POU3F2'
p3138
S'increases'
p3139
tp3140
(lp3141
s(S'TCF12'
p3142
S'CBFA2T3'
p3143
S'increases'
p3144
tp3145
(lp3146
s(S'STAT3'
p3147
S'IRF1'
p3148
S'increases'
p3149
tp3150
(lp3151
s(S'MYOD1'
p3152
S'GATA1'
p3153
S'increases'
p3154
tp3155
(lp3156
s(S'REPIN1'
p3157
S'HRAS'
p3158
S'increases'
p3159
tp3160
(lp3161
s(S'PAX4'
p3162
S'MAX'
p3163
S'increases'
p3164
tp3165
(lp3166
s(S'PAX2'
p3167
S'FOXA1'
p3168
S'increases'
p3169
tp3170
(lp3171
s(S'Lipopolysaccharides'
p3172
S'HRAS PROTEIN'
p3173
S'increases_activity'
p3174
tp3175
(lp3176
s(S'7,8-Dihydro-7,8-dihydroxybenzo(a)pyrene 9,10-oxide'
p3177
S'KRAS MRNA'
p3178
S'increases'
p3179
tp3180
(lp3181
s(S'REPIN1'
p3182
S'GATA1'
p3183
S'increases'
p3184
tp3185
(lp3186
s(S'Formaldehyde'
p3187
S'HRAS MRNA'
p3188
S'increases'
p3189
tp3190
(lp3191
s(S'ESRRA'
p3192
S'STAT5A'
p3193
S'increases'
p3194
tp3195
(lp3196
s(S'farnesylthiosalicylic acid'
p3197
S'HRAS PROTEIN'
p3198
S'decreases'
p3199
tp3200
(lp3201
s(S'JUN'
p3202
S'RUNX1'
p3203
S'increases'
p3204
tp3205
(lp3206
s(S'FOXD3'
p3207
S'RUNX1'
p3208
S'increases'
p3209
tp3210
(lp3211
s(S'SOX9'
p3212
S'CYP26A1'
p3213
S'increases'
p3214
tp3215
(lp3216
s(S'hexabromocyclododecane'
p3217
S'HRAS MRNA'
p3218
S'increases'
p3219
tp3220
(lp3221
s(S'RUNX2'
p3222
S'KRAS'
p3223
S'increases'
p3224
tp3225
(lp3226
s(S'PGR'
p3227
S'CYP26A1'
p3228
S'increases'
p3229
tp3230
(lp3231
s(S'CYP26A1'
p3232
S'MAZ'
p3233
S'increases'
p3234
tp3235
(lp3236
s(S'RAC1/GTP'
p3237
S'AKT1'
p3238
S'adds_modification'
p3239
tp3240
(lp3241
s(S'FOXO3'
p3242
S'CYP26A1'
p3243
S'increases'
p3244
tp3245
(lp3246
s(S'MAX'
p3247
S'SRF'
p3248
S'increases'
p3249
tp3250
(lp3251
s(S'RUNX2'
p3252
S'NRAS'
p3253
S'increases'
p3254
tp3255
(lp3256
s(S'HSF2'
p3257
S'CYP26A1'
p3258
S'increases'
p3259
tp3260
(lp3261
s(S'IL2/IL2R ALPHA/BETA/GAMMA/JAK1/LCK/JAK3/SHC/GRB2/SOS1/GAB2/SHP2'
p3262
S'PI3K'
p3263
S'binds'
p3264
tp3265
(lp3266
s(S'SPI1'
p3267
S'STAT5A'
p3268
S'increases'
p3269
tp3270
(lp3271
s(S'ZHX2'
p3272
S'MYC'
p3273
S'increases'
p3274
tp3275
(lp3276
s(S'RAF1-BRAF'
p3277
S'MEK1-2'
p3278
S'increases_activity'
p3279
tp3280
(lp3281
s(S'SHC'
p3282
S'GRB2'
p3283
S'binds'
p3284
tp3285
(lp3286
s(S'RB1'
p3287
S'GATA1'
p3288
S'increases'
p3289
tp3290
(lp3291
s(S'TCF3'
p3292
S'FOXJ2'
p3293
S'increases'
p3294
tp3295
(lp3296
s(S'FOXJ2'
p3297
S'NRAS'
p3298
S'increases'
p3299
tp3300
(lp3301
s(S'REPIN1'
p3302
S'LEF1'
p3303
S'increases'
p3304
tp3305
(lp3306
s(S'Aflatoxin B1'
p3307
S'HRAS MRNA'
p3308
S'increases'
p3309
tp3310
(lp3311
s(S'PAX4'
p3312
S'MEIS1'
p3313
S'increases'
p3314
tp3315
(lp3316
s(S'FOXF2'
p3317
S'FOXD3'
p3318
S'increases'
p3319
tp3320
(lp3321
s(S'CBFA2T3'
p3322
S'RUNX1'
p3323
S'increases'
p3324
tp3325
(lp3326
s(S'FOXC1'
p3327
S'HOXA9'
p3328
S'increases'
p3329
tp3330
(lp3331
s(S'DBP'
p3332
S'CYP26A1'
p3333
S'increases'
p3334
tp3335
(lp3336
s(S'TGIF'
p3337
S'EN1'
p3338
S'increases'
p3339
tp3340
(lp3341
s(S'PI-3-4-5-P3'
p3342
S'P62DOK'
p3343
S'adds_modification'
p3344
tp3345
(lp3346
s(S'JUN'
p3347
S'TLX2'
p3348
S'increases'
p3349
tp3350
(lp3351
s(S'Benzo(a)pyrene'
p3352
S'HRAS MRNA'
p3353
S'increases'
p3354
tp3355
(lp3356
s(S'STAT4'
p3357
S'CYP26A1'
p3358
S'increases'
p3359
tp3360
(lp3361
s(S'EGFR/EGFR/EGF/EGF'
p3362
S'SRC'
p3363
S'adds_modification'
p3364
tp3365
(lp3366
s(S'FOXQ1'
p3367
S'FOXD3'
p3368
S'increases'
p3369
tp3370
(lp3371
s(S'FOXJ1'
p3372
S'NRAS'
p3373
S'increases'
p3374
tp3375
(lp3376
s(S'TCF3'
p3377
S'POU2F1'
p3378
S'increases'
p3379
tp3380
(lp3381
s(S'MYB'
p3382
S'CYP26A1'
p3383
S'increases'
p3384
tp3385
(lp3386
s(S'GATA4'
p3387
S'CYP26A1'
p3388
S'increases'
p3389
tp3390
(lp3391
s(S'ELK1'
p3392
S'STAT4'
p3393
S'increases'
p3394
tp3395
(lp3396
s(S'CYP26A1'
p3397
S'LEF1'
p3398
S'increases'
p3399
tp3400
(lp3401
s(S"Guanosine-5'-Diphosphate"
p3402
S'HRAS'
p3403
S'increases_activity'
p3404
tp3405
(lp3406
s(S'ETV4'
p3407
S'CYP26A1'
p3408
S'increases'
p3409
tp3410
(lp3411
s(S'EPHRIN B/EPHB2'
p3412
S'RASGAP'
p3413
S'binds'
p3414
tp3415
(lp3416
s(S'ESR1'
p3417
S'FOXF2'
p3418
S'increases'
p3419
tp3420
(lp3421
s(S'CDC5L'
p3422
S'FOXA1'
p3423
S'increases'
p3424
tp3425
(lp3426
s(S'MAZ'
p3427
S'HOXA9'
p3428
S'increases'
p3429
tp3430
(lp3431
s(S'HIF1A'
p3432
S'MAX'
p3433
S'increases'
p3434
tp3435
(lp3436
s(S'FOXN1'
p3437
S'HOXA9'
p3438
S'increases'
p3439
tp3440
(lp3441
s(S'LEF1'
p3442
S'BACH1'
p3443
S'increases'
p3444
tp3445
(lp3446
s(S'PDX1'
p3447
S'FOXO3'
p3448
S'increases'
p3449
tp3450
(lp3451
s(S'CBFA2T3'
p3452
S'CYP26A1'
p3453
S'increases'
p3454
tp3455
(lp3456
s(S'Rabex5'
p3457
S'HRAS/GTP'
p3458
S'adds_modification'
p3459
tp3460
(lp3461
s(S'CBFA2T3'
p3462
S'RUNX2'
p3463
S'increases'
p3464
tp3465
(lp3466
s(S'PI-3-4-5-P3'
p3467
S'ARAP3'
p3468
S'translocates'
p3469
tp3470
(lp3471
s(S'CART1'
p3472
S'CYP26A1'
p3473
S'increases'
p3474
tp3475
(lp3476
s(S'Arsenic'
p3477
S'NRAS MRNA'
p3478
S'increases'
p3479
tp3480
(lp3481
s(S'NRF1'
p3482
S'CDC5L'
p3483
S'increases'
p3484
tp3485
(lp3486
s(S'Quercetin'
p3487
S'HRAS PROTEIN'
p3488
S'decreases'
p3489
tp3490
(lp3491
s(S"N,N'-DIMETHYL-N-(ACETYL)-N'-(7-NITROBENZ-2-OXA-1,3-DIAZOL-4-YL)ETHYLENEDIAMINE"
p3492
S'HRAS'
p3493
S'increases_activity'
p3494
tp3495
(lp3496
s(S'TFDP1'
p3497
S'FOXD3'
p3498
S'increases'
p3499
tp3500
(lp3501
s(S'AR'
p3502
S'TLX2'
p3503
S'increases'
p3504
tp3505
(lp3506
s(S'hsa-miR-181c-5p'
p3507
S'KRAS'
p3508
S'decreases'
p3509
tp3510
(lp3511
s(S'SMAD3'
p3512
S'CBFA2T3'
p3513
S'increases'
p3514
tp3515
(lp3516
s(S'HOXA9'
p3517
S'NRAS'
p3518
S'increases'
p3519
tp3520
(lp3521
s(S'PITX2'
p3522
S'CYP26A1'
p3523
S'increases'
p3524
tp3525
(lp3526
s(S'ATF3'
p3527
S'CYP26A1'
p3528
S'increases'
p3529
tp3530
(lp3531
s(S'E2F1'
p3532
S'MAZ'
p3533
S'increases'
p3534
tp3535
(lp3536
s(S'Ethyl Methanesulfonate'
p3537
S'HRAS MRNA'
p3538
S'increases'
p3539
tp3540
(lp3541
s(S'LMO2'
p3542
S'FOXA1'
p3543
S'increases'
p3544
tp3545
(lp3546
s(S'FOXC1'
p3547
S'POU2F1'
p3548
S'increases'
p3549
tp3550
(lp3551
s(S'DDIT3'
p3552
S'CYP26A1'
p3553
S'increases'
p3554
tp3555
(lp3556
s(S'PAX8'
p3557
S'CYP26A1'
p3558
S'increases'
p3559
tp3560
(lp3561
s(S'LHX3'
p3562
S'EN1'
p3563
S'increases'
p3564
tp3565
(lp3566
s(S'KAT2B'
p3567
S'CYP26A1'
p3568
S'increases'
p3569
tp3570
(lp3571
s(S'P100'
p3572
S'MYB'
p3573
S'binds'
p3574
tp3575
(lp3576
s(S'SOX9'
p3577
S'FOXA1'
p3578
S'increases'
p3579
tp3580
(lp3581
s(S'HIF1A'
p3582
S'EN1'
p3583
S'increases'
p3584
tp3585
(lp3586
s(S'REPIN1'
p3587
S'RUNX1'
p3588
S'increases'
p3589
tp3590
(lp3591
s(S'MYOD1'
p3592
S'BACH1'
p3593
S'increases'
p3594
tp3595
(lp3596
s(S'EBF2'
p3597
S'REPIN1'
p3598
S'increases'
p3599
tp3600
(lp3601
s(S'bisphenol A'
p3602
S'HRAS MRNA'
p3603
S'increases'
p3604
tp3605
(lp3606
s(S'E2F1'
p3607
S'EN1'
p3608
S'increases'
p3609
tp3610
(lp3611
s(S'MYC/Max/MIZ-1'
p3612
S'GALECTIN-1'
p3613
S'decreases'
p3614
tp3615
(lp3616
s(S'PI-3-4-5-P3'
p3617
S'WAVE2/NAP1/SRA1/ABI1/HSPC300'
p3618
S'adds_modification'
p3619
tp3620
(lp3621
s(S'FOXF2'
p3622
S'FOXO3'
p3623
S'increases'
p3624
tp3625
(lp3626
s(S'REPIN1'
p3627
S'STAT5A'
p3628
S'increases'
p3629
tp3630
(lp3631
s(S'RUNX1'
p3632
S'NRAS'
p3633
S'increases'
p3634
tp3635
(lp3636
s(S'benzo(a)pyrene 7,8-dihydrodiol'
p3637
S'HRAS MRNA'
p3638
S'increases'
p3639
tp3640
(lp3641
s(S'RAC1/GTP'
p3642
S'PAK1 (DIMER)'
p3643
S'adds_modification'
p3644
tp3645
(lp3646
s(S'PAX4'
p3647
S'POU2F1'
p3648
S'increases'
p3649
tp3650
(lp3651
s(S'MYOD1'
p3652
S'CBFA2T3'
p3653
S'increases'
p3654
tp3655
(lp3656
s(S'STAT5A'
p3657
S'RUNX2'
p3658
S'increases'
p3659
tp3660
(lp3661
s(S'EBF2'
p3662
S'FOXJ2'
p3663
S'increases'
p3664
tp3665
(lp3666
s(S'Estradiol'
p3667
S'KRAS MRNA'
p3668
S'increases'
p3669
tp3670
(lp3671
s(S'RXRB'
p3672
S'CYP26A1'
p3673
S'increases'
p3674
tp3675
(lp3676
s(S'bisphenol A'
p3677
S'KRAS MRNA'
p3678
S'decreases'
p3679
tp3680
(lp3681
s(S'COMPLEX (GRB2/SOS)'
p3682
S'FGFR1-4'
p3683
S'binds'
p3684
tp3685
(lp3686
s(S'POU2F1'
p3687
S'RUNX1'
p3688
S'increases'
p3689
tp3690
(lp3691
s(S'TCF3'
p3692
S'TLX2'
p3693
S'increases'
p3694
tp3695
(lp3696
s(S'SPZ1'
p3697
S'POU2F1'
p3698
S'increases'
p3699
tp3700
(lp3701
s(S'TFAP4'
p3702
S'FOXO4'
p3703
S'increases'
p3704
tp3705
(lp3706
s(S'OR5I1'
p3707
S'MECOM'
p3708
S'increases'
p3709
tp3710
(lp3711
s(S'Rho Family GTPase-active'
p3712
S'JNK1'
p3713
S'adds_modification'
p3714
tp3715
(lp3716
s(S'TFDP1'
p3717
S'POU2F1'
p3718
S'increases'
p3719
tp3720
(lp3721
s(S'AHR'
p3722
S'MAX'
p3723
S'increases'
p3724
tp3725
(lp3726
s(S'BACH1'
p3727
S'CYP26A1'
p3728
S'increases'
p3729
tp3730
(lp3731
s(S'ZBTB14'
p3732
S'MAZ'
p3733
S'increases'
p3734
tp3735
(lp3736
s(S'TCF3'
p3737
S'FOXO4'
p3738
S'increases'
p3739
tp3740
(lp3741
s(S'MASTERMIND'
p3742
S'NICS'
p3743
S'binds'
p3744
tp3745
(lp3746
s(S'BPTF'
p3747
S'FOXO4'
p3748
S'increases'
p3749
tp3750
(lp3751
s(S'MYOD1'
p3752
S'RUNX1'
p3753
S'increases'
p3754
tp3755
(lp3756
s(S'JUN'
p3757
S'CYP26A1'
p3758
S'increases'
p3759
tp3760
(lp3761
s(S'BPTF'
p3762
S'CYP26A1'
p3763
S'increases'
p3764
tp3765
(lp3766
s(S'POU3F1'
p3767
S'CYP26A1'
p3768
S'increases'
p3769
tp3770
(lp3771
s(S'NRF1'
p3772
S'CYP26A1'
p3773
S'increases'
p3774
tp3775
(lp3776
s(S'TFAP2C'
p3777
S'POU3F2'
p3778
S'increases'
p3779
tp3780
(lp3781
s(S'NFAT1-C-4-INACTIVE2'
p3782
S'YWHAQ'
p3783
S'binds'
p3784
tp3785
(lp3786
s(S'STAT6'
p3787
S'ONECUT1'
p3788
S'increases'
p3789
tp3790
(lp3791
s(S'RUNX1'
p3792
S'RUNX2'
p3793
S'increases'
p3794
tp3795
(lp3796
s(S'ZIC3'
p3797
S'MYCN'
p3798
S'increases'
p3799
tp3800
(lp3801
s(S'CYP26A1'
p3802
S'MAX'
p3803
S'increases'
p3804
tp3805
(lp3806
s(S'ETS2'
p3807
S'FOXO4'
p3808
S'increases'
p3809
tp3810
(lp3811
s(S'GATA6'
p3812
S'FOXA1'
p3813
S'increases'
p3814
tp3815
(lp3816
s(S'Doxorubicin'
p3817
S'HRAS MRNA'
p3818
S'increases'
p3819
tp3820
(lp3821
s(S'PPARA'
p3822
S'HOXA9'
p3823
S'increases'
p3824
tp3825
(lp3826
s(S'REPIN1'
p3827
S'GABPB2'
p3828
S'increases'
p3829
tp3830
(lp3831
s(S'FOXN1'
p3832
S'FOXA1'
p3833
S'increases'
p3834
tp3835
(lp3836
s(S'Dronabinol'
p3837
S'KRAS MRNA'
p3838
S'increases'
p3839
tp3840
(lp3841
s(S'FOXO1'
p3842
S'RUNX1'
p3843
S'increases'
p3844
tp3845
(lp3846
s(S'SMAD4'
p3847
S'HOXA9'
p3848
S'increases'
p3849
tp3850
(lp3851
s(S'PAX4'
p3852
S'JUN'
p3853
S'increases'
p3854
tp3855
(lp3856
s(S'Raf-1'
p3857
S'MEK'
p3858
S'adds_modification'
p3859
tp3860
(lp3861
g659
ag660
ag661
ag662
ag663
ag664
as(S'PIM1'
p3862
S'MYC/MAX'
p3863
S'binds'
p3864
tp3865
(lp3866
s(S'YY1'
p3867
S'MECOM'
p3868
S'increases'
p3869
tp3870
(lp3871
s(S'NRF1'
p3872
S'MAZ'
p3873
S'increases'
p3874
tp3875
(lp3876
s(S'GATA1'
p3877
S'MECOM'
p3878
S'increases'
p3879
tp3880
(lp3881
s(S'PDGF/PDGFRA'
p3882
S'SHC/GRB2/SOS1'
p3883
S'increases_activity'
p3884
tp3885
(lp3886
s(S'GRB2/SOS1'
p3887
S'FAK'
p3888
S'binds'
p3889
tp3890
(lp3891
s(S'HNF4A'
p3892
S'HOXA9'
p3893
S'increases'
p3894
tp3895
(lp3896
s(S'FOXA2'
p3897
S'CYP26A1'
p3898
S'increases'
p3899
tp3900
(lp3901
s(S'FOXI1'
p3902
S'CYP26A1'
p3903
S'increases'
p3904
tp3905
(lp3906
s(S'GRB2 BOUND TO TIE2'
p3907
S'SOS1'
p3908
S'binds'
p3909
tp3910
(lp3911
s(S'PHOSPHORYLATED BRF1 (SER54, SER92, SER203):MRNA COMPLEX'
p3912
S'YWHAB'
p3913
S'binds'
p3914
tp3915
(lp3916
s(S'COMPLEX (GRB2/SOS)'
p3917
S'GAB'
p3918
S'binds'
p3919
tp3920
(lp3921
s(S'NFE2'
p3922
S'TLX2'
p3923
S'increases'
p3924
tp3925
(lp3926
s(S'MAX'
p3927
S'FOXF2'
p3928
S'increases'
p3929
tp3930
(lp3931
s(S'GRB2:SOS1'
p3932
S'ACTIVATED FGFR:P-FRS2'
p3933
S'binds'
p3934
tp3935
(lp3936
s(S'FOXO4'
p3937
S'MECOM'
p3938
S'increases'
p3939
tp3940
(lp3941
s(S'TCF3'
p3942
S'LEF1'
p3943
S'increases'
p3944
tp3945
(lp3946
s(S'ZIC1'
p3947
S'LEF1'
p3948
S'increases'
p3949
tp3950
(lp3951
s(S'NFIL3'
p3952
S'CYP26A1'
p3953
S'increases'
p3954
tp3955
(lp3956
s(S'RAF1'
p3957
S'MEK1'
p3958
S'increases_activity'
p3959
tp3960
(lp3961
s(S'AR'
p3962
S'FOXA1'
p3963
S'increases'
p3964
tp3965
(lp3966
S'In LNCaP cells over half of the AR binding loci are also bound by FOXA1.'
p3967
aS'On most of these sites, FOXA1 binds before hormone treatment and AR recruitment.'
p3968
aS'Interestingly, FOXA1 ablation causes massive reprogramming of the AR cistrome: 40% of loci are preserved with increased level of AR recruitment, the remaining 60% of loci are lost, and many new AR binding sites appear, causing the AR cistrome to increase more than fourfold with corresponding changes in gene expression ['
p3969
as(S'POU2F1'
p3970
S'POU3F2'
p3971
S'increases'
p3972
tp3973
(lp3974
s(S'PCBP1'
p3975
S'MAZ'
p3976
S'increases'
p3977
tp3978
(lp3979
s(S'LEF1'
p3980
S'HOXA9'
p3981
S'increases'
p3982
tp3983
(lp3984
s(S'NR6A1'
p3985
S'CYP26A1'
p3986
S'increases'
p3987
tp3988
(lp3989
s(S'PI3K'
p3990
S'BTK'
p3991
S'translocates'
p3992
tp3993
(lp3994
s(S'AHR'
p3995
S'RUNX1'
p3996
S'increases'
p3997
tp3998
(lp3999
s(S'NR1H4'
p4000
S'CYP26A1'
p4001
S'increases'
p4002
tp4003
(lp4004
s(S'NR2F2'
p4005
S'CYP26A1'
p4006
S'increases'
p4007
tp4008
(lp4009
s(S'GNB1/GNG2'
p4010
S'PI3K'
p4011
S'binds'
p4012
tp4013
(lp4014
s(S'RHOA/GTP'
p4015
S'PKN2'
p4016
S'increases_activity'
p4017
tp4018
(lp4019
s(S'MAZ'
p4020
S'LEF1'
p4021
S'increases'
p4022
tp4023
(lp4024
s(S'RFX1'
p4025
S'MECOM'
p4026
S'increases'
p4027
tp4028
(lp4029
s(S'RUNX1'
p4030
S'HOXA9'
p4031
S'increases'
p4032
tp4033
(lp4034
s(S'FOXL1'
p4035
S'POU2F1'
p4036
S'increases'
p4037
tp4038
(lp4039
s(S'GRB2:SOS1'
p4040
S'PHOSPHORYLATED ERBB2:EGFR HETERODIMERS'
p4041
S'binds'
p4042
tp4043
(lp4044
s(S'TFAP4'
p4045
S'MYCN'
p4046
S'increases'
p4047
tp4048
(lp4049
s(S'E2F1'
p4050
S'GATA1'
p4051
S'increases'
p4052
tp4053
(lp4054
s(S'PTF1A'
p4055
S'GATA6'
p4056
S'increases'
p4057
tp4058
(lp4059
s(S'REL'
p4060
S'CYP26A1'
p4061
S'increases'
p4062
tp4063
(lp4064
s(S'MTF1'
p4065
S'JUN'
p4066
S'increases'
p4067
tp4068
(lp4069
s(S'ZEB1'
p4070
S'REPIN1'
p4071
S'increases'
p4072
tp4073
(lp4074
s(S'IRF8'
p4075
S'GATA6'
p4076
S'increases'
p4077
tp4078
(lp4079
s(S'P-Y349,350-SHC1:PHOSPHORYLATED ERBB2 HETERODIMERS'
p4080
S'GRB2:SOS1'
p4081
S'binds'
p4082
tp4083
(lp4084
s(S'BACH2'
p4085
S'EN1'
p4086
S'increases'
p4087
tp4088
(lp4089
s(S'GFI1'
p4090
S'MEIS1'
p4091
S'increases'
p4092
tp4093
(lp4094
s(S'FOXN1'
p4095
S'LEF1'
p4096
S'increases'
p4097
tp4098
(lp4099
s(S'CYP26A1'
p4100
S'JUN'
p4101
S'increases'
p4102
tp4103
(lp4104
s(S'TCF3'
p4105
S'ONECUT1'
p4106
S'increases'
p4107
tp4108
(lp4109
s(S'FOXF2'
p4110
S'POU2F1'
p4111
S'increases'
p4112
tp4113
(lp4114
s(S'MAZ'
p4115
S'MAX'
p4116
S'increases'
p4117
tp4118
(lp4119
s(S'FOXN1'
p4120
S'CYP26A1'
p4121
S'increases'
p4122
tp4123
(lp4124
s(S'HNF1A'
p4125
S'FOXD3'
p4126
S'increases'
p4127
tp4128
(lp4129
s(S'EGR2'
p4130
S'RUNX1'
p4131
S'increases'
p4132
tp4133
(lp4134
s(S'MYC'
p4135
S'RUNX2'
p4136
S'increases'
p4137
tp4138
(lp4139
s(S'TFAP2A'
p4140
S'IRF1'
p4141
S'increases'
p4142
tp4143
(lp4144
s(S'FOXO4'
p4145
S'YY1'
p4146
S'increases'
p4147
tp4148
(lp4149
s(S'VEGFR2 (dimer)/VEGFA (dimer)'
p4150
S'SRC'
p4151
S'adds_modification'
p4152
tp4153
(lp4154
s(S'resveratrol'
p4155
S'KRAS MRNA'
p4156
S'decreases'
p4157
tp4158
(lp4159
s(S'FOXO4'
p4160
S'CYP26A1'
p4161
S'increases'
p4162
tp4163
(lp4164
s(S'STAT3'
p4165
S'FOXO4'
p4166
S'increases'
p4167
tp4168
(lp4169
s(S'GRB2/SOS1'
p4170
S'FRS2 FAMILY/SHP2'
p4171
S'binds'
p4172
tp4173
(lp4174
s(S'LEF1'
p4175
S'CYP26A1'
p4176
S'increases'
p4177
tp4178
(lp4179
s(S'GTF2A2'
p4180
S'SRF'
p4181
S'increases'
p4182
tp4183
(lp4184
s(S'PPARA'
p4185
S'STAT5A'
p4186
S'increases'
p4187
tp4188
(lp4189
s(S'hsa-miR-143-3p'
p4190
S'KRAS'
p4191
S'decreases'
p4192
tp4193
(lp4194
s(S'GFI1'
p4195
S'CYP26A1'
p4196
S'increases'
p4197
tp4198
(lp4199
s(S'RAC1/GTP'
p4200
S'MKK4-MKK7'
p4201
S'increases_activity'
p4202
tp4203
(lp4204
s(S'REPIN1'
p4205
S'ETS1'
p4206
S'increases'
p4207
tp4208
(lp4209
s(S'ZIC1'
p4210
S'GATA6'
p4211
S'increases'
p4212
tp4213
(lp4214
s(S'INTERLEUKIN RECEPTOR COMPLEXES WITH ACTIVATED SHC1'
p4215
S'GRB2:SOS1'
p4216
S'binds'
p4217
tp4218
(lp4219
s(S'Selenium'
p4220
S'HRAS MRNA'
p4221
S'increases'
p4222
tp4223
(lp4224
s(S'HOXA4'
p4225
S'CYP26A1'
p4226
S'increases'
p4227
tp4228
(lp4229
s(S'NKX2-1'
p4230
S'POU2F1'
p4231
S'increases'
p4232
tp4233
(lp4234
s(S'VSX1'
p4235
S'MAX'
p4236
S'increases'
p4237
tp4238
(lp4239
s(S'FOXD1'
p4240
S'FOXD3'
p4241
S'increases'
p4242
tp4243
(lp4244
s(S'MAX'
p4245
S'NRAS'
p4246
S'increases'
p4247
tp4248
(lp4249
s(S'HOXA9'
p4250
S'TCF3'
p4251
S'increases'
p4252
tp4253
(lp4254
s(S'IRF1'
p4255
S'CYP26A1'
p4256
S'increases'
p4257
tp4258
(lp4259
s(S'HRAS'
p4260
S'RAF1'
p4261
S'adds_modification'
p4262
tp4263
(lp4264
s(S'CUX1'
p4265
S'HOXA9'
p4266
S'increases'
p4267
tp4268
(lp4269
s(S'ZHX2'
p4270
S'FOXA1'
p4271
S'increases'
p4272
tp4273
(lp4274
s(S'TFDP1'
p4275
S'MYC'
p4276
S'increases'
p4277
tp4278
(lp4279
s(S'RAC1/GTP'
p4280
S'PAK1'
p4281
S'increases_activity'
p4282
tp4283
(lp4284
s(S'AHR'
p4285
S'MAZ'
p4286
S'increases'
p4287
tp4288
(lp4289
s(S'BRAF/14-3-3'
p4290
S'KSR/14-3-3 /MEK1-2'
p4291
S'increases_activity'
p4292
tp4293
(lp4294
s(S'PPARA'
p4295
S'CYP26A1'
p4296
S'increases'
p4297
tp4298
(lp4299
s(S'REPIN1'
p4300
S'SRF'
p4301
S'increases'
p4302
tp4303
(lp4304
s(S'PAX5'
p4305
S'SRF'
p4306
S'increases'
p4307
tp4308
(lp4309
s(S'PAX4'
p4310
S'FOXJ2'
p4311
S'increases'
p4312
tp4313
(lp4314
s(S'REPIN1'
p4315
S'MYCN'
p4316
S'increases'
p4317
tp4318
(lp4319
s(S'RALA/GTP'
p4320
S'SRC'
p4321
S'adds_modification'
p4322
tp4323
(lp4324
s(S'FOXO4'
p4325
S'ETS1'
p4326
S'increases'
p4327
tp4328
(lp4329
s(S'TFDP1'
p4330
S'CDC5L'
p4331
S'increases'
p4332
tp4333
(lp4334
s(S'TFDP1'
p4335
S'CYP26A1'
p4336
S'increases'
p4337
tp4338
(lp4339
s(S'GATA6'
p4340
S'RUNX2'
p4341
S'increases'
p4342
tp4343
(lp4344
s(S'FOXM1'
p4345
S'CYP26A1'
p4346
S'increases'
p4347
tp4348
(lp4349
s(S'sodium arsenite'
p4350
S'HRAS PROTEIN'
p4351
S'increases'
p4352
tp4353
(lp4354
s(S'STAT5A'
p4355
S'RUNX1'
p4356
S'increases'
p4357
tp4358
(lp4359
s(S'CEBPA'
p4360
S'EN1'
p4361
S'increases'
p4362
tp4363
(lp4364
s(S'MSX1'
p4365
S'POU2F1'
p4366
S'increases'
p4367
tp4368
(lp4369
s(S'NHLH1'
p4370
S'CBFA2T3'
p4371
S'increases'
p4372
tp4373
(lp4374
s(S'Parathion'
p4375
S'HRAS PROTEIN'
p4376
S'increases'
p4377
tp4378
(lp4379
s(S'SMAD4'
p4380
S'CYP26A1'
p4381
S'increases'
p4382
tp4383
(lp4384
s(S'E2F1'
p4385
S'MYC'
p4386
S'increases'
p4387
tp4388
(lp4389
s(S'CYP26A1'
p4390
S'FOXO3'
p4391
S'increases'
p4392
tp4393
(lp4394
s(S'TCF3'
p4395
S'CBFA2T3'
p4396
S'increases'
p4397
tp4398
(lp4399
s(S'ZHX2'
p4400
S'FOXF2'
p4401
S'increases'
p4402
tp4403
(lp4404
s(S'POU2F1'
p4405
S'MECOM'
p4406
S'increases'
p4407
tp4408
(lp4409
s(S'CYP26A1'
p4410
S'POU2F1'
p4411
S'increases'
p4412
tp4413
(lp4414
s(S'MYOD1'
p4415
S'CYP26A1'
p4416
S'increases'
p4417
tp4418
(lp4419
s(S'RAF'
p4420
S'COMPLEX (RAS/GTP)'
p4421
S'binds'
p4422
tp4423
(lp4424
s(S'RET51/GFRalpha1/GDNF/DOK1'
p4425
S'HRAS/GDP'
p4426
S'increases_activity'
p4427
tp4428
(lp4429
s(S'MAFG'
p4430
S'CYP26A1'
p4431
S'increases'
p4432
tp4433
(lp4434
s(S'CRX'
p4435
S'CYP26A1'
p4436
S'increases'
p4437
tp4438
(lp4439
s(S'hsa-miR-126-3p'
p4440
S'KRAS'
p4441
S'decreases'
p4442
tp4443
(lp4444
s(S'EBF2'
p4445
S'CYP26A1'
p4446
S'increases'
p4447
tp4448
(lp4449
s(S'RUNX1'
p4450
S'CYP26A1'
p4451
S'increases'
p4452
tp4453
(lp4454
s(S'HOXA5'
p4455
S'FOXA1'
p4456
S'increases'
p4457
tp4458
(lp4459
s(S'benzo(a)pyrene-3,6-quinone'
p4460
S'HRAS MRNA'
p4461
S'increases'
p4462
tp4463
(lp4464
s(S'K 7174'
p4465
S'HRAS MRNA'
p4466
S'decreases'
p4467
tp4468
(lp4469
s(S'LEF1'
p4470
S'NRAS'
p4471
S'increases'
p4472
tp4473
(lp4474
s(S'SPI1'
p4475
S'FOXA1'
p4476
S'increases'
p4477
tp4478
(lp4479
s(S'hsa-let-7b-5p'
p4480
S'NRAS'
p4481
S'decreases'
p4482
tp4483
(lp4484
s(S'CEBPA'
p4485
S'JUN'
p4486
S'increases'
p4487
tp4488
(lp4489
s(S'GABPB2'
p4490
S'CYP26A1'
p4491
S'increases'
p4492
tp4493
(lp4494
s(S'PI-3-4-5-P3'
p4495
S'MTOR'
p4496
S'increases_activity'
p4497
tp4498
(lp4499
s(S'GRB2:SOS1'
p4500
S'EGF:P-6Y-EGFR'
p4501
S'binds'
p4502
tp4503
(lp4504
s(S'HNF1A'
p4505
S'CYP26A1'
p4506
S'increases'
p4507
tp4508
(lp4509
s(S'HIF1A'
p4510
S'FOXO4'
p4511
S'increases'
p4512
tp4513
(lp4514
s(S'FOXJ1'
p4515
S'HOXA9'
p4516
S'increases'
p4517
tp4518
(lp4519
s(S'hsa-miR-96-5p'
p4520
S'KRAS'
p4521
S'decreases'
p4522
tp4523
(lp4524
s(S'SRC'
p4525
S'SYNDECAN-2/RASGAP'
p4526
S'binds'
p4527
tp4528
(lp4529
s(S'FOXA1'
p4530
S'MEIS1'
p4531
S'increases'
p4532
tp4533
(lp4534
s(S'LEF1'
p4535
S'MEIS1'
p4536
S'increases'
p4537
tp4538
(lp4539
s(S'PAX3'
p4540
S'CYP26A1'
p4541
S'increases'
p4542
tp4543
(lp4544
s(S'PAX4'
p4545
S'HOXA9'
p4546
S'increases'
p4547
tp4548
(lp4549
s(S'hsa-miR-18a-3p'
p4550
S'KRAS'
p4551
S'decreases'
p4552
tp4553
(lp4554
s(S'FOXF2'
p4555
S'EN1'
p4556
S'increases'
p4557
tp4558
(lp4559
s(S'Pyk2'
p4560
S'SRC FAMILY KINASES'
p4561
S'increases_activity'
p4562
tp4563
(lp4564
s(S'TP53'
p4565
S'HOXA9'
p4566
S'increases'
p4567
tp4568
(lp4569
s(S'Genistein'
p4570
S'KRAS MRNA'
p4571
S'decreases'
p4572
tp4573
(lp4574
s(S'POU1F1'
p4575
S'CYP26A1'
p4576
S'increases'
p4577
tp4578
(lp4579
s(S'manumycin'
p4580
S'KRAS PROTEIN'
p4581
S'decreases_activity'
p4582
tp4583
(lp4584
s(S'Ginkgo biloba extract 761'
p4585
S'GCLC PROTEIN'
p4586
S'increases'
p4587
tp4588
(lp4589
s(S'GATA1'
p4590
S'NRAS'
p4591
S'increases'
p4592
tp4593
(lp4594
s(S'CBFA2T3'
p4595
S'FOXF2'
p4596
S'increases'
p4597
tp4598
(lp4599
s(S'PCBP1'
p4600
S'ELK1'
p4601
S'increases'
p4602
tp4603
(lp4604
s(S'MYC'
p4605
S'FOXF2'
p4606
S'increases'
p4607
tp4608
(lp4609
s(S'hsa-mir-622'
p4610
S'KRAS'
p4611
S'decreases'
p4612
tp4613
(lp4614
s(S'TCF3'
p4615
S'MAZ'
p4616
S'increases'
p4617
tp4618
(lp4619
s(S'STAT2'
p4620
S'MEIS1'
p4621
S'increases'
p4622
tp4623
(lp4624
s(S'CYP26A1'
p4625
S'YY1'
p4626
S'increases'
p4627
tp4628
(lp4629
s(S'CYP26A1'
p4630
S'EN1'
p4631
S'increases'
p4632
tp4633
(lp4634
s(S'GRB2/SOS1'
p4635
S'SHC'
p4636
S'binds'
p4637
tp4638
(lp4639
s(S'BAD'
p4640
S'YWHAZ'
p4641
S'binds'
p4642
tp4643
(lp4644
s(S'SPI1'
p4645
S'MAX'
p4646
S'increases'
p4647
tp4648
(lp4649
s(S'PI-3-4-5-P3'
p4650
S'CENTA1'
p4651
S'translocates'
p4652
tp4653
(lp4654
s(S'XBP1'
p4655
S'CYP26A1'
p4656
S'increases'
p4657
tp4658
(lp4659
s(S'PAX4'
p4660
S'NRAS'
p4661
S'increases'
p4662
tp4663
(lp4664
s(S'PI3K'
p4665
S'EPHRIN A1/EPHA2'
p4666
S'binds'
p4667
tp4668
(lp4669
s(S'POU1F1'
p4670
S'MEIS1'
p4671
S'increases'
p4672
tp4673
(lp4674
s(S'NR3C1'
p4675
S'ETS1'
p4676
S'increases'
p4677
tp4678
(lp4679
s(S'MAZ'
p4680
S'POU3F2'
p4681
S'increases'
p4682
tp4683
(lp4684
s(S'Estradiol'
p4685
S'HRAS MRNA'
p4686
S'increases'
p4687
tp4688
(lp4689
s(S'Aflatoxin B1'
p4690
S'HRAS PROTEIN'
p4691
S'increases'
p4692
tp4693
(lp4694
s(S'ETV7'
p4695
S'STAT4'
p4696
S'increases'
p4697
tp4698
(lp4699
s(S'PBX1'
p4700
S'LEF1'
p4701
S'increases'
p4702
tp4703
(lp4704
s(S'CEBPB'
p4705
S'CYP26A1'
p4706
S'increases'
p4707
tp4708
(lp4709
s(S'MAZ'
p4710
S'JUN'
p4711
S'increases'
p4712
tp4713
(lp4714
s(S'FOXF2'
p4715
S'MYC'
p4716
S'increases'
p4717
tp4718
(lp4719
s(S'FOXJ2'
p4720
S'HOXA9'
p4721
S'increases'
p4722
tp4723
(lp4724
s(S'Capsaicin'
p4725
S'HRAS MRNA'
p4726
S'increases'
p4727
tp4728
(lp4729
s(S'POU3F1'
p4730
S'GATA6'
p4731
S'increases'
p4732
tp4733
(lp4734
s(S'EIF2A'
p4735
S'14-3-3 E'
p4736
S'binds'
p4737
tp4738
(lp4739
s(S'RAS family/GTP'
p4740
S'RAF1-BRAF'
p4741
S'increases_activity'
p4742
tp4743
(lp4744
s(S'GATA6'
p4745
S'GATA1'
p4746
S'increases'
p4747
tp4748
(lp4749
s(S'RASA1'
p4750
S'PHOSPHO PDGF BETA RECEPTOR: PDGF CHAIN B HOMODIMER'
p4751
S'binds'
p4752
tp4753
(lp4754
s(S'CART1'
p4755
S'POU2F1'
p4756
S'increases'
p4757
tp4758
(lp4759
s(S'ZIC3'
p4760
S'POU2F1'
p4761
S'increases'
p4762
tp4763
(lp4764
s(S'TCF4'
p4765
S'FOXA1'
p4766
S'increases'
p4767
tp4768
(lp4769
s(S'PKC theta'
p4770
S'RASGRP1'
p4771
S'adds_modification'
p4772
tp4773
(lp4774
s(S'PTF1A'
p4775
S'STAT5A'
p4776
S'increases'
p4777
tp4778
(lp4779
s(S'SPI1'
p4780
S'FOXO4'
p4781
S'increases'
p4782
tp4783
(lp4784
s(S'HNF1A'
p4785
S'GATA6'
p4786
S'increases'
p4787
tp4788
(lp4789
s(S'FOXJ1'
p4790
S'RUNX1'
p4791
S'increases'
p4792
tp4793
(lp4794
s(S'STAT2'
p4795
S'GATA6'
p4796
S'increases'
p4797
tp4798
(lp4799
s(S'RAS FAMILY/GTP'
p4800
S'PI3K'
p4801
S'binds'
p4802
tp4803
(lp4804
s(S'PAX4'
p4805
S'IRF1'
p4806
S'increases'
p4807
tp4808
(lp4809
s(S'PAX3'
p4810
S'HOXA9'
p4811
S'increases'
p4812
tp4813
(lp4814
s(S'MYB'
p4815
S'MAZ'
p4816
S'increases'
p4817
tp4818
(lp4819
s(S"Guanosine-5'-Triphosphate"
p4820
S'HRAS'
p4821
S'increases_activity'
p4822
tp4823
(lp4824
s(S'alpha9/beta1 Integrin/Tenascin C'
p4825
S'SRC'
p4826
S'adds_modification'
p4827
tp4828
(lp4829
s(S'RAF1'
p4830
S'MEK1'
p4831
S'adds_modification'
p4832
tp4833
(lp4834
s(S'JUN'
p4835
S'FOXA1'
p4836
S'increases'
p4837
tp4838
(lp4839
s(S'NFE2L2'
p4840
S'BACH1'
p4841
S'increases'
p4842
tp4843
(lp4844
s(S'CUX1'
p4845
S'FOXD3'
p4846
S'increases'
p4847
tp4848
(lp4849
s(S'JUN'
p4850
S'EN1'
p4851
S'increases'
p4852
tp4853
(lp4854
s(S'ESR1'
p4855
S'CYP26A1'
p4856
S'increases'
p4857
tp4858
(lp4859
s(S'ESRRA'
p4860
S'FOXA1'
p4861
S'increases'
p4862
tp4863
(lp4864
s(S'POU2F1'
p4865
S'MEIS1'
p4866
S'increases'
p4867
tp4868
(lp4869
s(S'TFCP2'
p4870
S'FOXA1'
p4871
S'increases'
p4872
tp4873
(lp4874
s(S'PI-3-4-5-P3'
p4875
S'PDK1'
p4876
S'increases_activity'
p4877
tp4878
(lp4879
s(S'TCF3'
p4880
S'FOXA1'
p4881
S'increases'
p4882
tp4883
(lp4884
s(S'STAT3'
p4885
S'CYP26A1'
p4886
S'increases'
p4887
tp4888
(lp4889
s(S'CYP26A1'
p4890
S'POU3F2'
p4891
S'increases'
p4892
tp4893
(lp4894
s(S'Curcumin'
p4895
S'KRAS MRNA'
p4896
S'decreases'
p4897
tp4898
(lp4899
s(S'STAT1'
p4900
S'CYP26A1'
p4901
S'increases'
p4902
tp4903
(lp4904
s(S'GFI1'
p4905
S'POU2F1'
p4906
S'increases'
p4907
tp4908
(lp4909
s(S'ZIC1'
p4910
S'POU2F1'
p4911
S'increases'
p4912
tp4913
(lp4914
s(S'PI-3-4-5-P3'
p4915
S'AKT3'
p4916
S'adds_modification'
p4917
tp4918
(lp4919
s(S'BACH1'
p4920
S'NRAS'
p4921
S'increases'
p4922
tp4923
(lp4924
s(S'SCF/KIT'
p4925
S'SHC/GRB2/SOS1'
p4926
S'increases_activity'
p4927
tp4928
(lp4929
s(S'CDX2'
p4930
S'CYP26A1'
p4931
S'increases'
p4932
tp4933
(lp4934
s(S'RET51/GFRalpha1/GDNF/DOK/RasGAP/NCK'
p4935
S'HRAS/GDP'
p4936
S'decreases_activity'
p4937
tp4938
(lp4939
s(S'BETAPIX'
p4940
S'RAC1/GTP'
p4941
S'binds'
p4942
tp4943
(lp4944
s(S'RHOA/GTP'
p4945
S'CITRON'
p4946
S'increases_activity'
p4947
tp4948
(lp4949
s(S'P-SHC1:GRB2:SOS'
p4950
S'P-5Y-LAT-2'
p4951
S'binds'
p4952
tp4953
(lp4954
s(S'PAX4'
p4955
S'CYP26A1'
p4956
S'increases'
p4957
tp4958
(lp4959
s(S'TCF3'
p4960
S'KRAS'
p4961
S'increases'
p4962
tp4963
(lp4964
s(S'GRB2:SOS1'
p4965
S'PHOSPHORYLATED ERBB2:ERBB4 HETERODIMERS'
p4966
S'binds'
p4967
tp4968
(lp4969
s(S'CDX2'
p4970
S'MEIS1'
p4971
S'increases'
p4972
tp4973
(lp4974
s(S'SP3'
p4975
S'RUNX1'
p4976
S'increases'
p4977
tp4978
(lp4979
s(S'REST'
p4980
S'CYP26A1'
p4981
S'increases'
p4982
tp4983
(lp4984
s(S'PTF1A'
p4985
S'CYP26A1'
p4986
S'increases'
p4987
tp4988
(lp4989
s(S'PI-3-4-5-P3'
p4990
S'PI3K/GAB1'
p4991
S'translocates'
p4992
tp4993
(lp4994
s(S'LMO2'
p4995
S'FOXO4'
p4996
S'increases'
p4997
tp4998
(lp4999
s(S'STAT4'
p5000
S'ETS1'
p5001
S'increases'
p5002
tp5003
(lp5004
s(S'GTF2A2'
p5005
S'HOXA9'
p5006
S'increases'
p5007
tp5008
(lp5009
s(S'FOXF2'
p5010
S'POU3F2'
p5011
S'increases'
p5012
tp5013
(lp5014
s(S'GATA1'
p5015
S'GABPB2'
p5016
S'increases'
p5017
tp5018
(lp5019
s(S'Polychlorinated Biphenyls'
p5020
S'KRAS MRNA'
p5021
S'decreases'
p5022
tp5023
(lp5024
s(S'GRB2/SOS1'
p5025
S'EGF/EGFR DIMER/SHC'
p5026
S'binds'
p5027
tp5028
(lp5029
s(S'CYP26A1'
p5030
S'FOXF2'
p5031
S'increases'
p5032
tp5033
(lp5034
s(S'EGR1'
p5035
S'CYP26A1'
p5036
S'increases'
p5037
tp5038
(lp5039
s(S'MAX'
p5040
S'FOXO3'
p5041
S'increases'
p5042
tp5043
(lp5044
s(S'T-DHT/AR/PELP1'
p5045
S'SRC'
p5046
S'binds'
p5047
tp5048
(lp5049
s(S'CUX1'
p5050
S'FOXF2'
p5051
S'increases'
p5052
tp5053
(lp5054
s(S'CEBPD'
p5055
S'CYP26A1'
p5056
S'increases'
p5057
tp5058
(lp5059
s(S'CBFA2T3'
p5060
S'NRAS'
p5061
S'increases'
p5062
tp5063
(lp5064
s(S'Cisplatin'
p5065
S'HRAS MRNA'
p5066
S'translocates'
p5067
tp5068
(lp5069
s(S'BAD/BCL-X(L)'
p5070
S'YWHAZ'
p5071
S'binds'
p5072
tp5073
(lp5074
s(S'GATA1'
p5075
S'FOXA1'
p5076
S'increases'
p5077
tp5078
(lp5079
s(S'RREB1'
p5080
S'CYP26A1'
p5081
S'increases'
p5082
tp5083
(lp5084
s(S'STAT4'
p5085
S'RUNX2'
p5086
S'increases'
p5087
tp5088
(lp5089
s(S'FOXD3'
p5090
S'NRAS'
p5091
S'increases'
p5092
tp5093
(lp5094
s(S'NDEL1'
p5095
S'14-3-3 E'
p5096
S'binds'
p5097
tp5098
(lp5099
s(S'CYP26A1'
p5100
S'REPIN1'
p5101
S'increases'
p5102
tp5103
(lp5104
s(S'MAF'
p5105
S'CDC5L'
p5106
S'increases'
p5107
tp5108
(lp5109
s(S'CYP26A1'
p5110
S'ELK1'
p5111
S'increases'
p5112
tp5113
(lp5114
s(S'MYC'
p5115
S'FOXD3'
p5116
S'increases'
p5117
tp5118
(lp5119
s(S'MAX'
p5120
S'FOXD3'
p5121
S'increases'
p5122
tp5123
(lp5124
s(S'POU1F1'
p5125
S'GATA6'
p5126
S'increases'
p5127
tp5128
(lp5129
s(S'POU2F1'
p5130
S'STAT4'
p5131
S'increases'
p5132
tp5133
(lp5134
s(S'GTF3A'
p5135
S'FOXO3'
p5136
S'increases'
p5137
tp5138
(lp5139
s(S'MYB'
p5140
S'FOXF2'
p5141
S'increases'
p5142
tp5143
(lp5144
s(S'ZIC3'
p5145
S'CYP26A1'
p5146
S'increases'
p5147
tp5148
(lp5149
s(S'POU2F1'
p5150
S'EN1'
p5151
S'increases'
p5152
tp5153
(lp5154
s(S'JUN'
p5155
S'STAT1'
p5156
S'increases'
p5157
tp5158
(lp5159
s(S'TEF'
p5160
S'CYP26A1'
p5161
S'increases'
p5162
tp5163
(lp5164
s(S'MAF'
p5165
S'CYP26A1'
p5166
S'increases'
p5167
tp5168
(lp5169
s(S'PAX4'
p5170
S'GATA6'
p5171
S'increases'
p5172
tp5173
(lp5174
s(S'ZIC2'
p5175
S'GATA6'
p5176
S'increases'
p5177
tp5178
(lp5179
s(S'hsa-miR-181d-5p'
p5180
S'HRAS'
p5181
S'decreases'
p5182
tp5183
(lp5184
s(S'BACH2'
p5185
S'CYP26A1'
p5186
S'increases'
p5187
tp5188
(lp5189
s(S'TCF12'
p5190
S'CYP26A1'
p5191
S'increases'
p5192
tp5193
(lp5194
s(S'GATA1'
p5195
S'FOXO4'
p5196
S'increases'
p5197
tp5198
(lp5199
s(S'RFX1'
p5200
S'FOXD3'
p5201
S'increases'
p5202
tp5203
(lp5204
s(S'FOXJ1'
p5205
S'CYP26A1'
p5206
S'increases'
p5207
tp5208
(lp5209
s(S'GTF2A2'
p5210
S'POU2F1'
p5211
S'increases'
p5212
tp5213
(lp5214
s(S'YY1'
p5215
S'SRF'
p5216
S'increases'
p5217
tp5218
(lp5219
s(S'AHR'
p5220
S'REPIN1'
p5221
S'increases'
p5222
tp5223
(lp5224
s(S'MAZ'
p5225
S'CYP26A1'
p5226
S'increases'
p5227
tp5228
(lp5229
s(S'Quercetin'
p5230
S'HRAS MRNA'
p5231
S'increases'
p5232
tp5233
(lp5234
s(S'ELK1'
p5235
S'NRAS'
p5236
S'increases'
p5237
tp5238
(lp5239
s(S'HIF1A'
p5240
S'ONECUT1'
p5241
S'increases'
p5242
tp5243
(lp5244
s(S'FOXF2'
p5245
S'CYP26A1'
p5246
S'increases'
p5247
tp5248
(lp5249
s(S'SOX9'
p5250
S'ETS1'
p5251
S'increases'
p5252
tp5253
(lp5254
s(S'HSF1'
p5255
S'JUN'
p5256
S'increases'
p5257
tp5258
(lp5259
s(S'CEBPA'
p5260
S'CYP26A1'
p5261
S'increases'
p5262
tp5263
(lp5264
s(S'NR1H4'
p5265
S'MEIS1'
p5266
S'increases'
p5267
tp5268
(lp5269
s(S'SMAD1'
p5270
S'GATA1'
p5271
S'increases'
p5272
tp5273
(lp5274
s(S'Quercetin'
p5275
S'HRAS MRNA'
p5276
S'decreases'
p5277
tp5278
(lp5279
s(S'Glycyrrhetinic Acid'
p5280
S'HRAS PROTEIN'
p5281
S'decreases'
p5282
tp5283
(lp5284
s(S'HOXA4'
p5285
S'POU2F1'
p5286
S'increases'
p5287
tp5288
(lp5289
s(S'FOXQ1'
p5290
S'CYP26A1'
p5291
S'increases'
p5292
tp5293
(lp5294
s(S'FOXI1'
p5295
S'CEBPA'
p5296
S'increases'
p5297
tp5298
(lp5299
s(S'GTF3A'
p5300
S'MYCN'
p5301
S'increases'
p5302
tp5303
(lp5304
s(S'LMO2'
p5305
S'IRF1'
p5306
S'increases'
p5307
tp5308
(lp5309
s(S'FOXO1'
p5310
S'CYP26A1'
p5311
S'increases'
p5312
tp5313
(lp5314
s(S'Copper Sulfate'
p5315
S'NRAS MRNA'
p5316
S'increases'
p5317
tp5318
(lp5319
s(S'TFAP2A'
p5320
S'CYP26A1'
p5321
S'increases'
p5322
tp5323
(lp5324
s(S'FOXJ1'
p5325
S'EN1'
p5326
S'increases'
p5327
tp5328
(lp5329
s(S'MEIS1'
p5330
S'RUNX1'
p5331
S'increases'
p5332
tp5333
(lp5334
s(S'MAZ'
p5335
S'FOXA1'
p5336
S'increases'
p5337
tp5338
(lp5339
s(S'ETS1'
p5340
S'FOXO4'
p5341
S'increases'
p5342
tp5343
(lp5344
s(S'ZBTB14'
p5345
S'FOXD3'
p5346
S'increases'
p5347
tp5348
(lp5349
s(S'FOXC1'
p5350
S'LEF1'
p5351
S'increases'
p5352
tp5353
(lp5354
s(S'IRF1'
p5355
S'EN1'
p5356
S'increases'
p5357
tp5358
(lp5359
s(S'NR3C1'
p5360
S'CYP26A1'
p5361
S'increases'
p5362
tp5363
(lp5364
s(S'VSX1'
p5365
S'BACH1'
p5366
S'increases'
p5367
tp5368
(lp5369
s(S'CYP26A1'
p5370
S'ETS1'
p5371
S'increases'
p5372
tp5373
(lp5374
s(S'CEBPA'
p5375
S'MEIS1'
p5376
S'increases'
p5377
tp5378
(lp5379
s(S'ELF1'
p5380
S'FOXO4'
p5381
S'increases'
p5382
tp5383
(lp5384
s(S'RXRA'
p5385
S'CYP26A1'
p5386
S'increases'
p5387
tp5388
(lp5389
s(S'CREB1'
p5390
S'CYP26A1'
p5391
S'increases'
p5392
tp5393
(lp5394
s(S'IRF7'
p5395
S'GATA6'
p5396
S'increases'
p5397
tp5398
(lp5399
s(S'ZEB1'
p5400
S'CYP26A1'
p5401
S'increases'
p5402
tp5403
(lp5404
s(S'AR'
p5405
S'CYP26A1'
p5406
S'increases'
p5407
tp5408
(lp5409
s(S'TFDP2'
p5410
S'MYC'
p5411
S'increases'
p5412
tp5413
(lp5414
s(S'hsa-mir-217'
p5415
S'KRAS'
p5416
S'decreases'
p5417
tp5418
(lp5419
s(S'MEK'
p5420
S'ERK'
p5421
S'adds_modification'
p5422
tp5423
(lp5424
S'The results showed that norcantharidin effectively inhibited cell growth and induced apoptosis in glioma cells, which was concurrent with inhibition of the expression of phospho-MEK and phospho-ERK.'
p5425
ag651
ag652
ag653
aS'Membranes were blocked with 5% fat-free milk and 0.1% Tween-20 in Tris-buffered saline, then incubated with the following primary antibodies as follows: MEK, ERK, phospho-MEK, phospho-ERK, Bcl-2, Bcl-xL, Mcl-1, Bax, and GAPDH (Cell Signaling Technology).'
p5426
ag654
ag655
ag656
aS'Mitogen\nactivated kinase 1 human recombinant (MEK1), the ERK activator kinase 1/2(ERK1/2),\nwas from Shanghai, China.'
p5427
aS'Sorafenib is the only multi-kinase inhibitor that blocks receptor tyrosine kinases, such as vascular endothelial growth factor receptor (VEGFR) or platelet-derived growth factor receptor (PDGF-R), and also RAF serine/threonine kinases along the RAF/MEK/ERK pathway ['
p5428
ag657
ag658
ag659
ag660
ag661
ag662
ag663
ag664
aS'Sorafenib in combination with VK1 treatment produced marked potentiation of growth inhibition and apoptosis, and reduced expression of phospho-mitogen-activated protein kinase kinase (MEK) and phospho-extracellular signal-regulated kinase (ERK).'
p5429
ag665
ag666
ag667
ag668
aS'The RAS/RAF/MEK/ERK is one of them, which plays an essential role in melanoma cell growth, invasion, and survival.'
p5430
aS'Selumetinib (AZD6244, ARRY-142886) is a potent, selective, uncompetitive inhibitor of MEK 1 / 2, part of the RAF/MEK/ERK protein kinase signal cascade, which is responsible for tumor.'
p5431
ag669
ag671
ag672
ag673
as(S'ZBTB18'
p5432
S'ONECUT1'
p5433
S'increases'
p5434
tp5435
(lp5436
s(S'TGIF'
p5437
S'MAX'
p5438
S'increases'
p5439
tp5440
(lp5441
s(S'ETS1'
p5442
S'NRAS'
p5443
S'increases'
p5444
tp5445
(lp5446
s(S'KLF12'
p5447
S'GATA1'
p5448
S'increases'
p5449
tp5450
(lp5451
s(S'HRAS/GTP'
p5452
S'PAK2'
p5453
S'increases_activity'
p5454
tp5455
(lp5456
s(S'CYP26A1'
p5457
S'FOXD3'
p5458
S'increases'
p5459
tp5460
(lp5461
s(S'LMO2'
p5462
S'RUNX1'
p5463
S'increases'
p5464
tp5465
(lp5466
s(S'MLK3'
p5467
S'MKK3/6'
p5468
S'adds_modification'
p5469
tp5470
(lp5471
s(S'TAK'
p5472
S'MKK3/6'
p5473
S'adds_modification'
p5474
tp5475
(lp5476
s(S'GRB2:SOS1'
p5477
S'HB-EGF:P-6Y-EGFR DIMER'
p5478
S'binds'
p5479
tp5480
(lp5481
s(S'FOXO4'
p5482
S'NRAS'
p5483
S'increases'
p5484
tp5485
(lp5486
s(S'MECOM'
p5487
S'NRAS'
p5488
S'increases'
p5489
tp5490
(lp5491
s(S'KLF12'
p5492
S'CYP26A1'
p5493
S'increases'
p5494
tp5495
(lp5496
s(S'RAS family/GTP/PI3K'
p5497
S'TRPV1'
p5498
S'adds_modification'
p5499
tp5500
(lp5501
s(S'hsa-let-7a-5p'
p5502
S'NRAS'
p5503
S'decreases'
p5504
tp5505
(lp5506
s(S'NF1'
p5507
S'HOXA9'
p5508
S'increases'
p5509
tp5510
(lp5511
s(S'REPIN1'
p5512
S'FOXD3'
p5513
S'increases'
p5514
tp5515
(lp5516
s(S'CYP26A1'
p5517
S'FOXJ2'
p5518
S'increases'
p5519
tp5520
(lp5521
s(S'FOXO4'
p5522
S'MEIS1'
p5523
S'increases'
p5524
tp5525
(lp5526
s(S'EBF2'
p5527
S'MECOM'
p5528
S'increases'
p5529
tp5530
(lp5531
s(S'ETS1'
p5532
S'FOXO3'
p5533
S'increases'
p5534
tp5535
(lp5536
s(S'SP3'
p5537
S'CYP26A1'
p5538
S'increases'
p5539
tp5540
(lp5541
s(S'LNXp80'
p5542
S'NUMB'
p5543
S'decreases'
p5544
tp5545
(lp5546
s(S'RUNX2'
p5547
S'CYP26A1'
p5548
S'increases'
p5549
tp5550
(lp5551
s(S'AHR'
p5552
S'FOXO3'
p5553
S'increases'
p5554
tp5555
(lp5556
s(S'VSX1'
p5557
S'FOXF2'
p5558
S'increases'
p5559
tp5560
(lp5561
s(S'BPTF'
p5562
S'RUNX1'
p5563
S'increases'
p5564
tp5565
(lp5566
s(S'7,8-Dihydro-7,8-dihydroxybenzo(a)pyrene 9,10-oxide'
p5567
S'HRAS PROTEIN'
p5568
S'increases'
p5569
tp5570
(lp5571
s(S'TCF3'
p5572
S'POU3F2'
p5573
S'increases'
p5574
tp5575
(lp5576
s(S'TCF3'
p5577
S'IRF1'
p5578
S'increases'
p5579
tp5580
(lp5581
s(S'SREBF1'
p5582
S'EN1'
p5583
S'increases'
p5584
tp5585
(lp5586
s(S'FOXO4'
p5587
S'RUNX2'
p5588
S'increases'
p5589
tp5590
(lp5591
s(S'hsa-miR-181a-5p'
p5592
S'HRAS'
p5593
S'decreases'
p5594
tp5595
(lp5596
s(S'Myb'
p5597
S'NRAS'
p5598
S'decreases'
p5599
tp5600
(lp5601
s(S'HSPA8'
p5602
S'ADP'
p5603
S'binds'
p5604
tp5605
(lp5606
s(S'SOCS3'
p5607
S'RASGAP'
p5608
S'binds'
p5609
tp5610
(lp5611
s(S'ONECUT1'
p5612
S'NRAS'
p5613
S'increases'
p5614
tp5615
(lp5616
s(S'PITX2'
p5617
S'EN1'
p5618
S'increases'
p5619
tp5620
(lp5621
s(S'HGF(dimer)/MET(dimer)'
p5622
S'SRC'
p5623
S'adds_modification'
p5624
tp5625
(lp5626
s(S'2-amino-1-methyl-6-phenylimidazo(4,5-b)pyridine'
p5627
S'HRAS PROTEIN'
p5628
S'increases'
p5629
tp5630
(lp5631
s(S'GFI1'
p5632
S'POU3F2'
p5633
S'increases'
p5634
tp5635
(lp5636
s(S'FARNESYL DIPHOSPHATE'
p5637
S'KRAS'
p5638
S'increases_activity'
p5639
tp5640
(lp5641
s(S'IL2/IL2R BETA/GAMMA/JAK1/LCK/JAK3'
p5642
S'PI3K'
p5643
S'binds'
p5644
tp5645
(lp5646
s(S'GTF3A'
p5647
S'MECOM'
p5648
S'increases'
p5649
tp5650
(lp5651
s(S'EGR2'
p5652
S'CYP26A1'
p5653
S'increases'
p5654
tp5655
(lp5656
s(S'RUNX1'
p5657
S'FOXF2'
p5658
S'increases'
p5659
tp5660
(lp5661
s(S'IL3/IL3RA/CSF2RB (DODECAMER)'
p5662
S'YWHAZ'
p5663
S'binds'
p5664
tp5665
(lp5666
s(S'RAF1'
p5667
S'BRAF'
p5668
S'binds'
p5669
tp5670
(lp5671
s(S'MYC'
p5672
S'CYP26A1'
p5673
S'increases'
p5674
tp5675
(lp5676
s(S'UBP1'
p5677
S'CYP26A1'
p5678
S'increases'
p5679
tp5680
(lp5681
s(S'MTF1'
p5682
S'REPIN1'
p5683
S'increases'
p5684
tp5685
(lp5686
s(S'HNF1A'
p5687
S'RUNX1'
p5688
S'increases'
p5689
tp5690
(lp5691
s(S'NHLH1'
p5692
S'FOXA1'
p5693
S'increases'
p5694
tp5695
(lp5696
s(S'HLF'
p5697
S'FOXA1'
p5698
S'increases'
p5699
tp5700
(lp5701
s(S'MEIS1'
p5702
S'GATA6'
p5703
S'increases'
p5704
tp5705
(lp5706
s(S'PDGF-BB/PDGFRB (DIMER)/SHP2'
p5707
S'GRB2/SOS1'
p5708
S'binds'
p5709
tp5710
(lp5711
s(S'ZBTB14'
p5712
S'EN1'
p5713
S'increases'
p5714
tp5715
(lp5716
s(S'alpha6/beta4 Integrin'
p5717
S'HRAS/GDP'
p5718
S'increases_activity'
p5719
tp5720
(lp5721
s(S'ErbB2'
p5722
S'HRAS/GDP'
p5723
S'increases_activity'
p5724
tp5725
(lp5726
s(S'MEIS1'
p5727
S'FOXO3'
p5728
S'increases'
p5729
tp5730
(lp5731
s(S'RELA'
p5732
S'IRF1'
p5733
S'increases'
p5734
tp5735
(lp5736
s(S'MYCN'
p5737
S'FOXO3'
p5738
S'increases'
p5739
tp5740
(lp5741
s(S'RHOA/GTP'
p5742
S'DIA'
p5743
S'increases_activity'
p5744
tp5745
(lp5746
s(S'Fluorouracil'
p5747
S'KRAS PROTEIN'
p5748
S'decreases'
p5749
tp5750
(lp5751
s(S'ATF2'
p5752
S'CYP26A1'
p5753
S'increases'
p5754
tp5755
(lp5756
s(S'GNAI2/GTP'
p5757
S'SRC FAMILY KINASES'
p5758
S'increases_activity'
p5759
tp5760
(lp5761
s(S'HAND1'
p5762
S'POU2F1'
p5763
S'increases'
p5764
tp5765
(lp5766
s(S'PI5K Type 1 family'
p5767
S'PI-4-P'
p5768
S'translocates'
p5769
tp5770
(lp5771
s(S'HSF1'
p5772
S'CBFA2T3'
p5773
S'increases'
p5774
tp5775
(lp5776
s(S'BACH1'
p5777
S'FOXA1'
p5778
S'increases'
p5779
tp5780
(lp5781
s(S'PI-3-4-5-P3'
p5782
S'SGK1'
p5783
S'adds_modification'
p5784
tp5785
(lp5786
s(S'hsa-miR-20a-5p'
p5787
S'NRAS'
p5788
S'decreases'
p5789
tp5790
(lp5791
s(S'CYP26A1'
p5792
S'MECOM'
p5793
S'increases'
p5794
tp5795
(lp5796
s(S'FOXF2'
p5797
S'RUNX1'
p5798
S'increases'
p5799
tp5800
(lp5801
s(S'EGR2'
p5802
S'SRF'
p5803
S'increases'
p5804
tp5805
(lp5806
s(S'LEF1'
p5807
S'FOXD3'
p5808
S'increases'
p5809
tp5810
(lp5811
s(S'TFAP2C'
p5812
S'MECOM'
p5813
S'increases'
p5814
tp5815
(lp5816
s(S'SHC'
p5817
S'GRB2/SOS1'
p5818
S'binds'
p5819
tp5820
(lp5821
s(S'CA2+'
p5822
S'CAM'
p5823
S'binds'
p5824
tp5825
(lp5826
s(S'MYC'
p5827
S'POU3F2'
p5828
S'increases'
p5829
tp5830
(lp5831
s(S'PAX8'
p5832
S'HOXA9'
p5833
S'increases'
p5834
tp5835
(lp5836
s(S'TFDP2'
p5837
S'CDC5L'
p5838
S'increases'
p5839
tp5840
(lp5841
s(S'RAF1/14-3-3'
p5842
S'KSR/14-3-3 /MEK1-2'
p5843
S'increases_activity'
p5844
tp5845
(lp5846
s(S'DDIT3'
p5847
S'MEIS1'
p5848
S'increases'
p5849
tp5850
(lp5851
s(S'GNB1/GNG2'
p5852
S'HRAS/GDP'
p5853
S'increases_activity'
p5854
tp5855
(lp5856
s(S'ACTIVATED FGFR MUTANTS:P-FRS2ALPHA'
p5857
S'GRB2:SOS1'
p5858
S'binds'
p5859
tp5860
(lp5861
s(S'HIF1A'
p5862
S'CYP26A1'
p5863
S'increases'
p5864
tp5865
(lp5866
s(S'RAF1-BRAF'
p5867
S'ERK1-2'
p5868
S'increases_activity'
p5869
tp5870
(lp5871
s(S'SMAD4'
p5872
S'CBFA2T3'
p5873
S'increases'
p5874
tp5875
(lp5876
s(S'resveratrol'
p5877
S'HRAS PROTEIN'
p5878
S'increases'
p5879
tp5880
(lp5881
s(S'Malathion'
p5882
S'HRAS MRNA'
p5883
S'increases'
p5884
tp5885
(lp5886
s(S'NRF1'
p5887
S'FOXO4'
p5888
S'increases'
p5889
tp5890
(lp5891
s(S'CREB1'
p5892
S'JUN'
p5893
S'increases'
p5894
tp5895
(lp5896
s(S'CDC5L'
p5897
S'HOXA9'
p5898
S'increases'
p5899
tp5900
(lp5901
s(S'CDX2'
p5902
S'HOXA9'
p5903
S'increases'
p5904
tp5905
(lp5906
s(S'HMGA1'
p5907
S'POU2F1'
p5908
S'increases'
p5909
tp5910
(lp5911
s(S'Coumestrol'
p5912
S'KRAS MRNA'
p5913
S'decreases'
p5914
tp5915
(lp5916
s(S'LEF1'
p5917
S'FOXO3'
p5918
S'increases'
p5919
tp5920
(lp5921
s(S'CYP26A1'
p5922
S'MEIS1'
p5923
S'increases'
p5924
tp5925
(lp5926
s(S'GTF2A2'
p5927
S'MEIS1'
p5928
S'increases'
p5929
tp5930
(lp5931
s(S'REPIN1'
p5932
S'CBFA2T3'
p5933
S'increases'
p5934
tp5935
(lp5936
s(S'hsa-miR-143-3p'
p5937
S'HRAS'
p5938
S'decreases'
p5939
tp5940
(lp5941
s(S'[(3,7,11-TRIMETHYL-DODECA-2,6,10-TRIENYLOXYCARBAMOYL)-METHYL]-PHOSPHONIC ACID'
p5942
S'KRAS'
p5943
S'increases_activity'
p5944
tp5945
(lp5946
s(S'TFDP1'
p5947
S'ONECUT1'
p5948
S'increases'
p5949
tp5950
(lp5951
s(S'YY1'
p5952
S'CYP26A1'
p5953
S'increases'
p5954
tp5955
(lp5956
s(S'PITX2'
p5957
S'RUNX1'
p5958
S'increases'
p5959
tp5960
(lp5961
s(S'STAT5A'
p5962
S'NRAS'
p5963
S'increases'
p5964
tp5965
(lp5966
s(S'Valproic Acid'
p5967
S'HRAS MRNA'
p5968
S'increases'
p5969
tp5970
(lp5971
s(S'Malathion'
p5972
S'HRAS PROTEIN'
p5973
S'increases'
p5974
tp5975
(lp5976
s(S'TFAP4'
p5977
S'CBFA2T3'
p5978
S'increases'
p5979
tp5980
(lp5981
s(S'TFAP4'
p5982
S'EN1'
p5983
S'increases'
p5984
tp5985
(lp5986
s(S'POU3F2'
p5987
S'CYP26A1'
p5988
S'increases'
p5989
tp5990
(lp5991
s(S'PAX3'
p5992
S'FOXD3'
p5993
S'increases'
p5994
tp5995
(lp5996
s(S'FOXA2'
p5997
S'RUNX2'
p5998
S'increases'
p5999
tp6000
(lp6001
s(S'MAX'
p6002
S'BACH1'
p6003
S'increases'
p6004
tp6005
(lp6006
s(S'PDX1'
p6007
S'CYP26A1'
p6008
S'increases'
p6009
tp6010
(lp6011
s(S'EPO/EPOR (dimer)/JAK2'
p6012
S'SHC/GRB2/SOS1'
p6013
S'increases_activity'
p6014
tp6015
(lp6016
s(S'E2F1'
p6017
S'MEIS1'
p6018
S'increases'
p6019
tp6020
(lp6021
s(S'FOXF2'
p6022
S'MEIS1'
p6023
S'increases'
p6024
tp6025
(lp6026
s(S'SPZ1'
p6027
S'FOXJ2'
p6028
S'increases'
p6029
tp6030
(lp6031
s(S'SRY'
p6032
S'NRAS'
p6033
S'increases'
p6034
tp6035
(lp6036
s(S'REPIN1'
p6037
S'CYP26A1'
p6038
S'increases'
p6039
tp6040
(lp6041
s(S'VEGFR3/VEGFC-D'
p6042
S'PKC'
p6043
S'increases_activity'
p6044
tp6045
(lp6046
s(S'MEIS1'
p6047
S'EN1'
p6048
S'increases'
p6049
tp6050
(lp6051
s(S'FOXJ1'
p6052
S'FOXD3'
p6053
S'increases'
p6054
tp6055
(lp6056
s(S'SPZ1'
p6057
S'FOXO4'
p6058
S'increases'
p6059
tp6060
(lp6061
s(S'RHOA/GTP'
p6062
S'ROCK1-ROCK2'
p6063
S'increases_activity'
p6064
tp6065
(lp6066
s(S'HMGA1'
p6067
S'ONECUT1'
p6068
S'increases'
p6069
tp6070
(lp6071
s(S'uPA/uPAR/alphav/beta3 Integrin/Vitronectin'
p6072
S'SRC'
p6073
S'adds_modification'
p6074
tp6075
(lp6076
s(S'ETS1'
p6077
S'CYP26A1'
p6078
S'increases'
p6079
tp6080
(lp6081
s(S'ESRRA'
p6082
S'TLX2'
p6083
S'increases'
p6084
tp6085
(lp6086
s(S'ROCK2'
p6087
S'RHO FAMILY GTPASE-ACTIVE'
p6088
S'binds'
p6089
tp6090
(lp6091
s(S'ATF4'
p6092
S'CYP26A1'
p6093
S'increases'
p6094
tp6095
(lp6096
s(S'OR5I1'
p6097
S'CYP26A1'
p6098
S'increases'
p6099
tp6100
(lp6101
s(S'PITX2'
p6102
S'GATA1'
p6103
S'increases'
p6104
tp6105
(lp6106
s(S'AHR'
p6107
S'ONECUT1'
p6108
S'increases'
p6109
tp6110
(lp6111
s(S'PTF1A'
p6112
S'MECOM'
p6113
S'increases'
p6114
tp6115
(lp6116
s(S'arsenic trioxide'
p6117
S'HRAS MRNA'
p6118
S'increases'
p6119
tp6120
(lp6121
s(S'TCF3'
p6122
S'REPIN1'
p6123
S'increases'
p6124
tp6125
(lp6126
s(S'STAT6'
p6127
S'FOXO3'
p6128
S'increases'
p6129
tp6130
(lp6131
s(S'POU1F1'
p6132
S'POU2F1'
p6133
S'increases'
p6134
tp6135
(lp6136
s(S'RHOA/GTP'
p6137
S'ROCK'
p6138
S'increases_activity'
p6139
tp6140
(lp6141
s(S'PITPNA'
p6142
S'PI-4-5-P2'
p6143
S'translocates'
p6144
tp6145
(lp6146
s(S'MDM-2'
p6147
S'P14/19 ARF'
p6148
S'binds'
p6149
tp6150
(lp6151
s(S'TEAD1'
p6152
S'FOXO3'
p6153
S'increases'
p6154
tp6155
(lp6156
s(S'MYC'
p6157
S'MAX'
p6158
S'increases'
p6159
tp6160
(lp6161
s(S'GRB2:SOS1'
p6162
S'EGF:PHOSPHO-EGFR:PHOSPHO-SHC'
p6163
S'binds'
p6164
tp6165
(lp6166
s(S'NF1'
p6167
S'RUNX1'
p6168
S'increases'
p6169
tp6170
(lp6171
s(S'ZEB1'
p6172
S'GATA6'
p6173
S'increases'
p6174
tp6175
(lp6176
s(S'TBP'
p6177
S'EN1'
p6178
S'increases'
p6179
tp6180
(lp6181
s(S'FOXA1'
p6182
S'FOXD3'
p6183
S'increases'
p6184
tp6185
(lp6186
s(S'CART1'
p6187
S'EN1'
p6188
S'increases'
p6189
tp6190
(lp6191
s(S'MAX'
p6192
S'CEBPA'
p6193
S'increases'
p6194
tp6195
(lp6196
s(S'GATA6'
p6197
S'NRAS'
p6198
S'increases'
p6199
tp6200
(lp6201
s(S'PTF1A'
p6202
S'FOXO3'
p6203
S'increases'
p6204
tp6205
(lp6206
s(S'LEF1'
p6207
S'FOXA1'
p6208
S'increases'
p6209
tp6210
(lp6211
s(S'hsa-let-7g-5p'
p6212
S'KRAS'
p6213
S'decreases'
p6214
tp6215
(lp6216
s(S'ZBTB14'
p6217
S'CYP26A1'
p6218
S'increases'
p6219
tp6220
(lp6221
s(S'POU1F1'
p6222
S'FOXO4'
p6223
S'increases'
p6224
tp6225
(lp6226
s(S'PI3K'
p6227
S'PI-4-5-P2'
p6228
S'translocates'
p6229
tp6230
(lp6231
s(S'GABPB2'
p6232
S'NRAS'
p6233
S'increases'
p6234
tp6235
(lp6236
s(S'ELK1'
p6237
S'LEF1'
p6238
S'increases'
p6239
tp6240
(lp6241
s(S'Estrogens'
p6242
S'HRAS MRNA'
p6243
S'increases'
p6244
tp6245
(lp6246
s(S'CYP26A1'
p6247
S'CEBPA'
p6248
S'increases'
p6249
tp6250
(lp6251
s(S'SPI1'
p6252
S'POU2F1'
p6253
S'increases'
p6254
tp6255
(lp6256
s(S'PPARG'
p6257
S'CYP26A1'
p6258
S'increases'
p6259
tp6260
(lp6261
s(S'Asbestos, Serpentine'
p6262
S'HRAS PROTEIN'
p6263
S'increases'
p6264
tp6265
(lp6266
s(S'RET51/GFRALPHA1/GDNF/DOK1'
p6267
S'RASGAP'
p6268
S'binds'
p6269
tp6270
(lp6271
s(S'FOXO1'
p6272
S'GATA6'
p6273
S'increases'
p6274
tp6275
(lp6276
s(S'Cadmium'
p6277
S'KRAS PROTEIN'
p6278
S'increases'
p6279
tp6280
(lp6281
s(S'MAX'
p6282
S'EN1'
p6283
S'increases'
p6284
tp6285
(lp6286
s(S'TLX2'
p6287
S'NRAS'
p6288
S'increases'
p6289
tp6290
(lp6291
s(S'SREBF1'
p6292
S'CYP26A1'
p6293
S'increases'
p6294
tp6295
(lp6296
s(S'SMAD3'
p6297
S'MEIS1'
p6298
S'increases'
p6299
tp6300
(lp6301
s(S'Acetaminophen'
p6302
S'NRAS MRNA'
p6303
S'decreases'
p6304
tp6305
(lp6306
s(S'LEF1'
p6307
S'ETS1'
p6308
S'increases'
p6309
tp6310
(lp6311
s(S'SRF'
p6312
S'MEIS1'
p6313
S'increases'
p6314
tp6315
(lp6316
s(S'BRAF'
p6317
S'MKK3-MKK6'
p6318
S'increases_activity'
p6319
tp6320
(lp6321
s(S'HRAS/GTP'
p6322
S'RAF1'
p6323
S'adds_modification'
p6324
tp6325
(lp6326
s(S'MSX1'
p6327
S'CYP26A1'
p6328
S'increases'
p6329
tp6330
(lp6331
s(S'GATA4'
p6332
S'ETS1'
p6333
S'increases'
p6334
tp6335
(lp6336
s(S'E4F1'
p6337
S'FOXA1'
p6338
S'increases'
p6339
tp6340
(lp6341
s(S'FOXD1'
p6342
S'LEF1'
p6343
S'increases'
p6344
tp6345
(lp6346
s(S'CUX1'
p6347
S'MAX'
p6348
S'increases'
p6349
tp6350
(lp6351
s(S'CYP26A1'
p6352
S'CBFA2T3'
p6353
S'increases'
p6354
tp6355
(lp6356
s(S'CAM/CA2+'
p6357
S'KRAS ISOFORM 4B/GTP'
p6358
S'binds'
p6359
tp6360
(lp6361
s(S'MYOG'
p6362
S'STAT5A'
p6363
S'increases'
p6364
tp6365
(lp6366
s(S'MYOD1'
p6367
S'STAT5A'
p6368
S'increases'
p6369
tp6370
(lp6371
s(S'HNF1A'
p6372
S'POU3F2'
p6373
S'increases'
p6374
tp6375
(lp6376
s(S'EPH'
p6377
S'EPHR'
p6378
S'binds'
p6379
tp6380
(lp6381
s(S'PDGF:PHOSPHO-PDGF RECEPTOR DIMER'
p6382
S'GRB2:SOS1'
p6383
S'binds'
p6384
tp6385
(lp6386
s(S'HRAS/GTP'
p6387
S'PI3K'
p6388
S'increases_activity'
p6389
tp6390
(lp6391
s(S'RUNX1'
p6392
S'TLX2'
p6393
S'increases'
p6394
tp6395
(lp6396
s(S'MYOG'
p6397
S'CYP26A1'
p6398
S'increases'
p6399
tp6400
(lp6401
s(S'PAX2'
p6402
S'EN1'
p6403
S'increases'
p6404
tp6405
(lp6406
s(S'TFCP2'
p6407
S'CYP26A1'
p6408
S'increases'
p6409
tp6410
(lp6411
s(S'hsa-miR-145-5p'
p6412
S'NRAS'
p6413
S'decreases'
p6414
tp6415
(lp6416
s(S'KAT2B'
p6417
S'GATA1'
p6418
S'increases'
p6419
tp6420
(lp6421
s(S'P-EGFR MUTANTS:P-Y349,350-SHC1'
p6422
S'GRB2:SOS1'
p6423
S'binds'
p6424
tp6425
(lp6426
s(S'E2F1'
p6427
S'MECOM'
p6428
S'increases'
p6429
tp6430
(lp6431
s(S'GNB1/GNG2'
p6432
S'SRC'
p6433
S'adds_modification'
p6434
tp6435
(lp6436
s(S'ZBTB14'
p6437
S'MAX'
p6438
S'increases'
p6439
tp6440
(lp6441
s(S'RALGDS'
p6442
S'P21 RAS:GTP'
p6443
S'binds'
p6444
tp6445
(lp6446
s(S'RHOA/GTP'
p6447
S'ROCK2'
p6448
S'increases_activity'
p6449
tp6450
(lp6451
s(S'NR1H3'
p6452
S'FOXD3'
p6453
S'increases'
p6454
tp6455
(lp6456
s(S'TFAP4'
p6457
S'GATA1'
p6458
S'increases'
p6459
tp6460
(lp6461
s(S'FOXA1'
p6462
S'GATA6'
p6463
S'increases'
p6464
tp6465
(lp6466
s(S'GRB2:SOS1'
p6467
S'P-SHC'
p6468
S'binds'
p6469
tp6470
(lp6471
s(S'E2F1'
p6472
S'FOXO3'
p6473
S'increases'
p6474
tp6475
(lp6476
s.