(dp0
(S'ZEB1'
p1
S'FOXA1'
p2
S'increases'
p3
tp4
(lp5
s(S'FOXJ1'
p6
S'GATA6'
p7
S'increases'
p8
tp9
(lp10
s(S'TFAP4'
p11
S'FOXD3'
p12
S'increases'
p13
tp14
(lp15
s(S'TBP'
p16
S'MEIS1'
p17
S'increases'
p18
tp19
(lp20
s(S'GCM1'
p21
S'GATA6'
p22
S'increases'
p23
tp24
(lp25
s(S'T-DHT'
p26
S'SRC'
p27
S'adds_modification'
p28
tp29
(lp30
s(S'MAZ'
p31
S'GABPB2'
p32
S'increases'
p33
tp34
(lp35
s(S'HMGA1'
p36
S'EN1'
p37
S'increases'
p38
tp39
(lp40
s(S'CYP26A1'
p41
S'NRAS'
p42
S'increases'
p43
tp44
(lp45
s(S'CUX1'
p46
S'MEIS1'
p47
S'increases'
p48
tp49
(lp50
s(S'REPIN1'
p51
S'BACH1'
p52
S'increases'
p53
tp54
(lp55
s(S'TFDP1'
p56
S'HOXA9'
p57
S'increases'
p58
tp59
(lp60
s(S'NFE2L1'
p61
S'CYP26A1'
p62
S'increases'
p63
tp64
(lp65
s(S'MAZ'
p66
S'GATA1'
p67
S'increases'
p68
tp69
(lp70
s(S'TCF12'
p71
S'GABPB2'
p72
S'increases'
p73
tp74
(lp75
s(S'ETS2'
p76
S'FOXO3'
p77
S'increases'
p78
tp79
(lp80
s(S'hsa-let-7c-5p'
p81
S'NRAS'
p82
S'decreases'
p83
tp84
(lp85
s(S'SPI1'
p86
S'CYP26A1'
p87
S'increases'
p88
tp89
(lp90
s(S'RAC1/GTP'
p91
S'MKK4'
p92
S'adds_modification'
p93
tp94
(lp95
s(S'Quercetin'
p96
S'KRAS MRNA'
p97
S'decreases'
p98
tp99
(lp100
s(S'INSULIN RECEPTOR/INSULIN/SHC'
p101
S'GRB2'
p102
S'binds'
p103
tp104
(lp105
s(S'TAp63a (tetramer)'
p106
S'PKC DELTA'
p107
S'increases'
p108
tp109
(lp110
s(S'FOXO1'
p111
S'POU2F1'
p112
S'increases'
p113
tp114
(lp115
s(S'FOXL1'
p116
S'EN1'
p117
S'increases'
p118
tp119
(lp120
s(S'TBP'
p121
S'CYP26A1'
p122
S'increases'
p123
tp124
(lp125
s(S'Heptachlor'
p126
S'HRAS MRNA'
p127
S'decreases'
p128
tp129
(lp130
s(S'PCBP1'
p131
S'CYP26A1'
p132
S'increases'
p133
tp134
(lp135
s(S'ZBTB18'
p136
S'CYP26A1'
p137
S'increases'
p138
tp139
(lp140
s(S'GATA2'
p141
S'CYP26A1'
p142
S'increases'
p143
tp144
(lp145
s(S'Cadmium'
p146
S'KRAS MRNA'
p147
S'increases'
p148
tp149
(lp150
s(S'HNF1A'
p151
S'POU2F1'
p152
S'increases'
p153
tp154
(lp155
s(S'ABT-100'
p156
S'HRAS PROTEIN'
p157
S'inhibits_modification'
p158
tp159
(lp160
s(S'ELF1'
p161
S'CYP26A1'
p162
S'increases'
p163
tp164
(lp165
s(S'LEF1'
p166
S'KRAS'
p167
S'increases'
p168
tp169
(lp170
s(S'NKX2-1'
p171
S'FOXD3'
p172
S'increases'
p173
tp174
(lp175
s(S'PI-3-4-5-P3'
p176
S'BTK-ITK'
p177
S'translocates'
p178
tp179
(lp180
s(S'POU6F1'
p181
S'HOXA9'
p182
S'increases'
p183
tp184
(lp185
s(S'Myb'
p186
S'MYB'
p187
S'increases'
p188
tp189
(lp190
s(S'PAX5'
p191
S'CYP26A1'
p192
S'increases'
p193
tp194
(lp195
s(S'FOXO4'
p196
S'FOXD3'
p197
S'increases'
p198
tp199
(lp200
s(S'CYP26A1'
p201
S'FOXO4'
p202
S'increases'
p203
tp204
(lp205
s(S'cell adhesion'
p206
S'HRAS/GDP'
p207
S'increases_activity'
p208
tp209
(lp210
s(S'IRF7'
p211
S'CYP26A1'
p212
S'increases'
p213
tp214
(lp215
s(S'7,8-Dihydro-7,8-dihydroxybenzo(a)pyrene 9,10-oxide'
p216
S'KRAS PROTEIN'
p217
S'increases'
p218
tp219
(lp220
s(S'PITX2'
p221
S'POU2F1'
p222
S'increases'
p223
tp224
(lp225
s(S'E2F1'
p226
S'CYP26A1'
p227
S'increases'
p228
tp229
(lp230
s(S'ATF1'
p231
S'CYP26A1'
p232
S'increases'
p233
tp234
(lp235
s(S'PI3K'
p236
S'PKC DELTA'
p237
S'adds_modification'
p238
tp239
(lp240
s(S'SOX5'
p241
S'HOXA9'
p242
S'increases'
p243
tp244
(lp245
s(S'FOXO4'
p246
S'POU2F1'
p247
S'increases'
p248
tp249
(lp250
s(S'FOXO4'
p251
S'GATA6'
p252
S'increases'
p253
tp254
(lp255
s(S'LEF1'
p256
S'FOXF2'
p257
S'increases'
p258
tp259
(lp260
s(S'Insulin Receptor/Insuli/IRS1/GRB2/SHC/Sos'
p261
S'HRAS/GDP'
p262
S'increases_activity'
p263
tp264
(lp265
s(S'TLX2'
p266
S'RUNX1'
p267
S'increases'
p268
tp269
(lp270
s(S'ALX4'
p271
S'JUN'
p272
S'increases'
p273
tp274
(lp275
s(S'RHOA/GTP'
p276
S'RHOGDI'
p277
S'binds'
p278
tp279
(lp280
s(S'GCM1'
p281
S'CYP26A1'
p282
S'increases'
p283
tp284
(lp285
s(S'RB1'
p286
S'ONECUT1'
p287
S'increases'
p288
tp289
(lp290
s(S'NHLH1'
p291
S'CYP26A1'
p292
S'increases'
p293
tp294
(lp295
s(S'NR3C1'
p296
S'BACH1'
p297
S'increases'
p298
tp299
(lp300
s(S'HNF4A'
p301
S'CYP26A1'
p302
S'increases'
p303
tp304
(lp305
s(S'YY1'
p306
S'FOXO3'
p307
S'increases'
p308
tp309
(lp310
s(S'GRB2:SOS1'
p311
S'P-EGFR MUTANTS DIMER'
p312
S'binds'
p313
tp314
(lp315
s(S'P-Y349,350-SHC1:P-ERBB4'
p316
S'GRB2:SOS1'
p317
S'binds'
p318
tp319
(lp320
s(S'FOXN1'
p321
S'ONECUT1'
p322
S'increases'
p323
tp324
(lp325
s(S'TFAP4'
p326
S'MYC'
p327
S'increases'
p328
tp329
(lp330
s(S'MYC'
p331
S'EN1'
p332
S'increases'
p333
tp334
(lp335
s(S'Antigen/IgE/Fc epsilon R1/LYN/SYK'
p336
S'SHC/GRB2/SOS1'
p337
S'increases_activity'
p338
tp339
(lp340
s(S'14-3-3 BETA, ZETA'
p341
S'GARNL4'
p342
S'binds'
p343
tp344
(lp345
s(S'SMAD1'
p346
S'EN1'
p347
S'increases'
p348
tp349
(lp350
s(S'Raf-1'
p351
S'MEK1-2'
p352
S'adds_modification'
p353
tp354
(lp355
s(S'POU2F1'
p356
S'FOXO3'
p357
S'increases'
p358
tp359
(lp360
s(S'NGF (dimer)/TRKA'
p361
S'RASGRF1'
p362
S'adds_modification'
p363
tp364
(lp365
s(S'TCF4'
p366
S'CYP26A1'
p367
S'increases'
p368
tp369
(lp370
s(S'STAT5B'
p371
S'TLX2'
p372
S'increases'
p373
tp374
(lp375
s(S'CYP26A1'
p376
S'SRF'
p377
S'increases'
p378
tp379
(lp380
s(S'STAT1'
p381
S'NRAS'
p382
S'increases'
p383
tp384
(lp385
s(S'TFDP1'
p386
S'GATA1'
p387
S'increases'
p388
tp389
(lp390
s(S'PI3K'
p391
S'ALPHA6/BETA4 INTEGRIN/LAMININ'
p392
S'binds'
p393
tp394
(lp395
s(S'FOXF2'
p396
S'NRAS'
p397
S'increases'
p398
tp399
(lp400
s(S'CUX1'
p401
S'POU2F1'
p402
S'increases'
p403
tp404
(lp405
s(S'ETS2'
p406
S'STAT4'
p407
S'increases'
p408
tp409
(lp410
s(S'EN1'
p411
S'CYP26A1'
p412
S'increases'
p413
tp414
(lp415
s(S'COMPLEX (RAS/GTP)'
p416
S'RAF'
p417
S'binds'
p418
tp419
(lp420
s(S'LEF1'
p421
S'EN1'
p422
S'increases'
p423
tp424
(lp425
s(S'FOXL1'
p426
S'NRAS'
p427
S'increases'
p428
tp429
(lp430
s(S'ELF2'
p431
S'CYP26A1'
p432
S'increases'
p433
tp434
(lp435
s(S'Src Family Kinases-active'
p436
S'EGF/EGFR'
p437
S'adds_modification'
p438
tp439
(lp440
s(S'RUNX1'
p441
S'POU2F1'
p442
S'increases'
p443
tp444
(lp445
s(S'RHOA/GTP'
p446
S'CITRON-N'
p447
S'increases_activity'
p448
tp449
(lp450
s(S'PAX4'
p451
S'SRF'
p452
S'increases'
p453
tp454
(lp455
s(S'Vitamin E'
p456
S'HRAS MRNA'
p457
S'increases'
p458
tp459
(lp460
s(S'CDX2'
p461
S'FOXD3'
p462
S'increases'
p463
tp464
(lp465
s(S'Plant Extracts'
p466
S'KEAP1 PROTEIN'
p467
S'decreases'
p468
tp469
(lp470
s(S'PAX4'
p471
S'CBFA2T3'
p472
S'increases'
p473
tp474
(lp475
s(S'FOXD1'
p476
S'CYP26A1'
p477
S'increases'
p478
tp479
(lp480
s(S'Antigen/IgE/Fc epsilon R1/LYN/SYK'
p481
S'VAV1'
p482
S'adds_modification'
p483
tp484
(lp485
s(S'PCBP1'
p486
S'MEIS1'
p487
S'increases'
p488
tp489
(lp490
s(S'FOXI1'
p491
S'FOXD3'
p492
S'increases'
p493
tp494
(lp495
s(S'GATA4'
p496
S'MEIS1'
p497
S'increases'
p498
tp499
(lp500
s(S'STAT5B'
p501
S'CEBPG'
p502
S'increases'
p503
tp504
(lp505
s(S'TFDP2'
p506
S'MAZ'
p507
S'increases'
p508
tp509
(lp510
s(S'PI3K'
p511
S'SHP2'
p512
S'binds'
p513
tp514
(lp515
s(S'SPI1'
p516
S'ONECUT1'
p517
S'increases'
p518
tp519
(lp520
s(S'STAT6'
p521
S'EN1'
p522
S'increases'
p523
tp524
(lp525
s(S'TLX2'
p526
S'CYP26A1'
p527
S'increases'
p528
tp529
(lp530
s(S'RAF1'
p531
S'MEK1-2'
p532
S'increases_activity'
p533
tp534
(lp535
s(S'STAT5A'
p536
S'IRF1'
p537
S'increases'
p538
tp539
(lp540
s(S'2-amino-1-methyl-6-phenylimidazo(4,5-b)pyridine'
p541
S'HRAS MRNA'
p542
S'increases'
p543
tp544
(lp545
s(S'MAZ'
p546
S'POU2F1'
p547
S'increases'
p548
tp549
(lp550
s(S'MAZ'
p551
S'SRF'
p552
S'increases'
p553
tp554
(lp555
s(S'GATA1'
p556
S'JUN'
p557
S'increases'
p558
tp559
(lp560
s(S'FOXA1'
p561
S'NRAS'
p562
S'increases'
p563
tp564
(lp565
s(S'STAT1'
p566
S'EN1'
p567
S'increases'
p568
tp569
(lp570
s(S'GTF2A2'
p571
S'MAX'
p572
S'increases'
p573
tp574
(lp575
s(S'LMO2'
p576
S'EN1'
p577
S'increases'
p578
tp579
(lp580
s(S'MYOD1'
p581
S'LEF1'
p582
S'increases'
p583
tp584
(lp585
s(S'ATF3'
p586
S'JUN'
p587
S'increases'
p588
tp589
(lp590
s(S'GRB2:SOS1'
p591
S'ACTIVATED FGFR:P-SHC1'
p592
S'binds'
p593
tp594
(lp595
s(S'MAFG'
p596
S'BACH1'
p597
S'increases'
p598
tp599
(lp600
s(S'POU3F2'
p601
S'POU2F1'
p602
S'increases'
p603
tp604
(lp605
s(S'K 7174'
p606
S'KRAS MRNA'
p607
S'increases'
p608
tp609
(lp610
s(S'POU1F1'
p611
S'RUNX1'
p612
S'increases'
p613
tp614
(lp615
s(S'HRAS protein'
p616
S'CCND1 MRNA'
p617
S'increases'
p618
tp619
(lp620
s(S'YY1'
p621
S'EN1'
p622
S'increases'
p623
tp624
(lp625
s(S'resveratrol'
p626
S'HRAS MRNA'
p627
S'increases'
p628
tp629
(lp630
s(S'NKX2-1'
p631
S'HOXA9'
p632
S'increases'
p633
tp634
(lp635
s(S'HSF1'
p636
S'CYP26A1'
p637
S'increases'
p638
tp639
(lp640
s(S'MYC'
p641
S'HOXA9'
p642
S'increases'
p643
tp644
(lp645
s(S'Raf'
p646
S'MEK'
p647
S'adds_modification'
p648
tp649
(lp650
S'Tyrosine autophosphorylation of the intracellular domain of EGFR results in the recruitment of the GRB2/SOS signaling complex, GTP-loading of the proximate Ras, and subsequent activation of Raf kinase and a phosphorylation cascade from MEK to ERK.'
p651
aS'Importantly, the ERK pathway resembles a negative feedback amplifier (NFA) with the amplifier consisting of the three-tiered kinase module Raf-MEK-ERK and negative feedbacks emanating from ERK to SOS and Raf; the ratio of protein abundances of Raf, MEK and ERK is about 1:3:6 ['
p652
aS'Sorafenib is an anticancer drug that inhibits tumour cell proliferation through the Raf/extracellular signal-regulated kinase (ERK) kinase (MEK)/ERK signalling pathway, and tumour angiogenesis by targeting the receptor tyrosine kinases of vascular endothelial growth factors 2 and 3, and platelet-derived growth factor ['
p653
as(S'TFDP1'
p654
S'MAZ'
p655
S'increases'
p656
tp657
(lp658
s(S'SPRED1'
p659
S'HRAS'
p660
S'binds'
p661
tp662
(lp663
s(S'MYCN'
p664
S'CYP26A1'
p665
S'increases'
p666
tp667
(lp668
s(S'AHR'
p669
S'FOXD3'
p670
S'increases'
p671
tp672
(lp673
s(S'SF1'
p674
S'CYP26A1'
p675
S'increases'
p676
tp677
(lp678
s(S'MEIS1'
p679
S'ETS1'
p680
S'increases'
p681
tp682
(lp683
s(S'Copper Sulfate'
p684
S'HRAS MRNA'
p685
S'decreases'
p686
tp687
(lp688
s(S'MAZ'
p689
S'MYC'
p690
S'increases'
p691
tp692
(lp693
s(S'E4F1'
p694
S'HOXA9'
p695
S'increases'
p696
tp697
(lp698
s(S'GATA1'
p699
S'GATA6'
p700
S'increases'
p701
tp702
(lp703
s(S'RUNX2'
p704
S'POU2F1'
p705
S'increases'
p706
tp707
(lp708
s(S'CYP26A1'
p709
S'GATA6'
p710
S'increases'
p711
tp712
(lp713
s(S'PAX4'
p714
S'GATA1'
p715
S'increases'
p716
tp717
(lp718
s(S'ELF2'
p719
S'STAT5A'
p720
S'increases'
p721
tp722
(lp723
s(S'CART1'
p724
S'NRAS'
p725
S'increases'
p726
tp727
(lp728
s(S'IGF-1R heterotetramer/IGF1/GRB2/Sos/Shc'
p729
S'HRAS/GDP'
p730
S'increases_activity'
p731
tp732
(lp733
s(S'RB1'
p734
S'CYP26A1'
p735
S'increases'
p736
tp737
(lp738
s(S'CEBPG'
p739
S'HOXA9'
p740
S'increases'
p741
tp742
(lp743
s(S'GRB2/SOS1/SHC'
p744
S'IGF-1R HETEROTETRAMER/IGF1'
p745
S'binds'
p746
tp747
(lp748
s(S'PRRX2'
p749
S'CYP26A1'
p750
S'increases'
p751
tp752
(lp753
s(S'TEAD1'
p754
S'CYP26A1'
p755
S'increases'
p756
tp757
(lp758
s(S'STAT5A'
p759
S'FOXA1'
p760
S'increases'
p761
tp762
(lp763
s(S'ATF2'
p764
S'FOXD3'
p765
S'increases'
p766
tp767
(lp768
s(S'REPIN1'
p769
S'FOXO4'
p770
S'increases'
p771
tp772
(lp773
s(S'FOXF2'
p774
S'ETS1'
p775
S'increases'
p776
tp777
(lp778
s(S'ETV7'
p779
S'MEIS1'
p780
S'increases'
p781
tp782
(lp783
s(S'RUNX2'
p784
S'RUNX1'
p785
S'increases'
p786
tp787
(lp788
s(S'OR5I1'
p789
S'GATA1'
p790
S'increases'
p791
tp792
(lp793
s(S'MSX1'
p794
S'EN1'
p795
S'increases'
p796
tp797
(lp798
s(S'GTF3A'
p799
S'IRF1'
p800
S'increases'
p801
tp802
(lp803
s(S'POU2F1'
p804
S'SRF'
p805
S'increases'
p806
tp807
(lp808
s(S'PLC-GAMMA'
p809
S'COMPLEX (GADS/SLP-76)'
p810
S'binds'
p811
tp812
(lp813
s(S'STAT4'
p814
S'STAT5A'
p815
S'increases'
p816
tp817
(lp818
s(S'JUN'
p819
S'BACH1'
p820
S'increases'
p821
tp822
(lp823
s(S'POU1F1'
p824
S'HOXA9'
p825
S'increases'
p826
tp827
(lp828
s(S'docetaxel'
p829
S'HRAS PROTEIN'
p830
S'increases'
p831
tp832
(lp833
s(S'MAX'
p834
S'LEF1'
p835
S'increases'
p836
tp837
(lp838
s(S'FOXA1'
p839
S'CYP26A1'
p840
S'increases'
p841
tp842
(lp843
s(S'GATA4'
p844
S'FOXD3'
p845
S'increases'
p846
tp847
(lp848
s(S'ZBTB18'
p849
S'RUNX1'
p850
S'increases'
p851
tp852
(lp853
s(S'ATF3'
p854
S'RUNX1'
p855
S'increases'
p856
tp857
(lp858
s(S'NKX2-1'
p859
S'CYP26A1'
p860
S'increases'
p861
tp862
(lp863
s(S'NR3C1'
p864
S'FOXA1'
p865
S'increases'
p866
tp867
(lp868
s(S'RAS family/GTP'
p869
S'RIN1'
p870
S'increases_activity'
p871
tp872
(lp873
s(S'COMPLEX (RAS/GTP/ RAF)'
p874
S'MEK'
p875
S'binds'
p876
tp877
(lp878
s(S'CDC5L'
p879
S'NRAS'
p880
S'increases'
p881
tp882
(lp883
s(S'Vitamin E'
p884
S'NRAS MRNA'
p885
S'decreases'
p886
tp887
(lp888
s(S'NF1'
p889
S'LEF1'
p890
S'increases'
p891
tp892
(lp893
s(S'ETS1'
p894
S'EN1'
p895
S'increases'
p896
tp897
(lp898
s(S'CRAF'
p899
S'YWHAB'
p900
S'binds'
p901
tp902
(lp903
s(S'CEBPD'
p904
S'JUN'
p905
S'increases'
p906
tp907
(lp908
s(S'MAX'
p909
S'RUNX2'
p910
S'increases'
p911
tp912
(lp913
s(S'CEBPA'
p914
S'MECOM'
p915
S'increases'
p916
tp917
(lp918
s(S'PAX2'
p919
S'GATA1'
p920
S'increases'
p921
tp922
(lp923
s(S'CYP26A1'
p924
S'TLX2'
p925
S'increases'
p926
tp927
(lp928
s(S'GFI1'
p929
S'ETS1'
p930
S'increases'
p931
tp932
(lp933
s(S'14-3-3:P-S259,Y340,Y341,S621-RAF1:RAS:GTP'
p934
S'MEK'
p935
S'binds'
p936
tp937
(lp938
s(S'P-S,T-MEK2'
p939
S'ERK2'
p940
S'binds'
p941
tp942
(lp943
s(S'HRAS/GTP'
p944
S'RIN2'
p945
S'increases_activity'
p946
tp947
(lp948
s(S'Ras-GTP'
p949
S'P42/P44MAPKS'
p950
S'adds_modification'
p951
tp952
(lp953
s(S'SRF'
p954
S'CYP26A1'
p955
S'increases'
p956
tp957
(lp958
s(S'FOXL1'
p959
S'RUNX2'
p960
S'increases'
p961
tp962
(lp963
s(S'EGR4'
p964
S'LEF1'
p965
S'increases'
p966
tp967
(lp968
s(S'P-IRS1,2'
p969
S'GRB2:SOS1'
p970
S'binds'
p971
tp972
(lp973
s(S'VEGFR2 (dimer)/VEGFA (dimer)/alphav/beta3 Integrin/Vitronectin'
p974
S'SRC'
p975
S'adds_modification'
p976
tp977
(lp978
s(S'BACH2'
p979
S'BACH1'
p980
S'increases'
p981
tp982
(lp983
s(S'ONECUT1'
p984
S'RUNX1'
p985
S'increases'
p986
tp987
(lp988
s(S'FOXJ2'
p989
S'RUNX2'
p990
S'increases'
p991
tp992
(lp993
s(S'PI-3-4-5-P3'
p994
S'AKT1'
p995
S'translocates'
p996
tp997
(lp998
s(S'TFAP4'
p999
S'BACH1'
p1000
S'increases'
p1001
tp1002
(lp1003
s(S'MEKK1/4'
p1004
S'MKK3/6'
p1005
S'adds_modification'
p1006
tp1007
(lp1008
s(S'VSX1'
p1009
S'MECOM'
p1010
S'increases'
p1011
tp1012
(lp1013
s(S'IRF1'
p1014
S'GATA6'
p1015
S'increases'
p1016
tp1017
(lp1018
s(S'MAX'
p1019
S'HOXA9'
p1020
S'increases'
p1021
tp1022
(lp1023
s(S'RB1'
p1024
S'MAZ'
p1025
S'increases'
p1026
tp1027
(lp1028
s(S'GATA1'
p1029
S'EN1'
p1030
S'increases'
p1031
tp1032
(lp1033
s(S'HIF1A'
p1034
S'SRF'
p1035
S'increases'
p1036
tp1037
(lp1038
s(S'IRF8'
p1039
S'CYP26A1'
p1040
S'increases'
p1041
tp1042
(lp1043
s(S'MTF1'
p1044
S'CYP26A1'
p1045
S'increases'
p1046
tp1047
(lp1048
s(S'PI-3-4-5-P3'
p1049
S'GAB1'
p1050
S'translocates'
p1051
tp1052
(lp1053
s(S'PI-3-4-5-P3'
p1054
S'AKT1'
p1055
S'adds_modification'
p1056
tp1057
(lp1058
s(S'RXRA'
p1059
S'HOXA9'
p1060
S'increases'
p1061
tp1062
(lp1063
s(S'AKT1'
p1064
S'RAF1'
p1065
S'binds'
p1066
tp1067
(lp1068
s(S'HSF2'
p1069
S'JUN'
p1070
S'increases'
p1071
tp1072
(lp1073
s(S'PAX2'
p1074
S'CYP26A1'
p1075
S'increases'
p1076
tp1077
(lp1078
s(S'ETV7'
p1079
S'CYP26A1'
p1080
S'increases'
p1081
tp1082
(lp1083
s(S'FOXO3'
p1084
S'NRAS'
p1085
S'increases'
p1086
tp1087
(lp1088
s(S'TP53'
p1089
S'REPIN1'
p1090
S'increases'
p1091
tp1092
(lp1093
s(S'STAT6'
p1094
S'CYP26A1'
p1095
S'increases'
p1096
tp1097
(lp1098
s(S'JUN'
p1099
S'NRAS'
p1100
S'increases'
p1101
tp1102
(lp1103
s(S'MYCN'
p1104
S'NRAS'
p1105
S'increases'
p1106
tp1107
(lp1108
s(S'STAT3'
p1109
S'YY1'
p1110
S'increases'
p1111
tp1112
(lp1113
s(S'Methyl Methanesulfonate'
p1114
S'HRAS MRNA'
p1115
S'increases'
p1116
tp1117
(lp1118
s(S'RHOA/GTP'
p1119
S'PKN'
p1120
S'increases_activity'
p1121
tp1122
(lp1123
s(S'NHLH1'
p1124
S'FOXJ2'
p1125
S'increases'
p1126
tp1127
(lp1128
s(S'RAS family/GTP'
p1129
S'BRAF'
p1130
S'adds_modification'
p1131
tp1132
(lp1133
s(S'RELA'
p1134
S'FOXJ2'
p1135
S'increases'
p1136
tp1137
(lp1138
s(S'TCF3'
p1139
S'RUNX1'
p1140
S'increases'
p1141
tp1142
(lp1143
s(S'FOXF2'
p1144
S'FOXO4'
p1145
S'increases'
p1146
tp1147
(lp1148
s(S'ATF4'
p1149
S'FOXD3'
p1150
S'increases'
p1151
tp1152
(lp1153
s(S'HAND1'
p1154
S'MECOM'
p1155
S'increases'
p1156
tp1157
(lp1158
s(S'RHOA/GTP'
p1159
S'P27KIP1'
p1160
S'adds_modification'
p1161
tp1162
(lp1163
s(S'SRF'
p1164
S'NRAS'
p1165
S'increases'
p1166
tp1167
(lp1168
s(S'ESRRA'
p1169
S'POU3F2'
p1170
S'increases'
p1171
tp1172
(lp1173
s(S'BRAF'
p1174
S'MEK1'
p1175
S'adds_modification'
p1176
tp1177
(lp1178
S'Children born with germ-line mutations in BRAF, MEK1 or MEK2 develop cardio-facio-cutaneous (CFC) syndrome, an autosomal dominant syndrome characterized by a distinctive facial appearance, heart defects, skin and hair abnormalities and mental retardation.'
p1179
aS'Treatment of BRAF, MEK1 and MEK2 variants with SU-5402.'
p1180
as(S'Cadmium Chloride'
p1181
S'KRAS PROTEIN'
p1182
S'increases'
p1183
tp1184
(lp1185
s(S'PRRX2'
p1186
S'MEIS1'
p1187
S'increases'
p1188
tp1189
(lp1190
s(S'MYC'
p1191
S'NRAS'
p1192
S'increases'
p1193
tp1194
(lp1195
s(S'MAZ'
p1196
S'KRAS'
p1197
S'increases'
p1198
tp1199
(lp1200
s(S'Rho Family GTPase-active'
p1201
S'PI3K'
p1202
S'increases_activity'
p1203
tp1204
(lp1205
s(S'STAT2'
p1206
S'CYP26A1'
p1207
S'increases'
p1208
tp1209
(lp1210
s(S'hsa-let-7a-5p'
p1211
S'KRAS'
p1212
S'decreases'
p1213
tp1214
(lp1215
s(S'POU3F2'
p1216
S'NRAS'
p1217
S'increases'
p1218
tp1219
(lp1220
s(S'SRF'
p1221
S'FOXO4'
p1222
S'increases'
p1223
tp1224
(lp1225
s(S'S1P1/Sphingosine-1-phosphate/PDGF-BB/PDGFRB (dimer)'
p1226
S'SRC FAMILY KINASES'
p1227
S'increases_activity'
p1228
tp1229
(lp1230
s(S'MYC/Max'
p1231
S'ERBB2'
p1232
S'decreases'
p1233
tp1234
(lp1235
s(S'SREBF1'
p1236
S'CBFA2T3'
p1237
S'increases'
p1238
tp1239
(lp1240
s(S'PI3K'
p1241
S'GELSOLIN/PI-3-4-5-P3'
p1242
S'binds'
p1243
tp1244
(lp1245
s(S'NHLH1'
p1246
S'EN1'
p1247
S'increases'
p1248
tp1249
(lp1250
s(S'LMO2'
p1251
S'GATA6'
p1252
S'increases'
p1253
tp1254
(lp1255
s(S'POU1F1'
p1256
S'FOXD3'
p1257
S'increases'
p1258
tp1259
(lp1260
s(S'hsa-miR-148b-3p'
p1261
S'NRAS'
p1262
S'decreases'
p1263
tp1264
(lp1265
s(S'Quercetin'
p1266
S'KRAS PROTEIN'
p1267
S'decreases'
p1268
tp1269
(lp1270
s(S'PAK2'
p1271
S'MEKK1'
p1272
S'adds_modification'
p1273
tp1274
(lp1275
s(S'LMO2'
p1276
S'MAZ'
p1277
S'increases'
p1278
tp1279
(lp1280
s(S'FOXO1'
p1281
S'POU3F2'
p1282
S'increases'
p1283
tp1284
(lp1285
s(S'NKX2-1'
p1286
S'MAZ'
p1287
S'increases'
p1288
tp1289
(lp1290
s(S'GRB2/SOS1'
p1291
S'PDGF-BB/PDGFRB (DIMER)/P52 SHC'
p1292
S'binds'
p1293
tp1294
(lp1295
s(S'PI3K'
p1296
S'CRK/P130 CAS/PAXILLIN'
p1297
S'increases_activity'
p1298
tp1299
(lp1300
s(S'ATF1'
p1301
S'FOXD3'
p1302
S'increases'
p1303
tp1304
(lp1305
s(S'GATA1'
p1306
S'SRF'
p1307
S'increases'
p1308
tp1309
(lp1310
s(S'TFAP2C'
p1311
S'CYP26A1'
p1312
S'increases'
p1313
tp1314
(lp1315
s(S'AHR'
p1316
S'MEIS1'
p1317
S'increases'
p1318
tp1319
(lp1320
s(S'ETS2'
p1321
S'CYP26A1'
p1322
S'increases'
p1323
tp1324
(lp1325
s(S'Estradiol'
p1326
S'NRAS MRNA'
p1327
S'increases'
p1328
tp1329
(lp1330
s(S'E2F1'
p1331
S'HOXA9'
p1332
S'increases'
p1333
tp1334
(lp1335
s(S'PDGF-BB/PDGFRB (DIMER)'
p1336
S'RASGAP'
p1337
S'binds'
p1338
tp1339
(lp1340
s(S'E2F1'
p1341
S'GABPB2'
p1342
S'increases'
p1343
tp1344
(lp1345
s(S'FOXJ1'
p1346
S'POU3F2'
p1347
S'increases'
p1348
tp1349
(lp1350
s(S'VSX1'
p1351
S'CYP26A1'
p1352
S'increases'
p1353
tp1354
(lp1355
s(S'SPI1'
p1356
S'CDC5L'
p1357
S'increases'
p1358
tp1359
(lp1360
s(S'Gi family'
p1361
S'HRAS/GDP'
p1362
S'increases_activity'
p1363
tp1364
(lp1365
s(S'TCF3'
p1366
S'CYP26A1'
p1367
S'increases'
p1368
tp1369
(lp1370
s(S'IGF-1R HETEROTETRAMER/IGF1/IRS1'
p1371
S'GRB2/SOS1'
p1372
S'binds'
p1373
tp1374
(lp1375
s(S'RAS family/GTP'
p1376
S'RALGDS'
p1377
S'translocates'
p1378
tp1379
(lp1380
s(S'PI3K'
p1381
S'RAC1/GDP'
p1382
S'increases_activity'
p1383
tp1384
(lp1385
s(S'Ca2+'
p1386
S'PKC'
p1387
S'increases_activity'
p1388
tp1389
(lp1390
s(S'ZIC1'
p1391
S'CYP26A1'
p1392
S'increases'
p1393
tp1394
(lp1395
s(S'IRF7'
p1396
S'TLX2'
p1397
S'increases'
p1398
tp1399
(lp1400
s(S'SHC/SHIP'
p1401
S'HRAS/GDP'
p1402
S'decreases_activity'
p1403
tp1404
(lp1405
s(S'hsa-let-7a-5p'
p1406
S'HRAS'
p1407
S'decreases'
p1408
tp1409
(lp1410
s(S'GATA4'
p1411
S'MAZ'
p1412
S'increases'
p1413
tp1414
(lp1415
s(S'EN1'
p1416
S'NRAS'
p1417
S'increases'
p1418
tp1419
(lp1420
s(S'PI3K'
p1421
S'BAM32'
p1422
S'adds_modification'
p1423
tp1424
(lp1425
s(S'GABPB1'
p1426
S'CYP26A1'
p1427
S'increases'
p1428
tp1429
(lp1430
s(S'Trifluoroethanol'
p1431
S'HRAS'
p1432
S'increases_activity'
p1433
tp1434
(lp1435
s(S'SOX5'
p1436
S'CYP26A1'
p1437
S'increases'
p1438
tp1439
(lp1440
s(S'GRB2/SOS1'
p1441
S'HGF(DIMER)/MET(DIMER)/P52 SHC'
p1442
S'binds'
p1443
tp1444
(lp1445
s(S'TCF12'
p1446
S'EN1'
p1447
S'increases'
p1448
tp1449
(lp1450
s(S'SOX9'
p1451
S'MEIS1'
p1452
S'increases'
p1453
tp1454
(lp1455
s(S'RB1'
p1456
S'MYC'
p1457
S'increases'
p1458
tp1459
(lp1460
s(S'RXRA'
p1461
S'FOXA1'
p1462
S'increases'
p1463
tp1464
(lp1465
s(S'decitabine'
p1466
S'HRAS MRNA'
p1467
S'decreases'
p1468
tp1469
(lp1470
s(S'VSX1'
p1471
S'EN1'
p1472
S'increases'
p1473
tp1474
(lp1475
s(S'FOXL1'
p1476
S'CYP26A1'
p1477
S'increases'
p1478
tp1479
(lp1480
s(S'PAX2'
p1481
S'RUNX1'
p1482
S'increases'
p1483
tp1484
(lp1485
s(S'MEKK1/4'
p1486
S'MKK4/7'
p1487
S'adds_modification'
p1488
tp1489
(lp1490
s(S'HOXA9'
p1491
S'CYP26A1'
p1492
S'increases'
p1493
tp1494
(lp1495
s(S'TRKC'
p1496
S'NT3 (DIMER)'
p1497
S'binds'
p1498
tp1499
(lp1500
s(S'PTF1A'
p1501
S'REPIN1'
p1502
S'increases'
p1503
tp1504
(lp1505
s(S'TGIF'
p1506
S'CYP26A1'
p1507
S'increases'
p1508
tp1509
(lp1510
s(S'MYOD1'
p1511
S'MYC'
p1512
S'increases'
p1513
tp1514
(lp1515
s(S'PKCT'
p1516
S'KRAS ISO2'
p1517
S'adds_modification'
p1518
tp1519
(lp1520
s(S'RAS family/GTP'
p1521
S'BRAF'
p1522
S'increases_activity'
p1523
tp1524
(lp1525
s(S'SPZ1'
p1526
S'CYP26A1'
p1527
S'increases'
p1528
tp1529
(lp1530
s(S'HRAS/GTP'
p1531
S'GALECTIN-1'
p1532
S'binds'
p1533
tp1534
(lp1535
s(S'DBP'
p1536
S'FOXD3'
p1537
S'increases'
p1538
tp1539
(lp1540
s(S'E2F1'
p1541
S'POU2F1'
p1542
S'increases'
p1543
tp1544
(lp1545
s(S'MEIS1'
p1546
S'CYP26A1'
p1547
S'increases'
p1548
tp1549
(lp1550
s(S'YY1'
p1551
S'NRAS'
p1552
S'increases'
p1553
tp1554
(lp1555
S'ADAM10: A Disintegrin and Metallopeptidase Domain 10; APP: amyloid precursor protein; CDS: coding sequence; DNA: deoxyribose nucleic acid; EMBOSS: European Molecular Biology Open Software Suite; FGF2: fibroblast growth factor 2; IGF2: insulin-like growth factor 2; KISS1: Kisspeptin1; IRES: Internal Ribosomal Entry Site; LRP5: low-density lipoprotein receptor-related protein 5; MeCP2: methyl CpG binding protein-2; mRNA: messenger RNA; NCBI: National Center for Biotechnology Information; NRAS: neuroblastoma Ras; QGRS: quadruplex forming G-rich sequence(s); PIM1: Pim1 proto-oncogene; PSD95: postsynaptic density protein 95; RNA: ribonucleic Acid; SNCA: synuclein, alpha (non-A4 component of amyloid precursor); TERF2: telomeric repeat binding factor 2; TSS: transcription start site; UTR: untranslated region; VEGF: vascular endothelial growth factor; YY1: Ying Yang 1.'
p1556
as(S'RAS:RAF'
p1557
S'YWHAB'
p1558
S'binds'
p1559
tp1560
(lp1561
s(S'NFE2L2'
p1562
S'CYP26A1'
p1563
S'increases'
p1564
tp1565
(lp1566
s(S'FARNESYL'
p1567
S'KRAS'
p1568
S'increases_activity'
p1569
tp1570
(lp1571
s(S'MTF1'
p1572
S'MECOM'
p1573
S'increases'
p1574
tp1575
(lp1576
s(S'TLX2'
p1577
S'FOXD3'
p1578
S'increases'
p1579
tp1580
(lp1581
s(S'Insulin Receptor/Insulin/SHC/GRB2/Sos1'
p1582
S'HRAS/GDP'
p1583
S'increases_activity'
p1584
tp1585
(lp1586
s(S'MYC'
p1587
S'ELK1'
p1588
S'increases'
p1589
tp1590
(lp1591
s(S'ONECUT1'
p1592
S'POU2F1'
p1593
S'increases'
p1594
tp1595
(lp1596
s(S'Paraquat'
p1597
S'HRAS MRNA'
p1598
S'translocates'
p1599
tp1600
(lp1601
s(S'GRB2/SOS1'
p1602
S'PDGF-BB/PDGFRB (DIMER)/SHP2'
p1603
S'binds'
p1604
tp1605
(lp1606
s(S'ONECUT1'
p1607
S'CYP26A1'
p1608
S'increases'
p1609
tp1610
(lp1611
s(S'MYC'
p1612
S'FOXO3'
p1613
S'increases'
p1614
tp1615
(lp1616
s(S'PAX3'
p1617
S'ELK1'
p1618
S'increases'
p1619
tp1620
(lp1621
s(S'DOK-R'
p1622
S'RASGAP'
p1623
S'binds'
p1624
tp1625
(lp1626
s(S'HOXA4'
p1627
S'HOXA9'
p1628
S'increases'
p1629
tp1630
(lp1631
s(S'MAX'
p1632
S'POU3F2'
p1633
S'increases'
p1634
tp1635
(lp1636
s(S'Estradiol'
p1637
S'KRAS MRNA'
p1638
S'decreases'
p1639
tp1640
(lp1641
s(S'KRAS ISOFORM 4B/GTP'
p1642
S'CAM/CA2+'
p1643
S'binds'
p1644
tp1645
(lp1646
s(S'MAZ'
p1647
S'FOXO4'
p1648
S'increases'
p1649
tp1650
(lp1651
s(S'hsa-miR-181a-5p'
p1652
S'KRAS'
p1653
S'decreases'
p1654
tp1655
(lp1656
s(S'GATA1'
p1657
S'CYP26A1'
p1658
S'increases'
p1659
tp1660
(lp1661
s(S'PGR'
p1662
S'ETS1'
p1663
S'increases'
p1664
tp1665
(lp1666
s(S'GATA1'
p1667
S'POU2F1'
p1668
S'increases'
p1669
tp1670
(lp1671
s(S'BRAF'
p1672
S'MEK1-2'
p1673
S'increases_activity'
p1674
tp1675
(lp1676
s(S'LEF1'
p1677
S'GABPB2'
p1678
S'increases'
p1679
tp1680
(lp1681
s(S'CYP26A1'
p1682
S'MYC'
p1683
S'increases'
p1684
tp1685
(lp1686
s(S'STAT1'
p1687
S'IRF1'
p1688
S'increases'
p1689
tp1690
(lp1691
s(S'SMAD1'
p1692
S'RUNX2'
p1693
S'increases'
p1694
tp1695
(lp1696
s(S'ZEB1'
p1697
S'TLX2'
p1698
S'increases'
p1699
tp1700
(lp1701
s(S'STAT5B'
p1702
S'IRF1'
p1703
S'increases'
p1704
tp1705
(lp1706
s(S'POU6F1'
p1707
S'CYP26A1'
p1708
S'increases'
p1709
tp1710
(lp1711
s(S'Vincristine'
p1712
S'HRAS MRNA'
p1713
S'increases'
p1714
tp1715
(lp1716
s(S'DAG'
p1717
S'RASGRP1'
p1718
S'adds_modification'
p1719
tp1720
(lp1721
s(S'PI3K'
p1722
S'PDK1'
p1723
S'increases_activity'
p1724
tp1725
(lp1726
S'Downstream of the phosphatidylinositol-3-kinase (PI3K), PDK1 (phosphoinositide-dependent kinase-1) phosphorylates Akt at T308, what in conjunction with the mTORC2-mediated phosphorylation of Akt drives full activation of this kinase ('
p1727
aS'On the basis of the evidence accumulated, we propose that PTEN in oocytes suppresses follicular activation through negative regulation of the PI3K signaling and of the function of PDK1, which leads to subsequent inhibition of phosphorylation of S6K1 at T229 by PDK1 ('
p1728
as(S'ETS2'
p1729
S'PAX4'
p1730
S'increases'
p1731
tp1732
(lp1733
s(S'NR3C1'
p1734
S'ONECUT1'
p1735
S'increases'
p1736
tp1737
(lp1738
s(S'CUX1'
p1739
S'CYP26A1'
p1740
S'increases'
p1741
tp1742
(lp1743
s(S'ZEB1'
p1744
S'GATA1'
p1745
S'increases'
p1746
tp1747
(lp1748
s(S'NRF1'
p1749
S'POU2F1'
p1750
S'increases'
p1751
tp1752
(lp1753
s(S'FOXJ2'
p1754
S'MECOM'
p1755
S'increases'
p1756
tp1757
(lp1758
s(S'MAZ'
p1759
S'MYCN'
p1760
S'increases'
p1761
tp1762
(lp1763
s(S'Hydrogen Peroxide'
p1764
S'HRAS MRNA'
p1765
S'increases'
p1766
tp1767
(lp1768
s(S'RASA1'
p1769
S'P-EPHBS:EFNBS'
p1770
S'binds'
p1771
tp1772
(lp1773
s(S'SPI1'
p1774
S'CEBPG'
p1775
S'increases'
p1776
tp1777
(lp1778
s(S'EGR1'
p1779
S'LEF1'
p1780
S'increases'
p1781
tp1782
(lp1783
s(S'RET51/GFRALPHA1/GDNF'
p1784
S'P62DOK'
p1785
S'binds'
p1786
tp1787
(lp1788
s(S'TFDP2'
p1789
S'CYP26A1'
p1790
S'increases'
p1791
tp1792
(lp1793
s(S'matrine'
p1794
S'NRAS MRNA'
p1795
S'increases'
p1796
tp1797
(lp1798
s(S'Isotretinoin'
p1799
S'KRAS MRNA'
p1800
S'decreases'
p1801
tp1802
(lp1803
s(S'PITX2'
p1804
S'FOXF2'
p1805
S'increases'
p1806
tp1807
(lp1808
s(S'MYOD1'
p1809
S'POU2F1'
p1810
S'increases'
p1811
tp1812
(lp1813
s(S'sodium arsenite'
p1814
S'KRAS PROTEIN'
p1815
S'increases'
p1816
tp1817
(lp1818
s(S'TCF4'
p1819
S'CBFA2T3'
p1820
S'increases'
p1821
tp1822
(lp1823
s(S'CYP26A1'
p1824
S'FOXA1'
p1825
S'increases'
p1826
tp1827
(lp1828
s(S'TP53'
p1829
S'CYP26A1'
p1830
S'increases'
p1831
tp1832
(lp1833
s(S'ATF3'
p1834
S'FOXD3'
p1835
S'increases'
p1836
tp1837
(lp1838
s(S'POU2F1'
p1839
S'NRAS'
p1840
S'increases'
p1841
tp1842
(lp1843
s(S'NRF1'
p1844
S'GABPB2'
p1845
S'increases'
p1846
tp1847
(lp1848
s(S'PAX4'
p1849
S'TLX2'
p1850
S'increases'
p1851
tp1852
(lp1853
s(S'PITX2'
p1854
S'FOXA1'
p1855
S'increases'
p1856
tp1857
(lp1858
s(S'GTF3A'
p1859
S'POU2F1'
p1860
S'increases'
p1861
tp1862
(lp1863
s(S'HLF'
p1864
S'FOXO3'
p1865
S'increases'
p1866
tp1867
(lp1868
s(S'PAX4'
p1869
S'FOXO4'
p1870
S'increases'
p1871
tp1872
(lp1873
s(S'CEBPA'
p1874
S'FOXD3'
p1875
S'increases'
p1876
tp1877
(lp1878
s(S'NFE2'
p1879
S'CYP26A1'
p1880
S'increases'
p1881
tp1882
(lp1883
s(S'MYB'
p1884
S'GABPB2'
p1885
S'increases'
p1886
tp1887
(lp1888
s(S'MYC'
p1889
S'CEBPA'
p1890
S'increases'
p1891
tp1892
(lp1893
s(S'ELK1'
p1894
S'EN1'
p1895
S'increases'
p1896
tp1897
(lp1898
s(S'E2F1'
p1899
S'CDC5L'
p1900
S'increases'
p1901
tp1902
(lp1903
s(S'YWHAZ (DIMER)'
p1904
S'RAF1'
p1905
S'binds'
p1906
tp1907
(lp1908
s(S'ATF6'
p1909
S'CYP26A1'
p1910
S'increases'
p1911
tp1912
(lp1913
s(S'sodium arsenite'
p1914
S'HRAS MRNA'
p1915
S'increases'
p1916
tp1917
(lp1918
s(S'EGR3'
p1919
S'CYP26A1'
p1920
S'increases'
p1921
tp1922
(lp1923
s(S'lead acetate'
p1924
S'HRAS PROTEIN'
p1925
S'increases_activity'
p1926
tp1927
(lp1928
s(S'REPIN1'
p1929
S'MYC'
p1930
S'increases'
p1931
tp1932
(lp1933
s(S'CEBPA'
p1934
S'NRAS'
p1935
S'increases'
p1936
tp1937
(lp1938
s(S'Quercetin'
p1939
S'NRAS MRNA'
p1940
S'decreases'
p1941
tp1942
(lp1943
s(S'14-3-3 E'
p1944
S'TERT'
p1945
S'binds'
p1946
tp1947
(lp1948
s(S'Antigen/IgE/Fc epsilon R1/LYN/SYK'
p1949
S'BTK'
p1950
S'adds_modification'
p1951
tp1952
(lp1953
s(S'HSF2'
p1954
S'CBFA2T3'
p1955
S'increases'
p1956
tp1957
(lp1958
s(S'Fluorouracil'
p1959
S'HRAS MRNA'
p1960
S'increases'
p1961
tp1962
(lp1963
s(S'STAT4'
p1964
S'MECOM'
p1965
S'increases'
p1966
tp1967
(lp1968
s(S'ETS2'
p1969
S'ETS1'
p1970
S'increases'
p1971
tp1972
(lp1973
s(S'CEBPG'
p1974
S'CYP26A1'
p1975
S'increases'
p1976
tp1977
(lp1978
s(S'Complex (PDGF receptor A/PDGF receptor B)'
p1979
S'NCK'
p1980
S'adds_modification'
p1981
tp1982
(lp1983
s(S'Fog1'
p1984
S'MYB'
p1985
S'decreases'
p1986
tp1987
(lp1988
s(S'CREB1'
p1989
S'FOXD3'
p1990
S'increases'
p1991
tp1992
(lp1993
s(S'Numb'
p1994
S'NICS'
p1995
S'translocates'
p1996
tp1997
(lp1998
s(S'STAT6'
p1999
S'STAT5A'
p2000
S'increases'
p2001
tp2002
(lp2003
s(S'RAF1/14-3-3'
p2004
S'BRAF/14-3-3'
p2005
S'binds'
p2006
tp2007
(lp2008
s(S'B-cell antigen/BCR complex/LYN/SYK/BLNK'
p2009
S'SHC/GRB2/SOS1'
p2010
S'increases_activity'
p2011
tp2012
(lp2013
s(S'IRF2'
p2014
S'CYP26A1'
p2015
S'increases'
p2016
tp2017
(lp2018
s(S'GATA6'
p2019
S'CYP26A1'
p2020
S'increases'
p2021
tp2022
(lp2023
s(S'HMGA1'
p2024
S'CYP26A1'
p2025
S'increases'
p2026
tp2027
(lp2028
s(S'MTF1'
p2029
S'FOXO4'
p2030
S'increases'
p2031
tp2032
(lp2033
s(S'STAT1'
p2034
S'GABPB2'
p2035
S'increases'
p2036
tp2037
(lp2038
s(S'manumycin'
p2039
S'HRAS PROTEIN'
p2040
S'decreases'
p2041
tp2042
(lp2043
s(S'STAT5A'
p2044
S'ETS1'
p2045
S'increases'
p2046
tp2047
(lp2048
s(S'SPI1'
p2049
S'CBFA2T3'
p2050
S'increases'
p2051
tp2052
(lp2053
s(S'GMCSF/GMR ALPHA/CSF2RB/JAK2 (DODECAMER)/SHC'
p2054
S'GRB2/SOS1'
p2055
S'binds'
p2056
tp2057
(lp2058
s(S'7,8-Dihydro-7,8-dihydroxybenzo(a)pyrene 9,10-oxide'
p2059
S'NRAS PROTEIN'
p2060
S'increases'
p2061
tp2062
(lp2063
s(S'CDC5L'
p2064
S'CYP26A1'
p2065
S'increases'
p2066
tp2067
(lp2068
s(S'PAX4'
p2069
S'POU3F2'
p2070
S'increases'
p2071
tp2072
(lp2073
s(S'SPRED2'
p2074
S'HRAS'
p2075
S'binds'
p2076
tp2077
(lp2078
s(S'PITX2'
p2079
S'FOXO4'
p2080
S'increases'
p2081
tp2082
(lp2083
s(S'FOXD3'
p2084
S'CYP26A1'
p2085
S'increases'
p2086
tp2087
(lp2088
s(S'NFIL3'
p2089
S'FOXO3'
p2090
S'increases'
p2091
tp2092
(lp2093
s(S'MTF1'
p2094
S'POU2F1'
p2095
S'increases'
p2096
tp2097
(lp2098
s(S'TFCP2'
p2099
S'BACH1'
p2100
S'increases'
p2101
tp2102
(lp2103
s(S'NF1'
p2104
S'MECOM'
p2105
S'increases'
p2106
tp2107
(lp2108
s(S'FOXO3'
p2109
S'FOXD3'
p2110
S'increases'
p2111
tp2112
(lp2113
s(S'STAT5A'
p2114
S'TLX2'
p2115
S'increases'
p2116
tp2117
(lp2118
s(S'RIN1'
p2119
S'HRAS/GTP'
p2120
S'adds_modification'
p2121
tp2122
(lp2123
s(S'STAT5A'
p2124
S'CEBPG'
p2125
S'increases'
p2126
tp2127
(lp2128
s(S'DAG'
p2129
S'PKC'
p2130
S'increases_activity'
p2131
tp2132
(lp2133
S'IKKs can be induced by FA via the activation of TLRs and PKC, and the latter can be activated by DAG.'
p2134
as(S'HNF4A'
p2135
S'FOXA1'
p2136
S'increases'
p2137
tp2138
(lp2139
s(S'LEF1'
p2140
S'MAZ'
p2141
S'increases'
p2142
tp2143
(lp2144
s(S'hsa-miR-124-3p'
p2145
S'NRAS'
p2146
S'decreases'
p2147
tp2148
(lp2149
s(S'RAF1'
p2150
S'14-3-3 E'
p2151
S'binds'
p2152
tp2153
(lp2154
s(S'GATA1'
p2155
S'MYB'
p2156
S'decreases'
p2157
tp2158
(lp2159
s(S'LMO2'
p2160
S'GATA1'
p2161
S'increases'
p2162
tp2163
(lp2164
s(S'HRAS/GTP'
p2165
S'RAF1'
p2166
S'increases_activity'
p2167
tp2168
(lp2169
s(S'MYCN'
p2170
S'RUNX2'
p2171
S'increases'
p2172
tp2173
(lp2174
s(S'STAT5B'
p2175
S'CYP26A1'
p2176
S'increases'
p2177
tp2178
(lp2179
s(S'ZIC2'
p2180
S'MYCN'
p2181
S'increases'
p2182
tp2183
(lp2184
s(S'FOXL1'
p2185
S'FOXD3'
p2186
S'increases'
p2187
tp2188
(lp2189
s(S'ZBTB18'
p2190
S'CBFA2T3'
p2191
S'increases'
p2192
tp2193
(lp2194
s(S'HSF1'
p2195
S'IRF1'
p2196
S'increases'
p2197
tp2198
(lp2199
s(S'SPZ1'
p2200
S'MAZ'
p2201
S'increases'
p2202
tp2203
(lp2204
s(S'SRY'
p2205
S'CYP26A1'
p2206
S'increases'
p2207
tp2208
(lp2209
s(S'FOXO4'
p2210
S'HOXA9'
p2211
S'increases'
p2212
tp2213
(lp2214
s(S'IGF-1R heterotetramer/IGF1/IRS1/GRB2/Sos'
p2215
S'HRAS/GDP'
p2216
S'increases_activity'
p2217
tp2218
(lp2219
s(S'hsa-miR-615-3p'
p2220
S'HRAS'
p2221
S'decreases'
p2222
tp2223
(lp2224
s(S'ESRRA'
p2225
S'FOXD3'
p2226
S'increases'
p2227
tp2228
(lp2229
s(S'ELK1'
p2230
S'CYP26A1'
p2231
S'increases'
p2232
tp2233
(lp2234
s(S'Hexane-1,6-Diol'
p2235
S'HRAS'
p2236
S'increases_activity'
p2237
tp2238
(lp2239
s(S'MAZ'
p2240
S'NRAS'
p2241
S'increases'
p2242
tp2243
(lp2244
s(S'MIF'
p2245
S'CYP26A1'
p2246
S'increases'
p2247
tp2248
(lp2249
s(S'AHR'
p2250
S'POU2F1'
p2251
S'increases'
p2252
tp2253
(lp2254
s(S'SMAD3'
p2255
S'CYP26A1'
p2256
S'increases'
p2257
tp2258
(lp2259
s(S'PI-3-4-5-P3'
p2260
S'GELSOLIN'
p2261
S'binds'
p2262
tp2263
(lp2264
s(S'ADP'
p2265
S'P-S724-IRE1 DIMER'
p2266
S'binds'
p2267
tp2268
(lp2269
s(S'testosterone enanthate'
p2270
S'KRAS MRNA'
p2271
S'increases'
p2272
tp2273
(lp2274
s(S'CYP26A1'
p2275
S'ONECUT1'
p2276
S'increases'
p2277
tp2278
(lp2279
s(S'Valproic Acid'
p2280
S'NRAS MRNA'
p2281
S'decreases'
p2282
tp2283
(lp2284
s(S'GTF2A2'
p2285
S'CYP26A1'
p2286
S'increases'
p2287
tp2288
(lp2289
s(S'CEBPA'
p2290
S'FOXO3'
p2291
S'increases'
p2292
tp2293
(lp2294
s(S'GATA3'
p2295
S'POU2F1'
p2296
S'increases'
p2297
tp2298
(lp2299
s(S'PI3K'
p2300
S'RAC1B/GDP'
p2301
S'increases_activity'
p2302
tp2303
(lp2304
s(S'CDC25C'
p2305
S'YWHAB'
p2306
S'binds'
p2307
tp2308
(lp2309
s(S'RAC1/GTP'
p2310
S'PAK1/BETAPIX/PKL/NCK1-2'
p2311
S'increases_activity'
p2312
tp2313
(lp2314
s(S'SMAD1'
p2315
S'CYP26A1'
p2316
S'increases'
p2317
tp2318
(lp2319
s(S'PI3K'
p2320
S'FAK'
p2321
S'adds_modification'
p2322
tp2323
(lp2324
S'It is important that Src activation results in potentiation of EGF-R-mediated tumour growth by stimulating the same downstream pathways like FAK, STAT, and PI3K['
p2325
as(S'NRF1'
p2326
S'MAX'
p2327
S'increases'
p2328
tp2329
(lp2330
s(S'FOXI1'
p2331
S'RUNX2'
p2332
S'increases'
p2333
tp2334
(lp2335
s(S'7,8-Dihydro-7,8-dihydroxybenzo(a)pyrene 9,10-oxide'
p2336
S'HRAS MRNA'
p2337
S'increases'
p2338
tp2339
(lp2340
s(S'ETS1'
p2341
S'CBFA2T3'
p2342
S'increases'
p2343
tp2344
(lp2345
s(S'hsa-miR-98-5p'
p2346
S'NRAS'
p2347
S'decreases'
p2348
tp2349
(lp2350
s(S'PHOSPHORYLATED BRF1 (SER92, SER203):MRNA COMPLEX'
p2351
S'YWHAB'
p2352
S'binds'
p2353
tp2354
(lp2355
s(S'LMO2'
p2356
S'CYP26A1'
p2357
S'increases'
p2358
tp2359
(lp2360
s(S'SOS1'
p2361
S'GRB2:PFAK BOUND TO NCAM1:PFYN'
p2362
S'binds'
p2363
tp2364
(lp2365
s(S'GTF3A'
p2366
S'GATA6'
p2367
S'increases'
p2368
tp2369
(lp2370
s(S'ZIC2'
p2371
S'CYP26A1'
p2372
S'increases'
p2373
tp2374
(lp2375
s(S'PAX2'
p2376
S'POU3F2'
p2377
S'increases'
p2378
tp2379
(lp2380
s(S'CEBPD'
p2381
S'FOXO3'
p2382
S'increases'
p2383
tp2384
(lp2385
s(S'NF1'
p2386
S'CYP26A1'
p2387
S'increases'
p2388
tp2389
(lp2390
s(S'BRAF'
p2391
S'MEK2'
p2392
S'adds_modification'
p2393
tp2394
(lp2395
g1179
ag1180
as(S'TFAP4'
p2396
S'RUNX1'
p2397
S'increases'
p2398
tp2399
(lp2400
s(S'FAK'
p2401
S'SOS'
p2402
S'binds'
p2403
tp2404
(lp2405
s(S'EGR1'
p2406
S'RUNX1'
p2407
S'increases'
p2408
tp2409
(lp2410
s(S'TCF4'
p2411
S'FOXO4'
p2412
S'increases'
p2413
tp2414
(lp2415
s(S'MAZ'
p2416
S'CBFA2T3'
p2417
S'increases'
p2418
tp2419
(lp2420
s(S'MEIS1'
p2421
S'HRAS'
p2422
S'increases'
p2423
tp2424
(lp2425
s(S'RELA'
p2426
S'CYP26A1'
p2427
S'increases'
p2428
tp2429
(lp2430
s(S'hsa-miR-877-3p'
p2431
S'NRAS'
p2432
S'decreases'
p2433
tp2434
(lp2435
s(S'MYC'
p2436
S'LEF1'
p2437
S'increases'
p2438
tp2439
(lp2440
s(S'FOXO4'
p2441
S'RUNX1'
p2442
S'increases'
p2443
tp2444
(lp2445
s(S'LEF1'
p2446
S'RUNX1'
p2447
S'increases'
p2448
tp2449
(lp2450
s(S'TFDP2'
p2451
S'GATA1'
p2452
S'increases'
p2453
tp2454
(lp2455
s(S'AHR'
p2456
S'CYP26A1'
p2457
S'increases'
p2458
tp2459
(lp2460
s(S'4-Nitroquinoline-1-oxide'
p2461
S'PTGS2 MRNA'
p2462
S'increases'
p2463
tp2464
(lp2465
s(S'TGIF'
p2466
S'FOXO3'
p2467
S'increases'
p2468
tp2469
(lp2470
s(S'FOXF2'
p2471
S'CEBPA'
p2472
S'increases'
p2473
tp2474
(lp2475
s(S'NFE2L1'
p2476
S'POU2F1'
p2477
S'increases'
p2478
tp2479
(lp2480
s(S'LHX3'
p2481
S'CYP26A1'
p2482
S'increases'
p2483
tp2484
(lp2485
s(S'HMGA1'
p2486
S'MEIS1'
p2487
S'increases'
p2488
tp2489
(lp2490
s(S'POU2F1'
p2491
S'CYP26A1'
p2492
S'increases'
p2493
tp2494
(lp2495
s(S'PRRX2'
p2496
S'HOXA9'
p2497
S'increases'
p2498
tp2499
(lp2500
s(S'ETS2'
p2501
S'CEBPG'
p2502
S'increases'
p2503
tp2504
(lp2505
s(S'hsa-miR-193b-3p'
p2506
S'KRAS'
p2507
S'decreases'
p2508
tp2509
(lp2510
s(S'RREB1'
p2511
S'RUNX1'
p2512
S'increases'
p2513
tp2514
(lp2515
s(S'IL2/IL2R BETA/GAMMA/JAK1/FYN/JAK3'
p2516
S'PI3K'
p2517
S'binds'
p2518
tp2519
(lp2520
s(S'ELK1'
p2521
S'MEIS1'
p2522
S'increases'
p2523
tp2524
(lp2525
s(S'CYP26A1'
p2526
S'HOXA9'
p2527
S'increases'
p2528
tp2529
(lp2530
s(S'SPZ1'
p2531
S'HOXA9'
p2532
S'increases'
p2533
tp2534
(lp2535
s(S'ERK1'
p2536
S'P-S218,222-MEK1'
p2537
S'binds'
p2538
tp2539
(lp2540
s(S'NHLH1'
p2541
S'MYC'
p2542
S'increases'
p2543
tp2544
(lp2545
s(S'Daunorubicin'
p2546
S'NRAS MRNA'
p2547
S'increases'
p2548
tp2549
(lp2550
s(S'HNF1A'
p2551
S'FOXA1'
p2552
S'increases'
p2553
tp2554
(lp2555
s(S'MYC'
p2556
S'ONECUT1'
p2557
S'increases'
p2558
tp2559
(lp2560
s(S'Vanadates'
p2561
S'HRAS PROTEIN'
p2562
S'increases'
p2563
tp2564
(lp2565
s(S'Purine nucleotide'
p2566
S'H+'
p2567
S'translocates'
p2568
tp2569
(lp2570
s(S'NFE2'
p2571
S'BACH1'
p2572
S'increases'
p2573
tp2574
(lp2575
s(S'EGR4'
p2576
S'CYP26A1'
p2577
S'increases'
p2578
tp2579
(lp2580
s(S'NRF1'
p2581
S'ONECUT1'
p2582
S'increases'
p2583
tp2584
(lp2585
s(S'GFI1'
p2586
S'HOXA9'
p2587
S'increases'
p2588
tp2589
(lp2590
s(S'NR1H4'
p2591
S'FOXD3'
p2592
S'increases'
p2593
tp2594
(lp2595
s(S'STAT6'
p2596
S'FOXA1'
p2597
S'increases'
p2598
tp2599
(lp2600
s(S'INSULIN RECEPTOR/INSULI/IRS1/GRB2/SHC'
p2601
S'SOS1'
p2602
S'binds'
p2603
tp2604
(lp2605
s(S'Tetrachlorodibenzodioxin'
p2606
S'KRAS MRNA'
p2607
S'increases'
p2608
tp2609
(lp2610
s(S'TCF3'
p2611
S'MYC'
p2612
S'increases'
p2613
tp2614
(lp2615
s(S'BACH1'
p2616
S'EN1'
p2617
S'increases'
p2618
tp2619
(lp2620
s(S'RFX1'
p2621
S'CYP26A1'
p2622
S'increases'
p2623
tp2624
(lp2625
s(S'ZEB1'
p2626
S'FOXD3'
p2627
S'increases'
p2628
tp2629
(lp2630
s(S'IRF7'
p2631
S'EN1'
p2632
S'increases'
p2633
tp2634
(lp2635
s(S'GAB2/GRB2/SOS1'
p2636
S'IL2/IL2R ALPHA/BETA/GAMMA/JAK1/LCK/JAK3/SHC'
p2637
S'binds'
p2638
tp2639
(lp2640
s(S'GATA3'
p2641
S'FOXA1'
p2642
S'increases'
p2643
tp2644
(lp2645
s(S'TFAP4'
p2646
S'CYP26A1'
p2647
S'increases'
p2648
tp2649
(lp2650
s(S'FOXF2'
p2651
S'MECOM'
p2652
S'increases'
p2653
tp2654
(lp2655
s(S'NF1'
p2656
S'POU2F1'
p2657
S'increases'
p2658
tp2659
(lp2660
s(S'IRF1'
p2661
S'FOXA1'
p2662
S'increases'
p2663
tp2664
(lp2665
s(S'Rho Family GTPase-active'
p2666
S'PIP5K1A'
p2667
S'increases_activity'
p2668
tp2669
(lp2670
s(S'POU6F1'
p2671
S'EN1'
p2672
S'increases'
p2673
tp2674
(lp2675
s(S'TCF4'
p2676
S'LEF1'
p2677
S'increases'
p2678
tp2679
(lp2680
s(S'MAZ'
p2681
S'FOXO3'
p2682
S'increases'
p2683
tp2684
(lp2685
s(S'POU3F2'
p2686
S'MECOM'
p2687
S'increases'
p2688
tp2689
(lp2690
s(S'GTF3A'
p2691
S'CYP26A1'
p2692
S'increases'
p2693
tp2694
(lp2695
s(S'PI-3-4-5-P3'
p2696
S'AKT2'
p2697
S'adds_modification'
p2698
tp2699
(lp2700
s(S'VSX1'
p2701
S'POU2F1'
p2702
S'increases'
p2703
tp2704
(lp2705
s(S'PHOSPHORYLATED TTP:MRNA COMPLEX'
p2706
S'YWHAB'
p2707
S'binds'
p2708
tp2709
(lp2710
s(S'MEIS1'
p2711
S'MYC'
p2712
S'increases'
p2713
tp2714
(lp2715
s(S'Complex (PDGF receptor A/PDGF receptor B)'
p2716
S'RASGAP'
p2717
S'adds_modification'
p2718
tp2719
(lp2720
s(S'RORA'
p2721
S'CYP26A1'
p2722
S'increases'
p2723
tp2724
(lp2725
s(S'ATF4'
p2726
S'CDC5L'
p2727
S'increases'
p2728
tp2729
(lp2730
s(S'SHC/RasGAP'
p2731
S'RAS FAMILY/GTP'
p2732
S'increases_activity'
p2733
tp2734
(lp2735
s(S'NKX2-1'
p2736
S'MYC'
p2737
S'increases'
p2738
tp2739
(lp2740
s(S'NF1'
p2741
S'SRF'
p2742
S'increases'
p2743
tp2744
(lp2745
s(S'STAT4'
p2746
S'NRAS'
p2747
S'increases'
p2748
tp2749
(lp2750
s(S'POU6F1'
p2751
S'MEIS1'
p2752
S'increases'
p2753
tp2754
(lp2755
s(S'P-KIT COMPLEX'
p2756
S'GRB2:SOS1'
p2757
S'binds'
p2758
tp2759
(lp2760
s(S'MYCN'
p2761
S'MAX'
p2762
S'increases'
p2763
tp2764
(lp2765
s(S'STAT5A'
p2766
S'CYP26A1'
p2767
S'increases'
p2768
tp2769
(lp2770
s(S'GATA3'
p2771
S'EN1'
p2772
S'increases'
p2773
tp2774
(lp2775
s(S'E4F1'
p2776
S'FOXD3'
p2777
S'increases'
p2778
tp2779
(lp2780
s(S'MYB'
p2781
S'ONECUT1'
p2782
S'increases'
p2783
tp2784
(lp2785
s(S'Cadmium Chloride'
p2786
S'NRAS PROTEIN'
p2787
S'increases'
p2788
tp2789
(lp2790
s(S'Deoxycholic Acid'
p2791
S'HRAS PROTEIN'
p2792
S'increases_activity'
p2793
tp2794
(lp2795
s(S'HLF'
p2796
S'CYP26A1'
p2797
S'increases'
p2798
tp2799
(lp2800
s(S'GMCSF/GMR ALPHA/CSF2RB/JAK2 (DIMER)'
p2801
S'YWHAZ'
p2802
S'binds'
p2803
tp2804
(lp2805
s(S'HNF1A'
p2806
S'FOXF2'
p2807
S'increases'
p2808
tp2809
(lp2810
s(S'FOXF2'
p2811
S'GATA6'
p2812
S'increases'
p2813
tp2814
(lp2815
s(S'Arsenic'
p2816
S'GSS PROTEIN'
p2817
S'increases'
p2818
tp2819
(lp2820
s(S'COMPLEX (SOS/GRB2)'
p2821
S'FGFR1-4'
p2822
S'binds'
p2823
tp2824
(lp2825
s(S'MYOD1'
p2826
S'NRAS'
p2827
S'increases'
p2828
tp2829
(lp2830
s(S'MECOM'
p2831
S'CYP26A1'
p2832
S'increases'
p2833
tp2834
(lp2835
s(S'PBX1'
p2836
S'CYP26A1'
p2837
S'increases'
p2838
tp2839
(lp2840
s(S'MAZ'
p2841
S'MEIS1'
p2842
S'increases'
p2843
tp2844
(lp2845
s(S'PAX4'
p2846
S'ELK1'
p2847
S'increases'
p2848
tp2849
(lp2850
s(S'ESRRA'
p2851
S'MECOM'
p2852
S'increases'
p2853
tp2854
(lp2855
s(S'CEBPD'
p2856
S'TLX2'
p2857
S'increases'
p2858
tp2859
(lp2860
s(S'CRX'
p2861
S'FOXA1'
p2862
S'increases'
p2863
tp2864
(lp2865
s(S'GABPB1'
p2866
S'NRAS'
p2867
S'increases'
p2868
tp2869
(lp2870
s(S'CRX'
p2871
S'MEIS1'
p2872
S'increases'
p2873
tp2874
(lp2875
s(S'pirinixic acid/PPARA protein'
p2876
S'KRAS MRNA'
p2877
S'increases'
p2878
tp2879
(lp2880
s(S'BACH2'
p2881
S'FOXA1'
p2882
S'increases'
p2883
tp2884
(lp2885
s(S'JUN'
p2886
S'MECOM'
p2887
S'increases'
p2888
tp2889
(lp2890
s(S'7,8-Dihydro-7,8-dihydroxybenzo(a)pyrene 9,10-oxide'
p2891
S'KRAS MRNA'
p2892
S'decreases'
p2893
tp2894
(lp2895
s(S'SRY'
p2896
S'FOXO4'
p2897
S'increases'
p2898
tp2899
(lp2900
s(S'PI3K'
p2901
S'AKT1'
p2902
S'adds_modification'
p2903
tp2904
(lp2905
s(S'GATA3'
p2906
S'CYP26A1'
p2907
S'increases'
p2908
tp2909
(lp2910
s(S'RAS:GTP'
p2911
S'P-EPHBS:EFNBS:RASA1'
p2912
S'binds'
p2913
tp2914
(lp2915
s(S'STAT5A'
p2916
S'MECOM'
p2917
S'increases'
p2918
tp2919
(lp2920
s(S'RAS family/GTP'
p2921
S'RAF1'
p2922
S'increases_activity'
p2923
tp2924
(lp2925
s(S'RHOA/GTP'
p2926
S'PLD1-2'
p2927
S'increases_activity'
p2928
tp2929
(lp2930
s(S'FOXJ2'
p2931
S'CYP26A1'
p2932
S'increases'
p2933
tp2934
(lp2935
s(S'LEF1'
p2936
S'MECOM'
p2937
S'increases'
p2938
tp2939
(lp2940
s(S'GABPB2'
p2941
S'CDC5L'
p2942
S'increases'
p2943
tp2944
(lp2945
s(S'ESRRA'
p2946
S'CYP26A1'
p2947
S'increases'
p2948
tp2949
(lp2950
s(S'PI-3-4-5-P3'
p2951
S'WAVE2/NAP1/SRA1/ABI1/HSPC300'
p2952
S'translocates'
p2953
tp2954
(lp2955
s(S'CUX1'
p2956
S'MECOM'
p2957
S'increases'
p2958
tp2959
(lp2960
s(S'MAX'
p2961
S'CYP26A1'
p2962
S'increases'
p2963
tp2964
(lp2965
s(S'RXRB'
p2966
S'FOXD3'
p2967
S'increases'
p2968
tp2969
(lp2970
s(S'IRF1'
p2971
S'NRAS'
p2972
S'increases'
p2973
tp2974
(lp2975
s(S'MECOM'
p2976
S'MAX'
p2977
S'increases'
p2978
tp2979
(lp2980
s(S'PAX6'
p2981
S'CYP26A1'
p2982
S'increases'
p2983
tp2984
(lp2985
s(S'GRB2/SOS1'
p2986
S'EGFR/EGFR/EGF/EGF/P46 SHC'
p2987
S'binds'
p2988
tp2989
(lp2990
s(S'POU6F1'
p2991
S'POU2F1'
p2992
S'increases'
p2993
tp2994
(lp2995
s(S'RUNX1'
p2996
S'MYOD1'
p2997
S'increases'
p2998
tp2999
(lp3000
s(S'COMPLEX (GRB2/SOS)'
p3001
S'EGFR'
p3002
S'binds'
p3003
tp3004
(lp3005
s(S'MAZ'
p3006
S'MECOM'
p3007
S'increases'
p3008
tp3009
(lp3010
s(S'REPIN1'
p3011
S'EN1'
p3012
S'increases'
p3013
tp3014
(lp3015
s(S'RAS family/GTP'
p3016
S'RAF1'
p3017
S'adds_modification'
p3018
tp3019
(lp3020
s(S'E4F1'
p3021
S'CYP26A1'
p3022
S'increases'
p3023
tp3024
(lp3025
s(S'Rac'
p3026
S'MEKK1-5'
p3027
S'adds_modification'
p3028
tp3029
(lp3030
s(S'HAND1'
p3031
S'CYP26A1'
p3032
S'increases'
p3033
tp3034
(lp3035
s(S'Quercetin'
p3036
S'NRAS PROTEIN'
p3037
S'decreases'
p3038
tp3039
(lp3040
s(S'HRAS:GTP'
p3041
S'CRAF'
p3042
S'binds'
p3043
tp3044
(lp3045
s(S'REPIN1'
p3046
S'FOXA1'
p3047
S'increases'
p3048
tp3049
(lp3050
s(S'hsa-miR-155-5p'
p3051
S'KRAS'
p3052
S'decreases'
p3053
tp3054
(lp3055
s(S'PAX4'
p3056
S'EN1'
p3057
S'increases'
p3058
tp3059
(lp3060
s(S'FOXN1'
p3061
S'JUN'
p3062
S'increases'
p3063
tp3064
(lp3065
s(S'TFCP2'
p3066
S'GATA1'
p3067
S'increases'
p3068
tp3069
(lp3070
s(S'SHC'
p3071
S'GRAP2'
p3072
S'binds'
p3073
tp3074
(lp3075
s(S'CEBPG'
p3076
S'NRAS'
p3077
S'increases'
p3078
tp3079
(lp3080
s(S'FOXN1'
p3081
S'FOXO4'
p3082
S'increases'
p3083
tp3084
(lp3085
s(S'IL2/IL2R ALPHA/BETA/GAMMA/JAK1/LCK/JAK3/IRS1-2'
p3086
S'PI3K'
p3087
S'binds'
p3088
tp3089
(lp3090
s(S'POU1F1'
p3091
S'EN1'
p3092
S'increases'
p3093
tp3094
(lp3095
s(S'FOXJ1'
p3096
S'POU2F1'
p3097
S'increases'
p3098
tp3099
(lp3100
s(S'YY1'
p3101
S'POU2F1'
p3102
S'increases'
p3103
tp3104
(lp3105
s(S'7,8-Dihydro-7,8-dihydroxybenzo(a)pyrene 9,10-oxide'
p3106
S'NRAS MRNA'
p3107
S'increases'
p3108
tp3109
(lp3110
s(S'EGF/EGFR'
p3111
S'HRAS/GDP'
p3112
S'increases_activity'
p3113
tp3114
(lp3115
s(S'TFAP4'
p3116
S'GABPB2'
p3117
S'increases'
p3118
tp3119
(lp3120
s(S'TFAP2A'
p3121
S'POU3F2'
p3122
S'increases'
p3123
tp3124
(lp3125
s(S'TCF12'
p3126
S'CBFA2T3'
p3127
S'increases'
p3128
tp3129
(lp3130
s(S'STAT3'
p3131
S'IRF1'
p3132
S'increases'
p3133
tp3134
(lp3135
s(S'MYOD1'
p3136
S'GATA1'
p3137
S'increases'
p3138
tp3139
(lp3140
s(S'REPIN1'
p3141
S'HRAS'
p3142
S'increases'
p3143
tp3144
(lp3145
s(S'PAX4'
p3146
S'MAX'
p3147
S'increases'
p3148
tp3149
(lp3150
s(S'PAX2'
p3151
S'FOXA1'
p3152
S'increases'
p3153
tp3154
(lp3155
s(S'Lipopolysaccharides'
p3156
S'HRAS PROTEIN'
p3157
S'increases_activity'
p3158
tp3159
(lp3160
s(S'7,8-Dihydro-7,8-dihydroxybenzo(a)pyrene 9,10-oxide'
p3161
S'KRAS MRNA'
p3162
S'increases'
p3163
tp3164
(lp3165
s(S'REPIN1'
p3166
S'GATA1'
p3167
S'increases'
p3168
tp3169
(lp3170
s(S'Formaldehyde'
p3171
S'HRAS MRNA'
p3172
S'increases'
p3173
tp3174
(lp3175
s(S'ESRRA'
p3176
S'STAT5A'
p3177
S'increases'
p3178
tp3179
(lp3180
s(S'farnesylthiosalicylic acid'
p3181
S'HRAS PROTEIN'
p3182
S'decreases'
p3183
tp3184
(lp3185
s(S'JUN'
p3186
S'RUNX1'
p3187
S'increases'
p3188
tp3189
(lp3190
s(S'FOXD3'
p3191
S'RUNX1'
p3192
S'increases'
p3193
tp3194
(lp3195
s(S'SOX9'
p3196
S'CYP26A1'
p3197
S'increases'
p3198
tp3199
(lp3200
s(S'hexabromocyclododecane'
p3201
S'HRAS MRNA'
p3202
S'increases'
p3203
tp3204
(lp3205
s(S'RUNX2'
p3206
S'KRAS'
p3207
S'increases'
p3208
tp3209
(lp3210
s(S'PGR'
p3211
S'CYP26A1'
p3212
S'increases'
p3213
tp3214
(lp3215
s(S'CYP26A1'
p3216
S'MAZ'
p3217
S'increases'
p3218
tp3219
(lp3220
s(S'RAC1/GTP'
p3221
S'AKT1'
p3222
S'adds_modification'
p3223
tp3224
(lp3225
s(S'FOXO3'
p3226
S'CYP26A1'
p3227
S'increases'
p3228
tp3229
(lp3230
s(S'MAX'
p3231
S'SRF'
p3232
S'increases'
p3233
tp3234
(lp3235
s(S'RUNX2'
p3236
S'NRAS'
p3237
S'increases'
p3238
tp3239
(lp3240
s(S'HSF2'
p3241
S'CYP26A1'
p3242
S'increases'
p3243
tp3244
(lp3245
s(S'IL2/IL2R ALPHA/BETA/GAMMA/JAK1/LCK/JAK3/SHC/GRB2/SOS1/GAB2/SHP2'
p3246
S'PI3K'
p3247
S'binds'
p3248
tp3249
(lp3250
s(S'SPI1'
p3251
S'STAT5A'
p3252
S'increases'
p3253
tp3254
(lp3255
s(S'ZHX2'
p3256
S'MYC'
p3257
S'increases'
p3258
tp3259
(lp3260
s(S'RAF1-BRAF'
p3261
S'MEK1-2'
p3262
S'increases_activity'
p3263
tp3264
(lp3265
s(S'SHC'
p3266
S'GRB2'
p3267
S'binds'
p3268
tp3269
(lp3270
s(S'RB1'
p3271
S'GATA1'
p3272
S'increases'
p3273
tp3274
(lp3275
s(S'TCF3'
p3276
S'FOXJ2'
p3277
S'increases'
p3278
tp3279
(lp3280
s(S'FOXJ2'
p3281
S'NRAS'
p3282
S'increases'
p3283
tp3284
(lp3285
s(S'REPIN1'
p3286
S'LEF1'
p3287
S'increases'
p3288
tp3289
(lp3290
s(S'Aflatoxin B1'
p3291
S'HRAS MRNA'
p3292
S'increases'
p3293
tp3294
(lp3295
s(S'PAX4'
p3296
S'MEIS1'
p3297
S'increases'
p3298
tp3299
(lp3300
s(S'FOXF2'
p3301
S'FOXD3'
p3302
S'increases'
p3303
tp3304
(lp3305
s(S'CBFA2T3'
p3306
S'RUNX1'
p3307
S'increases'
p3308
tp3309
(lp3310
s(S'FOXC1'
p3311
S'HOXA9'
p3312
S'increases'
p3313
tp3314
(lp3315
s(S'DBP'
p3316
S'CYP26A1'
p3317
S'increases'
p3318
tp3319
(lp3320
s(S'TGIF'
p3321
S'EN1'
p3322
S'increases'
p3323
tp3324
(lp3325
s(S'PI-3-4-5-P3'
p3326
S'P62DOK'
p3327
S'adds_modification'
p3328
tp3329
(lp3330
s(S'JUN'
p3331
S'TLX2'
p3332
S'increases'
p3333
tp3334
(lp3335
s(S'Benzo(a)pyrene'
p3336
S'HRAS MRNA'
p3337
S'increases'
p3338
tp3339
(lp3340
s(S'STAT4'
p3341
S'CYP26A1'
p3342
S'increases'
p3343
tp3344
(lp3345
s(S'EGFR/EGFR/EGF/EGF'
p3346
S'SRC'
p3347
S'adds_modification'
p3348
tp3349
(lp3350
s(S'FOXQ1'
p3351
S'FOXD3'
p3352
S'increases'
p3353
tp3354
(lp3355
s(S'FOXJ1'
p3356
S'NRAS'
p3357
S'increases'
p3358
tp3359
(lp3360
s(S'TCF3'
p3361
S'POU2F1'
p3362
S'increases'
p3363
tp3364
(lp3365
s(S'MYB'
p3366
S'CYP26A1'
p3367
S'increases'
p3368
tp3369
(lp3370
s(S'GATA4'
p3371
S'CYP26A1'
p3372
S'increases'
p3373
tp3374
(lp3375
s(S'ELK1'
p3376
S'STAT4'
p3377
S'increases'
p3378
tp3379
(lp3380
s(S'CYP26A1'
p3381
S'LEF1'
p3382
S'increases'
p3383
tp3384
(lp3385
s(S"Guanosine-5'-Diphosphate"
p3386
S'HRAS'
p3387
S'increases_activity'
p3388
tp3389
(lp3390
s(S'ETV4'
p3391
S'CYP26A1'
p3392
S'increases'
p3393
tp3394
(lp3395
s(S'EPHRIN B/EPHB2'
p3396
S'RASGAP'
p3397
S'binds'
p3398
tp3399
(lp3400
s(S'ESR1'
p3401
S'FOXF2'
p3402
S'increases'
p3403
tp3404
(lp3405
s(S'CDC5L'
p3406
S'FOXA1'
p3407
S'increases'
p3408
tp3409
(lp3410
s(S'MAZ'
p3411
S'HOXA9'
p3412
S'increases'
p3413
tp3414
(lp3415
s(S'HIF1A'
p3416
S'MAX'
p3417
S'increases'
p3418
tp3419
(lp3420
s(S'FOXN1'
p3421
S'HOXA9'
p3422
S'increases'
p3423
tp3424
(lp3425
s(S'LEF1'
p3426
S'BACH1'
p3427
S'increases'
p3428
tp3429
(lp3430
s(S'PDX1'
p3431
S'FOXO3'
p3432
S'increases'
p3433
tp3434
(lp3435
s(S'CBFA2T3'
p3436
S'CYP26A1'
p3437
S'increases'
p3438
tp3439
(lp3440
s(S'Rabex5'
p3441
S'HRAS/GTP'
p3442
S'adds_modification'
p3443
tp3444
(lp3445
s(S'CBFA2T3'
p3446
S'RUNX2'
p3447
S'increases'
p3448
tp3449
(lp3450
s(S'PI-3-4-5-P3'
p3451
S'ARAP3'
p3452
S'translocates'
p3453
tp3454
(lp3455
s(S'CART1'
p3456
S'CYP26A1'
p3457
S'increases'
p3458
tp3459
(lp3460
s(S'Arsenic'
p3461
S'NRAS MRNA'
p3462
S'increases'
p3463
tp3464
(lp3465
s(S'NRF1'
p3466
S'CDC5L'
p3467
S'increases'
p3468
tp3469
(lp3470
s(S'Quercetin'
p3471
S'HRAS PROTEIN'
p3472
S'decreases'
p3473
tp3474
(lp3475
s(S"N,N'-DIMETHYL-N-(ACETYL)-N'-(7-NITROBENZ-2-OXA-1,3-DIAZOL-4-YL)ETHYLENEDIAMINE"
p3476
S'HRAS'
p3477
S'increases_activity'
p3478
tp3479
(lp3480
s(S'TFDP1'
p3481
S'FOXD3'
p3482
S'increases'
p3483
tp3484
(lp3485
s(S'AR'
p3486
S'TLX2'
p3487
S'increases'
p3488
tp3489
(lp3490
s(S'hsa-miR-181c-5p'
p3491
S'KRAS'
p3492
S'decreases'
p3493
tp3494
(lp3495
s(S'SMAD3'
p3496
S'CBFA2T3'
p3497
S'increases'
p3498
tp3499
(lp3500
s(S'HOXA9'
p3501
S'NRAS'
p3502
S'increases'
p3503
tp3504
(lp3505
s(S'PITX2'
p3506
S'CYP26A1'
p3507
S'increases'
p3508
tp3509
(lp3510
s(S'ATF3'
p3511
S'CYP26A1'
p3512
S'increases'
p3513
tp3514
(lp3515
s(S'E2F1'
p3516
S'MAZ'
p3517
S'increases'
p3518
tp3519
(lp3520
s(S'Ethyl Methanesulfonate'
p3521
S'HRAS MRNA'
p3522
S'increases'
p3523
tp3524
(lp3525
s(S'LMO2'
p3526
S'FOXA1'
p3527
S'increases'
p3528
tp3529
(lp3530
s(S'FOXC1'
p3531
S'POU2F1'
p3532
S'increases'
p3533
tp3534
(lp3535
s(S'DDIT3'
p3536
S'CYP26A1'
p3537
S'increases'
p3538
tp3539
(lp3540
s(S'PAX8'
p3541
S'CYP26A1'
p3542
S'increases'
p3543
tp3544
(lp3545
s(S'LHX3'
p3546
S'EN1'
p3547
S'increases'
p3548
tp3549
(lp3550
s(S'KAT2B'
p3551
S'CYP26A1'
p3552
S'increases'
p3553
tp3554
(lp3555
s(S'P100'
p3556
S'MYB'
p3557
S'binds'
p3558
tp3559
(lp3560
s(S'SOX9'
p3561
S'FOXA1'
p3562
S'increases'
p3563
tp3564
(lp3565
s(S'HIF1A'
p3566
S'EN1'
p3567
S'increases'
p3568
tp3569
(lp3570
s(S'REPIN1'
p3571
S'RUNX1'
p3572
S'increases'
p3573
tp3574
(lp3575
s(S'MYOD1'
p3576
S'BACH1'
p3577
S'increases'
p3578
tp3579
(lp3580
s(S'EBF2'
p3581
S'REPIN1'
p3582
S'increases'
p3583
tp3584
(lp3585
s(S'bisphenol A'
p3586
S'HRAS MRNA'
p3587
S'increases'
p3588
tp3589
(lp3590
s(S'E2F1'
p3591
S'EN1'
p3592
S'increases'
p3593
tp3594
(lp3595
s(S'MYC/Max/MIZ-1'
p3596
S'GALECTIN-1'
p3597
S'decreases'
p3598
tp3599
(lp3600
s(S'PI-3-4-5-P3'
p3601
S'WAVE2/NAP1/SRA1/ABI1/HSPC300'
p3602
S'adds_modification'
p3603
tp3604
(lp3605
s(S'FOXF2'
p3606
S'FOXO3'
p3607
S'increases'
p3608
tp3609
(lp3610
s(S'REPIN1'
p3611
S'STAT5A'
p3612
S'increases'
p3613
tp3614
(lp3615
s(S'RUNX1'
p3616
S'NRAS'
p3617
S'increases'
p3618
tp3619
(lp3620
s(S'benzo(a)pyrene 7,8-dihydrodiol'
p3621
S'HRAS MRNA'
p3622
S'increases'
p3623
tp3624
(lp3625
s(S'RAC1/GTP'
p3626
S'PAK1 (DIMER)'
p3627
S'adds_modification'
p3628
tp3629
(lp3630
s(S'PAX4'
p3631
S'POU2F1'
p3632
S'increases'
p3633
tp3634
(lp3635
s(S'MYOD1'
p3636
S'CBFA2T3'
p3637
S'increases'
p3638
tp3639
(lp3640
s(S'STAT5A'
p3641
S'RUNX2'
p3642
S'increases'
p3643
tp3644
(lp3645
s(S'EBF2'
p3646
S'FOXJ2'
p3647
S'increases'
p3648
tp3649
(lp3650
s(S'Estradiol'
p3651
S'KRAS MRNA'
p3652
S'increases'
p3653
tp3654
(lp3655
s(S'RXRB'
p3656
S'CYP26A1'
p3657
S'increases'
p3658
tp3659
(lp3660
s(S'bisphenol A'
p3661
S'KRAS MRNA'
p3662
S'decreases'
p3663
tp3664
(lp3665
s(S'COMPLEX (GRB2/SOS)'
p3666
S'FGFR1-4'
p3667
S'binds'
p3668
tp3669
(lp3670
s(S'POU2F1'
p3671
S'RUNX1'
p3672
S'increases'
p3673
tp3674
(lp3675
s(S'TCF3'
p3676
S'TLX2'
p3677
S'increases'
p3678
tp3679
(lp3680
s(S'SPZ1'
p3681
S'POU2F1'
p3682
S'increases'
p3683
tp3684
(lp3685
s(S'TFAP4'
p3686
S'FOXO4'
p3687
S'increases'
p3688
tp3689
(lp3690
s(S'OR5I1'
p3691
S'MECOM'
p3692
S'increases'
p3693
tp3694
(lp3695
s(S'Rho Family GTPase-active'
p3696
S'JNK1'
p3697
S'adds_modification'
p3698
tp3699
(lp3700
s(S'TFDP1'
p3701
S'POU2F1'
p3702
S'increases'
p3703
tp3704
(lp3705
s(S'AHR'
p3706
S'MAX'
p3707
S'increases'
p3708
tp3709
(lp3710
s(S'BACH1'
p3711
S'CYP26A1'
p3712
S'increases'
p3713
tp3714
(lp3715
s(S'ZBTB14'
p3716
S'MAZ'
p3717
S'increases'
p3718
tp3719
(lp3720
s(S'TCF3'
p3721
S'FOXO4'
p3722
S'increases'
p3723
tp3724
(lp3725
s(S'MASTERMIND'
p3726
S'NICS'
p3727
S'binds'
p3728
tp3729
(lp3730
s(S'BPTF'
p3731
S'FOXO4'
p3732
S'increases'
p3733
tp3734
(lp3735
s(S'MYOD1'
p3736
S'RUNX1'
p3737
S'increases'
p3738
tp3739
(lp3740
s(S'JUN'
p3741
S'CYP26A1'
p3742
S'increases'
p3743
tp3744
(lp3745
s(S'BPTF'
p3746
S'CYP26A1'
p3747
S'increases'
p3748
tp3749
(lp3750
s(S'POU3F1'
p3751
S'CYP26A1'
p3752
S'increases'
p3753
tp3754
(lp3755
s(S'NRF1'
p3756
S'CYP26A1'
p3757
S'increases'
p3758
tp3759
(lp3760
s(S'TFAP2C'
p3761
S'POU3F2'
p3762
S'increases'
p3763
tp3764
(lp3765
s(S'NFAT1-C-4-INACTIVE2'
p3766
S'YWHAQ'
p3767
S'binds'
p3768
tp3769
(lp3770
s(S'STAT6'
p3771
S'ONECUT1'
p3772
S'increases'
p3773
tp3774
(lp3775
s(S'RUNX1'
p3776
S'RUNX2'
p3777
S'increases'
p3778
tp3779
(lp3780
s(S'ZIC3'
p3781
S'MYCN'
p3782
S'increases'
p3783
tp3784
(lp3785
s(S'CYP26A1'
p3786
S'MAX'
p3787
S'increases'
p3788
tp3789
(lp3790
s(S'ETS2'
p3791
S'FOXO4'
p3792
S'increases'
p3793
tp3794
(lp3795
s(S'GATA6'
p3796
S'FOXA1'
p3797
S'increases'
p3798
tp3799
(lp3800
s(S'Doxorubicin'
p3801
S'HRAS MRNA'
p3802
S'increases'
p3803
tp3804
(lp3805
s(S'PPARA'
p3806
S'HOXA9'
p3807
S'increases'
p3808
tp3809
(lp3810
s(S'REPIN1'
p3811
S'GABPB2'
p3812
S'increases'
p3813
tp3814
(lp3815
s(S'FOXN1'
p3816
S'FOXA1'
p3817
S'increases'
p3818
tp3819
(lp3820
s(S'Dronabinol'
p3821
S'KRAS MRNA'
p3822
S'increases'
p3823
tp3824
(lp3825
s(S'FOXO1'
p3826
S'RUNX1'
p3827
S'increases'
p3828
tp3829
(lp3830
s(S'SMAD4'
p3831
S'HOXA9'
p3832
S'increases'
p3833
tp3834
(lp3835
s(S'PAX4'
p3836
S'JUN'
p3837
S'increases'
p3838
tp3839
(lp3840
s(S'Raf-1'
p3841
S'MEK'
p3842
S'adds_modification'
p3843
tp3844
(lp3845
s(S'PIM1'
p3846
S'MYC/MAX'
p3847
S'binds'
p3848
tp3849
(lp3850
s(S'YY1'
p3851
S'MECOM'
p3852
S'increases'
p3853
tp3854
(lp3855
s(S'NRF1'
p3856
S'MAZ'
p3857
S'increases'
p3858
tp3859
(lp3860
s(S'GATA1'
p3861
S'MECOM'
p3862
S'increases'
p3863
tp3864
(lp3865
s(S'PDGF/PDGFRA'
p3866
S'SHC/GRB2/SOS1'
p3867
S'increases_activity'
p3868
tp3869
(lp3870
s(S'GRB2/SOS1'
p3871
S'FAK'
p3872
S'binds'
p3873
tp3874
(lp3875
s(S'HNF4A'
p3876
S'HOXA9'
p3877
S'increases'
p3878
tp3879
(lp3880
s(S'FOXA2'
p3881
S'CYP26A1'
p3882
S'increases'
p3883
tp3884
(lp3885
s(S'FOXI1'
p3886
S'CYP26A1'
p3887
S'increases'
p3888
tp3889
(lp3890
s(S'GRB2 BOUND TO TIE2'
p3891
S'SOS1'
p3892
S'binds'
p3893
tp3894
(lp3895
s(S'PHOSPHORYLATED BRF1 (SER54, SER92, SER203):MRNA COMPLEX'
p3896
S'YWHAB'
p3897
S'binds'
p3898
tp3899
(lp3900
s(S'COMPLEX (GRB2/SOS)'
p3901
S'GAB'
p3902
S'binds'
p3903
tp3904
(lp3905
s(S'NFE2'
p3906
S'TLX2'
p3907
S'increases'
p3908
tp3909
(lp3910
s(S'MAX'
p3911
S'FOXF2'
p3912
S'increases'
p3913
tp3914
(lp3915
s(S'GRB2:SOS1'
p3916
S'ACTIVATED FGFR:P-FRS2'
p3917
S'binds'
p3918
tp3919
(lp3920
s(S'FOXO4'
p3921
S'MECOM'
p3922
S'increases'
p3923
tp3924
(lp3925
s(S'TCF3'
p3926
S'LEF1'
p3927
S'increases'
p3928
tp3929
(lp3930
s(S'ZIC1'
p3931
S'LEF1'
p3932
S'increases'
p3933
tp3934
(lp3935
s(S'NFIL3'
p3936
S'CYP26A1'
p3937
S'increases'
p3938
tp3939
(lp3940
s(S'RAF1'
p3941
S'MEK1'
p3942
S'increases_activity'
p3943
tp3944
(lp3945
s(S'AR'
p3946
S'FOXA1'
p3947
S'increases'
p3948
tp3949
(lp3950
s(S'POU2F1'
p3951
S'POU3F2'
p3952
S'increases'
p3953
tp3954
(lp3955
s(S'PCBP1'
p3956
S'MAZ'
p3957
S'increases'
p3958
tp3959
(lp3960
s(S'LEF1'
p3961
S'HOXA9'
p3962
S'increases'
p3963
tp3964
(lp3965
s(S'NR6A1'
p3966
S'CYP26A1'
p3967
S'increases'
p3968
tp3969
(lp3970
s(S'PI3K'
p3971
S'BTK'
p3972
S'translocates'
p3973
tp3974
(lp3975
s(S'AHR'
p3976
S'RUNX1'
p3977
S'increases'
p3978
tp3979
(lp3980
s(S'NR1H4'
p3981
S'CYP26A1'
p3982
S'increases'
p3983
tp3984
(lp3985
s(S'NR2F2'
p3986
S'CYP26A1'
p3987
S'increases'
p3988
tp3989
(lp3990
s(S'GNB1/GNG2'
p3991
S'PI3K'
p3992
S'binds'
p3993
tp3994
(lp3995
s(S'RHOA/GTP'
p3996
S'PKN2'
p3997
S'increases_activity'
p3998
tp3999
(lp4000
s(S'MAZ'
p4001
S'LEF1'
p4002
S'increases'
p4003
tp4004
(lp4005
s(S'RFX1'
p4006
S'MECOM'
p4007
S'increases'
p4008
tp4009
(lp4010
s(S'RUNX1'
p4011
S'HOXA9'
p4012
S'increases'
p4013
tp4014
(lp4015
s(S'FOXL1'
p4016
S'POU2F1'
p4017
S'increases'
p4018
tp4019
(lp4020
s(S'GRB2:SOS1'
p4021
S'PHOSPHORYLATED ERBB2:EGFR HETERODIMERS'
p4022
S'binds'
p4023
tp4024
(lp4025
s(S'TFAP4'
p4026
S'MYCN'
p4027
S'increases'
p4028
tp4029
(lp4030
s(S'E2F1'
p4031
S'GATA1'
p4032
S'increases'
p4033
tp4034
(lp4035
s(S'PTF1A'
p4036
S'GATA6'
p4037
S'increases'
p4038
tp4039
(lp4040
s(S'REL'
p4041
S'CYP26A1'
p4042
S'increases'
p4043
tp4044
(lp4045
s(S'MTF1'
p4046
S'JUN'
p4047
S'increases'
p4048
tp4049
(lp4050
s(S'ZEB1'
p4051
S'REPIN1'
p4052
S'increases'
p4053
tp4054
(lp4055
s(S'IRF8'
p4056
S'GATA6'
p4057
S'increases'
p4058
tp4059
(lp4060
s(S'P-Y349,350-SHC1:PHOSPHORYLATED ERBB2 HETERODIMERS'
p4061
S'GRB2:SOS1'
p4062
S'binds'
p4063
tp4064
(lp4065
s(S'BACH2'
p4066
S'EN1'
p4067
S'increases'
p4068
tp4069
(lp4070
s(S'GFI1'
p4071
S'MEIS1'
p4072
S'increases'
p4073
tp4074
(lp4075
s(S'FOXN1'
p4076
S'LEF1'
p4077
S'increases'
p4078
tp4079
(lp4080
s(S'CYP26A1'
p4081
S'JUN'
p4082
S'increases'
p4083
tp4084
(lp4085
s(S'TCF3'
p4086
S'ONECUT1'
p4087
S'increases'
p4088
tp4089
(lp4090
s(S'FOXF2'
p4091
S'POU2F1'
p4092
S'increases'
p4093
tp4094
(lp4095
s(S'MAZ'
p4096
S'MAX'
p4097
S'increases'
p4098
tp4099
(lp4100
s(S'FOXN1'
p4101
S'CYP26A1'
p4102
S'increases'
p4103
tp4104
(lp4105
s(S'HNF1A'
p4106
S'FOXD3'
p4107
S'increases'
p4108
tp4109
(lp4110
s(S'EGR2'
p4111
S'RUNX1'
p4112
S'increases'
p4113
tp4114
(lp4115
s(S'MYC'
p4116
S'RUNX2'
p4117
S'increases'
p4118
tp4119
(lp4120
s(S'TFAP2A'
p4121
S'IRF1'
p4122
S'increases'
p4123
tp4124
(lp4125
s(S'FOXO4'
p4126
S'YY1'
p4127
S'increases'
p4128
tp4129
(lp4130
s(S'VEGFR2 (dimer)/VEGFA (dimer)'
p4131
S'SRC'
p4132
S'adds_modification'
p4133
tp4134
(lp4135
s(S'resveratrol'
p4136
S'KRAS MRNA'
p4137
S'decreases'
p4138
tp4139
(lp4140
s(S'FOXO4'
p4141
S'CYP26A1'
p4142
S'increases'
p4143
tp4144
(lp4145
s(S'STAT3'
p4146
S'FOXO4'
p4147
S'increases'
p4148
tp4149
(lp4150
s(S'GRB2/SOS1'
p4151
S'FRS2 FAMILY/SHP2'
p4152
S'binds'
p4153
tp4154
(lp4155
s(S'LEF1'
p4156
S'CYP26A1'
p4157
S'increases'
p4158
tp4159
(lp4160
s(S'GTF2A2'
p4161
S'SRF'
p4162
S'increases'
p4163
tp4164
(lp4165
s(S'PPARA'
p4166
S'STAT5A'
p4167
S'increases'
p4168
tp4169
(lp4170
s(S'hsa-miR-143-3p'
p4171
S'KRAS'
p4172
S'decreases'
p4173
tp4174
(lp4175
s(S'GFI1'
p4176
S'CYP26A1'
p4177
S'increases'
p4178
tp4179
(lp4180
s(S'RAC1/GTP'
p4181
S'MKK4-MKK7'
p4182
S'increases_activity'
p4183
tp4184
(lp4185
s(S'REPIN1'
p4186
S'ETS1'
p4187
S'increases'
p4188
tp4189
(lp4190
s(S'ZIC1'
p4191
S'GATA6'
p4192
S'increases'
p4193
tp4194
(lp4195
s(S'INTERLEUKIN RECEPTOR COMPLEXES WITH ACTIVATED SHC1'
p4196
S'GRB2:SOS1'
p4197
S'binds'
p4198
tp4199
(lp4200
s(S'Selenium'
p4201
S'HRAS MRNA'
p4202
S'increases'
p4203
tp4204
(lp4205
s(S'HOXA4'
p4206
S'CYP26A1'
p4207
S'increases'
p4208
tp4209
(lp4210
s(S'NKX2-1'
p4211
S'POU2F1'
p4212
S'increases'
p4213
tp4214
(lp4215
s(S'VSX1'
p4216
S'MAX'
p4217
S'increases'
p4218
tp4219
(lp4220
s(S'FOXD1'
p4221
S'FOXD3'
p4222
S'increases'
p4223
tp4224
(lp4225
s(S'MAX'
p4226
S'NRAS'
p4227
S'increases'
p4228
tp4229
(lp4230
s(S'HOXA9'
p4231
S'TCF3'
p4232
S'increases'
p4233
tp4234
(lp4235
s(S'IRF1'
p4236
S'CYP26A1'
p4237
S'increases'
p4238
tp4239
(lp4240
s(S'HRAS'
p4241
S'RAF1'
p4242
S'adds_modification'
p4243
tp4244
(lp4245
s(S'CUX1'
p4246
S'HOXA9'
p4247
S'increases'
p4248
tp4249
(lp4250
s(S'ZHX2'
p4251
S'FOXA1'
p4252
S'increases'
p4253
tp4254
(lp4255
s(S'TFDP1'
p4256
S'MYC'
p4257
S'increases'
p4258
tp4259
(lp4260
s(S'RAC1/GTP'
p4261
S'PAK1'
p4262
S'increases_activity'
p4263
tp4264
(lp4265
s(S'AHR'
p4266
S'MAZ'
p4267
S'increases'
p4268
tp4269
(lp4270
s(S'BRAF/14-3-3'
p4271
S'KSR/14-3-3 /MEK1-2'
p4272
S'increases_activity'
p4273
tp4274
(lp4275
s(S'PPARA'
p4276
S'CYP26A1'
p4277
S'increases'
p4278
tp4279
(lp4280
s(S'REPIN1'
p4281
S'SRF'
p4282
S'increases'
p4283
tp4284
(lp4285
s(S'PAX5'
p4286
S'SRF'
p4287
S'increases'
p4288
tp4289
(lp4290
s(S'PAX4'
p4291
S'FOXJ2'
p4292
S'increases'
p4293
tp4294
(lp4295
s(S'REPIN1'
p4296
S'MYCN'
p4297
S'increases'
p4298
tp4299
(lp4300
s(S'RALA/GTP'
p4301
S'SRC'
p4302
S'adds_modification'
p4303
tp4304
(lp4305
s(S'FOXO4'
p4306
S'ETS1'
p4307
S'increases'
p4308
tp4309
(lp4310
s(S'TFDP1'
p4311
S'CDC5L'
p4312
S'increases'
p4313
tp4314
(lp4315
s(S'TFDP1'
p4316
S'CYP26A1'
p4317
S'increases'
p4318
tp4319
(lp4320
s(S'GATA6'
p4321
S'RUNX2'
p4322
S'increases'
p4323
tp4324
(lp4325
s(S'FOXM1'
p4326
S'CYP26A1'
p4327
S'increases'
p4328
tp4329
(lp4330
s(S'sodium arsenite'
p4331
S'HRAS PROTEIN'
p4332
S'increases'
p4333
tp4334
(lp4335
s(S'STAT5A'
p4336
S'RUNX1'
p4337
S'increases'
p4338
tp4339
(lp4340
s(S'CEBPA'
p4341
S'EN1'
p4342
S'increases'
p4343
tp4344
(lp4345
s(S'MSX1'
p4346
S'POU2F1'
p4347
S'increases'
p4348
tp4349
(lp4350
s(S'NHLH1'
p4351
S'CBFA2T3'
p4352
S'increases'
p4353
tp4354
(lp4355
s(S'Parathion'
p4356
S'HRAS PROTEIN'
p4357
S'increases'
p4358
tp4359
(lp4360
s(S'SMAD4'
p4361
S'CYP26A1'
p4362
S'increases'
p4363
tp4364
(lp4365
s(S'E2F1'
p4366
S'MYC'
p4367
S'increases'
p4368
tp4369
(lp4370
s(S'CYP26A1'
p4371
S'FOXO3'
p4372
S'increases'
p4373
tp4374
(lp4375
s(S'TCF3'
p4376
S'CBFA2T3'
p4377
S'increases'
p4378
tp4379
(lp4380
s(S'ZHX2'
p4381
S'FOXF2'
p4382
S'increases'
p4383
tp4384
(lp4385
s(S'POU2F1'
p4386
S'MECOM'
p4387
S'increases'
p4388
tp4389
(lp4390
s(S'CYP26A1'
p4391
S'POU2F1'
p4392
S'increases'
p4393
tp4394
(lp4395
s(S'MYOD1'
p4396
S'CYP26A1'
p4397
S'increases'
p4398
tp4399
(lp4400
s(S'RAF'
p4401
S'COMPLEX (RAS/GTP)'
p4402
S'binds'
p4403
tp4404
(lp4405
s(S'RET51/GFRalpha1/GDNF/DOK1'
p4406
S'HRAS/GDP'
p4407
S'increases_activity'
p4408
tp4409
(lp4410
s(S'MAFG'
p4411
S'CYP26A1'
p4412
S'increases'
p4413
tp4414
(lp4415
s(S'CRX'
p4416
S'CYP26A1'
p4417
S'increases'
p4418
tp4419
(lp4420
s(S'hsa-miR-126-3p'
p4421
S'KRAS'
p4422
S'decreases'
p4423
tp4424
(lp4425
s(S'EBF2'
p4426
S'CYP26A1'
p4427
S'increases'
p4428
tp4429
(lp4430
s(S'RUNX1'
p4431
S'CYP26A1'
p4432
S'increases'
p4433
tp4434
(lp4435
s(S'HOXA5'
p4436
S'FOXA1'
p4437
S'increases'
p4438
tp4439
(lp4440
s(S'benzo(a)pyrene-3,6-quinone'
p4441
S'HRAS MRNA'
p4442
S'increases'
p4443
tp4444
(lp4445
s(S'K 7174'
p4446
S'HRAS MRNA'
p4447
S'decreases'
p4448
tp4449
(lp4450
s(S'LEF1'
p4451
S'NRAS'
p4452
S'increases'
p4453
tp4454
(lp4455
s(S'SPI1'
p4456
S'FOXA1'
p4457
S'increases'
p4458
tp4459
(lp4460
s(S'hsa-let-7b-5p'
p4461
S'NRAS'
p4462
S'decreases'
p4463
tp4464
(lp4465
s(S'CEBPA'
p4466
S'JUN'
p4467
S'increases'
p4468
tp4469
(lp4470
s(S'GABPB2'
p4471
S'CYP26A1'
p4472
S'increases'
p4473
tp4474
(lp4475
s(S'PI-3-4-5-P3'
p4476
S'MTOR'
p4477
S'increases_activity'
p4478
tp4479
(lp4480
s(S'GRB2:SOS1'
p4481
S'EGF:P-6Y-EGFR'
p4482
S'binds'
p4483
tp4484
(lp4485
s(S'HNF1A'
p4486
S'CYP26A1'
p4487
S'increases'
p4488
tp4489
(lp4490
s(S'HIF1A'
p4491
S'FOXO4'
p4492
S'increases'
p4493
tp4494
(lp4495
s(S'FOXJ1'
p4496
S'HOXA9'
p4497
S'increases'
p4498
tp4499
(lp4500
s(S'hsa-miR-96-5p'
p4501
S'KRAS'
p4502
S'decreases'
p4503
tp4504
(lp4505
s(S'SRC'
p4506
S'SYNDECAN-2/RASGAP'
p4507
S'binds'
p4508
tp4509
(lp4510
s(S'FOXA1'
p4511
S'MEIS1'
p4512
S'increases'
p4513
tp4514
(lp4515
s(S'LEF1'
p4516
S'MEIS1'
p4517
S'increases'
p4518
tp4519
(lp4520
s(S'PAX3'
p4521
S'CYP26A1'
p4522
S'increases'
p4523
tp4524
(lp4525
s(S'PAX4'
p4526
S'HOXA9'
p4527
S'increases'
p4528
tp4529
(lp4530
s(S'hsa-miR-18a-3p'
p4531
S'KRAS'
p4532
S'decreases'
p4533
tp4534
(lp4535
s(S'FOXF2'
p4536
S'EN1'
p4537
S'increases'
p4538
tp4539
(lp4540
s(S'Pyk2'
p4541
S'SRC FAMILY KINASES'
p4542
S'increases_activity'
p4543
tp4544
(lp4545
s(S'TP53'
p4546
S'HOXA9'
p4547
S'increases'
p4548
tp4549
(lp4550
s(S'Genistein'
p4551
S'KRAS MRNA'
p4552
S'decreases'
p4553
tp4554
(lp4555
s(S'POU1F1'
p4556
S'CYP26A1'
p4557
S'increases'
p4558
tp4559
(lp4560
s(S'manumycin'
p4561
S'KRAS PROTEIN'
p4562
S'decreases_activity'
p4563
tp4564
(lp4565
s(S'Ginkgo biloba extract 761'
p4566
S'GCLC PROTEIN'
p4567
S'increases'
p4568
tp4569
(lp4570
s(S'GATA1'
p4571
S'NRAS'
p4572
S'increases'
p4573
tp4574
(lp4575
s(S'CBFA2T3'
p4576
S'FOXF2'
p4577
S'increases'
p4578
tp4579
(lp4580
s(S'PCBP1'
p4581
S'ELK1'
p4582
S'increases'
p4583
tp4584
(lp4585
s(S'MYC'
p4586
S'FOXF2'
p4587
S'increases'
p4588
tp4589
(lp4590
s(S'hsa-mir-622'
p4591
S'KRAS'
p4592
S'decreases'
p4593
tp4594
(lp4595
s(S'TCF3'
p4596
S'MAZ'
p4597
S'increases'
p4598
tp4599
(lp4600
s(S'STAT2'
p4601
S'MEIS1'
p4602
S'increases'
p4603
tp4604
(lp4605
s(S'CYP26A1'
p4606
S'YY1'
p4607
S'increases'
p4608
tp4609
(lp4610
s(S'CYP26A1'
p4611
S'EN1'
p4612
S'increases'
p4613
tp4614
(lp4615
s(S'GRB2/SOS1'
p4616
S'SHC'
p4617
S'binds'
p4618
tp4619
(lp4620
s(S'BAD'
p4621
S'YWHAZ'
p4622
S'binds'
p4623
tp4624
(lp4625
s(S'SPI1'
p4626
S'MAX'
p4627
S'increases'
p4628
tp4629
(lp4630
s(S'PI-3-4-5-P3'
p4631
S'CENTA1'
p4632
S'translocates'
p4633
tp4634
(lp4635
s(S'XBP1'
p4636
S'CYP26A1'
p4637
S'increases'
p4638
tp4639
(lp4640
s(S'PAX4'
p4641
S'NRAS'
p4642
S'increases'
p4643
tp4644
(lp4645
s(S'PI3K'
p4646
S'EPHRIN A1/EPHA2'
p4647
S'binds'
p4648
tp4649
(lp4650
s(S'POU1F1'
p4651
S'MEIS1'
p4652
S'increases'
p4653
tp4654
(lp4655
s(S'NR3C1'
p4656
S'ETS1'
p4657
S'increases'
p4658
tp4659
(lp4660
s(S'MAZ'
p4661
S'POU3F2'
p4662
S'increases'
p4663
tp4664
(lp4665
s(S'Estradiol'
p4666
S'HRAS MRNA'
p4667
S'increases'
p4668
tp4669
(lp4670
s(S'Aflatoxin B1'
p4671
S'HRAS PROTEIN'
p4672
S'increases'
p4673
tp4674
(lp4675
s(S'ETV7'
p4676
S'STAT4'
p4677
S'increases'
p4678
tp4679
(lp4680
s(S'PBX1'
p4681
S'LEF1'
p4682
S'increases'
p4683
tp4684
(lp4685
s(S'CEBPB'
p4686
S'CYP26A1'
p4687
S'increases'
p4688
tp4689
(lp4690
s(S'MAZ'
p4691
S'JUN'
p4692
S'increases'
p4693
tp4694
(lp4695
s(S'FOXF2'
p4696
S'MYC'
p4697
S'increases'
p4698
tp4699
(lp4700
s(S'FOXJ2'
p4701
S'HOXA9'
p4702
S'increases'
p4703
tp4704
(lp4705
s(S'Capsaicin'
p4706
S'HRAS MRNA'
p4707
S'increases'
p4708
tp4709
(lp4710
s(S'POU3F1'
p4711
S'GATA6'
p4712
S'increases'
p4713
tp4714
(lp4715
s(S'EIF2A'
p4716
S'14-3-3 E'
p4717
S'binds'
p4718
tp4719
(lp4720
s(S'RAS family/GTP'
p4721
S'RAF1-BRAF'
p4722
S'increases_activity'
p4723
tp4724
(lp4725
s(S'GATA6'
p4726
S'GATA1'
p4727
S'increases'
p4728
tp4729
(lp4730
s(S'RASA1'
p4731
S'PHOSPHO PDGF BETA RECEPTOR: PDGF CHAIN B HOMODIMER'
p4732
S'binds'
p4733
tp4734
(lp4735
s(S'CART1'
p4736
S'POU2F1'
p4737
S'increases'
p4738
tp4739
(lp4740
s(S'ZIC3'
p4741
S'POU2F1'
p4742
S'increases'
p4743
tp4744
(lp4745
s(S'TCF4'
p4746
S'FOXA1'
p4747
S'increases'
p4748
tp4749
(lp4750
s(S'PKC theta'
p4751
S'RASGRP1'
p4752
S'adds_modification'
p4753
tp4754
(lp4755
s(S'PTF1A'
p4756
S'STAT5A'
p4757
S'increases'
p4758
tp4759
(lp4760
s(S'SPI1'
p4761
S'FOXO4'
p4762
S'increases'
p4763
tp4764
(lp4765
s(S'HNF1A'
p4766
S'GATA6'
p4767
S'increases'
p4768
tp4769
(lp4770
s(S'FOXJ1'
p4771
S'RUNX1'
p4772
S'increases'
p4773
tp4774
(lp4775
s(S'STAT2'
p4776
S'GATA6'
p4777
S'increases'
p4778
tp4779
(lp4780
s(S'RAS FAMILY/GTP'
p4781
S'PI3K'
p4782
S'binds'
p4783
tp4784
(lp4785
s(S'PAX4'
p4786
S'IRF1'
p4787
S'increases'
p4788
tp4789
(lp4790
s(S'PAX3'
p4791
S'HOXA9'
p4792
S'increases'
p4793
tp4794
(lp4795
s(S'MYB'
p4796
S'MAZ'
p4797
S'increases'
p4798
tp4799
(lp4800
s(S"Guanosine-5'-Triphosphate"
p4801
S'HRAS'
p4802
S'increases_activity'
p4803
tp4804
(lp4805
s(S'alpha9/beta1 Integrin/Tenascin C'
p4806
S'SRC'
p4807
S'adds_modification'
p4808
tp4809
(lp4810
s(S'RAF1'
p4811
S'MEK1'
p4812
S'adds_modification'
p4813
tp4814
(lp4815
s(S'JUN'
p4816
S'FOXA1'
p4817
S'increases'
p4818
tp4819
(lp4820
s(S'NFE2L2'
p4821
S'BACH1'
p4822
S'increases'
p4823
tp4824
(lp4825
s(S'CUX1'
p4826
S'FOXD3'
p4827
S'increases'
p4828
tp4829
(lp4830
s(S'JUN'
p4831
S'EN1'
p4832
S'increases'
p4833
tp4834
(lp4835
s(S'ESR1'
p4836
S'CYP26A1'
p4837
S'increases'
p4838
tp4839
(lp4840
s(S'ESRRA'
p4841
S'FOXA1'
p4842
S'increases'
p4843
tp4844
(lp4845
s(S'POU2F1'
p4846
S'MEIS1'
p4847
S'increases'
p4848
tp4849
(lp4850
s(S'TFCP2'
p4851
S'FOXA1'
p4852
S'increases'
p4853
tp4854
(lp4855
s(S'PI-3-4-5-P3'
p4856
S'PDK1'
p4857
S'increases_activity'
p4858
tp4859
(lp4860
s(S'TCF3'
p4861
S'FOXA1'
p4862
S'increases'
p4863
tp4864
(lp4865
s(S'STAT3'
p4866
S'CYP26A1'
p4867
S'increases'
p4868
tp4869
(lp4870
s(S'CYP26A1'
p4871
S'POU3F2'
p4872
S'increases'
p4873
tp4874
(lp4875
s(S'Curcumin'
p4876
S'KRAS MRNA'
p4877
S'decreases'
p4878
tp4879
(lp4880
s(S'STAT1'
p4881
S'CYP26A1'
p4882
S'increases'
p4883
tp4884
(lp4885
s(S'GFI1'
p4886
S'POU2F1'
p4887
S'increases'
p4888
tp4889
(lp4890
s(S'ZIC1'
p4891
S'POU2F1'
p4892
S'increases'
p4893
tp4894
(lp4895
s(S'PI-3-4-5-P3'
p4896
S'AKT3'
p4897
S'adds_modification'
p4898
tp4899
(lp4900
s(S'BACH1'
p4901
S'NRAS'
p4902
S'increases'
p4903
tp4904
(lp4905
s(S'SCF/KIT'
p4906
S'SHC/GRB2/SOS1'
p4907
S'increases_activity'
p4908
tp4909
(lp4910
s(S'CDX2'
p4911
S'CYP26A1'
p4912
S'increases'
p4913
tp4914
(lp4915
s(S'RET51/GFRalpha1/GDNF/DOK/RasGAP/NCK'
p4916
S'HRAS/GDP'
p4917
S'decreases_activity'
p4918
tp4919
(lp4920
s(S'BETAPIX'
p4921
S'RAC1/GTP'
p4922
S'binds'
p4923
tp4924
(lp4925
s(S'RHOA/GTP'
p4926
S'CITRON'
p4927
S'increases_activity'
p4928
tp4929
(lp4930
s(S'P-SHC1:GRB2:SOS'
p4931
S'P-5Y-LAT-2'
p4932
S'binds'
p4933
tp4934
(lp4935
s(S'PAX4'
p4936
S'CYP26A1'
p4937
S'increases'
p4938
tp4939
(lp4940
s(S'TCF3'
p4941
S'KRAS'
p4942
S'increases'
p4943
tp4944
(lp4945
s(S'GRB2:SOS1'
p4946
S'PHOSPHORYLATED ERBB2:ERBB4 HETERODIMERS'
p4947
S'binds'
p4948
tp4949
(lp4950
s(S'CDX2'
p4951
S'MEIS1'
p4952
S'increases'
p4953
tp4954
(lp4955
s(S'SP3'
p4956
S'RUNX1'
p4957
S'increases'
p4958
tp4959
(lp4960
s(S'REST'
p4961
S'CYP26A1'
p4962
S'increases'
p4963
tp4964
(lp4965
s(S'PTF1A'
p4966
S'CYP26A1'
p4967
S'increases'
p4968
tp4969
(lp4970
s(S'PI-3-4-5-P3'
p4971
S'PI3K/GAB1'
p4972
S'translocates'
p4973
tp4974
(lp4975
s(S'LMO2'
p4976
S'FOXO4'
p4977
S'increases'
p4978
tp4979
(lp4980
s(S'STAT4'
p4981
S'ETS1'
p4982
S'increases'
p4983
tp4984
(lp4985
s(S'GTF2A2'
p4986
S'HOXA9'
p4987
S'increases'
p4988
tp4989
(lp4990
s(S'FOXF2'
p4991
S'POU3F2'
p4992
S'increases'
p4993
tp4994
(lp4995
s(S'GATA1'
p4996
S'GABPB2'
p4997
S'increases'
p4998
tp4999
(lp5000
s(S'Polychlorinated Biphenyls'
p5001
S'KRAS MRNA'
p5002
S'decreases'
p5003
tp5004
(lp5005
s(S'GRB2/SOS1'
p5006
S'EGF/EGFR DIMER/SHC'
p5007
S'binds'
p5008
tp5009
(lp5010
s(S'CYP26A1'
p5011
S'FOXF2'
p5012
S'increases'
p5013
tp5014
(lp5015
s(S'EGR1'
p5016
S'CYP26A1'
p5017
S'increases'
p5018
tp5019
(lp5020
s(S'MAX'
p5021
S'FOXO3'
p5022
S'increases'
p5023
tp5024
(lp5025
s(S'T-DHT/AR/PELP1'
p5026
S'SRC'
p5027
S'binds'
p5028
tp5029
(lp5030
s(S'CUX1'
p5031
S'FOXF2'
p5032
S'increases'
p5033
tp5034
(lp5035
s(S'CEBPD'
p5036
S'CYP26A1'
p5037
S'increases'
p5038
tp5039
(lp5040
s(S'CBFA2T3'
p5041
S'NRAS'
p5042
S'increases'
p5043
tp5044
(lp5045
s(S'Cisplatin'
p5046
S'HRAS MRNA'
p5047
S'translocates'
p5048
tp5049
(lp5050
s(S'BAD/BCL-X(L)'
p5051
S'YWHAZ'
p5052
S'binds'
p5053
tp5054
(lp5055
s(S'GATA1'
p5056
S'FOXA1'
p5057
S'increases'
p5058
tp5059
(lp5060
s(S'RREB1'
p5061
S'CYP26A1'
p5062
S'increases'
p5063
tp5064
(lp5065
s(S'STAT4'
p5066
S'RUNX2'
p5067
S'increases'
p5068
tp5069
(lp5070
s(S'FOXD3'
p5071
S'NRAS'
p5072
S'increases'
p5073
tp5074
(lp5075
s(S'NDEL1'
p5076
S'14-3-3 E'
p5077
S'binds'
p5078
tp5079
(lp5080
s(S'CYP26A1'
p5081
S'REPIN1'
p5082
S'increases'
p5083
tp5084
(lp5085
s(S'MAF'
p5086
S'CDC5L'
p5087
S'increases'
p5088
tp5089
(lp5090
s(S'CYP26A1'
p5091
S'ELK1'
p5092
S'increases'
p5093
tp5094
(lp5095
s(S'MYC'
p5096
S'FOXD3'
p5097
S'increases'
p5098
tp5099
(lp5100
s(S'MAX'
p5101
S'FOXD3'
p5102
S'increases'
p5103
tp5104
(lp5105
s(S'POU1F1'
p5106
S'GATA6'
p5107
S'increases'
p5108
tp5109
(lp5110
s(S'POU2F1'
p5111
S'STAT4'
p5112
S'increases'
p5113
tp5114
(lp5115
s(S'GTF3A'
p5116
S'FOXO3'
p5117
S'increases'
p5118
tp5119
(lp5120
s(S'MYB'
p5121
S'FOXF2'
p5122
S'increases'
p5123
tp5124
(lp5125
s(S'ZIC3'
p5126
S'CYP26A1'
p5127
S'increases'
p5128
tp5129
(lp5130
s(S'POU2F1'
p5131
S'EN1'
p5132
S'increases'
p5133
tp5134
(lp5135
s(S'JUN'
p5136
S'STAT1'
p5137
S'increases'
p5138
tp5139
(lp5140
s(S'TEF'
p5141
S'CYP26A1'
p5142
S'increases'
p5143
tp5144
(lp5145
s(S'MAF'
p5146
S'CYP26A1'
p5147
S'increases'
p5148
tp5149
(lp5150
s(S'PAX4'
p5151
S'GATA6'
p5152
S'increases'
p5153
tp5154
(lp5155
s(S'ZIC2'
p5156
S'GATA6'
p5157
S'increases'
p5158
tp5159
(lp5160
s(S'hsa-miR-181d-5p'
p5161
S'HRAS'
p5162
S'decreases'
p5163
tp5164
(lp5165
s(S'BACH2'
p5166
S'CYP26A1'
p5167
S'increases'
p5168
tp5169
(lp5170
s(S'TCF12'
p5171
S'CYP26A1'
p5172
S'increases'
p5173
tp5174
(lp5175
s(S'GATA1'
p5176
S'FOXO4'
p5177
S'increases'
p5178
tp5179
(lp5180
s(S'RFX1'
p5181
S'FOXD3'
p5182
S'increases'
p5183
tp5184
(lp5185
s(S'FOXJ1'
p5186
S'CYP26A1'
p5187
S'increases'
p5188
tp5189
(lp5190
s(S'GTF2A2'
p5191
S'POU2F1'
p5192
S'increases'
p5193
tp5194
(lp5195
s(S'YY1'
p5196
S'SRF'
p5197
S'increases'
p5198
tp5199
(lp5200
s(S'AHR'
p5201
S'REPIN1'
p5202
S'increases'
p5203
tp5204
(lp5205
s(S'MAZ'
p5206
S'CYP26A1'
p5207
S'increases'
p5208
tp5209
(lp5210
s(S'Quercetin'
p5211
S'HRAS MRNA'
p5212
S'increases'
p5213
tp5214
(lp5215
s(S'ELK1'
p5216
S'NRAS'
p5217
S'increases'
p5218
tp5219
(lp5220
s(S'HIF1A'
p5221
S'ONECUT1'
p5222
S'increases'
p5223
tp5224
(lp5225
s(S'FOXF2'
p5226
S'CYP26A1'
p5227
S'increases'
p5228
tp5229
(lp5230
s(S'SOX9'
p5231
S'ETS1'
p5232
S'increases'
p5233
tp5234
(lp5235
s(S'HSF1'
p5236
S'JUN'
p5237
S'increases'
p5238
tp5239
(lp5240
s(S'CEBPA'
p5241
S'CYP26A1'
p5242
S'increases'
p5243
tp5244
(lp5245
s(S'NR1H4'
p5246
S'MEIS1'
p5247
S'increases'
p5248
tp5249
(lp5250
s(S'SMAD1'
p5251
S'GATA1'
p5252
S'increases'
p5253
tp5254
(lp5255
s(S'Quercetin'
p5256
S'HRAS MRNA'
p5257
S'decreases'
p5258
tp5259
(lp5260
s(S'Glycyrrhetinic Acid'
p5261
S'HRAS PROTEIN'
p5262
S'decreases'
p5263
tp5264
(lp5265
s(S'HOXA4'
p5266
S'POU2F1'
p5267
S'increases'
p5268
tp5269
(lp5270
s(S'FOXQ1'
p5271
S'CYP26A1'
p5272
S'increases'
p5273
tp5274
(lp5275
s(S'FOXI1'
p5276
S'CEBPA'
p5277
S'increases'
p5278
tp5279
(lp5280
s(S'GTF3A'
p5281
S'MYCN'
p5282
S'increases'
p5283
tp5284
(lp5285
s(S'LMO2'
p5286
S'IRF1'
p5287
S'increases'
p5288
tp5289
(lp5290
s(S'FOXO1'
p5291
S'CYP26A1'
p5292
S'increases'
p5293
tp5294
(lp5295
s(S'Copper Sulfate'
p5296
S'NRAS MRNA'
p5297
S'increases'
p5298
tp5299
(lp5300
s(S'TFAP2A'
p5301
S'CYP26A1'
p5302
S'increases'
p5303
tp5304
(lp5305
s(S'FOXJ1'
p5306
S'EN1'
p5307
S'increases'
p5308
tp5309
(lp5310
s(S'MEIS1'
p5311
S'RUNX1'
p5312
S'increases'
p5313
tp5314
(lp5315
s(S'MAZ'
p5316
S'FOXA1'
p5317
S'increases'
p5318
tp5319
(lp5320
s(S'ETS1'
p5321
S'FOXO4'
p5322
S'increases'
p5323
tp5324
(lp5325
s(S'ZBTB14'
p5326
S'FOXD3'
p5327
S'increases'
p5328
tp5329
(lp5330
s(S'FOXC1'
p5331
S'LEF1'
p5332
S'increases'
p5333
tp5334
(lp5335
s(S'IRF1'
p5336
S'EN1'
p5337
S'increases'
p5338
tp5339
(lp5340
s(S'NR3C1'
p5341
S'CYP26A1'
p5342
S'increases'
p5343
tp5344
(lp5345
s(S'VSX1'
p5346
S'BACH1'
p5347
S'increases'
p5348
tp5349
(lp5350
s(S'CYP26A1'
p5351
S'ETS1'
p5352
S'increases'
p5353
tp5354
(lp5355
s(S'CEBPA'
p5356
S'MEIS1'
p5357
S'increases'
p5358
tp5359
(lp5360
s(S'ELF1'
p5361
S'FOXO4'
p5362
S'increases'
p5363
tp5364
(lp5365
s(S'RXRA'
p5366
S'CYP26A1'
p5367
S'increases'
p5368
tp5369
(lp5370
s(S'CREB1'
p5371
S'CYP26A1'
p5372
S'increases'
p5373
tp5374
(lp5375
s(S'IRF7'
p5376
S'GATA6'
p5377
S'increases'
p5378
tp5379
(lp5380
s(S'ZEB1'
p5381
S'CYP26A1'
p5382
S'increases'
p5383
tp5384
(lp5385
s(S'AR'
p5386
S'CYP26A1'
p5387
S'increases'
p5388
tp5389
(lp5390
s(S'TFDP2'
p5391
S'MYC'
p5392
S'increases'
p5393
tp5394
(lp5395
s(S'hsa-mir-217'
p5396
S'KRAS'
p5397
S'decreases'
p5398
tp5399
(lp5400
s(S'MEK'
p5401
S'ERK'
p5402
S'adds_modification'
p5403
tp5404
(lp5405
S'We have previously identified genes modulated by insulin in the liver and in liver-derived cells that have not yet been characterized as insulin regulated, and results of these previous studies indicated that numerous genes are induced by insulin via the MEK-ERK pathway.'
p5406
aS'In our prior reports it was demonstrated that the MEK-ERK pathway is required for the rapid insulin induction of c-fos, Pip92, Egr-1, ATF-3, Insig-1, and Krox20 transcription.'
p5407
aS'We have previously reported on the involvement of the MEK-ERK and p38 signaling pathways in insulin-regulated gene expression.'
p5408
aS'This finding, that insulin does not use the MEK-ERK pathway, contrasts with the published accounts on the involvement of MEK-ERK in Gadd45 gene expression.'
p5409
aS'For instance, MEK-ERK is necessary for the full induction of the Gadd45 promoter following UV-induced DNA damage in both HCTII6 human colorectal carcinoma cells and MCF-7 human breast cancer cells.'
p5410
aS'In this case, inhibition of either the MEK-ERK or the PI3-K pathways would be insufficient to completely reduce insulin-induced mTOR and therefore mTOR-dependent gene expression.'
p5411
aS'A number of mechanisms of resistance have been identified including reactivation of the RAS/RAF/MEK/ERK pathway.'
p5412
ag651
ag652
aS'AREG: Amphiregulin; BMZ: Epithelial basement membrane zone; CMV: Cytomegalovirus; CPE: Cytopathic effect; CRTC1: CREB-regulated transcription coactivator 1; D6U: Addition on U0126 beginning on day 6; D6GEF: Addition of gefitinib beginning on day 6; D6 ACY: Addition of aciclovir beginning on day 6; ERK1/2: Extracellular signal-related kinase 1/2; FN: Fibronectin; GEF: Gefitinib; hCMV: Human CMV; IL-6: Interleukin 6; mCMV: Mouse CMV; MEC: Mucoepidermoid carcinoma; MEK: Mitogen-activated ERK kinase; NB: Newborn; NFA: Negative feedback amplifier; pERK: Phosphorylated ERK1/2; PFU: Plaque forming units; PKI: Protein kinase inhibitor; SG: Salivary glands; SMG: Submandibular glands'
p5413
ag653
aS'Perception of the RAS-RAF-MEK-ERK mitogen-activated protein kinase (Ras/MAPK) signalling components, known for their role in signalling and cancer, has been altered by the discovery that germ-line mutations underlie a series of syndromes with overlapping features.'
p5414
aS'Phosphorylation of other components of the classical MAP kinase pathway upstream of ERK, among them BRAF and MEK, were not altered, nor were phosphorylation levels of the downstream kinase, RSK, or the transcription factor CREB.'
p5415
aS'To determine the mechanism of ERK phosphorylation in ZZ primary bronchial epithelial cells, we treated cells with U0126, a specific inhibitor of MEK, or an anti-EGFR blocking monoclonal antibody.'
p5416
aS'RASopathies, a family of disorders characterized by cardiac defects, defective growth, facial dysmorphism, variable cognitive deficits and predisposition to certain malignancies, are caused by constitutional dysregulation of RAS signalling predominantly through the RAF/MEK/ERK (MAPK) cascade.'
p5417
aS'Signalling elicited by activated cell surface receptors and transduced through RAS proteins to the RAF/MEK/ERK and PI3K/AKT cascades is central to cell proliferation, survival, differentiation and metabolism ('
p5418
aS'Mutations of genes coding for proteins with role in RAS signalling and the RAF/MEK/ERK cascade have been identified as the molecular cause underlying a group of clinically related developmental disorders, the RASopathies.'
p5419
as(S'ZBTB18'
p5420
S'ONECUT1'
p5421
S'increases'
p5422
tp5423
(lp5424
s(S'TGIF'
p5425
S'MAX'
p5426
S'increases'
p5427
tp5428
(lp5429
s(S'ETS1'
p5430
S'NRAS'
p5431
S'increases'
p5432
tp5433
(lp5434
s(S'KLF12'
p5435
S'GATA1'
p5436
S'increases'
p5437
tp5438
(lp5439
s(S'HRAS/GTP'
p5440
S'PAK2'
p5441
S'increases_activity'
p5442
tp5443
(lp5444
s(S'CYP26A1'
p5445
S'FOXD3'
p5446
S'increases'
p5447
tp5448
(lp5449
s(S'LMO2'
p5450
S'RUNX1'
p5451
S'increases'
p5452
tp5453
(lp5454
s(S'MLK3'
p5455
S'MKK3/6'
p5456
S'adds_modification'
p5457
tp5458
(lp5459
s(S'TAK'
p5460
S'MKK3/6'
p5461
S'adds_modification'
p5462
tp5463
(lp5464
s(S'GRB2:SOS1'
p5465
S'HB-EGF:P-6Y-EGFR DIMER'
p5466
S'binds'
p5467
tp5468
(lp5469
s(S'FOXO4'
p5470
S'NRAS'
p5471
S'increases'
p5472
tp5473
(lp5474
s(S'MECOM'
p5475
S'NRAS'
p5476
S'increases'
p5477
tp5478
(lp5479
s(S'KLF12'
p5480
S'CYP26A1'
p5481
S'increases'
p5482
tp5483
(lp5484
s(S'RAS family/GTP/PI3K'
p5485
S'TRPV1'
p5486
S'adds_modification'
p5487
tp5488
(lp5489
s(S'hsa-let-7a-5p'
p5490
S'NRAS'
p5491
S'decreases'
p5492
tp5493
(lp5494
s(S'NF1'
p5495
S'HOXA9'
p5496
S'increases'
p5497
tp5498
(lp5499
s(S'REPIN1'
p5500
S'FOXD3'
p5501
S'increases'
p5502
tp5503
(lp5504
s(S'CYP26A1'
p5505
S'FOXJ2'
p5506
S'increases'
p5507
tp5508
(lp5509
s(S'FOXO4'
p5510
S'MEIS1'
p5511
S'increases'
p5512
tp5513
(lp5514
s(S'EBF2'
p5515
S'MECOM'
p5516
S'increases'
p5517
tp5518
(lp5519
s(S'ETS1'
p5520
S'FOXO3'
p5521
S'increases'
p5522
tp5523
(lp5524
s(S'SP3'
p5525
S'CYP26A1'
p5526
S'increases'
p5527
tp5528
(lp5529
s(S'LNXp80'
p5530
S'NUMB'
p5531
S'decreases'
p5532
tp5533
(lp5534
s(S'RUNX2'
p5535
S'CYP26A1'
p5536
S'increases'
p5537
tp5538
(lp5539
s(S'AHR'
p5540
S'FOXO3'
p5541
S'increases'
p5542
tp5543
(lp5544
s(S'VSX1'
p5545
S'FOXF2'
p5546
S'increases'
p5547
tp5548
(lp5549
s(S'BPTF'
p5550
S'RUNX1'
p5551
S'increases'
p5552
tp5553
(lp5554
s(S'7,8-Dihydro-7,8-dihydroxybenzo(a)pyrene 9,10-oxide'
p5555
S'HRAS PROTEIN'
p5556
S'increases'
p5557
tp5558
(lp5559
s(S'TCF3'
p5560
S'POU3F2'
p5561
S'increases'
p5562
tp5563
(lp5564
s(S'TCF3'
p5565
S'IRF1'
p5566
S'increases'
p5567
tp5568
(lp5569
s(S'SREBF1'
p5570
S'EN1'
p5571
S'increases'
p5572
tp5573
(lp5574
s(S'FOXO4'
p5575
S'RUNX2'
p5576
S'increases'
p5577
tp5578
(lp5579
s(S'hsa-miR-181a-5p'
p5580
S'HRAS'
p5581
S'decreases'
p5582
tp5583
(lp5584
s(S'Myb'
p5585
S'NRAS'
p5586
S'decreases'
p5587
tp5588
(lp5589
s(S'HSPA8'
p5590
S'ADP'
p5591
S'binds'
p5592
tp5593
(lp5594
s(S'SOCS3'
p5595
S'RASGAP'
p5596
S'binds'
p5597
tp5598
(lp5599
s(S'ONECUT1'
p5600
S'NRAS'
p5601
S'increases'
p5602
tp5603
(lp5604
s(S'PITX2'
p5605
S'EN1'
p5606
S'increases'
p5607
tp5608
(lp5609
s(S'HGF(dimer)/MET(dimer)'
p5610
S'SRC'
p5611
S'adds_modification'
p5612
tp5613
(lp5614
s(S'2-amino-1-methyl-6-phenylimidazo(4,5-b)pyridine'
p5615
S'HRAS PROTEIN'
p5616
S'increases'
p5617
tp5618
(lp5619
s(S'GFI1'
p5620
S'POU3F2'
p5621
S'increases'
p5622
tp5623
(lp5624
s(S'FARNESYL DIPHOSPHATE'
p5625
S'KRAS'
p5626
S'increases_activity'
p5627
tp5628
(lp5629
s(S'IL2/IL2R BETA/GAMMA/JAK1/LCK/JAK3'
p5630
S'PI3K'
p5631
S'binds'
p5632
tp5633
(lp5634
s(S'GTF3A'
p5635
S'MECOM'
p5636
S'increases'
p5637
tp5638
(lp5639
s(S'EGR2'
p5640
S'CYP26A1'
p5641
S'increases'
p5642
tp5643
(lp5644
s(S'RUNX1'
p5645
S'FOXF2'
p5646
S'increases'
p5647
tp5648
(lp5649
s(S'IL3/IL3RA/CSF2RB (DODECAMER)'
p5650
S'YWHAZ'
p5651
S'binds'
p5652
tp5653
(lp5654
s(S'RAF1'
p5655
S'BRAF'
p5656
S'binds'
p5657
tp5658
(lp5659
s(S'MYC'
p5660
S'CYP26A1'
p5661
S'increases'
p5662
tp5663
(lp5664
s(S'UBP1'
p5665
S'CYP26A1'
p5666
S'increases'
p5667
tp5668
(lp5669
s(S'MTF1'
p5670
S'REPIN1'
p5671
S'increases'
p5672
tp5673
(lp5674
s(S'HNF1A'
p5675
S'RUNX1'
p5676
S'increases'
p5677
tp5678
(lp5679
s(S'NHLH1'
p5680
S'FOXA1'
p5681
S'increases'
p5682
tp5683
(lp5684
s(S'HLF'
p5685
S'FOXA1'
p5686
S'increases'
p5687
tp5688
(lp5689
s(S'MEIS1'
p5690
S'GATA6'
p5691
S'increases'
p5692
tp5693
(lp5694
s(S'PDGF-BB/PDGFRB (DIMER)/SHP2'
p5695
S'GRB2/SOS1'
p5696
S'binds'
p5697
tp5698
(lp5699
s(S'ZBTB14'
p5700
S'EN1'
p5701
S'increases'
p5702
tp5703
(lp5704
s(S'alpha6/beta4 Integrin'
p5705
S'HRAS/GDP'
p5706
S'increases_activity'
p5707
tp5708
(lp5709
s(S'ErbB2'
p5710
S'HRAS/GDP'
p5711
S'increases_activity'
p5712
tp5713
(lp5714
s(S'MEIS1'
p5715
S'FOXO3'
p5716
S'increases'
p5717
tp5718
(lp5719
s(S'RELA'
p5720
S'IRF1'
p5721
S'increases'
p5722
tp5723
(lp5724
s(S'MYCN'
p5725
S'FOXO3'
p5726
S'increases'
p5727
tp5728
(lp5729
s(S'RHOA/GTP'
p5730
S'DIA'
p5731
S'increases_activity'
p5732
tp5733
(lp5734
s(S'Fluorouracil'
p5735
S'KRAS PROTEIN'
p5736
S'decreases'
p5737
tp5738
(lp5739
s(S'ATF2'
p5740
S'CYP26A1'
p5741
S'increases'
p5742
tp5743
(lp5744
s(S'GNAI2/GTP'
p5745
S'SRC FAMILY KINASES'
p5746
S'increases_activity'
p5747
tp5748
(lp5749
s(S'HAND1'
p5750
S'POU2F1'
p5751
S'increases'
p5752
tp5753
(lp5754
s(S'PI5K Type 1 family'
p5755
S'PI-4-P'
p5756
S'translocates'
p5757
tp5758
(lp5759
s(S'HSF1'
p5760
S'CBFA2T3'
p5761
S'increases'
p5762
tp5763
(lp5764
s(S'BACH1'
p5765
S'FOXA1'
p5766
S'increases'
p5767
tp5768
(lp5769
s(S'PI-3-4-5-P3'
p5770
S'SGK1'
p5771
S'adds_modification'
p5772
tp5773
(lp5774
s(S'hsa-miR-20a-5p'
p5775
S'NRAS'
p5776
S'decreases'
p5777
tp5778
(lp5779
s(S'CYP26A1'
p5780
S'MECOM'
p5781
S'increases'
p5782
tp5783
(lp5784
s(S'FOXF2'
p5785
S'RUNX1'
p5786
S'increases'
p5787
tp5788
(lp5789
s(S'EGR2'
p5790
S'SRF'
p5791
S'increases'
p5792
tp5793
(lp5794
s(S'LEF1'
p5795
S'FOXD3'
p5796
S'increases'
p5797
tp5798
(lp5799
s(S'TFAP2C'
p5800
S'MECOM'
p5801
S'increases'
p5802
tp5803
(lp5804
s(S'SHC'
p5805
S'GRB2/SOS1'
p5806
S'binds'
p5807
tp5808
(lp5809
s(S'CA2+'
p5810
S'CAM'
p5811
S'binds'
p5812
tp5813
(lp5814
s(S'MYC'
p5815
S'POU3F2'
p5816
S'increases'
p5817
tp5818
(lp5819
s(S'PAX8'
p5820
S'HOXA9'
p5821
S'increases'
p5822
tp5823
(lp5824
s(S'TFDP2'
p5825
S'CDC5L'
p5826
S'increases'
p5827
tp5828
(lp5829
s(S'RAF1/14-3-3'
p5830
S'KSR/14-3-3 /MEK1-2'
p5831
S'increases_activity'
p5832
tp5833
(lp5834
s(S'DDIT3'
p5835
S'MEIS1'
p5836
S'increases'
p5837
tp5838
(lp5839
s(S'GNB1/GNG2'
p5840
S'HRAS/GDP'
p5841
S'increases_activity'
p5842
tp5843
(lp5844
s(S'ACTIVATED FGFR MUTANTS:P-FRS2ALPHA'
p5845
S'GRB2:SOS1'
p5846
S'binds'
p5847
tp5848
(lp5849
s(S'HIF1A'
p5850
S'CYP26A1'
p5851
S'increases'
p5852
tp5853
(lp5854
s(S'RAF1-BRAF'
p5855
S'ERK1-2'
p5856
S'increases_activity'
p5857
tp5858
(lp5859
s(S'SMAD4'
p5860
S'CBFA2T3'
p5861
S'increases'
p5862
tp5863
(lp5864
s(S'resveratrol'
p5865
S'HRAS PROTEIN'
p5866
S'increases'
p5867
tp5868
(lp5869
s(S'Malathion'
p5870
S'HRAS MRNA'
p5871
S'increases'
p5872
tp5873
(lp5874
s(S'NRF1'
p5875
S'FOXO4'
p5876
S'increases'
p5877
tp5878
(lp5879
s(S'CREB1'
p5880
S'JUN'
p5881
S'increases'
p5882
tp5883
(lp5884
s(S'CDC5L'
p5885
S'HOXA9'
p5886
S'increases'
p5887
tp5888
(lp5889
s(S'CDX2'
p5890
S'HOXA9'
p5891
S'increases'
p5892
tp5893
(lp5894
s(S'HMGA1'
p5895
S'POU2F1'
p5896
S'increases'
p5897
tp5898
(lp5899
s(S'Coumestrol'
p5900
S'KRAS MRNA'
p5901
S'decreases'
p5902
tp5903
(lp5904
s(S'LEF1'
p5905
S'FOXO3'
p5906
S'increases'
p5907
tp5908
(lp5909
s(S'CYP26A1'
p5910
S'MEIS1'
p5911
S'increases'
p5912
tp5913
(lp5914
s(S'GTF2A2'
p5915
S'MEIS1'
p5916
S'increases'
p5917
tp5918
(lp5919
s(S'REPIN1'
p5920
S'CBFA2T3'
p5921
S'increases'
p5922
tp5923
(lp5924
s(S'hsa-miR-143-3p'
p5925
S'HRAS'
p5926
S'decreases'
p5927
tp5928
(lp5929
s(S'[(3,7,11-TRIMETHYL-DODECA-2,6,10-TRIENYLOXYCARBAMOYL)-METHYL]-PHOSPHONIC ACID'
p5930
S'KRAS'
p5931
S'increases_activity'
p5932
tp5933
(lp5934
s(S'TFDP1'
p5935
S'ONECUT1'
p5936
S'increases'
p5937
tp5938
(lp5939
s(S'YY1'
p5940
S'CYP26A1'
p5941
S'increases'
p5942
tp5943
(lp5944
s(S'PITX2'
p5945
S'RUNX1'
p5946
S'increases'
p5947
tp5948
(lp5949
s(S'STAT5A'
p5950
S'NRAS'
p5951
S'increases'
p5952
tp5953
(lp5954
s(S'Valproic Acid'
p5955
S'HRAS MRNA'
p5956
S'increases'
p5957
tp5958
(lp5959
s(S'Malathion'
p5960
S'HRAS PROTEIN'
p5961
S'increases'
p5962
tp5963
(lp5964
s(S'TFAP4'
p5965
S'CBFA2T3'
p5966
S'increases'
p5967
tp5968
(lp5969
s(S'TFAP4'
p5970
S'EN1'
p5971
S'increases'
p5972
tp5973
(lp5974
s(S'POU3F2'
p5975
S'CYP26A1'
p5976
S'increases'
p5977
tp5978
(lp5979
s(S'PAX3'
p5980
S'FOXD3'
p5981
S'increases'
p5982
tp5983
(lp5984
s(S'FOXA2'
p5985
S'RUNX2'
p5986
S'increases'
p5987
tp5988
(lp5989
s(S'MAX'
p5990
S'BACH1'
p5991
S'increases'
p5992
tp5993
(lp5994
s(S'PDX1'
p5995
S'CYP26A1'
p5996
S'increases'
p5997
tp5998
(lp5999
s(S'EPO/EPOR (dimer)/JAK2'
p6000
S'SHC/GRB2/SOS1'
p6001
S'increases_activity'
p6002
tp6003
(lp6004
s(S'E2F1'
p6005
S'MEIS1'
p6006
S'increases'
p6007
tp6008
(lp6009
S"OG: oncogene; TSG: tumor suppressor gene; BCL2: B-cell CLL/lymphoma 2; TCL1: T-cell leukemia/lymphoma 1A; TLR4: toll-like receptor 4; CARD8: caspase recruitment domain family, member 8; CASP1: caspase 1, apoptosis-related cysteine peptidase (interleukin 1, beta, convertase); IL1B: interleukin 1, beta; SLC11A1: solute carrier family 11 (proton-coupled divalent metal ion transporters), member 1; MSR1: macrophage scavenger receptor 1; CD64: Fc fragment of IgG, high affinity 1a, receptor; AGTR1: angiotensin II receptor, type 1; FGF7: fibroblast growth factor 7 (keratinocyte growth factor); ZNF537: teashirt zinc finger homeobox 3; ZIC3: Zic family member 3 (odd-paired homolog, Drosophila); IKBKE: inhibitor of kappa light polypeptide gene enhancer in B-cells, kinase epsilon; E2F1: E2F transcription factor 1; PTEN: phosphatase and tensin homolog; BIM: BCL2-like 11 (apoptosis facilitator); ABL1: c-abl oncogene 1, receptor tyrosine kinase; RAS: rat sarcoma virus; HOXA10: homeobox A10; MEIS1: myeloid ecotropic viral integration site 1 homolog; CREB: cAMP responsive element binding protein 1; PRDM1/Blimp1: PR domain containing 1, with ZNF domain; PDCD4: programmed cell death 4 (neoplastic transformation inhibitor); ERK5: mitogen-activated protein kinase 7; N/A: not available; CLL: chronic lymphocytic leukemia; ALL: acute lymphocytic leukemia; CML: chronic myeloid leukemia; AML: acute myeloid leukemia; HL: Hodgkin's lymphoma; NHL: Non-Hodgkin's lymphoma; BL: Burkitt's lymphoma; DLBCL: diffuse large B-cell lymphoma; ABC: activated B-cell phenotype; EBV+: Epstein-Barr virus positive; FLT-IDT+ fms-related tyrosine kinase 3 gene internal tandem dupication; NPM1 mut: nuclephosmin-1 mutation"
p6010
as(S'FOXF2'
p6011
S'MEIS1'
p6012
S'increases'
p6013
tp6014
(lp6015
s(S'SPZ1'
p6016
S'FOXJ2'
p6017
S'increases'
p6018
tp6019
(lp6020
s(S'SRY'
p6021
S'NRAS'
p6022
S'increases'
p6023
tp6024
(lp6025
s(S'REPIN1'
p6026
S'CYP26A1'
p6027
S'increases'
p6028
tp6029
(lp6030
s(S'VEGFR3/VEGFC-D'
p6031
S'PKC'
p6032
S'increases_activity'
p6033
tp6034
(lp6035
s(S'MEIS1'
p6036
S'EN1'
p6037
S'increases'
p6038
tp6039
(lp6040
s(S'FOXJ1'
p6041
S'FOXD3'
p6042
S'increases'
p6043
tp6044
(lp6045
s(S'SPZ1'
p6046
S'FOXO4'
p6047
S'increases'
p6048
tp6049
(lp6050
s(S'RHOA/GTP'
p6051
S'ROCK1-ROCK2'
p6052
S'increases_activity'
p6053
tp6054
(lp6055
s(S'HMGA1'
p6056
S'ONECUT1'
p6057
S'increases'
p6058
tp6059
(lp6060
s(S'uPA/uPAR/alphav/beta3 Integrin/Vitronectin'
p6061
S'SRC'
p6062
S'adds_modification'
p6063
tp6064
(lp6065
s(S'ETS1'
p6066
S'CYP26A1'
p6067
S'increases'
p6068
tp6069
(lp6070
s(S'ESRRA'
p6071
S'TLX2'
p6072
S'increases'
p6073
tp6074
(lp6075
s(S'ROCK2'
p6076
S'RHO FAMILY GTPASE-ACTIVE'
p6077
S'binds'
p6078
tp6079
(lp6080
s(S'ATF4'
p6081
S'CYP26A1'
p6082
S'increases'
p6083
tp6084
(lp6085
s(S'OR5I1'
p6086
S'CYP26A1'
p6087
S'increases'
p6088
tp6089
(lp6090
s(S'PITX2'
p6091
S'GATA1'
p6092
S'increases'
p6093
tp6094
(lp6095
s(S'AHR'
p6096
S'ONECUT1'
p6097
S'increases'
p6098
tp6099
(lp6100
s(S'PTF1A'
p6101
S'MECOM'
p6102
S'increases'
p6103
tp6104
(lp6105
s(S'arsenic trioxide'
p6106
S'HRAS MRNA'
p6107
S'increases'
p6108
tp6109
(lp6110
s(S'TCF3'
p6111
S'REPIN1'
p6112
S'increases'
p6113
tp6114
(lp6115
s(S'STAT6'
p6116
S'FOXO3'
p6117
S'increases'
p6118
tp6119
(lp6120
s(S'POU1F1'
p6121
S'POU2F1'
p6122
S'increases'
p6123
tp6124
(lp6125
s(S'RHOA/GTP'
p6126
S'ROCK'
p6127
S'increases_activity'
p6128
tp6129
(lp6130
s(S'PITPNA'
p6131
S'PI-4-5-P2'
p6132
S'translocates'
p6133
tp6134
(lp6135
s(S'MDM-2'
p6136
S'P14/19 ARF'
p6137
S'binds'
p6138
tp6139
(lp6140
s(S'TEAD1'
p6141
S'FOXO3'
p6142
S'increases'
p6143
tp6144
(lp6145
s(S'MYC'
p6146
S'MAX'
p6147
S'increases'
p6148
tp6149
(lp6150
s(S'GRB2:SOS1'
p6151
S'EGF:PHOSPHO-EGFR:PHOSPHO-SHC'
p6152
S'binds'
p6153
tp6154
(lp6155
s(S'NF1'
p6156
S'RUNX1'
p6157
S'increases'
p6158
tp6159
(lp6160
s(S'ZEB1'
p6161
S'GATA6'
p6162
S'increases'
p6163
tp6164
(lp6165
s(S'TBP'
p6166
S'EN1'
p6167
S'increases'
p6168
tp6169
(lp6170
s(S'FOXA1'
p6171
S'FOXD3'
p6172
S'increases'
p6173
tp6174
(lp6175
s(S'CART1'
p6176
S'EN1'
p6177
S'increases'
p6178
tp6179
(lp6180
s(S'MAX'
p6181
S'CEBPA'
p6182
S'increases'
p6183
tp6184
(lp6185
s(S'GATA6'
p6186
S'NRAS'
p6187
S'increases'
p6188
tp6189
(lp6190
s(S'PTF1A'
p6191
S'FOXO3'
p6192
S'increases'
p6193
tp6194
(lp6195
s(S'LEF1'
p6196
S'FOXA1'
p6197
S'increases'
p6198
tp6199
(lp6200
s(S'hsa-let-7g-5p'
p6201
S'KRAS'
p6202
S'decreases'
p6203
tp6204
(lp6205
s(S'ZBTB14'
p6206
S'CYP26A1'
p6207
S'increases'
p6208
tp6209
(lp6210
s(S'POU1F1'
p6211
S'FOXO4'
p6212
S'increases'
p6213
tp6214
(lp6215
s(S'PI3K'
p6216
S'PI-4-5-P2'
p6217
S'translocates'
p6218
tp6219
(lp6220
s(S'GABPB2'
p6221
S'NRAS'
p6222
S'increases'
p6223
tp6224
(lp6225
s(S'ELK1'
p6226
S'LEF1'
p6227
S'increases'
p6228
tp6229
(lp6230
s(S'Estrogens'
p6231
S'HRAS MRNA'
p6232
S'increases'
p6233
tp6234
(lp6235
s(S'CYP26A1'
p6236
S'CEBPA'
p6237
S'increases'
p6238
tp6239
(lp6240
s(S'SPI1'
p6241
S'POU2F1'
p6242
S'increases'
p6243
tp6244
(lp6245
s(S'PPARG'
p6246
S'CYP26A1'
p6247
S'increases'
p6248
tp6249
(lp6250
s(S'Asbestos, Serpentine'
p6251
S'HRAS PROTEIN'
p6252
S'increases'
p6253
tp6254
(lp6255
s(S'RET51/GFRALPHA1/GDNF/DOK1'
p6256
S'RASGAP'
p6257
S'binds'
p6258
tp6259
(lp6260
s(S'FOXO1'
p6261
S'GATA6'
p6262
S'increases'
p6263
tp6264
(lp6265
s(S'Cadmium'
p6266
S'KRAS PROTEIN'
p6267
S'increases'
p6268
tp6269
(lp6270
s(S'MAX'
p6271
S'EN1'
p6272
S'increases'
p6273
tp6274
(lp6275
s(S'TLX2'
p6276
S'NRAS'
p6277
S'increases'
p6278
tp6279
(lp6280
s(S'SREBF1'
p6281
S'CYP26A1'
p6282
S'increases'
p6283
tp6284
(lp6285
s(S'SMAD3'
p6286
S'MEIS1'
p6287
S'increases'
p6288
tp6289
(lp6290
s(S'Acetaminophen'
p6291
S'NRAS MRNA'
p6292
S'decreases'
p6293
tp6294
(lp6295
s(S'LEF1'
p6296
S'ETS1'
p6297
S'increases'
p6298
tp6299
(lp6300
s(S'SRF'
p6301
S'MEIS1'
p6302
S'increases'
p6303
tp6304
(lp6305
s(S'BRAF'
p6306
S'MKK3-MKK6'
p6307
S'increases_activity'
p6308
tp6309
(lp6310
s(S'HRAS/GTP'
p6311
S'RAF1'
p6312
S'adds_modification'
p6313
tp6314
(lp6315
s(S'MSX1'
p6316
S'CYP26A1'
p6317
S'increases'
p6318
tp6319
(lp6320
s(S'GATA4'
p6321
S'ETS1'
p6322
S'increases'
p6323
tp6324
(lp6325
s(S'E4F1'
p6326
S'FOXA1'
p6327
S'increases'
p6328
tp6329
(lp6330
s(S'FOXD1'
p6331
S'LEF1'
p6332
S'increases'
p6333
tp6334
(lp6335
s(S'CUX1'
p6336
S'MAX'
p6337
S'increases'
p6338
tp6339
(lp6340
s(S'CYP26A1'
p6341
S'CBFA2T3'
p6342
S'increases'
p6343
tp6344
(lp6345
s(S'CAM/CA2+'
p6346
S'KRAS ISOFORM 4B/GTP'
p6347
S'binds'
p6348
tp6349
(lp6350
s(S'MYOG'
p6351
S'STAT5A'
p6352
S'increases'
p6353
tp6354
(lp6355
s(S'MYOD1'
p6356
S'STAT5A'
p6357
S'increases'
p6358
tp6359
(lp6360
s(S'HNF1A'
p6361
S'POU3F2'
p6362
S'increases'
p6363
tp6364
(lp6365
s(S'EPH'
p6366
S'EPHR'
p6367
S'binds'
p6368
tp6369
(lp6370
s(S'PDGF:PHOSPHO-PDGF RECEPTOR DIMER'
p6371
S'GRB2:SOS1'
p6372
S'binds'
p6373
tp6374
(lp6375
s(S'HRAS/GTP'
p6376
S'PI3K'
p6377
S'increases_activity'
p6378
tp6379
(lp6380
s(S'RUNX1'
p6381
S'TLX2'
p6382
S'increases'
p6383
tp6384
(lp6385
s(S'MYOG'
p6386
S'CYP26A1'
p6387
S'increases'
p6388
tp6389
(lp6390
s(S'PAX2'
p6391
S'EN1'
p6392
S'increases'
p6393
tp6394
(lp6395
s(S'TFCP2'
p6396
S'CYP26A1'
p6397
S'increases'
p6398
tp6399
(lp6400
s(S'hsa-miR-145-5p'
p6401
S'NRAS'
p6402
S'decreases'
p6403
tp6404
(lp6405
s(S'KAT2B'
p6406
S'GATA1'
p6407
S'increases'
p6408
tp6409
(lp6410
s(S'P-EGFR MUTANTS:P-Y349,350-SHC1'
p6411
S'GRB2:SOS1'
p6412
S'binds'
p6413
tp6414
(lp6415
s(S'E2F1'
p6416
S'MECOM'
p6417
S'increases'
p6418
tp6419
(lp6420
s(S'GNB1/GNG2'
p6421
S'SRC'
p6422
S'adds_modification'
p6423
tp6424
(lp6425
s(S'ZBTB14'
p6426
S'MAX'
p6427
S'increases'
p6428
tp6429
(lp6430
s(S'RALGDS'
p6431
S'P21 RAS:GTP'
p6432
S'binds'
p6433
tp6434
(lp6435
s(S'RHOA/GTP'
p6436
S'ROCK2'
p6437
S'increases_activity'
p6438
tp6439
(lp6440
s(S'NR1H3'
p6441
S'FOXD3'
p6442
S'increases'
p6443
tp6444
(lp6445
s(S'TFAP4'
p6446
S'GATA1'
p6447
S'increases'
p6448
tp6449
(lp6450
s(S'FOXA1'
p6451
S'GATA6'
p6452
S'increases'
p6453
tp6454
(lp6455
s(S'GRB2:SOS1'
p6456
S'P-SHC'
p6457
S'binds'
p6458
tp6459
(lp6460
s(S'E2F1'
p6461
S'FOXO3'
p6462
S'increases'
p6463
tp6464
(lp6465
s.