(dp0
S'bio.bmtr_0005.16'
p1
(lp2
S'a'
p3
accopy_reg
_reconstructor
p4
(cnetworkx.classes.multidigraph
MultiDiGraph
p5
c__builtin__
object
p6
Ntp7
Rp8
(dp9
S'node'
p10
(dp11
S'f2'
p12
(dp13
S'instance'
p14
S'fragment'
p15
sS'child_num'
p16
I0
sS'parent'
p17
S'c'
p18
ssS'n3:0:"serine"'
p19
(dp20
g14
S'"serine"'
p21
sg16
I0
sg17
S'n3'
p22
ssS'o3'
p23
(dp24
g14
S'ordinal-entity'
p25
sg16
I11
sg17
g3
ssS'o2'
p26
(dp27
g14
S'other'
p28
sg16
I7
sg17
g3
ssS'p2'
p29
(dp30
g14
S'protein'
p31
sg16
I0
sg17
S'f'
p32
ssS'a4:0:827'
p33
(dp34
g14
S'827'
p35
sg16
I0
sg17
S'a4'
p36
ssS'n2:0:"ASPP2"'
p37
(dp38
g14
S'"ASPP2"'
p39
sg16
I0
sg17
S'n2'
p40
ssS'o3:0:2'
p41
(dp42
g14
S'2'
p43
sg16
I0
sg17
g23
ssS'a3'
p44
(dp45
g14
S'and'
p46
sg16
I6
sg17
g3
ssS'a2'
p47
(dp48
g14
S'and'
p49
sg16
I3
sg17
g3
ssg36
(dp50
g14
S'amino-acid'
p51
sg16
I0
sg17
S'p3'
p52
ssS'c2'
p53
(dp54
g14
S'contain-01'
p55
sg16
I10
sg17
g3
ssS'e2'
p56
(dp57
g14
S'enzyme'
p58
sg16
I2
sg17
g3
ssg3
(dp59
g14
S'amr-glue'
p60
sg16
I0
sg17
Nssg52
(dp61
g14
S'phosphorylate-01'
p62
sg16
I12
sg17
g3
ssg18
(dp63
g14
S'correspond-01'
p64
sg16
I8
sg17
g3
ssS'e'
p65
(dp66
g14
S'except-01'
p67
sg16
I1
sg17
S'o'
p68
ssS'n:0:"GST"'
p69
(dp70
g14
S'"GST"'
p71
sg16
I0
sg17
S'n'
p72
ssS'r2'
p73
(dp74
g14
S'radioactive'
p75
sg16
I2
sg17
g68
ssS'r3'
p76
(dp77
g14
S'region'
p78
sg16
I1
sg17
g3
ssg32
(dp79
g14
S'fragment'
p80
sg16
I5
sg17
g3
ssS'm'
p81
(dp82
g14
S'mass'
p83
sg16
I0
sg17
g12
ssg68
(dp84
g14
S'one'
p85
sg16
I0
sg17
S'r'
p86
ssg72
(dp87
g14
S'name'
p88
sg16
I0
sg17
g56
ssS'p'
p89
(dp90
g14
S'peak'
p91
sg16
I0
sg17
g65
ssS's'
p92
(dp93
g14
S'same-41'
p94
sg16
I0
sg17
g81
ssg86
(dp95
g14
S'represent-01'
p96
sg16
I0
sg17
g3
ssS't'
p97
(dp98
g14
S'that'
p99
sg16
I9
sg17
g3
ssS'w'
p100
(dp101
g14
S'we'
p102
sg16
I4
sg17
g3
ssS'o:0:2'
p103
(dp104
g14
g43
sg16
I0
sg17
g68
ssg40
(dp105
g14
S'name'
p106
sg16
I0
sg17
g29
ssg22
(dp107
g14
S'name'
p108
sg16
I1
sg17
g36
sssS'graph'
p109
(dp110
sS'succ'
p111
(dp112
g12
(dp113
g81
(dp114
I0
(dp115
S'relation'
p116
S'ARG1'
p117
ssssg19
(dp118
sg23
(dp119
g41
(dp120
I0
(dp121
g116
S'value'
p122
ssssg26
(dp123
sg29
(dp124
g40
(dp125
I0
(dp126
g116
S'name'
p127
ssssg33
(dp128
sg37
(dp129
sg41
(dp130
sg44
(dp131
sg47
(dp132
sg36
(dp133
g33
(dp134
I0
(dp135
g116
S'mod'
p136
sssg22
(dp137
I0
(dp138
g116
S'name'
p139
ssssg53
(dp140
sg56
(dp141
g72
(dp142
I0
(dp143
g116
S'name'
p144
ssssg3
(dp145
g52
(dp146
I0
(dp147
g116
S'glue13'
p148
sssg18
(dp149
I0
(dp150
g116
S'glue9'
p151
sssg32
(dp152
I0
(dp153
g116
S'glue6'
p154
sssg76
(dp155
I0
(dp156
g116
S'glue2'
p157
sssg44
(dp158
I0
(dp159
g116
S'glue7'
p160
sssg47
(dp161
I0
(dp162
g116
S'glue4'
p163
sssg97
(dp164
I0
(dp165
g116
S'glue10'
p166
sssg100
(dp167
I0
(dp168
g116
S'glue5'
p169
sssg53
(dp170
I0
(dp171
g116
S'glue11'
p172
sssg86
(dp173
I0
(dp174
g116
S'glue1'
p175
sssg23
(dp176
I0
(dp177
g116
S'glue12'
p178
sssg26
(dp179
I0
(dp180
g116
S'glue8'
p181
sssg56
(dp182
I0
(dp183
g116
S'glue3'
p184
ssssg52
(dp185
g36
(dp186
I0
(dp187
g116
S'ARG1'
p188
ssssg18
(dp189
g12
(dp190
I0
(dp191
g116
S'ARG1'
p192
ssssg65
(dp193
g89
(dp194
I0
(dp195
g116
S'ARG1'
p196
ssssg69
(dp197
sg73
(dp198
sg76
(dp199
sg32
(dp200
g29
(dp201
I0
(dp202
g116
S'mod'
p203
ssssg81
(dp204
g92
(dp205
I0
(dp206
g116
S'ARG1-of'
p207
ssssg68
(dp208
g103
(dp209
I0
(dp210
g116
S'quant'
p211
sssg65
(dp212
I0
(dp213
g116
S'ARG2-of'
p214
sssg73
(dp215
I0
(dp216
g116
S'mod'
p217
ssssg72
(dp218
g69
(dp219
I0
(dp220
g116
S'op1'
p221
ssssg89
(dp222
sg92
(dp223
sg86
(dp224
g68
(dp225
I0
(dp226
g116
S'ARG1'
p227
ssssg97
(dp228
sg100
(dp229
sg103
(dp230
sg40
(dp231
g37
(dp232
I0
(dp233
g116
S'op1'
p234
ssssg22
(dp235
g19
(dp236
I0
(dp237
g116
S'op1'
p238
sssssS'edge'
p239
g112
sS'pred'
p240
(dp241
g12
(dp242
g18
g190
ssg19
(dp243
g22
g236
ssg23
(dp244
g3
g176
ssg26
(dp245
g3
g179
ssg29
(dp246
g32
g201
ssg33
(dp247
g36
g134
ssg37
(dp248
g40
g232
ssg41
(dp249
g23
g120
ssg44
(dp250
g3
g158
ssg47
(dp251
g3
g161
ssg36
(dp252
g52
g186
ssg53
(dp253
g3
g170
ssg56
(dp254
g3
g182
ssg3
(dp255
sg52
(dp256
g3
g146
ssg18
(dp257
g3
g149
ssg65
(dp258
g68
g212
ssg69
(dp259
g72
g219
ssg73
(dp260
g68
g215
ssg76
(dp261
g3
g155
ssg32
(dp262
g3
g152
ssg81
(dp263
g12
g114
ssg68
(dp264
g86
g225
ssg72
(dp265
g56
g142
ssg89
(dp266
g65
g194
ssg92
(dp267
g81
g205
ssg86
(dp268
g3
g173
ssg97
(dp269
g3
g164
ssg100
(dp270
g3
g167
ssg103
(dp271
g68
g209
ssg40
(dp272
g29
g125
ssg22
(dp273
g36
g137
sssS'adj'
p274
g112
sbaS'Of the two radioactive peaks , one represented the linker region between the GST and our ASPP2 fragment and the other corresponded to a fragment of the same mass as that containing the second putative phosphorylation site , serine 827 .'
p275
asS'bio.bmtr_0005.17'
p276
(lp277
g89
ag4
(g5
g6
Ntp278
Rp279
(dp280
g10
(dp281
g3
(dp282
g14
S'amino-acid'
p283
sg16
I1
sg17
g89
ssS'p3'
p284
(dp285
g14
S'protein'
p286
sg16
I0
sg17
g89
ssg18
(dp287
g14
S'cause-01'
p288
sg16
I1
sg17
g284
ssS'a:0:827'
p289
(dp290
g14
S'827'
p291
sg16
I0
sg17
g3
ssg65
(dp292
g14
S'enzyme'
p293
sg16
I2
sg17
g89
ssS'p2'
p294
(dp295
g14
S'possible'
p296
sg16
I3
sg17
g89
ssS'n3:0:"ASPP2"'
p297
(dp298
g14
S'"ASPP2"'
p299
sg16
I0
sg17
S'n3'
p300
ssS'i'
p301
(dp302
g14
S'in-vitro'
p303
sg16
I4
sg17
g89
ssg72
(dp304
g14
S'name'
p305
sg16
I1
sg17
g3
ssg89
(dp306
g14
S'phosphorylate-01'
p307
sg16
I0
sg17
NssS'b'
p308
(dp309
g14
S'be-located-at-91'
p310
sg16
I2
sg17
g3
ssS'n2:0:"MAPK1"'
p311
(dp312
g14
S'"MAPK1"'
p313
sg16
I0
sg17
S'n2'
p314
ssS'n:0:"serine"'
p315
(dp316
g14
S'"serine"'
p317
sg16
I0
sg17
g72
ssg300
(dp318
g14
S'name'
p319
sg16
I0
sg17
g284
ssg314
(dp320
g14
S'name'
p321
sg16
I0
sg17
g65
sssg109
(dp322
sg111
(dp323
g3
(dp324
g289
(dp325
I0
(dp326
g116
S'mod'
p327
sssg308
(dp328
I0
(dp329
g116
S'ARG1-of'
p330
sssg72
(dp331
I0
(dp332
g116
S'name'
p333
ssssg284
(dp334
g18
(dp335
I0
(dp336
g116
S'ARG0-of'
p337
sssg300
(dp338
I0
(dp339
g116
S'name'
p340
ssssg18
(dp341
sg289
(dp342
sg65
(dp343
g314
(dp344
I0
(dp345
g116
S'name'
p346
ssssg294
(dp347
sg297
(dp348
sg301
(dp349
sg72
(dp350
g315
(dp351
I0
(dp352
g116
S'op1'
p353
ssssg89
(dp354
g3
(dp355
I0
(dp356
g116
S'ARG1'
p357
sssg284
(dp358
I0
(dp359
g116
S'ARG0'
p360
sssg294
(dp361
I0
(dp362
g116
S'mod'
p363
sssg65
(dp364
I0
(dp365
g116
S'ARG2'
p366
sssg301
(dp367
I0
(dp368
g116
S'manner'
p369
ssssg308
(dp370
sg311
(dp371
sg315
(dp372
sg300
(dp373
g297
(dp374
I0
(dp375
g116
S'op1'
p376
ssssg314
(dp377
g311
(dp378
I0
(dp379
g116
S'op1'
p380
sssssg239
g323
sg240
(dp381
g3
(dp382
g89
g355
ssg284
(dp383
g89
g358
ssg18
(dp384
g284
g335
ssg289
(dp385
g3
g325
ssg65
(dp386
g89
g364
ssg294
(dp387
g89
g361
ssg297
(dp388
g300
g374
ssg301
(dp389
g89
g367
ssg72
(dp390
g3
g331
ssg89
(dp391
sg308
(dp392
g3
g328
ssg311
(dp393
g314
g378
ssg315
(dp394
g72
g351
ssg300
(dp395
g284
g338
ssg314
(dp396
g65
g344
sssg274
g323
sbaS'Hence ASPP2 can be phosphorylated at serine 827 by MAPK1 in vitro .'
p397
asS'bio.bmtr_0005.14'
p398
(lp399
g97
ag4
(g5
g6
Ntp400
Rp401
(dp402
g10
(dp403
g18
(dp404
g14
S'contain-01'
p405
sg16
I0
sg17
g97
ssg65
(dp406
g14
S'elute-00'
p407
sg16
I0
sg17
g81
ssS'r2'
p408
(dp409
g14
S'radioactivity'
p410
sg16
I1
sg17
g81
ssg32
(dp411
g14
S'figure'
p412
sg16
I0
sg17
g301
ssg301
(dp413
g14
S'include-91'
p414
sg16
I1
sg17
g97
ssS'i2'
p415
(dp416
g14
S'include-91'
p417
sg16
I1
sg17
g32
ssg81
(dp418
g14
S'measure-01'
p419
sg16
I2
sg17
g97
ssS'f2'
p420
(dp421
g14
S'fraction'
p422
sg16
I0
sg17
g65
ssg89
(dp423
g14
S'panel'
p424
sg16
I0
sg17
g415
ssg86
(dp425
g14
S'right'
p426
sg16
I0
sg17
g89
ssS'f:0:"1B"'
p427
(dp428
g14
S'"1B"'
p429
sg16
I0
sg17
g32
ssS'e2'
p430
(dp431
g14
S'each'
p432
sg16
I2
sg17
g81
ssg97
(dp433
g14
S'thing'
p434
sg16
I0
sg17
Nsssg109
(dp435
sg111
(dp436
g18
(dp437
sg65
(dp438
g420
(dp439
I0
(dp440
g116
S'ARG3'
p441
ssssg408
(dp442
sg32
(dp443
g415
(dp444
I0
(dp445
g116
S'ARG2-of'
p446
sssg427
(dp447
I0
(dp448
g116
S'mod'
p449
ssssg301
(dp450
g32
(dp451
I0
(dp452
g116
S'ARG1'
p453
ssssg415
(dp454
g89
(dp455
I0
(dp456
g116
S'ARG1'
p457
ssssg81
(dp458
g65
(dp459
I0
(dp460
g116
S'ARG1'
p461
sssg408
(dp462
I0
(dp463
g116
S'ARG2'
p464
sssg430
(dp465
I0
(dp466
g116
S'quant'
p467
ssssg420
(dp468
sg89
(dp469
g86
(dp470
I0
(dp471
g116
S'mod'
p472
ssssg86
(dp473
sg427
(dp474
sg430
(dp475
sg97
(dp476
g301
(dp477
I0
(dp478
g116
S'ARG2-of'
p479
sssg18
(dp480
I0
(dp481
g116
S'ARG1-of'
p482
sssg81
(dp483
I0
(dp484
g116
S'manner-of'
p485
sssssg239
g436
sg240
(dp486
g18
(dp487
g97
g480
ssg65
(dp488
g81
g459
ssg408
(dp489
g81
g462
ssg32
(dp490
g301
g451
ssg301
(dp491
g97
g477
ssg415
(dp492
g32
g444
ssg81
(dp493
g97
g483
ssg420
(dp494
g65
g439
ssg89
(dp495
g415
g455
ssg86
(dp496
g89
g470
ssg427
(dp497
g32
g447
ssg430
(dp498
g81
g465
ssg97
(dp499
ssg274
g436
sbaS'Each eluted fraction was measured for its radioactivity content ( Figure 1B , right panel ) .'
p500
asS'bio.bmtr_0005.7'
p501
(lp502
g3
ag4
(g5
g6
Ntp503
Rp504
(dp505
g10
(dp506
g3
(dp507
g14
S'amr-glue'
p508
sg16
I0
sg17
NssS'p2'
p509
(dp510
g14
S'phosphorylate-01'
p511
sg16
I0
sg17
g89
ssg18
(dp512
g14
S'conserve-01'
p513
sg16
I1
sg17
g68
ssg65
(dp514
g14
S'enzyme'
p515
sg16
I2
sg17
g89
ssS'p4'
p516
(dp517
g14
S'protein'
p518
sg16
I1
sg17
S'a2'
p519
ssS'n:0:"ASPP1"'
p520
(dp521
g14
S'"ASPP1"'
p522
sg16
I0
sg17
g72
ssS'p3'
p523
(dp524
g14
S'protein'
p525
sg16
I1
sg17
g89
ssg301
(dp526
g14
S'interesting'
p527
sg16
I0
sg17
g3
ssS'n3:0:"ASPP2"'
p528
(dp529
g14
S'"ASPP2"'
p530
sg16
I0
sg17
S'n3'
p531
ssg68
(dp532
g14
S'observe-01'
p533
sg16
I1
sg17
g3
ssg72
(dp534
g14
S'name'
p535
sg16
I0
sg17
g523
ssS'n2:0:"MAPK"'
p536
(dp537
g14
S'"MAPK"'
p538
sg16
I0
sg17
S'n2'
p539
ssg89
(dp540
g14
S'protein-segment'
p541
sg16
I0
sg17
g519
ssg519
(dp542
g14
S'and'
p543
sg16
I2
sg17
g3
ssS'c:0:2'
p544
(dp545
g14
g43
sg16
I0
sg17
g18
ssg100
(dp546
g14
S'we'
p547
sg16
I0
sg17
g68
ssg539
(dp548
g14
S'name'
p549
sg16
I0
sg17
g65
ssg531
(dp550
g14
S'name'
p551
sg16
I0
sg17
g516
sssg109
(dp552
sg111
(dp553
g3
(dp554
g301
(dp555
I0
(dp556
g116
S'glue1'
p557
sssg519
(dp558
I0
(dp559
g116
S'glue3'
p560
sssg68
(dp561
I0
(dp562
g116
S'glue2'
p563
ssssg509
(dp564
sg18
(dp565
g544
(dp566
I0
(dp567
g116
S'quant'
p568
ssssg65
(dp569
g539
(dp570
I0
(dp571
g116
S'name'
p572
ssssg516
(dp573
g531
(dp574
I0
(dp575
g116
S'name'
p576
ssssg520
(dp577
sg523
(dp578
g72
(dp579
I0
(dp580
g116
S'name'
p581
ssssg301
(dp582
sg528
(dp583
sg68
(dp584
g18
(dp585
I0
(dp586
g116
S'ARG1'
p587
sssg100
(dp588
I0
(dp589
g116
S'ARG0'
p590
ssssg72
(dp591
g520
(dp592
I0
(dp593
g116
S'op1'
p594
ssssg536
(dp595
sg89
(dp596
g509
(dp597
I0
(dp598
g116
S'ARG1-of'
p599
sssg523
(dp600
I0
(dp601
g116
S'location'
p602
sssg65
(dp603
I0
(dp604
g116
S'part-of'
p605
ssssg519
(dp606
g89
(dp607
I0
(dp608
g116
S'op1'
p609
sssg516
(dp610
I0
(dp611
g116
S'op2'
p612
ssssg544
(dp613
sg100
(dp614
sg539
(dp615
g536
(dp616
I0
(dp617
g116
S'op1'
p618
ssssg531
(dp619
g528
(dp620
I0
(dp621
g116
S'op1'
p622
sssssg239
g553
sg240
(dp623
g3
(dp624
sg509
(dp625
g89
g597
ssg18
(dp626
g68
g585
ssg65
(dp627
g89
g603
ssg516
(dp628
g519
g610
ssg520
(dp629
g72
g592
ssg523
(dp630
g89
g600
ssg301
(dp631
g3
g555
ssg528
(dp632
g531
g620
ssg68
(dp633
g3
g561
ssg72
(dp634
g523
g579
ssg536
(dp635
g539
g616
ssg89
(dp636
g519
g607
ssg519
(dp637
g3
g558
ssg544
(dp638
g18
g566
ssg100
(dp639
g68
g588
ssg539
(dp640
g65
g570
ssg531
(dp641
g516
g574
sssg274
g553
sbaS'Interestingly , we observed two conserved putative MAPK phosphorylation sites in ASPP1 and ASPP2 .'
p642
asS'bio.bmtr_0005.12'
p643
(lp644
g3
ag4
(g5
g6
Ntp645
Rp646
(dp647
g10
(dp648
S'f2:0:"S1"'
p649
(dp650
g14
S'"S1"'
p651
sg16
I0
sg17
S'f2'
p652
ssg652
(dp653
g14
S'figure'
p654
sg16
I0
sg17
g92
ssS'f3'
p655
(dp656
g14
S'fragment'
p657
sg16
I0
sg17
S'p2'
p658
ssS'n:1:"SAPK"'
p659
(dp660
g14
S'"SAPK"'
p661
sg16
I1
sg17
g72
ssS'h2'
p662
(dp663
g14
S'histone'
p664
sg16
I3
sg17
S'l'
p665
ssS'n4:0:"ASPP2"'
p666
(dp667
g14
S'"ASPP2"'
p668
sg16
I0
sg17
S'n4'
p669
ssS'n5:0:"ASPP2"'
p670
(dp671
g14
S'"ASPP2"'
p672
sg16
I0
sg17
S'n5'
p673
ssg18
(dp674
g14
S'condition'
p675
sg16
I3
sg17
g658
ssS'p4:0:-'
p676
(dp677
g14
S'-'
p678
sg16
I0
sg17
S'p4'
p679
ssS'e4'
p680
(dp681
g14
S'efficient-41'
p682
sg16
I0
sg17
S'k'
p683
ssS'c:0:693'
p684
(dp685
g14
S'693'
p686
sg16
I0
sg17
g18
ssS's3'
p687
(dp688
g14
S'same-41'
p689
sg16
I3
sg17
g18
ssS's2'
p690
(dp691
g14
S'suggest-01'
p692
sg16
I1
sg17
g3
ssS'n2:1:"SAPK"'
p693
(dp694
g14
S'"SAPK"'
p695
sg16
I1
sg17
S'n2'
p696
ssS'n:0:"p38"'
p697
(dp698
g14
S'"p38"'
p699
sg16
I0
sg17
g72
ssS'u'
p700
(dp701
g14
S'under'
p702
sg16
I4
sg17
g18
ssS'n6:1:"SAPK"'
p703
(dp704
g14
S'"SAPK"'
p705
sg16
I1
sg17
S'n6'
p706
ssS'n2:0:"p38"'
p707
(dp708
g14
S'"p38"'
p709
sg16
I0
sg17
g696
ssS'i3'
p710
(dp711
g14
S'indicate-01'
p712
sg16
I4
sg17
g3
ssS'i2'
p713
(dp714
g14
S'incorporate-01'
p715
sg16
I0
sg17
S'l2'
p716
ssS'n3:1:"SAPK"'
p717
(dp718
g14
S'"SAPK"'
p719
sg16
I1
sg17
S'n3'
p720
ssS'n3:0:"p38"'
p721
(dp722
g14
S'"p38"'
p723
sg16
I0
sg17
g720
ssS'a2'
p724
(dp725
g14
S'active'
p726
sg16
I2
sg17
g3
ssS'n6:0:"p38"'
p727
(dp728
g14
S'"p38"'
p729
sg16
I0
sg17
g706
ssS'e5'
p730
(dp731
g14
S'enzyme'
p732
sg16
I2
sg17
g679
ssS'c2'
p733
(dp734
g14
S'contrast-01'
p735
sg16
I0
sg17
g81
ssS'c:1:1128'
p736
(dp737
g14
S'1128'
p738
sg16
I1
sg17
g18
ssS'e3'
p739
(dp740
g14
S'enzyme'
p741
sg16
I2
sg17
g658
ssS'e2'
p742
(dp743
g14
S'enzyme'
p744
sg16
I0
sg17
g690
ssg3
(dp745
g14
S'amr-glue'
p746
sg16
I0
sg17
NssS'p3'
p747
(dp748
g14
S'protein'
p749
sg16
I2
sg17
g18
ssS'f:0:"2B"'
p750
(dp751
g14
S'"2B"'
p752
sg16
I0
sg17
g32
ssg308
(dp753
g14
S'by'
p754
sg16
I0
sg17
g89
ssg65
(dp755
g14
S'enzyme'
p756
sg16
I2
sg17
g665
ssS'd'
p757
(dp758
g14
S'describe-01'
p759
sg16
I2
sg17
g65
ssg679
(dp760
g14
S'phosphorylate-01'
p761
sg16
I0
sg17
g710
ssg32
(dp762
g14
S'figure'
p763
sg16
I0
sg17
g757
ssg301
(dp764
g14
S'incorporate-01'
p765
sg16
I0
sg17
g665
ssS'h'
p766
(dp767
g14
S'high'
p768
sg16
I1
sg17
g665
ssg683
(dp769
g14
S'kinase'
p770
sg16
I1
sg17
g679
ssS'p5'
p771
(dp772
g14
S'protein'
p773
sg16
I1
sg17
g683
ssg81
(dp774
g14
S'mean-01'
p775
sg16
I5
sg17
g18
ssg665
(dp776
g14
S'level'
p777
sg16
I0
sg17
g3
ssg72
(dp778
g14
S'name'
p779
sg16
I0
sg17
g65
ssg89
(dp780
g14
S'phosphorylate-01'
p781
sg16
I1
sg17
g65
ssg92
(dp782
g14
S'show-01'
p783
sg16
I0
sg17
g662
ssg658
(dp784
g14
S'phosphorylate-01'
p785
sg16
I3
sg17
g3
ssg716
(dp786
g14
S'level'
p787
sg16
I1
sg17
g658
ssS'l3'
p788
(dp789
g14
S'low'
p790
sg16
I1
sg17
g716
ssS'v'
p791
(dp792
g14
S'very'
p793
sg16
I0
sg17
g788
ssg696
(dp794
g14
S'name'
p795
sg16
I0
sg17
g742
ssg720
(dp796
g14
S'name'
p797
sg16
I0
sg17
g739
ssg669
(dp798
g14
S'name'
p799
sg16
I0
sg17
g747
ssg673
(dp800
g14
S'name'
p801
sg16
I0
sg17
g771
ssg706
(dp802
g14
S'name'
p803
sg16
I0
sg17
g730
sssg109
(dp804
sg111
(dp805
g649
(dp806
sg652
(dp807
g649
(dp808
I0
(dp809
g116
S'mod'
p810
ssssg655
(dp811
sg659
(dp812
sg662
(dp813
g92
(dp814
I0
(dp815
g116
S'prep-as'
p816
ssssg666
(dp817
sg670
(dp818
sg18
(dp819
g747
(dp820
I0
(dp821
g116
S'mod'
p822
sssg684
(dp823
I0
(dp824
g116
S'quant'
p825
sssg687
(dp826
I0
(dp827
g116
S'mod'
p828
sssg81
(dp829
I0
(dp830
g116
S'ARG0-of'
p831
sssg700
(dp832
I0
(dp833
g116
S'mod'
p834
sssg736
(dp835
I0
(dp836
g116
S'quant'
p837
ssssg676
(dp838
sg680
(dp839
sg684
(dp840
sg687
(dp841
sg690
(dp842
g742
(dp843
I0
(dp844
g116
S'ARG1'
p845
ssssg693
(dp846
sg697
(dp847
sg700
(dp848
sg703
(dp849
sg707
(dp850
sg710
(dp851
g679
(dp852
I0
(dp853
g116
S'ARG1'
p854
ssssg713
(dp855
sg717
(dp856
sg721
(dp857
sg724
(dp858
sg727
(dp859
sg730
(dp860
g706
(dp861
I0
(dp862
g116
S'name'
p863
ssssg733
(dp864
sg736
(dp865
sg739
(dp866
g720
(dp867
I0
(dp868
g116
S'name'
p869
ssssg742
(dp870
g696
(dp871
I0
(dp872
g116
S'name'
p873
ssssg3
(dp874
g658
(dp875
I0
(dp876
g116
S'glue4'
p877
sssg690
(dp878
I0
(dp879
g116
S'glue2'
p880
sssg710
(dp881
I0
(dp882
g116
S'glue5'
p883
sssg724
(dp884
I0
(dp885
g116
S'glue3'
p886
sssg665
(dp887
I0
(dp888
g116
S'glue1'
p889
ssssg747
(dp890
g669
(dp891
I0
(dp892
g116
S'name'
p893
ssssg750
(dp894
sg308
(dp895
sg65
(dp896
g89
(dp897
I0
(dp898
g116
S'ARG3-of'
p899
sssg757
(dp900
I0
(dp901
g116
S'ARG1-of'
p902
sssg72
(dp903
I0
(dp904
g116
S'name'
p905
ssssg757
(dp906
g32
(dp907
I0
(dp908
g116
S'ARG0'
p909
ssssg679
(dp910
g730
(dp911
I0
(dp912
g116
S'ARG2'
p913
sssg683
(dp914
I0
(dp915
g116
S'ARG1'
p916
sssg676
(dp917
I0
(dp918
g116
S'polarity'
p919
ssssg32
(dp920
g750
(dp921
I0
(dp922
g116
S'mod'
p923
ssssg301
(dp924
sg766
(dp925
sg683
(dp926
g680
(dp927
I0
(dp928
g116
S'ARG1-of'
p929
sssg771
(dp930
I0
(dp931
g116
S'purpose'
p932
ssssg771
(dp933
g673
(dp934
I0
(dp935
g116
S'name'
p936
ssssg81
(dp937
g733
(dp938
I0
(dp939
g116
S'ARG1'
p940
ssssg665
(dp941
g301
(dp942
I0
(dp943
g116
S'ARG1'
p944
sssg766
(dp945
I0
(dp946
g116
S'mod'
p947
sssg65
(dp948
I0
(dp949
g116
S'mod'
p950
sssg662
(dp951
I0
(dp952
g116
S'mod'
p953
ssssg72
(dp954
g697
(dp955
I0
(dp956
g116
S'op1'
p957
sssg659
(dp958
I0
(dp959
g116
S'op2'
p960
ssssg89
(dp961
g308
(dp962
I0
(dp963
g116
S'time'
p964
ssssg92
(dp965
g652
(dp966
I0
(dp967
g116
S'location'
p968
ssssg658
(dp969
g18
(dp970
I0
(dp971
g116
S'subevent-of'
p972
sssg655
(dp973
I0
(dp974
g116
S'ARG0'
p975
sssg716
(dp976
I0
(dp977
g116
S'ARG1'
p978
sssg739
(dp979
I0
(dp980
g116
S'ARG2'
p981
ssssg716
(dp982
g713
(dp983
I0
(dp984
g116
S'ARG2-of'
p985
sssg788
(dp986
I0
(dp987
g116
S'mod'
p988
ssssg788
(dp989
g791
(dp990
I0
(dp991
g116
S'degree'
p992
ssssg791
(dp993
sg696
(dp994
g707
(dp995
I0
(dp996
g116
S'op1'
p997
sssg693
(dp998
I0
(dp999
g116
S'op2'
p1000
ssssg720
(dp1001
g721
(dp1002
I0
(dp1003
g116
S'op1'
p1004
sssg717
(dp1005
I0
(dp1006
g116
S'op2'
p1007
ssssg669
(dp1008
g666
(dp1009
I0
(dp1010
g116
S'op1'
p1011
ssssg673
(dp1012
g670
(dp1013
I0
(dp1014
g116
S'op1'
p1015
ssssg706
(dp1016
g727
(dp1017
I0
(dp1018
g116
S'op1'
p1019
sssg703
(dp1020
I0
(dp1021
g116
S'op2'
p1022
sssssg239
g805
sg240
(dp1023
g649
(dp1024
g652
g808
ssg652
(dp1025
g92
g966
ssg655
(dp1026
g658
g973
ssg659
(dp1027
g72
g958
ssg662
(dp1028
g665
g951
ssg666
(dp1029
g669
g1009
ssg670
(dp1030
g673
g1013
ssg18
(dp1031
g658
g970
ssg676
(dp1032
g679
g917
ssg680
(dp1033
g683
g927
ssg684
(dp1034
g18
g823
ssg687
(dp1035
g18
g826
ssg690
(dp1036
g3
g878
ssg693
(dp1037
g696
g998
ssg697
(dp1038
g72
g955
ssg700
(dp1039
g18
g832
ssg703
(dp1040
g706
g1020
ssg707
(dp1041
g696
g995
ssg710
(dp1042
g3
g881
ssg713
(dp1043
g716
g983
ssg717
(dp1044
g720
g1005
ssg721
(dp1045
g720
g1002
ssg724
(dp1046
g3
g884
ssg727
(dp1047
g706
g1017
ssg730
(dp1048
g679
g911
ssg733
(dp1049
g81
g938
ssg736
(dp1050
g18
g835
ssg739
(dp1051
g658
g979
ssg742
(dp1052
g690
g843
ssg3
(dp1053
sg747
(dp1054
g18
g820
ssg750
(dp1055
g32
g921
ssg308
(dp1056
g89
g962
ssg65
(dp1057
g665
g948
ssg757
(dp1058
g65
g900
ssg679
(dp1059
g710
g852
ssg32
(dp1060
g757
g907
ssg301
(dp1061
g665
g942
ssg766
(dp1062
g665
g945
ssg683
(dp1063
g679
g914
ssg771
(dp1064
g683
g930
ssg81
(dp1065
g18
g829
ssg665
(dp1066
g3
g887
ssg72
(dp1067
g65
g903
ssg89
(dp1068
g65
g897
ssg92
(dp1069
g662
g814
ssg658
(dp1070
g3
g875
ssg716
(dp1071
g658
g976
ssg788
(dp1072
g716
g986
ssg791
(dp1073
g788
g990
ssg696
(dp1074
g742
g871
ssg720
(dp1075
g739
g867
ssg669
(dp1076
g747
g891
ssg673
(dp1077
g771
g934
ssg706
(dp1078
g730
g861
sssg274
g805
sbaS'As shown in Figure S1 , histone 2B phosphorylated by p38 SAPK had high levels of incorporated 32P , suggesting that p38 SAPK was active ; while under the same conditions , ASPP2 ( 693 @-@ 1128 ) fragment phosphorylated by p38 SAPK had very low levels of incorporated 32P , indicating that p38 SAPK is not an efficient kinase for ASPP2 phosphorylation .'
p1079
asS'bio.bmtr_0005.13'
p1080
(lp1081
g3
ag4
(g5
g6
Ntp1082
Rp1083
(dp1084
g10
(dp1085
g3
(dp1086
g14
S'amr-glue'
p1087
sg16
I0
sg17
NssS'p2'
p1088
(dp1089
g14
S'phosphorylate-01'
p1090
sg16
I0
sg17
g757
ssS'f2'
p1091
(dp1092
g14
S'fragment'
p1093
sg16
I0
sg17
g1088
ssS'n3'
p1094
(dp1095
g14
S'name'
p1096
sg16
I0
sg17
S'e2'
p1097
ssg65
(dp1098
g14
S'enzyme'
p1099
sg16
I1
sg17
g1088
ssg757
(dp1100
g14
S'digest-01'
p1101
sg16
I0
sg17
S'a2'
p1102
ssS'p3'
p1103
(dp1104
g14
S'protein'
p1105
sg16
I0
sg17
g1091
ssS'h2'
p1106
(dp1107
g14
S'HPLC'
p1108
sg16
I1
sg17
g3
ssg665
(dp1109
g14
S'liquid'
p1110
sg16
I0
sg17
g18
ssg32
(dp1111
g14
S'fraction-01'
p1112
sg16
I1
sg17
g1102
ssg18
(dp1113
g14
S'chromatography'
p1114
sg16
I0
sg17
g32
ssg72
(dp1115
g14
S'name'
p1116
sg16
I0
sg17
g1103
ssS'n3:0:"trypsin"'
p1117
(dp1118
g14
S'"trypsin"'
p1119
sg16
I0
sg17
g1094
ssg89
(dp1120
g14
S'perform-01'
p1121
sg16
I0
sg17
g665
ssg1102
(dp1122
g14
S'and'
p1123
sg16
I0
sg17
g3
ssS'n2:0:"MAPK1"'
p1124
(dp1125
g14
S'"MAPK1"'
p1126
sg16
I0
sg17
S'n2'
p1127
ssg766
(dp1128
g14
S'high'
p1129
sg16
I0
sg17
g89
ssg1127
(dp1130
g14
S'name'
p1131
sg16
I0
sg17
g65
ssS'n:0:"ASPP2"'
p1132
(dp1133
g14
S'"ASPP2"'
p1134
sg16
I0
sg17
g72
ssg1097
(dp1135
g14
S'enzyme'
p1136
sg16
I1
sg17
g757
sssg109
(dp1137
sg111
(dp1138
g3
(dp1139
g1106
(dp1140
I0
(dp1141
g116
S'glue2'
p1142
sssg1102
(dp1143
I0
(dp1144
g116
S'glue1'
p1145
ssssg1088
(dp1146
g1091
(dp1147
I0
(dp1148
g116
S'ARG1'
p1149
sssg65
(dp1150
I0
(dp1151
g116
S'ARG2'
p1152
ssssg1091
(dp1153
g1103
(dp1154
I0
(dp1155
g116
S'mod'
p1156
ssssg1094
(dp1157
g1117
(dp1158
I0
(dp1159
g116
S'op1'
p1160
ssssg65
(dp1161
g1127
(dp1162
I0
(dp1163
g116
S'name'
p1164
ssssg757
(dp1165
g1088
(dp1166
I0
(dp1167
g116
S'ARG1'
p1168
sssg1097
(dp1169
I0
(dp1170
g116
S'ARG2'
p1171
ssssg1103
(dp1172
g72
(dp1173
I0
(dp1174
g116
S'name'
p1175
ssssg1106
(dp1176
sg665
(dp1177
g89
(dp1178
I0
(dp1179
g116
S'ARG0-of'
p1180
ssssg32
(dp1181
g18
(dp1182
I0
(dp1183
g116
S'ARG1'
p1184
ssssg18
(dp1185
g665
(dp1186
I0
(dp1187
g116
S'mod'
p1188
ssssg72
(dp1189
g1132
(dp1190
I0
(dp1191
g116
S'op1'
p1192
ssssg1117
(dp1193
sg89
(dp1194
g766
(dp1195
I0
(dp1196
g116
S'degree'
p1197
ssssg1102
(dp1198
g757
(dp1199
I0
(dp1200
g116
S'op1'
p1201
sssg32
(dp1202
I0
(dp1203
g116
S'op2'
p1204
ssssg1124
(dp1205
sg766
(dp1206
sg1127
(dp1207
g1124
(dp1208
I0
(dp1209
g116
S'op1'
p1210
ssssg1132
(dp1211
sg1097
(dp1212
g1094
(dp1213
I0
(dp1214
g116
S'name'
p1215
sssssg239
g1138
sg240
(dp1216
g3
(dp1217
sg1088
(dp1218
g757
g1166
ssg1091
(dp1219
g1088
g1147
ssg1094
(dp1220
g1097
g1213
ssg65
(dp1221
g1088
g1150
ssg757
(dp1222
g1102
g1199
ssg1103
(dp1223
g1091
g1154
ssg1106
(dp1224
g3
g1140
ssg665
(dp1225
g18
g1186
ssg32
(dp1226
g1102
g1202
ssg18
(dp1227
g32
g1182
ssg72
(dp1228
g1103
g1173
ssg1117
(dp1229
g1094
g1158
ssg89
(dp1230
g665
g1178
ssg1102
(dp1231
g3
g1143
ssg1124
(dp1232
g1127
g1208
ssg766
(dp1233
g89
g1195
ssg1127
(dp1234
g65
g1162
ssg1132
(dp1235
g72
g1190
ssg1097
(dp1236
g757
g1169
sssg274
g1138
sbaS'The phosphorylated ASPP2 fragment by MAPK1 was digested by trypsin and fractioned on a high performance liquid chromatography ( HPLC ) .'
p1237
asS'bio.bmtr_0005.10'
p1238
(lp1239
g3
ag4
(g5
g6
Ntp1240
Rp1241
(dp1242
g10
(dp1243
g3
(dp1244
g14
S'amr-glue'
p1245
sg16
I0
sg17
NssS'p2'
p1246
(dp1247
g14
S'protein'
p1248
sg16
I2
sg17
g89
ssg18
(dp1249
g14
S'contain-01'
p1250
sg16
I4
sg17
S'p5'
p1251
ssS'n3:0:"MAPK"'
p1252
(dp1253
g14
S'"MAPK"'
p1254
sg16
I0
sg17
S'n3'
p1255
ssS'p6'
p1256
(dp1257
g14
S'protein-segment'
p1258
sg16
I2
sg17
g3
ssS'p4'
p1259
(dp1260
g14
S'purify-01'
p1261
sg16
I2
sg17
g1246
ssS'n:0:"ASPP2"'
p1262
(dp1263
g14
S'"ASPP2"'
p1264
sg16
I0
sg17
g72
ssg1251
(dp1265
g14
S'pathway'
p1266
sg16
I0
sg17
g89
ssg301
(dp1267
g14
S'in-vitro'
p1268
sg16
I0
sg17
g3
ssS'p3'
p1269
(dp1270
g14
S'protein-segment'
p1271
sg16
I0
sg17
g32
ssg32
(dp1272
g14
S'fragment'
p1273
sg16
I1
sg17
g1246
ssS'p5:0:1128'
p1274
(dp1275
g14
S'1128'
p1276
sg16
I0
sg17
g1251
ssg72
(dp1277
g14
S'name'
p1278
sg16
I0
sg17
g1246
ssg89
(dp1279
g14
S'perform-01'
p1280
sg16
I1
sg17
g3
ssg308
(dp1281
g14
S'both'
p1282
sg16
I3
sg17
g1251
ssS'n2:0:"C-terminus"'
p1283
(dp1284
g14
S'"C-terminus"'
p1285
sg16
I0
sg17
S'n2'
p1286
ssS'p5:1:693'
p1287
(dp1288
g14
S'693'
p1289
sg16
I1
sg17
g1251
ssg1255
(dp1290
g14
S'name'
p1291
sg16
I2
sg17
g1251
ssg1286
(dp1292
g14
S'name'
p1293
sg16
I0
sg17
g1269
ssS'a2'
p1294
(dp1295
g14
S'assay-00'
p1296
sg16
I1
sg17
g89
ssS'p7'
p1297
(dp1298
g14
S'phosphorylate-01'
p1299
sg16
I0
sg17
g1256
sssg109
(dp1300
sg111
(dp1301
g3
(dp1302
g301
(dp1303
I0
(dp1304
g116
S'glue1'
p1305
sssg89
(dp1306
I0
(dp1307
g116
S'glue2'
p1308
sssg1256
(dp1309
I0
(dp1310
g116
S'glue3'
p1311
ssssg1246
(dp1312
g32
(dp1313
I0
(dp1314
g116
S'quant'
p1315
sssg1259
(dp1316
I0
(dp1317
g116
S'ARG1-of'
p1318
sssg72
(dp1319
I0
(dp1320
g116
S'name'
p1321
ssssg18
(dp1322
sg1252
(dp1323
sg1256
(dp1324
g1297
(dp1325
I0
(dp1326
g116
S'ARG1-of'
p1327
ssssg1259
(dp1328
sg1262
(dp1329
sg1251
(dp1330
g1287
(dp1331
I0
(dp1332
g116
S'quant'
p1333
sssg1255
(dp1334
I0
(dp1335
g116
S'name'
p1336
sssg308
(dp1337
I0
(dp1338
g116
S'mod'
p1339
sssg18
(dp1340
I0
(dp1341
g116
S'ARG1-of'
p1342
sssg1274
(dp1343
I0
(dp1344
g116
S'quant'
p1345
ssssg301
(dp1346
sg1269
(dp1347
g1286
(dp1348
I0
(dp1349
g116
S'name'
p1350
ssssg32
(dp1351
g1269
(dp1352
I0
(dp1353
g116
S'mod'
p1354
ssssg1274
(dp1355
sg72
(dp1356
g1262
(dp1357
I0
(dp1358
g116
S'op1'
p1359
ssssg89
(dp1360
g1246
(dp1361
I0
(dp1362
g116
S'ARG2'
p1363
sssg1294
(dp1364
I0
(dp1365
g116
S'ARG1'
p1366
sssg1251
(dp1367
I0
(dp1368
g116
S'ARG0'
p1369
ssssg308
(dp1370
sg1283
(dp1371
sg1287
(dp1372
sg1255
(dp1373
g1252
(dp1374
I0
(dp1375
g116
S'op1'
p1376
ssssg1286
(dp1377
g1283
(dp1378
I0
(dp1379
g116
S'op1'
p1380
ssssg1294
(dp1381
sg1297
(dp1382
ssg239
g1301
sg240
(dp1383
g3
(dp1384
sg1246
(dp1385
g89
g1361
ssg18
(dp1386
g1251
g1340
ssg1252
(dp1387
g1255
g1374
ssg1256
(dp1388
g3
g1309
ssg1259
(dp1389
g1246
g1316
ssg1262
(dp1390
g72
g1357
ssg1251
(dp1391
g89
g1367
ssg301
(dp1392
g3
g1303
ssg1269
(dp1393
g32
g1352
ssg32
(dp1394
g1246
g1313
ssg1274
(dp1395
g1251
g1343
ssg72
(dp1396
g1246
g1319
ssg89
(dp1397
g3
g1306
ssg308
(dp1398
g1251
g1337
ssg1283
(dp1399
g1286
g1378
ssg1287
(dp1400
g1251
g1331
ssg1255
(dp1401
g1251
g1334
ssg1286
(dp1402
g1269
g1348
ssg1294
(dp1403
g89
g1364
ssg1297
(dp1404
g1256
g1325
sssg274
g1301
sbaS'An in vitro phophorylation assay was performed with a purified C @-@ terminus fragment of ASPP2 ( 693 @-@ 1128 ) containing both MAPK putative phosphorylation sites .'
p1405
asS'bio.bmtr_0005.11'
p1406
(lp1407
g89
ag4
(g5
g6
Ntp1408
Rp1409
(dp1410
g10
(dp1411
S'f2'
p1412
(dp1413
g14
S'fragment'
p1414
sg16
I1
sg17
g665
ssS'f:0:"1B"'
p1415
(dp1416
g14
S'"1B"'
p1417
sg16
I0
sg17
g32
ssS'n3:0:"MAPK1"'
p1418
(dp1419
g14
S'"MAPK1"'
p1420
sg16
I0
sg17
S'n3'
p1421
ssS'n2:1:"SAPK"'
p1422
(dp1423
g14
S'"SAPK"'
p1424
sg16
I1
sg17
S'n2'
p1425
ssS'n2:0:"p38"'
p1426
(dp1427
g14
S'"p38"'
p1428
sg16
I0
sg17
g1425
ssS'i2'
p1429
(dp1430
g14
S'include-91'
p1431
sg16
I1
sg17
g65
ssS'c3'
p1432
(dp1433
g14
S'compare-01'
p1434
sg16
I0
sg17
S'c2'
p1435
ssg1435
(dp1436
g14
S'clear'
p1437
sg16
I1
sg17
g89
ssS'n:0:"ASPP2"'
p1438
(dp1439
g14
S'"ASPP2"'
p1440
sg16
I0
sg17
g72
ssS'e2'
p1441
(dp1442
g14
S'enzyme'
p1443
sg16
I0
sg17
g1429
ssS'p2'
p1444
(dp1445
g14
S'phosphorylate-01'
p1446
sg16
I0
sg17
g18
ssS'p3'
p1447
(dp1448
g14
S'protein'
p1449
sg16
I0
sg17
g1444
ssg18
(dp1450
g14
S'cause-01'
p1451
sg16
I0
sg17
g89
ssg65
(dp1452
g14
S'enzyme'
p1453
sg16
I0
sg17
g1432
ssS'p4'
p1454
(dp1455
g14
S'panel'
p1456
sg16
I2
sg17
g665
ssg32
(dp1457
g14
S'figure'
p1458
sg16
I0
sg17
g665
ssg301
(dp1459
g14
S'in-vitro'
p1460
sg16
I0
sg17
g1412
ssg81
(dp1461
g14
S'middle'
p1462
sg16
I0
sg17
g1454
ssg665
(dp1463
g14
S'leave-04'
p1464
sg16
I1
sg17
g18
ssg72
(dp1465
g14
S'name'
p1466
sg16
I0
sg17
g1447
ssg89
(dp1467
g14
S'possible'
p1468
sg16
I0
sg17
Nssg1425
(dp1469
g14
S'name'
p1470
sg16
I0
sg17
g65
ssg1421
(dp1471
g14
S'name'
p1472
sg16
I0
sg17
g1441
sssg109
(dp1473
sg111
(dp1474
g1412
(dp1475
g301
(dp1476
I0
(dp1477
g116
S'manner'
p1478
ssssg1415
(dp1479
sg1418
(dp1480
sg1422
(dp1481
sg1426
(dp1482
sg1429
(dp1483
g1441
(dp1484
I0
(dp1485
g116
S'ARG1'
p1486
ssssg1432
(dp1487
g65
(dp1488
I0
(dp1489
g116
S'ARG2'
p1490
ssssg1435
(dp1491
g1432
(dp1492
I0
(dp1493
g116
S'condition'
p1494
ssssg1438
(dp1495
sg1441
(dp1496
g1421
(dp1497
I0
(dp1498
g116
S'name'
p1499
ssssg1444
(dp1500
g1447
(dp1501
I0
(dp1502
g116
S'ARG1'
p1503
ssssg1447
(dp1504
g72
(dp1505
I0
(dp1506
g116
S'name'
p1507
ssssg18
(dp1508
g1444
(dp1509
I0
(dp1510
g116
S'ARG0'
p1511
sssg665
(dp1512
I0
(dp1513
g116
S'ARG1'
p1514
ssssg65
(dp1515
g1425
(dp1516
I0
(dp1517
g116
S'name'
p1518
sssg1429
(dp1519
I0
(dp1520
g116
S'ARG2-of'
p1521
ssssg1454
(dp1522
g81
(dp1523
I0
(dp1524
g116
S'mod'
p1525
ssssg32
(dp1526
g1415
(dp1527
I0
(dp1528
g116
S'mod'
p1529
ssssg301
(dp1530
sg81
(dp1531
sg665
(dp1532
g1412
(dp1533
I0
(dp1534
g116
S'ARG1'
p1535
sssg1454
(dp1536
I0
(dp1537
g116
S'ARG2'
p1538
sssg32
(dp1539
I0
(dp1540
g116
S'ARG0'
p1541
ssssg72
(dp1542
g1438
(dp1543
I0
(dp1544
g116
S'op1'
p1545
ssssg89
(dp1546
g1435
(dp1547
I0
(dp1548
g116
S'time'
p1549
sssg18
(dp1550
I0
(dp1551
g116
S'domain'
p1552
ssssg1425
(dp1553
g1426
(dp1554
I0
(dp1555
g116
S'op1'
p1556
sssg1422
(dp1557
I0
(dp1558
g116
S'op2'
p1559
ssssg1421
(dp1560
g1418
(dp1561
I0
(dp1562
g116
S'op1'
p1563
sssssg239
g1474
sg240
(dp1564
g1412
(dp1565
g665
g1533
ssg1415
(dp1566
g32
g1527
ssg1418
(dp1567
g1421
g1561
ssg1422
(dp1568
g1425
g1557
ssg1426
(dp1569
g1425
g1554
ssg1429
(dp1570
g65
g1519
ssg1432
(dp1571
g1435
g1492
ssg1435
(dp1572
g89
g1547
ssg1438
(dp1573
g72
g1543
ssg1441
(dp1574
g1429
g1484
ssg1444
(dp1575
g18
g1509
ssg1447
(dp1576
g1444
g1501
ssg18
(dp1577
g89
g1550
ssg65
(dp1578
g1432
g1488
ssg1454
(dp1579
g665
g1536
ssg32
(dp1580
g665
g1539
ssg301
(dp1581
g1412
g1476
ssg81
(dp1582
g1454
g1523
ssg665
(dp1583
g18
g1512
ssg72
(dp1584
g1447
g1505
ssg89
(dp1585
sg1425
(dp1586
g65
g1516
ssg1421
(dp1587
g1441
g1497
sssg274
g1474
sbaS'When compared to p38 SAPK , MAPK1 was clearly able to phosphorylate the ASPP2 fragment in vitro ( Figure 1B , left and middle panels ) .'
p1588
asS'bio.bmtr_0004.24'
p1589
(lp1590
g3
ag4
(g5
g6
Ntp1591
Rp1592
(dp1593
g10
(dp1594
g3
(dp1595
g14
S'amr-glue'
p1596
sg16
I0
sg17
Nssg766
(dp1597
g14
S'hydrolyze-01'
p1598
sg16
I0
sg17
S'a3'
p1599
ssg81
(dp1600
g14
S'mediate-01'
p1601
sg16
I1
sg17
g766
ssg92
(dp1602
g14
S'small-molecule'
p1603
sg16
I0
sg17
g766
ssg72
(dp1604
g14
S'name'
p1605
sg16
I0
sg17
g92
ssg89
(dp1606
g14
S'protein'
p1607
sg16
I0
sg17
g81
ssg1599
(dp1608
g14
S'abrogate-01'
p1609
sg16
I1
sg17
g3
ssg86
(dp1610
g14
S'reveal-01'
p1611
sg16
I0
sg17
g3
ssS'n:0:"GTP"'
p1612
(dp1613
g14
S'"GTP"'
p1614
sg16
I0
sg17
g72
ssS'n2'
p1615
(dp1616
g14
S'name'
p1617
sg16
I0
sg17
g89
ssS'n2:0:"GAP"'
p1618
(dp1619
g14
S'"GAP"'
p1620
sg16
I0
sg17
g1615
ssS'a2'
p1621
(dp1622
g14
S'analyze-01'
p1623
sg16
I0
sg17
g86
sssg109
(dp1624
sg111
(dp1625
g3
(dp1626
g1599
(dp1627
I0
(dp1628
g116
S'glue2'
p1629
sssg86
(dp1630
I0
(dp1631
g116
S'glue1'
p1632
ssssg766
(dp1633
g92
(dp1634
I0
(dp1635
g116
S'ARG1'
p1636
sssg81
(dp1637
I0
(dp1638
g116
S'ARG1-of'
p1639
ssssg81
(dp1640
g89
(dp1641
I0
(dp1642
g116
S'ARG0'
p1643
ssssg92
(dp1644
g72
(dp1645
I0
(dp1646
g116
S'name'
p1647
ssssg72
(dp1648
g1612
(dp1649
I0
(dp1650
g116
S'op1'
p1651
ssssg89
(dp1652
g1615
(dp1653
I0
(dp1654
g116
S'name'
p1655
ssssg1599
(dp1656
g766
(dp1657
I0
(dp1658
g116
S'ARG0'
p1659
ssssg86
(dp1660
g1621
(dp1661
I0
(dp1662
g116
S'ARG0'
p1663
ssssg1612
(dp1664
sg1615
(dp1665
g1618
(dp1666
I0
(dp1667
g116
S'op1'
p1668
ssssg1618
(dp1669
sg1621
(dp1670
ssg239
g1625
sg240
(dp1671
g3
(dp1672
sg766
(dp1673
g1599
g1657
ssg81
(dp1674
g766
g1637
ssg92
(dp1675
g766
g1634
ssg72
(dp1676
g92
g1645
ssg89
(dp1677
g81
g1641
ssg1599
(dp1678
g3
g1627
ssg86
(dp1679
g3
g1630
ssg1612
(dp1680
g72
g1649
ssg1615
(dp1681
g89
g1653
ssg1618
(dp1682
g1615
g1666
ssg1621
(dp1683
g86
g1661
sssg274
g1625
sbaS'The analysis revealed that monoubiquitination abrogates GAP @-@ mediated GTP hydrolysis .'
p1684
asS'bio.bmtr_0004.25'
p1685
(lp1686
g92
ag4
(g5
g6
Ntp1687
Rp1688
(dp1689
g10
(dp1690
g3
(dp1691
g14
S'and'
p1692
sg16
I0
sg17
g89
ssS'p2'
p1693
(dp1694
g14
S'protein'
p1695
sg16
I1
sg17
g757
ssg18
(dp1696
g14
S'capable-41'
p1697
sg16
I0
sg17
g86
ssg308
(dp1698
g14
S'bind-01'
p1699
sg16
I0
sg17
g18
ssS'a3'
p1700
(dp1701
g14
S'all'
p1702
sg16
I2
sg17
S'a2'
p1703
ssg757
(dp1704
g14
S'dominate-01'
p1705
sg16
I1
sg17
g92
ssg301
(dp1706
g14
S'include-01'
p1707
sg16
I0
sg17
g1703
ssg683
(dp1708
g14
S'kinetic'
p1709
sg16
I1
sg17
g81
ssg81
(dp1710
g14
S'modeling'
p1711
sg16
I0
sg17
g92
ssg665
(dp1712
g14
S'large'
p1713
sg16
I2
sg17
g81
ssg68
(dp1714
g14
S'other'
p1715
sg16
I1
sg17
g1703
ssg72
(dp1716
g14
S'name'
p1717
sg16
I0
sg17
g1693
ssg89
(dp1718
g14
S'preserve-01'
p1719
sg16
I0
sg17
g100
ssg92
(dp1720
g14
S'suggest-01'
p1721
sg16
I0
sg17
Nssg1703
(dp1722
g14
S'activity'
p1723
sg16
I0
sg17
g665
ssg100
(dp1724
g14
S'we'
p1725
sg16
I0
sg17
g81
ssS'n:0:"GAP"'
p1726
(dp1727
g14
S'"GAP"'
p1728
sg16
I0
sg17
g72
ssg86
(dp1729
g14
S'regulator'
p1730
sg16
I0
sg17
g301
ssS'd2'
p1731
(dp1732
g14
S'defect'
p1733
sg16
I0
sg17
g757
sssg109
(dp1734
sg111
(dp1735
g3
(dp1736
sg1693
(dp1737
g72
(dp1738
I0
(dp1739
g116
S'name'
p1740
ssssg18
(dp1741
g308
(dp1742
I0
(dp1743
g116
S'ARG2'
p1744
ssssg308
(dp1745
sg1700
(dp1746
sg757
(dp1747
g1693
(dp1748
I0
(dp1749
g116
S'ARG1'
p1750
sssg1731
(dp1751
I0
(dp1752
g116
S'ARG0'
p1753
ssssg301
(dp1754
g86
(dp1755
I0
(dp1756
g116
S'ARG1'
p1757
ssssg683
(dp1758
sg81
(dp1759
g683
(dp1760
I0
(dp1761
g116
S'mod'
p1762
sssg665
(dp1763
I0
(dp1764
g116
S'mod'
p1765
sssg100
(dp1766
I0
(dp1767
g116
S'ARG0'
p1768
ssssg665
(dp1769
g1703
(dp1770
I0
(dp1771
g116
S'domain'
p1772
ssssg68
(dp1773
sg72
(dp1774
g1726
(dp1775
I0
(dp1776
g116
S'op1'
p1777
ssssg89
(dp1778
g3
(dp1779
I0
(dp1780
g116
S'ARG1'
p1781
ssssg92
(dp1782
g81
(dp1783
I0
(dp1784
g116
S'ARG0'
p1785
sssg757
(dp1786
I0
(dp1787
g116
S'ARG1'
p1788
ssssg1703
(dp1789
g301
(dp1790
I0
(dp1791
g116
S'ARG2-of'
p1792
sssg1700
(dp1793
I0
(dp1794
g116
S'quant'
p1795
sssg68
(dp1796
I0
(dp1797
g116
S'mod'
p1798
ssssg100
(dp1799
g89
(dp1800
I0
(dp1801
g116
S'ARG0-of'
p1802
ssssg1726
(dp1803
sg86
(dp1804
g18
(dp1805
I0
(dp1806
g116
S'mod'
p1807
ssssg1731
(dp1808
ssg239
g1735
sg240
(dp1809
g3
(dp1810
g89
g1779
ssg1693
(dp1811
g757
g1748
ssg18
(dp1812
g86
g1805
ssg308
(dp1813
g18
g1742
ssg1700
(dp1814
g1703
g1793
ssg757
(dp1815
g92
g1786
ssg301
(dp1816
g1703
g1790
ssg683
(dp1817
g81
g1760
ssg81
(dp1818
g92
g1783
ssg665
(dp1819
g81
g1763
ssg68
(dp1820
g1703
g1796
ssg72
(dp1821
g1693
g1738
ssg89
(dp1822
g100
g1800
ssg92
(dp1823
sg1703
(dp1824
g665
g1770
ssg100
(dp1825
g81
g1766
ssg1726
(dp1826
g72
g1775
ssg86
(dp1827
g301
g1755
ssg1731
(dp1828
g757
g1751
sssg274
g1735
sbaS'All other activities , including the ability to bind regulators , were largely preserved and our kinetic modeling suggests that the GAP defect will dominate .'
p1829
asS'bio.bmtr_0004.26'
p1830
(lp1831
g3
ag4
(g5
g6
Ntp1832
Rp1833
(dp1834
g10
(dp1835
g3
(dp1836
g14
S'amr-glue'
p1837
sg16
I0
sg17
Nssg68
(dp1838
g14
S'outcome'
p1839
sg16
I0
sg17
g3
ssg89
(dp1840
g14
S'position'
p1841
sg16
I2
sg17
g3
ssg92
(dp1842
g14
S'specific'
p1843
sg16
I1
sg17
g3
ssg97
(dp1844
g14
S'this'
p1845
sg16
I0
sg17
g68
ssS'p:0:147'
p1846
(dp1847
g14
S'147'
p1848
sg16
I0
sg17
g89
sssg109
(dp1849
sg111
(dp1850
g3
(dp1851
g89
(dp1852
I0
(dp1853
g116
S'glue3'
p1854
sssg92
(dp1855
I0
(dp1856
g116
S'glue2'
p1857
sssg68
(dp1858
I0
(dp1859
g116
S'glue1'
p1860
ssssg68
(dp1861
g97
(dp1862
I0
(dp1863
g116
S'mod'
p1864
ssssg89
(dp1865
g1846
(dp1866
I0
(dp1867
g116
S'quant'
p1868
ssssg92
(dp1869
sg97
(dp1870
sg1846
(dp1871
ssg239
g1850
sg240
(dp1872
g3
(dp1873
sg68
(dp1874
g3
g1858
ssg89
(dp1875
g3
g1852
ssg92
(dp1876
g3
g1855
ssg97
(dp1877
g68
g1862
ssg1846
(dp1878
g89
g1866
sssg274
g1850
sbaS'Furthermore , this outcome was specific to monoubiquitination at position 147 .'
p1879
asS'bio.bmtr_0004.27'
p1880
(lp1881
g81
ag4
(g5
g6
Ntp1882
Rp1883
(dp1884
g10
(dp1885
g3
(dp1886
g14
S'activate-01'
p1887
sg16
I2
sg17
g81
ssg18
(dp1888
g14
S'cause-01'
p1889
sg16
I1
sg17
g81
ssg65
(dp1890
g14
S'entire'
p1891
sg16
I0
sg17
g72
ssS's3'
p1892
(dp1893
g14
S'sustain-01'
p1894
sg16
I2
sg17
S'a2'
p1895
ssS'n2:0:"Ras"'
p1896
(dp1897
g14
S'"Ras"'
p1898
sg16
I0
sg17
S'n2'
p1899
ssS'm2'
p1900
(dp1901
g14
S'mutate-01'
p1902
sg16
I1
sg17
g68
ssg81
(dp1903
g14
S'mode'
p1904
sg16
I0
sg17
Nssg68
(dp1905
g14
S'or'
p1906
sg16
I0
sg17
g92
ssg72
(dp1907
g14
S'new'
p1908
sg16
I0
sg17
g81
ssg92
(dp1909
g14
S'signal-01'
p1910
sg16
I3
sg17
g81
ssg1895
(dp1911
g14
S'absent-01'
p1912
sg16
I0
sg17
g68
ssS'w2'
p1913
(dp1914
g14
S'work-01'
p1915
sg16
I0
sg17
g100
ssg100
(dp1916
g14
S'we'
p1917
sg16
I0
sg17
S'e2'
p1918
ssS's2'
p1919
(dp1920
g14
S'stimulus'
p1921
sg16
I0
sg17
g1895
ssS'e4'
p1922
(dp1923
g14
S'even'
p1924
sg16
I1
sg17
g1895
ssg1899
(dp1925
g14
S'name'
p1926
sg16
I0
sg17
S'e3'
p1927
ssg766
(dp1928
g14
S'hormone'
p1929
sg16
I0
sg17
g1919
ssS'o2'
p1930
(dp1931
g14
S'oncogene'
p1932
sg16
I0
sg17
g1900
ssg1927
(dp1933
g14
S'enzyme'
p1934
sg16
I0
sg17
g3
ssg1918
(dp1935
g14
S'establish-01'
p1936
sg16
I0
sg17
g18
sssg109
(dp1937
sg111
(dp1938
g3
(dp1939
g1927
(dp1940
I0
(dp1941
g116
S'ARG1'
p1942
ssssg18
(dp1943
g1918
(dp1944
I0
(dp1945
g116
S'ARG0'
p1946
ssssg65
(dp1947
sg1892
(dp1948
sg1896
(dp1949
sg1900
(dp1950
g1930
(dp1951
I0
(dp1952
g116
S'ARG1'
p1953
ssssg81
(dp1954
g3
(dp1955
I0
(dp1956
g116
S'mod'
p1957
sssg18
(dp1958
I0
(dp1959
g116
S'manner-of'
p1960
sssg92
(dp1961
I0
(dp1962
g116
S'ARG0-of'
p1963
sssg72
(dp1964
I0
(dp1965
g116
S'mod'
p1966
ssssg68
(dp1967
g1895
(dp1968
I0
(dp1969
g116
S'op1'
p1970
sssg1900
(dp1971
I0
(dp1972
g116
S'op2'
p1973
ssssg72
(dp1974
g65
(dp1975
I0
(dp1976
g116
S'mod'
p1977
ssssg92
(dp1978
g68
(dp1979
I0
(dp1980
g116
S'ARG1'
p1981
ssssg1895
(dp1982
g1892
(dp1983
I0
(dp1984
g116
S'ARG1-of'
p1985
sssg1919
(dp1986
I0
(dp1987
g116
S'ARG1'
p1988
sssg1922
(dp1989
I0
(dp1990
g116
S'mod'
p1991
ssssg1913
(dp1992
sg100
(dp1993
g1913
(dp1994
I0
(dp1995
g116
S'ARG0-of'
p1996
ssssg1919
(dp1997
g766
(dp1998
I0
(dp1999
g116
S'mod'
p2000
ssssg1922
(dp2001
sg1899
(dp2002
g1896
(dp2003
I0
(dp2004
g116
S'op1'
p2005
ssssg766
(dp2006
sg1930
(dp2007
sg1927
(dp2008
g1899
(dp2009
I0
(dp2010
g116
S'name'
p2011
ssssg1918
(dp2012
g100
(dp2013
I0
(dp2014
g116
S'ARG0'
p2015
sssssg239
g1938
sg240
(dp2016
g3
(dp2017
g81
g1955
ssg18
(dp2018
g81
g1958
ssg65
(dp2019
g72
g1975
ssg1892
(dp2020
g1895
g1983
ssg1896
(dp2021
g1899
g2003
ssg1900
(dp2022
g68
g1971
ssg81
(dp2023
sg68
(dp2024
g92
g1979
ssg72
(dp2025
g81
g1964
ssg92
(dp2026
g81
g1961
ssg1895
(dp2027
g68
g1968
ssg1913
(dp2028
g100
g1994
ssg100
(dp2029
g1918
g2013
ssg1919
(dp2030
g1895
g1986
ssg1922
(dp2031
g1895
g1989
ssg1899
(dp2032
g1927
g2009
ssg766
(dp2033
g1919
g1998
ssg1930
(dp2034
g1900
g1951
ssg1927
(dp2035
g3
g1940
ssg1918
(dp2036
g18
g1944
sssg274
g1938
sbaS'Thus our work establishes an entirely new mode of Ras activation in which signaling is sustained even in the absence of hormone stimulus or oncogene mutation .'
p2037
asS'bio.bmtr_0004.20'
p2038
(lp2039
g3
ag4
(g5
g6
Ntp2040
Rp2041
(dp2042
g10
(dp2043
g3
(dp2044
g14
S'amr-glue'
p2045
sg16
I0
sg17
Nssg18
(dp2046
g14
S'chemical'
p2047
sg16
I0
sg17
S'l2'
p2048
ssS's2'
p2049
(dp2050
g14
S'strategy'
p2051
sg16
I1
sg17
g92
ssg665
(dp2052
g14
S'likely'
p2053
sg16
I0
sg17
g92
ssg68
(dp2054
g14
S'other'
p2055
sg16
I1
sg17
g3
ssg89
(dp2056
g14
S'protein'
p2057
sg16
I2
sg17
g3
ssg92
(dp2058
g14
S'study-01'
p2059
sg16
I0
sg17
g3
ssg700
(dp2060
g14
S'useful'
p2061
sg16
I0
sg17
g665
ssg97
(dp2062
g14
S'this'
p2063
sg16
I0
sg17
g18
ssg2048
(dp2064
g14
S'ligation'
p2065
sg16
I0
sg17
g2049
sssg109
(dp2066
sg111
(dp2067
g3
(dp2068
g89
(dp2069
I0
(dp2070
g116
S'glue3'
p2071
sssg92
(dp2072
I0
(dp2073
g116
S'glue1'
p2074
sssg68
(dp2075
I0
(dp2076
g116
S'glue2'
p2077
ssssg18
(dp2078
g97
(dp2079
I0
(dp2080
g116
S'mod'
p2081
ssssg2049
(dp2082
g2048
(dp2083
I0
(dp2084
g116
S'mod'
p2085
ssssg665
(dp2086
g700
(dp2087
I0
(dp2088
g116
S'domain'
p2089
ssssg68
(dp2090
sg89
(dp2091
sg92
(dp2092
g2049
(dp2093
I0
(dp2094
g116
S'mod'
p2095
sssg665
(dp2096
I0
(dp2097
g116
S'mod'
p2098
ssssg700
(dp2099
sg97
(dp2100
sg2048
(dp2101
g18
(dp2102
I0
(dp2103
g116
S'mod'
p2104
sssssg239
g2067
sg240
(dp2105
g3
(dp2106
sg18
(dp2107
g2048
g2102
ssg2049
(dp2108
g92
g2093
ssg665
(dp2109
g92
g2096
ssg68
(dp2110
g3
g2075
ssg89
(dp2111
g3
g2069
ssg92
(dp2112
g3
g2072
ssg700
(dp2113
g665
g2087
ssg97
(dp2114
g18
g2079
ssg2048
(dp2115
g2049
g2083
sssg274
g2067
sbaS'This chemical ligation strategy will likely be useful for the study of other monoubiquitinated proteins .'
p2116
asS'bio.bmtr_0004.21'
p2117
(lp2118
g3
ag4
(g5
g6
Ntp2119
Rp2120
(dp2121
g10
(dp2122
g3
(dp2123
g14
S'amr-glue'
p2124
sg16
I0
sg17
Nssg65
(dp2125
g14
S'enzyme'
p2126
sg16
I0
sg17
S'a3'
p2127
ssg757
(dp2128
g14
S'do-02'
p2129
sg16
I1
sg17
g3
ssg301
(dp2130
g14
S'intrinsic'
p2131
sg16
I1
sg17
g2127
ssS's2'
p2132
(dp2133
g14
S'size-01'
p2134
sg16
I2
sg17
g2127
ssg81
(dp2135
g14
S'modify-01'
p2136
sg16
I0
sg17
g2132
ssg2127
(dp2137
g14
S'act-02'
p2138
sg16
I1
sg17
S'a2'
p2139
ssg72
(dp2140
g14
S'name'
p2141
sg16
I0
sg17
g65
ssg92
(dp2142
g14
S'surprising'
p2143
sg16
I0
sg17
g3
ssg2139
(dp2144
g14
S'alter-01'
p2145
sg16
I2
sg17
g3
ssS'a2:0:-'
p2146
(dp2147
g14
g678
sg16
I0
sg17
g2139
ssS'n:0:"Ras"'
p2148
(dp2149
g14
S'"Ras"'
p2150
sg16
I0
sg17
g72
sssg109
(dp2151
sg111
(dp2152
g3
(dp2153
g92
(dp2154
I0
(dp2155
g116
S'glue1'
p2156
sssg2139
(dp2157
I0
(dp2158
g116
S'glue3'
p2159
sssg757
(dp2160
I0
(dp2161
g116
S'glue2'
p2162
ssssg65
(dp2163
g72
(dp2164
I0
(dp2165
g116
S'name'
p2166
ssssg757
(dp2167
sg301
(dp2168
sg2132
(dp2169
g81
(dp2170
I0
(dp2171
g116
S'ARG1'
p2172
ssssg81
(dp2173
sg2127
(dp2174
g301
(dp2175
I0
(dp2176
g116
S'mod'
p2177
sssg2132
(dp2178
I0
(dp2179
g116
S'concession'
p2180
sssg65
(dp2181
I0
(dp2182
g116
S'ARG0'
p2183
ssssg72
(dp2184
g2148
(dp2185
I0
(dp2186
g116
S'op1'
p2187
ssssg92
(dp2188
sg2139
(dp2189
g2146
(dp2190
I0
(dp2191
g116
S'polarity'
p2192
sssg2127
(dp2193
I0
(dp2194
g116
S'ARG1'
p2195
ssssg2146
(dp2196
sg2148
(dp2197
ssg239
g2152
sg240
(dp2198
g3
(dp2199
sg65
(dp2200
g2127
g2181
ssg757
(dp2201
g3
g2160
ssg301
(dp2202
g2127
g2175
ssg2132
(dp2203
g2127
g2178
ssg81
(dp2204
g2132
g2170
ssg2127
(dp2205
g2139
g2193
ssg72
(dp2206
g65
g2164
ssg92
(dp2207
g3
g2154
ssg2139
(dp2208
g3
g2157
ssg2146
(dp2209
g2139
g2190
ssg2148
(dp2210
g72
g2185
sssg274
g2152
sbaS'Surprisingly , monoubiquitination did not alter the intrinsic activity of Ras , despite the size of the modification .'
p2211
asS'bio.bmtr_0004.22'
p2212
(lp2213
g3
ag4
(g5
g6
Ntp2214
Rp2215
(dp2216
g10
(dp2217
S'd2'
p2218
(dp2219
g14
S'dynamic'
p2220
sg16
I7
sg17
g3
ssS'n:0:"ubiquitin"'
p2221
(dp2222
g14
S'"ubiquitin"'
p2223
sg16
I0
sg17
g72
ssS's3'
p2224
(dp2225
g14
S'surface'
p2226
sg16
I2
sg17
S's2'
p2227
ssg2227
(dp2228
g14
S'switch'
p2229
sg16
I0
sg17
g86
ssS'n2:0:"Ras"'
p2230
(dp2231
g14
S'"Ras"'
p2232
sg16
I0
sg17
S'n2'
p2233
ssS'a3'
p2234
(dp2235
g14
S'analysis'
p2236
sg16
I3
sg17
g3
ssS'a2'
p2237
(dp2238
g14
S'and'
p2239
sg16
I2
sg17
g3
ssS'a5'
p2240
(dp2241
g14
S'area'
p2242
sg16
I0
sg17
g2227
ssS'a4'
p2243
(dp2244
g14
S'alter-01'
p2245
sg16
I1
sg17
g65
ssg3
(dp2246
g14
S'amr-glue'
p2247
sg16
I0
sg17
Nssg308
(dp2248
g14
S'broad'
p2249
sg16
I1
sg17
g86
ssg65
(dp2250
g14
S'enzyme'
p2251
sg16
I1
sg17
g2227
ssg757
(dp2252
g14
S'dynamical'
p2253
sg16
I4
sg17
g3
ssg301
(dp2254
g14
S'indicate-01'
p2255
sg16
I0
sg17
g2234
ssg81
(dp2256
g14
S'modeling'
p2257
sg16
I1
sg17
g3
ssg72
(dp2258
g14
S'name'
p2259
sg16
I0
sg17
g89
ssg89
(dp2260
g14
S'protein'
p2261
sg16
I0
sg17
g301
ssg92
(dp2262
g14
S'sample-01'
p2263
sg16
I0
sg17
g97
ssg86
(dp2264
g14
S'region'
p2265
sg16
I6
sg17
g3
ssg97
(dp2266
g14
S'thing'
p2267
sg16
I5
sg17
g3
ssg100
(dp2268
g14
S'we'
p2269
sg16
I0
sg17
g3
ssg2233
(dp2270
g14
S'name'
p2271
sg16
I0
sg17
g65
sssg109
(dp2272
sg111
(dp2273
g2218
(dp2274
sg2221
(dp2275
sg2224
(dp2276
sg2227
(dp2277
g2224
(dp2278
I0
(dp2279
g116
S'source'
p2280
sssg65
(dp2281
I0
(dp2282
g116
S'mod'
p2283
sssg2240
(dp2284
I0
(dp2285
g116
S'ARG1'
p2286
ssssg2230
(dp2287
sg2234
(dp2288
g301
(dp2289
I0
(dp2290
g116
S'ARG0-of'
p2291
ssssg2237
(dp2292
sg2240
(dp2293
sg2243
(dp2294
sg3
(dp2295
g757
(dp2296
I0
(dp2297
g116
S'glue5'
p2298
sssg81
(dp2299
I0
(dp2300
g116
S'glue2'
p2301
sssg2234
(dp2302
I0
(dp2303
g116
S'glue4'
p2304
sssg2237
(dp2305
I0
(dp2306
g116
S'glue3'
p2307
sssg97
(dp2308
I0
(dp2309
g116
S'glue6'
p2310
sssg100
(dp2311
I0
(dp2312
g116
S'glue1'
p2313
sssg86
(dp2314
I0
(dp2315
g116
S'glue7'
p2316
sssg2218
(dp2317
I0
(dp2318
g116
S'glue8'
p2319
ssssg308
(dp2320
sg65
(dp2321
g2233
(dp2322
I0
(dp2323
g116
S'name'
p2324
sssg2243
(dp2325
I0
(dp2326
g116
S'ARG1-of'
p2327
ssssg757
(dp2328
sg301
(dp2329
g89
(dp2330
I0
(dp2331
g116
S'ARG1'
p2332
ssssg81
(dp2333
sg72
(dp2334
g2221
(dp2335
I0
(dp2336
g116
S'op1'
p2337
ssssg89
(dp2338
g72
(dp2339
I0
(dp2340
g116
S'name'
p2341
ssssg92
(dp2342
sg86
(dp2343
g2227
(dp2344
I0
(dp2345
g116
S'mod'
p2346
sssg308
(dp2347
I0
(dp2348
g116
S'mod'
p2349
ssssg97
(dp2350
g92
(dp2351
I0
(dp2352
g116
S'ARG1-of'
p2353
ssssg100
(dp2354
sg2233
(dp2355
g2230
(dp2356
I0
(dp2357
g116
S'op1'
p2358
sssssg239
g2273
sg240
(dp2359
g2218
(dp2360
g3
g2317
ssg2221
(dp2361
g72
g2335
ssg2224
(dp2362
g2227
g2278
ssg2227
(dp2363
g86
g2344
ssg2230
(dp2364
g2233
g2356
ssg2234
(dp2365
g3
g2302
ssg2237
(dp2366
g3
g2305
ssg2240
(dp2367
g2227
g2284
ssg2243
(dp2368
g65
g2325
ssg3
(dp2369
sg308
(dp2370
g86
g2347
ssg65
(dp2371
g2227
g2281
ssg757
(dp2372
g3
g2296
ssg301
(dp2373
g2234
g2289
ssg81
(dp2374
g3
g2299
ssg72
(dp2375
g89
g2339
ssg89
(dp2376
g301
g2330
ssg92
(dp2377
g97
g2351
ssg86
(dp2378
g3
g2314
ssg97
(dp2379
g3
g2308
ssg100
(dp2380
g3
g2311
ssg2233
(dp2381
g65
g2322
sssg274
g2273
sbaS'Our modeling and NMR analyses indicated that Ubiquitin dynamically samples a broad surface area of Ras that alters switch region dynamics .'
p2382
asS'bio.bmtr_0004.23'
p2383
(lp2384
g3
ag4
(g5
g6
Ntp2385
Rp2386
(dp2387
g10
(dp2388
S'n3:0:"GAP"'
p2389
(dp2390
g14
S'"GAP"'
p2391
sg16
I0
sg17
S'n3'
p2392
ssS't3'
p2393
(dp2394
g14
S'target-01'
p2395
sg16
I2
sg17
S'a3'
p2396
ssS'n:0:"Ras"'
p2397
(dp2398
g14
S'"Ras"'
p2399
sg16
I0
sg17
g72
ssg2396
(dp2400
g14
S'and'
p2401
sg16
I0
sg17
g92
ssS'a2'
p2402
(dp2403
g14
S'affect-01'
p2404
sg16
I1
sg17
g65
ssS'a4'
p2405
(dp2406
g14
S'also'
p2407
sg16
I0
sg17
g2393
ssS'e3'
p2408
(dp2409
g14
S'enzyme'
p2410
sg16
I0
sg17
g2396
ssS'e2'
p2411
(dp2412
g14
S'enzyme'
p2413
sg16
I0
sg17
g301
ssg3
(dp2414
g14
S'amr-glue'
p2415
sg16
I0
sg17
Nssg18
(dp2416
g14
S'cognate'
p2417
sg16
I1
sg17
g301
ssg65
(dp2418
g14
S'examine-01'
p2419
sg16
I0
sg17
g3
ssg757
(dp2420
g14
S'domain'
p2421
sg16
I1
sg17
g92
ssg301
(dp2422
g14
S'interact-01'
p2423
sg16
I1
sg17
g3
ssg766
(dp2424
g14
S'have-org-role-91'
p2425
sg16
I0
sg17
g100
ssS't2'
p2426
(dp2427
g14
S'this'
p2428
sg16
I1
sg17
g97
ssg665
(dp2429
g14
S'lead-02'
p2430
sg16
I1
sg17
g766
ssg72
(dp2431
g14
S'name'
p2432
sg16
I0
sg17
g2411
ssg89
(dp2433
g14
S'protein'
p2434
sg16
I1
sg17
g2396
ssg92
(dp2435
g14
S'switch-01'
p2436
sg16
I0
sg17
g18
ssg86
(dp2437
g14
S'result-01'
p2438
sg16
I0
sg17
g97
ssg97
(dp2439
g14
S'thing'
p2440
sg16
I0
sg17
g766
ssg100
(dp2441
g14
S'we'
p2442
sg16
I0
sg17
g65
ssS'n2'
p2443
(dp2444
g14
S'name'
p2445
sg16
I0
sg17
g2408
ssg2392
(dp2446
g14
S'name'
p2447
sg16
I0
sg17
g89
ssS'n2:0:"GEF"'
p2448
(dp2449
g14
S'"GEF"'
p2450
sg16
I0
sg17
g2443
sssg109
(dp2451
sg111
(dp2452
g2389
(dp2453
sg2393
(dp2454
g2405
(dp2455
I0
(dp2456
g116
S'mod'
p2457
ssssg2397
(dp2458
sg2396
(dp2459
g89
(dp2460
I0
(dp2461
g116
S'op2'
p2462
sssg2393
(dp2463
I0
(dp2464
g116
S'ARG1-of'
p2465
sssg2408
(dp2466
I0
(dp2467
g116
S'op1'
p2468
ssssg2402
(dp2469
sg2405
(dp2470
sg2408
(dp2471
g2443
(dp2472
I0
(dp2473
g116
S'name'
p2474
ssssg2411
(dp2475
g72
(dp2476
I0
(dp2477
g116
S'name'
p2478
ssssg3
(dp2479
g301
(dp2480
I0
(dp2481
g116
S'glue2'
p2482
sssg65
(dp2483
I0
(dp2484
g116
S'glue1'
p2485
ssssg18
(dp2486
g92
(dp2487
I0
(dp2488
g116
S'ARG0-of'
p2489
ssssg65
(dp2490
g2402
(dp2491
I0
(dp2492
g116
S'ARG1'
p2493
sssg100
(dp2494
I0
(dp2495
g116
S'ARG0'
p2496
ssssg757
(dp2497
sg301
(dp2498
g18
(dp2499
I0
(dp2500
g116
S'ARG1'
p2501
sssg2411
(dp2502
I0
(dp2503
g116
S'ARG0'
p2504
ssssg766
(dp2505
g97
(dp2506
I0
(dp2507
g116
S'ARG1'
p2508
sssg665
(dp2509
I0
(dp2510
g116
S'ARG3'
p2511
ssssg2426
(dp2512
sg665
(dp2513
sg72
(dp2514
g2397
(dp2515
I0
(dp2516
g116
S'op1'
p2517
ssssg89
(dp2518
g2392
(dp2519
I0
(dp2520
g116
S'name'
p2521
ssssg92
(dp2522
g2396
(dp2523
I0
(dp2524
g116
S'ARG1'
p2525
sssg757
(dp2526
I0
(dp2527
g116
S'ARG2'
p2528
ssssg86
(dp2529
sg97
(dp2530
g86
(dp2531
I0
(dp2532
g116
S'ARG2-of'
p2533
sssg2426
(dp2534
I0
(dp2535
g116
S'mod'
p2536
ssssg100
(dp2537
g766
(dp2538
I0
(dp2539
g116
S'ARG0-of'
p2540
ssssg2443
(dp2541
g2448
(dp2542
I0
(dp2543
g116
S'op1'
p2544
ssssg2392
(dp2545
g2389
(dp2546
I0
(dp2547
g116
S'op1'
p2548
ssssg2448
(dp2549
ssg239
g2452
sg240
(dp2550
g2389
(dp2551
g2392
g2546
ssg2393
(dp2552
g2396
g2463
ssg2397
(dp2553
g72
g2515
ssg2396
(dp2554
g92
g2523
ssg2402
(dp2555
g65
g2491
ssg2405
(dp2556
g2393
g2455
ssg2408
(dp2557
g2396
g2466
ssg2411
(dp2558
g301
g2502
ssg3
(dp2559
sg18
(dp2560
g301
g2499
ssg65
(dp2561
g3
g2483
ssg757
(dp2562
g92
g2526
ssg301
(dp2563
g3
g2480
ssg766
(dp2564
g100
g2538
ssg2426
(dp2565
g97
g2534
ssg665
(dp2566
g766
g2509
ssg72
(dp2567
g2411
g2476
ssg89
(dp2568
g2396
g2460
ssg92
(dp2569
g18
g2487
ssg86
(dp2570
g97
g2531
ssg97
(dp2571
g766
g2506
ssg100
(dp2572
g65
g2494
ssg2443
(dp2573
g2408
g2472
ssg2392
(dp2574
g89
g2519
ssg2448
(dp2575
g2443
g2542
sssg274
g2452
sbaS'These results led us to examine the effect of monoubiquitination on the interaction of Ras with its cognate GEF and GAPs , which also target the switch domains .'
p2576
asS'bio.bmtr_0005.15'
p2577
(lp2578
g3
ag4
(g5
g6
Ntp2579
Rp2580
(dp2581
g10
(dp2582
g3
(dp2583
g14
S'analyze-01'
p2584
sg16
I0
sg17
Nssg65
(dp2585
g14
S'except-01'
p2586
sg16
I1
sg17
S'r2'
p2587
ssg2587
(dp2588
g14
S'radioactive'
p2589
sg16
I1
sg17
g32
ssg32
(dp2590
g14
S'fraction'
p2591
sg16
I0
sg17
g3
ssg81
(dp2592
g14
S'mass'
p2593
sg16
I0
sg17
g92
ssg89
(dp2594
g14
S'peak'
p2595
sg16
I0
sg17
g65
ssg92
(dp2596
g14
S'spectrometry'
p2597
sg16
I1
sg17
g3
ssg86
(dp2598
g14
S'represent-01'
p2599
sg16
I0
sg17
g32
ssg97
(dp2600
g14
S'this'
p2601
sg16
I0
sg17
g2587
sssg109
(dp2602
sg111
(dp2603
g3
(dp2604
g92
(dp2605
I0
(dp2606
g116
S'manner'
p2607
sssg32
(dp2608
I0
(dp2609
g116
S'ARG1'
p2610
ssssg65
(dp2611
g89
(dp2612
I0
(dp2613
g116
S'ARG1'
p2614
ssssg2587
(dp2615
g65
(dp2616
I0
(dp2617
g116
S'ARG2-of'
p2618
sssg97
(dp2619
I0
(dp2620
g116
S'degree'
p2621
ssssg32
(dp2622
g86
(dp2623
I0
(dp2624
g116
S'ARG1-of'
p2625
sssg2587
(dp2626
I0
(dp2627
g116
S'mod'
p2628
ssssg81
(dp2629
sg89
(dp2630
sg92
(dp2631
g81
(dp2632
I0
(dp2633
g116
S'mod'
p2634
ssssg86
(dp2635
sg97
(dp2636
ssg239
g2603
sg240
(dp2637
g3
(dp2638
sg65
(dp2639
g2587
g2616
ssg2587
(dp2640
g32
g2626
ssg32
(dp2641
g3
g2608
ssg81
(dp2642
g92
g2632
ssg89
(dp2643
g65
g2612
ssg92
(dp2644
g3
g2605
ssg86
(dp2645
g32
g2623
ssg97
(dp2646
g2587
g2619
sssg274
g2603
sbaS'The fractions representing these radioactive peaks were analysed by mass spectrometry .'
p2647
asS'bio.bmtr_0005.2'
p2648
(lp2649
g89
ag4
(g5
g6
Ntp2650
Rp2651
(dp2652
g10
(dp2653
S'p:0:"1-1"'
p2654
(dp2655
g14
S'"1-1"'
p2656
sg16
I0
sg17
g89
ssg89
(dp2657
g14
S'passage'
p2658
sg16
I0
sg17
Nssg86
(dp2659
g14
S'result-01'
p2660
sg16
I1
sg17
g89
sssg109
(dp2661
sg111
(dp2662
g2654
(dp2663
sg89
(dp2664
g2654
(dp2665
I0
(dp2666
g116
S'mod'
p2667
sssg86
(dp2668
I0
(dp2669
g116
S'ARG0-of'
p2670
ssssg86
(dp2671
ssg239
g2662
sg240
(dp2672
g2654
(dp2673
g89
g2665
ssg89
(dp2674
sg86
(dp2675
g89
g2668
sssg274
g2662
sbaS'Passage 1 @-@ 1 ( Results )'
p2676
asS'bio.bmtr_0005.3'
p2677
(lp2678
g92
ag4
(g5
g6
Ntp2679
Rp2680
(dp2681
g10
(dp2682
S'n4:0:"ASPP2"'
p2683
(dp2684
g14
S'"ASPP2"'
p2685
sg16
I0
sg17
S'n4'
p2686
ssS'n3:0:"ASPP1"'
p2687
(dp2688
g14
S'"ASPP1"'
p2689
sg16
I0
sg17
S'n3'
p2690
ssS'n2:0:"RAS"'
p2691
(dp2692
g14
S'"RAS"'
p2693
sg16
I0
sg17
S'n2'
p2694
ssS'n:0:"p53"'
p2695
(dp2696
g14
S'"p53"'
p2697
sg16
I0
sg17
g72
ssS'p2'
p2698
(dp2699
g14
S'possible'
p2700
sg16
I3
sg17
g32
ssS'a2'
p2701
(dp2702
g14
S'and'
p2703
sg16
I3
sg17
g92
ssS'c2'
p2704
(dp2705
g14
S'cancer'
p2706
sg16
I0
sg17
g18
ssS'e2'
p2707
(dp2708
g14
S'enzyme'
p2709
sg16
I0
sg17
g65
ssg3
(dp2710
g14
S'apoptosis'
p2711
sg16
I0
sg17
g32
ssS'p3'
p2712
(dp2713
g14
S'protein'
p2714
sg16
I0
sg17
g2701
ssg18
(dp2715
g14
S'cause-01'
p2716
sg16
I1
sg17
g2707
ssg65
(dp2717
g14
S'enhance-01'
p2718
sg16
I0
sg17
g2698
ssS'p4'
p2719
(dp2720
g14
S'protein'
p2721
sg16
I1
sg17
g2701
ssg32
(dp2722
g14
S'function-01'
p2723
sg16
I1
sg17
g92
ssg301
(dp2724
g14
S'it'
p2725
sg16
I0
sg17
g92
ssg72
(dp2726
g14
S'name'
p2727
sg16
I0
sg17
g89
ssg89
(dp2728
g14
S'protein'
p2729
sg16
I1
sg17
g32
ssg92
(dp2730
g14
S'show-01'
p2731
sg16
I0
sg17
Nssg86
(dp2732
g14
S'recent'
p2733
sg16
I2
sg17
g92
ssg791
(dp2734
g14
S'via'
p2735
sg16
I2
sg17
g32
ssg2694
(dp2736
g14
S'name'
p2737
sg16
I0
sg17
g2707
ssg2690
(dp2738
g14
S'name'
p2739
sg16
I0
sg17
g2712
ssg2686
(dp2740
g14
S'name'
p2741
sg16
I0
sg17
g2719
sssg109
(dp2742
sg111
(dp2743
g2683
(dp2744
sg2687
(dp2745
sg2691
(dp2746
sg2695
(dp2747
sg2698
(dp2748
g65
(dp2749
I0
(dp2750
g116
S'domain'
p2751
ssssg2701
(dp2752
g2712
(dp2753
I0
(dp2754
g116
S'op1'
p2755
sssg2719
(dp2756
I0
(dp2757
g116
S'op2'
p2758
ssssg2704
(dp2759
sg2707
(dp2760
g2694
(dp2761
I0
(dp2762
g116
S'name'
p2763
sssg18
(dp2764
I0
(dp2765
g116
S'ARG0-of'
p2766
ssssg3
(dp2767
sg2712
(dp2768
g2690
(dp2769
I0
(dp2770
g116
S'name'
p2771
ssssg18
(dp2772
g2704
(dp2773
I0
(dp2774
g116
S'ARG1'
p2775
ssssg65
(dp2776
g2707
(dp2777
I0
(dp2778
g116
S'ARG1'
p2779
ssssg2719
(dp2780
g2686
(dp2781
I0
(dp2782
g116
S'name'
p2783
ssssg32
(dp2784
g3
(dp2785
I0
(dp2786
g116
S'ARG0'
p2787
sssg89
(dp2788
I0
(dp2789
g116
S'ARG1'
p2790
sssg2698
(dp2791
I0
(dp2792
g116
S'mod'
p2793
sssg791
(dp2794
I0
(dp2795
g116
S'location'
p2796
ssssg301
(dp2797
sg72
(dp2798
g2695
(dp2799
I0
(dp2800
g116
S'op1'
p2801
ssssg89
(dp2802
g72
(dp2803
I0
(dp2804
g116
S'name'
p2805
ssssg92
(dp2806
g301
(dp2807
I0
(dp2808
g116
S'ARG0'
p2809
sssg86
(dp2810
I0
(dp2811
g116
S'time'
p2812
sssg2701
(dp2813
I0
(dp2814
g116
S'concession-of'
p2815
sssg32
(dp2816
I0
(dp2817
g116
S'ARG1'
p2818
ssssg86
(dp2819
sg791
(dp2820
sg2694
(dp2821
g2691
(dp2822
I0
(dp2823
g116
S'op1'
p2824
ssssg2690
(dp2825
g2687
(dp2826
I0
(dp2827
g116
S'op1'
p2828
ssssg2686
(dp2829
g2683
(dp2830
I0
(dp2831
g116
S'op1'
p2832
sssssg239
g2743
sg240
(dp2833
g2683
(dp2834
g2686
g2830
ssg2687
(dp2835
g2690
g2826
ssg2691
(dp2836
g2694
g2822
ssg2695
(dp2837
g72
g2799
ssg2698
(dp2838
g32
g2791
ssg2701
(dp2839
g92
g2813
ssg2704
(dp2840
g18
g2773
ssg2707
(dp2841
g65
g2777
ssg3
(dp2842
g32
g2785
ssg2712
(dp2843
g2701
g2753
ssg18
(dp2844
g2707
g2764
ssg65
(dp2845
g2698
g2749
ssg2719
(dp2846
g2701
g2756
ssg32
(dp2847
g92
g2816
ssg301
(dp2848
g92
g2807
ssg72
(dp2849
g89
g2803
ssg89
(dp2850
g32
g2788
ssg92
(dp2851
sg86
(dp2852
g92
g2810
ssg791
(dp2853
g32
g2794
ssg2694
(dp2854
g2707
g2761
ssg2690
(dp2855
g2712
g2769
ssg2686
(dp2856
g2719
g2781
sssg274
g2743
sbaS'It has recently been shown that oncogenic RAS can enhance the apoptotic function of p53 via ASPP1 and ASPP2 .'
p2857
asS'bio.bmtr_0005.23'
p2858
(lp2859
g3
ag4
(g5
g6
Ntp2860
Rp2861
(dp2862
g10
(dp2863
g3
(dp2864
g14
S'activate-01'
p2865
sg16
I0
sg17
NssS'p2'
p2866
(dp2867
g14
S'protein'
p2868
sg16
I0
sg17
g92
ssg18
(dp2869
g14
S'country'
p2870
sg16
I0
sg17
g301
ssS'n2:0:"ASPP2"'
p2871
(dp2872
g14
S'"ASPP2"'
p2873
sg16
I0
sg17
S'n2'
p2874
ssg301
(dp2875
g14
S'investigate-01'
p2876
sg16
I1
sg17
g81
ssg81
(dp2877
g14
S'mechanism'
p2878
sg16
I3
sg17
g3
ssg72
(dp2879
g14
S'name'
p2880
sg16
I0
sg17
g89
ssg89
(dp2881
g14
S'pathway'
p2882
sg16
I0
sg17
g3
ssg92
(dp2883
g14
S'stabilize-01'
p2884
sg16
I2
sg17
g3
ssS'a2'
p2885
(dp2886
g14
S'additional'
p2887
sg16
I1
sg17
g3
ssg700
(dp2888
g14
S'underlie-01'
p2889
sg16
I0
sg17
g81
ssS'n:0:"RAS/Raf/MAPK"'
p2890
(dp2891
g14
S'"RAS/Raf/MAPK"'
p2892
sg16
I0
sg17
g72
ssg2874
(dp2893
g14
S'name'
p2894
sg16
I0
sg17
g2866
ssg86
(dp2895
g14
S'remain-01'
p2896
sg16
I0
sg17
g18
sssg109
(dp2897
sg111
(dp2898
g3
(dp2899
g89
(dp2900
I0
(dp2901
g116
S'ARG1'
p2902
sssg92
(dp2903
I0
(dp2904
g116
S'concession-of'
p2905
sssg2885
(dp2906
I0
(dp2907
g116
S'mod'
p2908
sssg81
(dp2909
I0
(dp2910
g116
S'manner'
p2911
ssssg2866
(dp2912
g2874
(dp2913
I0
(dp2914
g116
S'name'
p2915
ssssg18
(dp2916
g86
(dp2917
I0
(dp2918
g116
S'ARG1-of'
p2919
ssssg2871
(dp2920
sg301
(dp2921
g18
(dp2922
I0
(dp2923
g116
S'ARG0'
p2924
ssssg81
(dp2925
g301
(dp2926
I0
(dp2927
g116
S'ARG1-of'
p2928
sssg700
(dp2929
I0
(dp2930
g116
S'ARG1-of'
p2931
ssssg72
(dp2932
g2890
(dp2933
I0
(dp2934
g116
S'op1'
p2935
ssssg89
(dp2936
g72
(dp2937
I0
(dp2938
g116
S'name'
p2939
ssssg92
(dp2940
g2866
(dp2941
I0
(dp2942
g116
S'ARG1'
p2943
ssssg2885
(dp2944
sg700
(dp2945
sg2890
(dp2946
sg2874
(dp2947
g2871
(dp2948
I0
(dp2949
g116
S'op1'
p2950
ssssg86
(dp2951
ssg239
g2898
sg240
(dp2952
g3
(dp2953
sg2866
(dp2954
g92
g2941
ssg18
(dp2955
g301
g2922
ssg2871
(dp2956
g2874
g2948
ssg301
(dp2957
g81
g2926
ssg81
(dp2958
g3
g2909
ssg72
(dp2959
g89
g2937
ssg89
(dp2960
g3
g2900
ssg92
(dp2961
g3
g2903
ssg2885
(dp2962
g3
g2906
ssg700
(dp2963
g81
g2929
ssg2890
(dp2964
g72
g2933
ssg2874
(dp2965
g2866
g2913
ssg86
(dp2966
g18
g2917
sssg274
g2898
sbaS'Additionally , RAS/Raf/MAPK pathway activation stabilizes ASPP2 protein , although the underlying mechanism remains to be investigated .'
p2967
asS'bio.bmtr_0005.22'
p2968
(lp2969
g3
ag4
(g5
g6
Ntp2970
Rp2971
(dp2972
g10
(dp2973
S'f2'
p2974
(dp2975
g14
S'favor-01'
p2976
sg16
I0
sg17
g32
ssS'f3'
p2977
(dp2978
g14
S'figure'
p2979
sg16
I1
sg17
S'a3'
p2980
ssS'n:0:"RAS/Raf/MAPK"'
p2981
(dp2982
g14
S'"RAS/Raf/MAPK"'
p2983
sg16
I0
sg17
g72
ssS'c2'
p2984
(dp2985
g14
S'cause-01'
p2986
sg16
I1
sg17
S'i3'
p2987
ssS'f3:0:5'
p2988
(dp2989
g14
S'5'
p2990
sg16
I0
sg17
g2977
ssS'n6:0:"p53"'
p2991
(dp2992
g14
S'"p53"'
p2993
sg16
I0
sg17
S'n6'
p2994
ssS'n4:0:"p53"'
p2995
(dp2996
g14
S'"p53"'
p2997
sg16
I0
sg17
S'n4'
p2998
ssS'p2'
p2999
(dp3000
g14
S'phosphorylate-01'
p3001
sg16
I1
sg17
g92
ssS'n5:0:"RAS"'
p3002
(dp3003
g14
S'"RAS"'
p3004
sg16
I0
sg17
S'n5'
p3005
ssS'n2:0:"ASPP2"'
p3006
(dp3007
g14
S'"ASPP2"'
p3008
sg16
I0
sg17
S'n2'
p3009
ssg2987
(dp3010
g14
S'increase-01'
p3011
sg16
I2
sg17
g32
ssS'i2'
p3012
(dp3013
g14
S'it'
p3014
sg16
I0
sg17
g301
ssg2980
(dp3015
g14
S'and'
p3016
sg16
I4
sg17
g3
ssS'a2'
p3017
(dp3018
g14
S'and'
p3019
sg16
I0
sg17
g3
ssS'a5'
p3020
(dp3021
g14
S'activate-01'
p3022
sg16
I0
sg17
S'p5'
p3023
ssS'a4'
p3024
(dp3025
g14
S'apoptosis'
p3026
sg16
I0
sg17
g2974
ssS'p6'
p3027
(dp3028
g14
S'protein'
p3029
sg16
I1
sg17
g3020
ssS'e2'
p3030
(dp3031
g14
S'enzyme'
p3032
sg16
I0
sg17
g3020
ssg3
(dp3033
g14
S'amr-glue'
p3034
sg16
I0
sg17
NssS'p3'
p3035
(dp3036
g14
S'pathway'
p3037
sg16
I0
sg17
g2999
ssg18
(dp3038
g14
S'cytosol'
p3039
sg16
I0
sg17
g97
ssg308
(dp3040
g14
S'bind-01'
p3041
sg16
I0
sg17
g2987
ssg65
(dp3042
g14
S'explain-01'
p3043
sg16
I1
sg17
g32
ssS'p7'
p3044
(dp3045
g14
S'protein'
p3046
sg16
I0
sg17
g308
ssS'p4'
p3047
(dp3048
g14
S'protein'
p3049
sg16
I1
sg17
g2999
ssg32
(dp3050
g14
S'function'
p3051
sg16
I0
sg17
g2980
ssg301
(dp3052
g14
S'increase-01'
p3053
sg16
I0
sg17
g665
ssg766
(dp3054
g14
S'here'
p3055
sg16
I2
sg17
g92
ssS'p8'
p3056
(dp3057
g14
S'provide-01'
p3058
sg16
I0
sg17
g2984
ssg3023
(dp3059
g14
S'possible'
p3060
sg16
I0
sg17
g65
ssg665
(dp3061
g14
S'lead-03'
p3062
sg16
I1
sg17
g3
ssg72
(dp3063
g14
S'name'
p3064
sg16
I0
sg17
g3035
ssg89
(dp3065
g14
S'phosphorylate-01'
p3066
sg16
I1
sg17
g3017
ssg92
(dp3067
g14
S'show-01'
p3068
sg16
I0
sg17
g3017
ssg97
(dp3069
g14
S'translocate-00'
p3070
sg16
I2
sg17
g3
ssg100
(dp3071
g14
S'we'
p3072
sg16
I0
sg17
g92
ssg3009
(dp3073
g14
S'name'
p3074
sg16
I0
sg17
g3047
ssS'n3'
p3075
(dp3076
g14
S'nucleus'
p3077
sg16
I3
sg17
g3
ssg2998
(dp3078
g14
S'name'
p3079
sg16
I0
sg17
g3027
ssg3005
(dp3080
g14
S'name'
p3081
sg16
I0
sg17
g3030
ssg2994
(dp3082
g14
S'name'
p3083
sg16
I0
sg17
g3044
sssg109
(dp3084
sg111
(dp3085
g2974
(dp3086
g3024
(dp3087
I0
(dp3088
g116
S'ARG1'
p3089
ssssg2977
(dp3090
g2988
(dp3091
I0
(dp3092
g116
S'mod'
p3093
ssssg2981
(dp3094
sg2984
(dp3095
g3056
(dp3096
I0
(dp3097
g116
S'ARG0'
p3098
ssssg2988
(dp3099
sg2991
(dp3100
sg2995
(dp3101
sg2999
(dp3102
g3035
(dp3103
I0
(dp3104
g116
S'ARG0'
p3105
sssg3047
(dp3106
I0
(dp3107
g116
S'ARG1'
p3108
ssssg3002
(dp3109
sg3006
(dp3110
sg2987
(dp3111
g2984
(dp3112
I0
(dp3113
g116
S'ARG1-of'
p3114
sssg308
(dp3115
I0
(dp3116
g116
S'ARG1'
p3117
ssssg3012
(dp3118
sg2980
(dp3119
g2977
(dp3120
I0
(dp3121
g116
S'op2'
p3122
sssg32
(dp3123
I0
(dp3124
g116
S'op1'
p3125
ssssg3017
(dp3126
g89
(dp3127
I0
(dp3128
g116
S'op2'
p3129
sssg92
(dp3130
I0
(dp3131
g116
S'op1'
p3132
ssssg3020
(dp3133
g3027
(dp3134
I0
(dp3135
g116
S'ARG1'
p3136
sssg3030
(dp3137
I0
(dp3138
g116
S'ARG0'
p3139
ssssg3024
(dp3140
sg3027
(dp3141
g2998
(dp3142
I0
(dp3143
g116
S'name'
p3144
ssssg3030
(dp3145
g3005
(dp3146
I0
(dp3147
g116
S'name'
p3148
ssssg3
(dp3149
g2980
(dp3150
I0
(dp3151
g116
S'glue5'
p3152
sssg3075
(dp3153
I0
(dp3154
g116
S'glue4'
p3155
sssg3017
(dp3156
I0
(dp3157
g116
S'glue1'
p3158
sssg665
(dp3159
I0
(dp3160
g116
S'glue2'
p3161
sssg97
(dp3162
I0
(dp3163
g116
S'glue3'
p3164
ssssg3035
(dp3165
g72
(dp3166
I0
(dp3167
g116
S'name'
p3168
ssssg18
(dp3169
sg308
(dp3170
g3044
(dp3171
I0
(dp3172
g116
S'ARG2'
p3173
ssssg65
(dp3174
g3023
(dp3175
I0
(dp3176
g116
S'ARG1'
p3177
ssssg3044
(dp3178
g2994
(dp3179
I0
(dp3180
g116
S'name'
p3181
ssssg3047
(dp3182
g3009
(dp3183
I0
(dp3184
g116
S'name'
p3185
ssssg32
(dp3186
g2974
(dp3187
I0
(dp3188
g116
S'mod'
p3189
sssg65
(dp3190
I0
(dp3191
g116
S'mod'
p3192
sssg2987
(dp3193
I0
(dp3194
g116
S'mod'
p3195
ssssg301
(dp3196
g3012
(dp3197
I0
(dp3198
g116
S'ARG1'
p3199
ssssg766
(dp3200
sg3056
(dp3201
sg3023
(dp3202
g3020
(dp3203
I0
(dp3204
g116
S'domain'
p3205
ssssg665
(dp3206
g301
(dp3207
I0
(dp3208
g116
S'ARG2'
p3209
ssssg72
(dp3210
g2981
(dp3211
I0
(dp3212
g116
S'op1'
p3213
ssssg89
(dp3214
sg92
(dp3215
g2999
(dp3216
I0
(dp3217
g116
S'ARG1'
p3218
sssg766
(dp3219
I0
(dp3220
g116
S'location'
p3221
sssg100
(dp3222
I0
(dp3223
g116
S'ARG0'
p3224
ssssg97
(dp3225
g18
(dp3226
I0
(dp3227
g116
S'ARG1'
p3228
ssssg100
(dp3229
sg3009
(dp3230
g3006
(dp3231
I0
(dp3232
g116
S'op1'
p3233
ssssg3075
(dp3234
sg2998
(dp3235
g2995
(dp3236
I0
(dp3237
g116
S'op1'
p3238
ssssg3005
(dp3239
g3002
(dp3240
I0
(dp3241
g116
S'op1'
p3242
ssssg2994
(dp3243
g2991
(dp3244
I0
(dp3245
g116
S'op1'
p3246
sssssg239
g3085
sg240
(dp3247
g2974
(dp3248
g32
g3187
ssg2977
(dp3249
g2980
g3120
ssg2981
(dp3250
g72
g3211
ssg2984
(dp3251
g2987
g3112
ssg2988
(dp3252
g2977
g3091
ssg2991
(dp3253
g2994
g3244
ssg2995
(dp3254
g2998
g3236
ssg2999
(dp3255
g92
g3216
ssg3002
(dp3256
g3005
g3240
ssg3006
(dp3257
g3009
g3231
ssg2987
(dp3258
g32
g3193
ssg3012
(dp3259
g301
g3197
ssg2980
(dp3260
g3
g3150
ssg3017
(dp3261
g3
g3156
ssg3020
(dp3262
g3023
g3203
ssg3024
(dp3263
g2974
g3087
ssg3027
(dp3264
g3020
g3134
ssg3030
(dp3265
g3020
g3137
ssg3
(dp3266
sg3035
(dp3267
g2999
g3103
ssg18
(dp3268
g97
g3226
ssg308
(dp3269
g2987
g3115
ssg65
(dp3270
g32
g3190
ssg3044
(dp3271
g308
g3171
ssg3047
(dp3272
g2999
g3106
ssg32
(dp3273
g2980
g3123
ssg301
(dp3274
g665
g3207
ssg766
(dp3275
g92
g3219
ssg3056
(dp3276
g2984
g3096
ssg3023
(dp3277
g65
g3175
ssg665
(dp3278
g3
g3159
ssg72
(dp3279
g3035
g3166
ssg89
(dp3280
g3017
g3127
ssg92
(dp3281
g3017
g3130
ssg97
(dp3282
g3
g3162
ssg100
(dp3283
g92
g3222
ssg3009
(dp3284
g3047
g3183
ssg3075
(dp3285
g3
g3153
ssg2998
(dp3286
g3027
g3142
ssg3005
(dp3287
g3030
g3146
ssg2994
(dp3288
g3044
g3179
sssg274
g3085
sbaS'We show here that ASPP2 is phosphorylated by the RAS/Raf/MAPK pathway and that this phosphorylation leads to its increased translocation to the cytosol @/@ nucleus and increased binding to p53 , providing an explanation of how RAS can activate p53 pro @-@ apoptotic functions ( Figure 5 ) .'
p3289
asS'bio.bmtr_0005.21'
p3290
(lp3291
g700
ag4
(g5
g6
Ntp3292
Rp3293
(dp3294
g10
(dp3295
g3
(dp3296
g14
S'affect-01'
p3297
sg16
I0
sg17
g89
ssS'p2'
p3298
(dp3299
g14
S'protein'
p3300
sg16
I1
sg17
g3
ssg18
(dp3301
g14
S'clear'
p3302
sg16
I3
sg17
g766
ssS'n:0:"ASPP2"'
p3303
(dp3304
g14
S'"ASPP2"'
p3305
sg16
I0
sg17
g72
ssg65
(dp3306
g14
S'enhance-01'
p3307
sg16
I1
sg17
g3298
ssg32
(dp3308
g14
S'function-01'
p3309
sg16
I2
sg17
g3298
ssg301
(dp3310
g14
S'it'
p3311
sg16
I0
sg17
g766
ssg766
(dp3312
g14
S'have-03'
p3313
sg16
I0
sg17
g3
ssS'c:0:-'
p3314
(dp3315
g14
g678
sg16
I0
sg17
g18
ssg72
(dp3316
g14
S'name'
p3317
sg16
I0
sg17
g3298
ssg89
(dp3318
g14
S'possible'
p3319
sg16
I0
sg17
g700
ssS'n2:0:"p53"'
p3320
(dp3321
g14
S'"p53"'
p3322
sg16
I0
sg17
S'n2'
p3323
ssS'p3'
p3324
(dp3325
g14
S'protein'
p3326
sg16
I0
sg17
g32
ssg700
(dp3327
g14
S'until'
p3328
sg16
I0
sg17
NssS'n4:0:"RAS"'
p3329
(dp3330
g14
S'"RAS"'
p3331
sg16
I0
sg17
S'n4'
p3332
ssg3323
(dp3333
g14
S'name'
p3334
sg16
I0
sg17
g3324
ssS'n3'
p3335
(dp3336
g14
S'now'
p3337
sg16
I2
sg17
g766
ssg3332
(dp3338
g14
S'name'
p3339
sg16
I0
sg17
S'e2'
p3340
ssg3340
(dp3341
g14
S'enzyme'
p3342
sg16
I1
sg17
g766
sssg109
(dp3343
sg111
(dp3344
g3
(dp3345
g3298
(dp3346
I0
(dp3347
g116
S'ARG1'
p3348
sssg766
(dp3349
I0
(dp3350
g116
S'ARG0'
p3351
ssssg3298
(dp3352
g32
(dp3353
I0
(dp3354
g116
S'ARG1-of'
p3355
sssg65
(dp3356
I0
(dp3357
g116
S'ARG2-of'
p3358
sssg72
(dp3359
I0
(dp3360
g116
S'name'
p3361
ssssg18
(dp3362
g3314
(dp3363
I0
(dp3364
g116
S'polarity'
p3365
ssssg3303
(dp3366
sg65
(dp3367
sg32
(dp3368
g3324
(dp3369
I0
(dp3370
g116
S'ARG0'
p3371
ssssg301
(dp3372
sg766
(dp3373
g301
(dp3374
I0
(dp3375
g116
S'ARG0'
p3376
sssg18
(dp3377
I0
(dp3378
g116
S'manner'
p3379
sssg3335
(dp3380
I0
(dp3381
g116
S'time'
p3382
sssg3340
(dp3383
I0
(dp3384
g116
S'ARG1'
p3385
ssssg3314
(dp3386
sg72
(dp3387
g3303
(dp3388
I0
(dp3389
g116
S'op1'
p3390
ssssg89
(dp3391
g3
(dp3392
I0
(dp3393
g116
S'domain'
p3394
ssssg3320
(dp3395
sg3324
(dp3396
g3323
(dp3397
I0
(dp3398
g116
S'name'
p3399
ssssg700
(dp3400
g89
(dp3401
I0
(dp3402
g116
S'op1'
p3403
ssssg3329
(dp3404
sg3323
(dp3405
g3320
(dp3406
I0
(dp3407
g116
S'op1'
p3408
ssssg3335
(dp3409
sg3332
(dp3410
g3329
(dp3411
I0
(dp3412
g116
S'op1'
p3413
ssssg3340
(dp3414
g3332
(dp3415
I0
(dp3416
g116
S'name'
p3417
sssssg239
g3344
sg240
(dp3418
g3
(dp3419
g89
g3392
ssg3298
(dp3420
g3
g3346
ssg18
(dp3421
g766
g3377
ssg3303
(dp3422
g72
g3388
ssg65
(dp3423
g3298
g3356
ssg32
(dp3424
g3298
g3353
ssg301
(dp3425
g766
g3374
ssg766
(dp3426
g3
g3349
ssg3314
(dp3427
g18
g3363
ssg72
(dp3428
g3298
g3359
ssg89
(dp3429
g700
g3401
ssg3320
(dp3430
g3323
g3406
ssg3324
(dp3431
g32
g3369
ssg700
(dp3432
sg3329
(dp3433
g3332
g3411
ssg3323
(dp3434
g3324
g3397
ssg3335
(dp3435
g766
g3380
ssg3332
(dp3436
g3340
g3415
ssg3340
(dp3437
g766
g3383
sssg274
g3344
sbaS'Until now , it has been unclear how RAS could affect ASPP2 to enhance p53 function .'
p3438
asS'bio.bmtr_0005.20'
p3439
(lp3440
g32
ag4
(g5
g6
Ntp3441
Rp3442
(dp3443
g10
(dp3444
S'p2'
p3445
(dp3446
g14
S'protein'
p3447
sg16
I1
sg17
g32
ssg18
(dp3448
g14
S'cell'
p3449
sg16
I1
sg17
g3445
ssS'n3:0:"p53"'
p3450
(dp3451
g14
S'"p53"'
p3452
sg16
I0
sg17
S'n3'
p3453
ssg65
(dp3454
g14
S'enzyme'
p3455
sg16
I1
sg17
g301
ssg32
(dp3456
g14
S'function-01'
p3457
sg16
I0
sg17
Nssg301
(dp3458
g14
S'interact-01'
p3459
sg16
I0
sg17
g32
ssg81
(dp3460
g14
S'moreover'
p3461
sg16
I2
sg17
g301
ssS'n2:0:"RAS"'
p3462
(dp3463
g14
S'"RAS"'
p3464
sg16
I0
sg17
S'n2'
p3465
ssg72
(dp3466
g14
S'name'
p3467
sg16
I0
sg17
g89
ssg89
(dp3468
g14
S'protein'
p3469
sg16
I0
sg17
g301
ssg97
(dp3470
g14
S'transcribe-01'
p3471
sg16
I0
sg17
S'e2'
p3472
ssS'c2'
p3473
(dp3474
g14
S'cancer'
p3475
sg16
I0
sg17
g18
ssg3465
(dp3476
g14
S'name'
p3477
sg16
I0
sg17
g65
ssg3453
(dp3478
g14
S'name'
p3479
sg16
I0
sg17
g3445
ssS'n:0:"ASPP"'
p3480
(dp3481
g14
S'"ASPP"'
p3482
sg16
I0
sg17
g72
ssg3472
(dp3483
g14
S'enhance-01'
p3484
sg16
I3
sg17
g301
sssg109
(dp3485
sg111
(dp3486
g3445
(dp3487
g18
(dp3488
I0
(dp3489
g116
S'location'
p3490
sssg3453
(dp3491
I0
(dp3492
g116
S'name'
p3493
ssssg18
(dp3494
g3473
(dp3495
I0
(dp3496
g116
S'mod'
p3497
ssssg3450
(dp3498
sg65
(dp3499
g3465
(dp3500
I0
(dp3501
g116
S'name'
p3502
ssssg32
(dp3503
g301
(dp3504
I0
(dp3505
g116
S'ARG0'
p3506
sssg3445
(dp3507
I0
(dp3508
g116
S'ARG1'
p3509
ssssg301
(dp3510
g89
(dp3511
I0
(dp3512
g116
S'ARG0'
p3513
sssg65
(dp3514
I0
(dp3515
g116
S'ARG1'
p3516
sssg81
(dp3517
I0
(dp3518
g116
S'mod'
p3519
sssg3472
(dp3520
I0
(dp3521
g116
S'ARG0-of'
p3522
ssssg81
(dp3523
sg3462
(dp3524
sg72
(dp3525
g3480
(dp3526
I0
(dp3527
g116
S'op1'
p3528
ssssg89
(dp3529
g72
(dp3530
I0
(dp3531
g116
S'name'
p3532
ssssg97
(dp3533
sg3473
(dp3534
sg3465
(dp3535
g3462
(dp3536
I0
(dp3537
g116
S'op1'
p3538
ssssg3453
(dp3539
g3450
(dp3540
I0
(dp3541
g116
S'op1'
p3542
ssssg3480
(dp3543
sg3472
(dp3544
g97
(dp3545
I0
(dp3546
g116
S'ARG1'
p3547
sssssg239
g3486
sg240
(dp3548
g3445
(dp3549
g32
g3507
ssg18
(dp3550
g3445
g3488
ssg3450
(dp3551
g3453
g3540
ssg65
(dp3552
g301
g3514
ssg32
(dp3553
sg301
(dp3554
g32
g3504
ssg81
(dp3555
g301
g3517
ssg3462
(dp3556
g3465
g3536
ssg72
(dp3557
g89
g3530
ssg89
(dp3558
g301
g3511
ssg97
(dp3559
g3472
g3545
ssg3473
(dp3560
g18
g3495
ssg3465
(dp3561
g65
g3500
ssg3453
(dp3562
g3445
g3491
ssg3480
(dp3563
g72
g3526
ssg3472
(dp3564
g301
g3520
sssg274
g3486
sbaS'Moreover , the RAS @-@ ASPP interaction enhances the transcription function of p53 in cancer cells [2].'
p3565
asS'bio.bmtr_0005.18'
p3566
(lp3567
g89
ag4
(g5
g6
Ntp3568
Rp3569
(dp3570
g10
(dp3571
g89
(dp3572
g14
S'passage'
p3573
sg16
I0
sg17
NssS'p:0:"1-2"'
p3574
(dp3575
g14
S'"1-2"'
p3576
sg16
I0
sg17
g89
sssg109
(dp3577
sg111
(dp3578
g89
(dp3579
g3574
(dp3580
I0
(dp3581
g116
S'mod'
p3582
ssssg3574
(dp3583
ssg239
g3578
sg240
(dp3584
g89
(dp3585
sg3574
(dp3586
g89
g3580
sssg274
g3578
sbaS'Passage 1 @-@ 2 ( Discussion/Conclusion )'
p3587
asS'bio.bmtr_0004.15'
p3588
(lp3589
g3
ag4
(g5
g6
Ntp3590
Rp3591
(dp3592
g10
(dp3593
S'n3:0:"GAP"'
p3594
(dp3595
g14
S'"GAP"'
p3596
sg16
I0
sg17
S'n3'
p3597
ssg81
(dp3598
g14
S'mediate-01'
p3599
sg16
I0
sg17
g86
ssS'd2'
p3600
(dp3601
g14
S'defect'
p3602
sg16
I3
sg17
S'i2'
p3603
ssS'n:0:"Ras"'
p3604
(dp3605
g14
S'"Ras"'
p3606
sg16
I0
sg17
g72
ssS's3'
p3607
(dp3608
g14
S'sensitivity'
p3609
sg16
I0
sg17
g3600
ssS's2'
p3610
(dp3611
g14
S'small-molecule'
p3612
sg16
I0
sg17
g308
ssS'p2'
p3613
(dp3614
g14
S'protein'
p3615
sg16
I0
sg17
g81
ssg3603
(dp3616
g14
S'increase-01'
p3617
sg16
I2
sg17
g3
ssS'a2'
p3618
(dp3619
g14
S'active'
p3620
sg16
I2
sg17
g65
ssS'n2:0:"GTP"'
p3621
(dp3622
g14
S'"GTP"'
p3623
sg16
I0
sg17
S'n2'
p3624
ssg3
(dp3625
g14
S'amr-glue'
p3626
sg16
I0
sg17
Nssg308
(dp3627
g14
S'bind-01'
p3628
sg16
I1
sg17
g65
ssg65
(dp3629
g14
S'enzyme'
p3630
sg16
I0
sg17
g3603
ssg757
(dp3631
g14
S'data'
p3632
sg16
I0
sg17
g3
ssg32
(dp3633
g14
S'find-01'
p3634
sg16
I0
sg17
S't2'
p3635
ssg301
(dp3636
g14
S'in-vitro'
p3637
sg16
I1
sg17
g92
ssg3635
(dp3638
g14
S'thing'
p3639
sg16
I1
sg17
g3
ssg72
(dp3640
g14
S'name'
p3641
sg16
I0
sg17
g65
ssg89
(dp3642
g14
S'population'
p3643
sg16
I1
sg17
g3603
ssg92
(dp3644
g14
S'support-01'
p3645
sg16
I1
sg17
g757
ssg86
(dp3646
g14
S'regulate-01'
p3647
sg16
I2
sg17
g3603
ssg97
(dp3648
g14
S'this'
p3649
sg16
I0
sg17
g757
ssg100
(dp3650
g14
S'we'
p3651
sg16
I0
sg17
g92
ssg3624
(dp3652
g14
S'name'
p3653
sg16
I0
sg17
g3610
ssg3597
(dp3654
g14
S'name'
p3655
sg16
I0
sg17
g3613
sssg109
(dp3656
sg111
(dp3657
g3594
(dp3658
sg81
(dp3659
g3613
(dp3660
I0
(dp3661
g116
S'ARG0'
p3662
ssssg3600
(dp3663
g3607
(dp3664
I0
(dp3665
g116
S'location'
p3666
ssssg3604
(dp3667
sg3607
(dp3668
sg3610
(dp3669
g3624
(dp3670
I0
(dp3671
g116
S'name'
p3672
ssssg3613
(dp3673
g3597
(dp3674
I0
(dp3675
g116
S'name'
p3676
ssssg3603
(dp3677
g89
(dp3678
I0
(dp3679
g116
S'ARG1'
p3680
sssg86
(dp3681
I0
(dp3682
g116
S'ARG2'
p3683
sssg65
(dp3684
I0
(dp3685
g116
S'ARG0'
p3686
sssg3600
(dp3687
I0
(dp3688
g116
S'manner'
p3689
ssssg3618
(dp3690
sg3621
(dp3691
sg3
(dp3692
g3603
(dp3693
I0
(dp3694
g116
S'glue3'
p3695
sssg3635
(dp3696
I0
(dp3697
g116
S'glue2'
p3698
sssg757
(dp3699
I0
(dp3700
g116
S'glue1'
p3701
ssssg308
(dp3702
g3610
(dp3703
I0
(dp3704
g116
S'ARG2'
p3705
ssssg65
(dp3706
g308
(dp3707
I0
(dp3708
g116
S'ARG1-of'
p3709
sssg3618
(dp3710
I0
(dp3711
g116
S'mod'
p3712
sssg72
(dp3713
I0
(dp3714
g116
S'name'
p3715
ssssg757
(dp3716
g92
(dp3717
I0
(dp3718
g116
S'ARG1-of'
p3719
sssg97
(dp3720
I0
(dp3721
g116
S'mod'
p3722
ssssg32
(dp3723
sg301
(dp3724
sg3635
(dp3725
g32
(dp3726
I0
(dp3727
g116
S'ARG1-of'
p3728
ssssg72
(dp3729
g3604
(dp3730
I0
(dp3731
g116
S'op1'
p3732
ssssg89
(dp3733
sg92
(dp3734
g301
(dp3735
I0
(dp3736
g116
S'manner'
p3737
sssg100
(dp3738
I0
(dp3739
g116
S'ARG0'
p3740
ssssg86
(dp3741
g81
(dp3742
I0
(dp3743
g116
S'ARG1-of'
p3744
ssssg97
(dp3745
sg100
(dp3746
sg3624
(dp3747
g3621
(dp3748
I0
(dp3749
g116
S'op1'
p3750
ssssg3597
(dp3751
g3594
(dp3752
I0
(dp3753
g116
S'op1'
p3754
sssssg239
g3657
sg240
(dp3755
g3594
(dp3756
g3597
g3752
ssg81
(dp3757
g86
g3742
ssg3600
(dp3758
g3603
g3687
ssg3604
(dp3759
g72
g3730
ssg3607
(dp3760
g3600
g3664
ssg3610
(dp3761
g308
g3703
ssg3613
(dp3762
g81
g3660
ssg3603
(dp3763
g3
g3693
ssg3618
(dp3764
g65
g3710
ssg3621
(dp3765
g3624
g3748
ssg3
(dp3766
sg308
(dp3767
g65
g3707
ssg65
(dp3768
g3603
g3684
ssg757
(dp3769
g3
g3699
ssg32
(dp3770
g3635
g3726
ssg301
(dp3771
g92
g3735
ssg3635
(dp3772
g3
g3696
ssg72
(dp3773
g65
g3713
ssg89
(dp3774
g3603
g3678
ssg92
(dp3775
g757
g3717
ssg86
(dp3776
g3603
g3681
ssg97
(dp3777
g757
g3720
ssg100
(dp3778
g92
g3738
ssg3624
(dp3779
g3610
g3670
ssg3597
(dp3780
g3613
g3674
sssg274
g3657
sbaS'These data support our in vitro findings that monoubiquitination increases the population of active , GTP @-@ bound Ras through a defect in sensitivity to GAP @-@ mediated regulation .'
p3781
asS'bio.bmtr_0004.14'
p3782
(lp3783
g3
ag4
(g5
g6
Ntp3784
Rp3785
(dp3786
g10
(dp3787
g3
(dp3788
g14
S'amr-glue'
p3789
sg16
I0
sg17
NssS'p2'
p3790
(dp3791
g14
S'protein'
p3792
sg16
I1
sg17
g766
ssS'n3'
p3793
(dp3794
g14
S'name'
p3795
sg16
I0
sg17
g89
ssg65
(dp3796
g14
S'enzyme'
p3797
sg16
I1
sg17
g3
ssg32
(dp3798
g14
S'figure'
p3799
sg16
I0
sg17
g92
ssS's3'
p3800
(dp3801
g14
S'small-molecule'
p3802
sg16
I0
sg17
g766
ssS's2'
p3803
(dp3804
g14
S'sensitive-41'
p3805
sg16
I2
sg17
g3
ssS'n:0:"K-Ras"'
p3806
(dp3807
g14
S'"K-Ras"'
p3808
sg16
I0
sg17
g72
ssg81
(dp3809
g14
S'mediate-01'
p3810
sg16
I2
sg17
g766
ssS'f:0:"5c"'
p3811
(dp3812
g14
S'"5c"'
p3813
sg16
I0
sg17
g32
ssg72
(dp3814
g14
S'name'
p3815
sg16
I0
sg17
g65
ssg89
(dp3816
g14
S'protein'
p3817
sg16
I0
sg17
g81
ssg92
(dp3818
g14
S'see-01'
p3819
sg16
I0
sg17
g3
ssS'n3:0:"GAP"'
p3820
(dp3821
g14
S'"GAP"'
p3822
sg16
I0
sg17
g3793
ssg700
(dp3823
g14
S'unmodified'
p3824
sg16
I3
sg17
g3
ssg766
(dp3825
g14
S'hydrolyze-01'
p3826
sg16
I4
sg17
g3
ssS'n2'
p3827
(dp3828
g14
S'name'
p3829
sg16
I0
sg17
g3800
ssS'n2:0:"GTP"'
p3830
(dp3831
g14
S'"GTP"'
p3832
sg16
I0
sg17
g3827
ssg665
(dp3833
g14
S'less'
p3834
sg16
I0
sg17
g3803
sssg109
(dp3835
sg111
(dp3836
g3
(dp3837
g3803
(dp3838
I0
(dp3839
g116
S'glue3'
p3840
sssg92
(dp3841
I0
(dp3842
g116
S'glue1'
p3843
sssg65
(dp3844
I0
(dp3845
g116
S'glue2'
p3846
sssg700
(dp3847
I0
(dp3848
g116
S'glue4'
p3849
sssg766
(dp3850
I0
(dp3851
g116
S'glue5'
p3852
ssssg3790
(dp3853
sg3793
(dp3854
g3820
(dp3855
I0
(dp3856
g116
S'op1'
p3857
ssssg65
(dp3858
g72
(dp3859
I0
(dp3860
g116
S'name'
p3861
ssssg32
(dp3862
g3811
(dp3863
I0
(dp3864
g116
S'mod'
p3865
ssssg3800
(dp3866
g3827
(dp3867
I0
(dp3868
g116
S'name'
p3869
ssssg3803
(dp3870
g665
(dp3871
I0
(dp3872
g116
S'degree'
p3873
ssssg3806
(dp3874
sg81
(dp3875
g89
(dp3876
I0
(dp3877
g116
S'ARG0'
p3878
ssssg3811
(dp3879
sg72
(dp3880
g3806
(dp3881
I0
(dp3882
g116
S'op1'
p3883
ssssg89
(dp3884
g3793
(dp3885
I0
(dp3886
g116
S'name'
p3887
ssssg92
(dp3888
g32
(dp3889
I0
(dp3890
g116
S'ARG1'
p3891
ssssg3820
(dp3892
sg700
(dp3893
sg766
(dp3894
g3800
(dp3895
I0
(dp3896
g116
S'ARG1'
p3897
sssg3790
(dp3898
I0
(dp3899
g116
S'ARG2'
p3900
sssg81
(dp3901
I0
(dp3902
g116
S'ARG1-of'
p3903
ssssg3827
(dp3904
g3830
(dp3905
I0
(dp3906
g116
S'op1'
p3907
ssssg3830
(dp3908
sg665
(dp3909
ssg239
g3836
sg240
(dp3910
g3
(dp3911
sg3790
(dp3912
g766
g3898
ssg3793
(dp3913
g89
g3885
ssg65
(dp3914
g3
g3844
ssg32
(dp3915
g92
g3889
ssg3800
(dp3916
g766
g3895
ssg3803
(dp3917
g3
g3838
ssg3806
(dp3918
g72
g3881
ssg81
(dp3919
g766
g3901
ssg3811
(dp3920
g32
g3863
ssg72
(dp3921
g65
g3859
ssg89
(dp3922
g81
g3876
ssg92
(dp3923
g3
g3841
ssg3820
(dp3924
g3793
g3855
ssg700
(dp3925
g3
g3847
ssg766
(dp3926
g3
g3850
ssg3827
(dp3927
g3800
g3867
ssg3830
(dp3928
g3827
g3905
ssg665
(dp3929
g3803
g3871
sssg274
g3836
sbaS'As seen in Figure 5c , monoubiquitinated K @-@ Ras is less sensitive than the unmodified protein to GAP @-@ mediated GTP hydrolysis .'
p3930
asS'bio.bmtr_0004.17'
p3931
(lp3932
g3
ag4
(g5
g6
Ntp3933
Rp3934
(dp3935
g10
(dp3936
S'b2'
p3937
(dp3938
g14
S'bind-01'
p3939
sg16
I1
sg17
g92
ssS'c2'
p3940
(dp3941
g14
S'cancer'
p3942
sg16
I0
sg17
g18
ssS'n:0:"Ras"'
p3943
(dp3944
g14
S'"Ras"'
p3945
sg16
I0
sg17
g72
ssS's2'
p3946
(dp3947
g14
S'small-molecule'
p3948
sg16
I0
sg17
g3937
ssS'm2'
p3949
(dp3950
g14
S'mediate-01'
p3951
sg16
I1
sg17
S'e8'
p3952
ssS'e2'
p3953
(dp3954
g14
S'enzyme'
p3955
sg16
I1
sg17
g3
ssS'p2'
p3956
(dp3957
g14
S'protein-segment'
p3958
sg16
I2
sg17
g3
ssS'n5:0:"Ras"'
p3959
(dp3960
g14
S'"Ras"'
p3961
sg16
I0
sg17
S'n5'
p3962
ssS'i3'
p3963
(dp3964
g14
S'impair-01'
p3965
sg16
I3
sg17
g3
ssS'i2'
p3966
(dp3967
g14
S'increase-01'
p3968
sg16
I0
sg17
g89
ssS'n3:0:"Raf"'
p3969
(dp3970
g14
S'"Raf"'
p3971
sg16
I0
sg17
S'n3'
p3972
ssS'a2'
p3973
(dp3974
g14
S'activate-01'
p3975
sg16
I2
sg17
g92
ssS'a5'
p3976
(dp3977
g14
S'and'
p3978
sg16
I0
sg17
S'a4'
p3979
ssg3979
(dp3980
g14
S'and'
p3981
sg16
I0
sg17
S'e4'
p3982
ssS'e5'
p3983
(dp3984
g14
S'effector'
p3985
sg16
I0
sg17
S'a3'
p3986
ssg3982
(dp3987
g14
S'enhance-01'
p3988
sg16
I1
sg17
S'e3'
p3989
ssS'e7'
p3990
(dp3991
g14
S'enzyme'
p3992
sg16
I1
sg17
g3976
ssS'e6'
p3993
(dp3994
g14
S'enzyme'
p3995
sg16
I0
sg17
g3976
ssg3989
(dp3996
g14
S'enzyme'
p3997
sg16
I0
sg17
g3956
ssS'n2:0:"GTP"'
p3998
(dp3999
g14
S'"GTP"'
p4000
sg16
I0
sg17
S'n2'
p4001
ssg3
(dp4002
g14
S'amr-glue'
p4003
sg16
I0
sg17
NssS'p3'
p4004
(dp4005
g14
S'primary'
p4006
sg16
I2
sg17
g3989
ssg18
(dp4007
g14
S'cause-01'
p4008
sg16
I2
sg17
g3952
ssg65
(dp4009
g14
S'establish-01'
p4010
sg16
I0
sg17
g3
ssg757
(dp4011
g14
S'downstream'
p4012
sg16
I0
sg17
g3983
ssg301
(dp4013
g14
S'it'
p4014
sg16
I0
sg17
g65
ssS'n4:0:"PI3-Kinase"'
p4015
(dp4016
g14
S'"PI3-Kinase"'
p4017
sg16
I0
sg17
S'n4'
p4018
ssg81
(dp4019
g14
S'mutate-01'
p4020
sg16
I0
sg17
g3989
ssg3986
(dp4021
g14
S'associate-01'
p4022
sg16
I1
sg17
g3982
ssg72
(dp4023
g14
S'name'
p4024
sg16
I0
sg17
g3953
ssg89
(dp4025
g14
S'proportion'
p4026
sg16
I2
sg17
g3953
ssg92
(dp4027
g14
S'state'
p4028
sg16
I1
sg17
g3953
ssg86
(dp4029
g14
S'recent'
p4030
sg16
I1
sg17
g65
ssg97
(dp4031
g14
S'that'
p4032
sg16
I0
sg17
g92
ssg4001
(dp4033
g14
S'name'
p4034
sg16
I0
sg17
g3946
ssg3972
(dp4035
g14
S'name'
p4036
sg16
I0
sg17
g3993
ssg4018
(dp4037
g14
S'name'
p4038
sg16
I0
sg17
g3990
ssg3962
(dp4039
g14
S'name'
p4040
sg16
I0
sg17
g3952
ssg3952
(dp4041
g14
S'enzyme'
p4042
sg16
I0
sg17
g3963
sssg109
(dp4043
sg111
(dp4044
g3937
(dp4045
g3946
(dp4046
I0
(dp4047
g116
S'ARG1'
p4048
ssssg3940
(dp4049
sg3943
(dp4050
sg3946
(dp4051
g4001
(dp4052
I0
(dp4053
g116
S'name'
p4054
ssssg3949
(dp4055
sg3953
(dp4056
g89
(dp4057
I0
(dp4058
g116
S'quant'
p4059
sssg92
(dp4060
I0
(dp4061
g116
S'location'
p4062
sssg72
(dp4063
I0
(dp4064
g116
S'name'
p4065
ssssg3956
(dp4066
g3989
(dp4067
I0
(dp4068
g116
S'part-of'
p4069
ssssg3959
(dp4070
sg3963
(dp4071
g3952
(dp4072
I0
(dp4073
g116
S'ARG1'
p4074
ssssg3966
(dp4075
sg3969
(dp4076
sg3973
(dp4077
sg3976
(dp4078
g3990
(dp4079
I0
(dp4080
g116
S'op2'
p4081
sssg3993
(dp4082
I0
(dp4083
g116
S'op1'
p4084
ssssg3979
(dp4085
g3976
(dp4086
I0
(dp4087
g116
S'op1'
p4088
ssssg3983
(dp4089
g757
(dp4090
I0
(dp4091
g116
S'location'
p4092
ssssg3982
(dp4093
g3986
(dp4094
I0
(dp4095
g116
S'ARG1-of'
p4096
sssg3979
(dp4097
I0
(dp4098
g116
S'ARG1'
p4099
ssssg3990
(dp4100
g4018
(dp4101
I0
(dp4102
g116
S'name'
p4103
ssssg3993
(dp4104
g3972
(dp4105
I0
(dp4106
g116
S'name'
p4107
ssssg3989
(dp4108
g3982
(dp4109
I0
(dp4110
g116
S'ARG2-of'
p4111
sssg81
(dp4112
I0
(dp4113
g116
S'ARG2-of'
p4114
sssg4004
(dp4115
I0
(dp4116
g116
S'mod'
p4117
ssssg3998
(dp4118
sg3
(dp4119
g3956
(dp4120
I0
(dp4121
g116
S'glue3'
p4122
sssg3963
(dp4123
I0
(dp4124
g116
S'glue4'
p4125
sssg65
(dp4126
I0
(dp4127
g116
S'glue1'
p4128
sssg3953
(dp4129
I0
(dp4130
g116
S'glue2'
p4131
ssssg4004
(dp4132
sg18
(dp4133
g3940
(dp4134
I0
(dp4135
g116
S'ARG1'
p4136
ssssg65
(dp4137
g301
(dp4138
I0
(dp4139
g116
S'ARG0'
p4140
sssg86
(dp4141
I0
(dp4142
g116
S'time'
p4143
ssssg757
(dp4144
sg301
(dp4145
sg4015
(dp4146
sg81
(dp4147
sg3986
(dp4148
g3983
(dp4149
I0
(dp4150
g116
S'ARG2'
p4151
ssssg72
(dp4152
g3943
(dp4153
I0
(dp4154
g116
S'op1'
p4155
ssssg89
(dp4156
g3966
(dp4157
I0
(dp4158
g116
S'ARG1-of'
p4159
ssssg92
(dp4160
g3973
(dp4161
I0
(dp4162
g116
S'ARG1-of'
p4163
sssg97
(dp4164
I0
(dp4165
g116
S'mod'
p4166
sssg3937
(dp4167
I0
(dp4168
g116
S'ARG0-of'
p4169
ssssg86
(dp4170
sg97
(dp4171
sg4001
(dp4172
g3998
(dp4173
I0
(dp4174
g116
S'op1'
p4175
ssssg3972
(dp4176
g3969
(dp4177
I0
(dp4178
g116
S'op1'
p4179
ssssg4018
(dp4180
g4015
(dp4181
I0
(dp4182
g116
S'op1'
p4183
ssssg3962
(dp4184
g3959
(dp4185
I0
(dp4186
g116
S'op1'
p4187
ssssg3952
(dp4188
g18
(dp4189
I0
(dp4190
g116
S'ARG0-of'
p4191
sssg3962
(dp4192
I0
(dp4193
g116
S'name'
p4194
sssg3949
(dp4195
I0
(dp4196
g116
S'ARG0-of'
p4197
sssssg239
g4044
sg240
(dp4198
g3937
(dp4199
g92
g4167
ssg3940
(dp4200
g18
g4134
ssg3943
(dp4201
g72
g4153
ssg3946
(dp4202
g3937
g4046
ssg3949
(dp4203
g3952
g4195
ssg3953
(dp4204
g3
g4129
ssg3956
(dp4205
g3
g4120
ssg3959
(dp4206
g3962
g4185
ssg3963
(dp4207
g3
g4123
ssg3966
(dp4208
g89
g4157
ssg3969
(dp4209
g3972
g4177
ssg3973
(dp4210
g92
g4161
ssg3976
(dp4211
g3979
g4086
ssg3979
(dp4212
g3982
g4097
ssg3983
(dp4213
g3986
g4149
ssg3982
(dp4214
g3989
g4109
ssg3990
(dp4215
g3976
g4079
ssg3993
(dp4216
g3976
g4082
ssg3989
(dp4217
g3956
g4067
ssg3998
(dp4218
g4001
g4173
ssg3
(dp4219
sg4004
(dp4220
g3989
g4115
ssg18
(dp4221
g3952
g4189
ssg65
(dp4222
g3
g4126
ssg757
(dp4223
g3983
g4090
ssg301
(dp4224
g65
g4138
ssg4015
(dp4225
g4018
g4181
ssg81
(dp4226
g3989
g4112
ssg3986
(dp4227
g3982
g4094
ssg72
(dp4228
g3953
g4063
ssg89
(dp4229
g3953
g4057
ssg92
(dp4230
g3953
g4060
ssg86
(dp4231
g65
g4141
ssg97
(dp4232
g92
g4164
ssg4001
(dp4233
g3946
g4052
ssg3972
(dp4234
g3993
g4105
ssg4018
(dp4235
g3990
g4101
ssg3962
(dp4236
g3952
g4192
ssg3952
(dp4237
g3963
g4072
sssg274
g4044
sbaS'It was established recently that monoubiquitination increases the proportion of Ras that is in the activated ( GTP @-@ bound ) state , that monoubiquitination enhances association with the downstream effectors Raf and PI3 @-@ Kinase , and that mutation of the primary site of monoubiquitination impairs oncogenic Ras @-@ mediated tumorigenesis .'
p4238
asS'bio.bmtr_0004.16'
p4239
(lp4240
g89
ag4
(g5
g6
Ntp4241
Rp4242
(dp4243
g10
(dp4244
g89
(dp4245
g14
S'passage'
p4246
sg16
I0
sg17
NssS'p:0:"1-2"'
p4247
(dp4248
g14
S'"1-2"'
p4249
sg16
I0
sg17
g89
sssg109
(dp4250
sg111
(dp4251
g89
(dp4252
g4247
(dp4253
I0
(dp4254
g116
S'mod'
p4255
ssssg4247
(dp4256
ssg239
g4251
sg240
(dp4257
g89
(dp4258
sg4247
(dp4259
g89
g4253
sssg274
g4251
sbaS'Passage 1 @-@ 2 ( Discussion/Conclusion )'
p4260
asS'bio.bmtr_0004.11'
p4261
(lp4262
g3
ag4
(g5
g6
Ntp4263
Rp4264
(dp4265
g10
(dp4266
S'b:1:1'
p4267
(dp4268
g14
S'1'
p4269
sg16
I1
sg17
g308
ssg665
(dp4270
g14
S'long'
p4271
sg16
I1
sg17
S's2'
p4272
ssg72
(dp4273
g14
S'name'
p4274
sg16
I0
sg17
g89
ssS'i2:0:-'
p4275
(dp4276
g14
g678
sg16
I0
sg17
S'i2'
p4277
ssg4272
(dp4278
g14
S'scale'
p4279
sg16
I0
sg17
g757
ssg86
(dp4280
g14
S'result-01'
p4281
sg16
I0
sg17
g97
ssS'b:0:2'
p4282
(dp4283
g14
g43
sg16
I0
sg17
g308
ssS'i3'
p4284
(dp4285
g14
S'include-91'
p4286
sg16
I2
sg17
g4272
ssg4277
(dp4287
g14
S'influence-01'
p4288
sg16
I2
sg17
g65
ssg3
(dp4289
g14
S'amr-glue'
p4290
sg16
I0
sg17
Nssg308
(dp4291
g14
S'bond'
p4292
sg16
I0
sg17
g4284
ssg65
(dp4293
g14
S'enzyme'
p4294
sg16
I2
sg17
g757
ssg757
(dp4295
g14
S'downregulate-01'
p4296
sg16
I1
sg17
g3
ssg301
(dp4297
g14
S'indicate-01'
p4298
sg16
I2
sg17
g97
ssS't2'
p4299
(dp4300
g14
S'this'
p4301
sg16
I1
sg17
g97
ssS't3'
p4302
(dp4303
g14
S'this'
p4304
sg16
I0
sg17
g4272
ssS'n2:0:"mUbRas"'
p4305
(dp4306
g14
S'"mUbRas"'
p4307
sg16
I0
sg17
S'n2'
p4308
ssg89
(dp4309
g14
S'protein'
p4310
sg16
I1
sg17
g757
ssg92
(dp4311
g14
S'sensitivity'
p4312
sg16
I1
sg17
g65
ssS'n:0:"GAP"'
p4313
(dp4314
g14
S'"GAP"'
p4315
sg16
I0
sg17
g72
ssg97
(dp4316
g14
S'thing'
p4317
sg16
I0
sg17
g3
ssg791
(dp4318
g14
S'vary-01'
p4319
sg16
I0
sg17
g301
ssg4308
(dp4320
g14
S'name'
p4321
sg16
I0
sg17
g65
sssg109
(dp4322
sg111
(dp4323
g4267
(dp4324
sg665
(dp4325
sg72
(dp4326
g4313
(dp4327
I0
(dp4328
g116
S'op1'
p4329
ssssg4275
(dp4330
sg4272
(dp4331
g4284
(dp4332
I0
(dp4333
g116
S'ARG2-of'
p4334
sssg4302
(dp4335
I0
(dp4336
g116
S'mod'
p4337
sssg665
(dp4338
I0
(dp4339
g116
S'mod'
p4340
ssssg86
(dp4341
sg4282
(dp4342
sg4284
(dp4343
g308
(dp4344
I0
(dp4345
g116
S'ARG1'
p4346
ssssg4277
(dp4347
g4275
(dp4348
I0
(dp4349
g116
S'polarity'
p4350
ssssg3
(dp4351
g97
(dp4352
I0
(dp4353
g116
S'glue1'
p4354
sssg757
(dp4355
I0
(dp4356
g116
S'glue2'
p4357
ssssg308
(dp4358
g4267
(dp4359
I0
(dp4360
g116
S'quant'
p4361
sssg4282
(dp4362
I0
(dp4363
g116
S'quant'
p4364
ssssg65
(dp4365
g4308
(dp4366
I0
(dp4367
g116
S'name'
p4368
sssg4277
(dp4369
I0
(dp4370
g116
S'ARG0-of'
p4371
sssg92
(dp4372
I0
(dp4373
g116
S'mod'
p4374
ssssg757
(dp4375
g4272
(dp4376
I0
(dp4377
g116
S'ARG0'
p4378
sssg65
(dp4379
I0
(dp4380
g116
S'ARG2'
p4381
sssg89
(dp4382
I0
(dp4383
g116
S'ARG1'
p4384
ssssg301
(dp4385
g791
(dp4386
I0
(dp4387
g116
S'ARG1'
p4388
ssssg4299
(dp4389
sg4302
(dp4390
sg4305
(dp4391
sg89
(dp4392
g72
(dp4393
I0
(dp4394
g116
S'name'
p4395
ssssg92
(dp4396
sg4313
(dp4397
sg97
(dp4398
g301
(dp4399
I0
(dp4400
g116
S'ARG0-of'
p4401
sssg86
(dp4402
I0
(dp4403
g116
S'ARG2-of'
p4404
sssg4299
(dp4405
I0
(dp4406
g116
S'mod'
p4407
ssssg791
(dp4408
sg4308
(dp4409
g4305
(dp4410
I0
(dp4411
g116
S'op1'
p4412
sssssg239
g4323
sg240
(dp4413
g4267
(dp4414
g308
g4359
ssg665
(dp4415
g4272
g4338
ssg72
(dp4416
g89
g4393
ssg4275
(dp4417
g4277
g4348
ssg4272
(dp4418
g757
g4376
ssg86
(dp4419
g97
g4402
ssg4282
(dp4420
g308
g4362
ssg4284
(dp4421
g4272
g4332
ssg4277
(dp4422
g65
g4369
ssg3
(dp4423
sg308
(dp4424
g4284
g4344
ssg65
(dp4425
g757
g4379
ssg757
(dp4426
g3
g4355
ssg301
(dp4427
g97
g4399
ssg4299
(dp4428
g97
g4405
ssg4302
(dp4429
g4272
g4335
ssg4305
(dp4430
g4308
g4410
ssg89
(dp4431
g757
g4382
ssg92
(dp4432
g65
g4372
ssg4313
(dp4433
g72
g4327
ssg97
(dp4434
g3
g4352
ssg791
(dp4435
g301
g4386
ssg4308
(dp4436
g65
g4366
sssg274
g4323
sbaS'These results indicate that variations in the linker length on this scale ( 1 @-@ 2 bonds ) do not influence the sensitivity of mUbRas to GAP downregulation .'
p4437
asS'bio.bmtr_0004.10'
p4438
(lp4439
g97
ag4
(g5
g6
Ntp4440
Rp4441
(dp4442
g10
(dp4443
S'n6:0:"Ras"'
p4444
(dp4445
g14
S'"Ras"'
p4446
sg16
I0
sg17
S'n6'
p4447
ssS'n3:0:"GAP"'
p4448
(dp4449
g14
S'"GAP"'
p4450
sg16
I0
sg17
S'n3'
p4451
ssS'n7:0:"ubiquitin"'
p4452
(dp4453
g14
S'"ubiquitin"'
p4454
sg16
I0
sg17
S'n7'
p4455
ssS'm3:0:"G76C"'
p4456
(dp4457
g14
S'"G76C"'
p4458
sg16
I0
sg17
S'm3'
p4459
ssS'n:0:"Ras"'
p4460
(dp4461
g14
S'"Ras"'
p4462
sg16
I0
sg17
g72
ssg4459
(dp4463
g14
S'mutate-01'
p4464
sg16
I1
sg17
S'p3'
p4465
ssS'm2'
p4466
(dp4467
g14
S'mediate-01'
p4468
sg16
I1
sg17
g89
ssS'l2'
p4469
(dp4470
g14
S'ligate-01'
p4471
sg16
I7
sg17
g97
ssS'e2'
p4472
(dp4473
g14
S'enzyme'
p4474
sg16
I0
sg17
S'i2'
p4475
ssS'p2'
p4476
(dp4477
g14
S'protein'
p4478
sg16
I0
sg17
S'c2'
p4479
ssS'i3'
p4480
(dp4481
g14
S'include-91'
p4482
sg16
I2
sg17
g4465
ssg4475
(dp4483
g14
S'include-91'
p4484
sg16
I6
sg17
g97
ssS'a2:0:77'
p4485
(dp4486
g14
S'77'
p4487
sg16
I0
sg17
S'a2'
p4488
ssS'f:0:"5b"'
p4489
(dp4490
g14
S'"5b"'
p4491
sg16
I0
sg17
g32
ssg4488
(dp4492
g14
S'amino-acid'
p4493
sg16
I1
sg17
g4479
ssS'n5:0:"ubiquitin"'
p4494
(dp4495
g14
S'"ubiquitin"'
p4496
sg16
I0
sg17
S'n5'
p4497
ssg4479
(dp4498
g14
S'cause-01'
p4499
sg16
I0
sg17
g18
ssS'n2:0:"GTP"'
p4500
(dp4501
g14
S'"GTP"'
p4502
sg16
I0
sg17
S'n2'
p4503
ssg3
(dp4504
g14
S'and'
p4505
sg16
I1
sg17
g81
ssg4465
(dp4506
g14
S'protein'
p4507
sg16
I0
sg17
g4469
ssg18
(dp4508
g14
S'cause-01'
p4509
sg16
I5
sg17
g97
ssg65
(dp4510
g14
S'enzyme'
p4511
sg16
I0
sg17
g700
ssS'n4:0:"cysteine"'
p4512
(dp4513
g14
S'"cysteine"'
p4514
sg16
I0
sg17
S'n4'
p4515
ssS'r2'
p4516
(dp4517
g14
S'rate'
p4518
sg16
I0
sg17
g3
ssg32
(dp4519
g14
S'figure'
p4520
sg16
I0
sg17
g4480
ssg301
(dp4521
g14
S'identical'
p4522
sg16
I2
sg17
g4479
ssg766
(dp4523
g14
S'hydrolyze-01'
p4524
sg16
I0
sg17
g4516
ssg81
(dp4525
g14
S'measure-01'
p4526
sg16
I3
sg17
g97
ssg665
(dp4527
g14
S'ligate-01'
p4528
sg16
I4
sg17
g97
ssg68
(dp4529
g14
S'observe-01'
p4530
sg16
I2
sg17
g97
ssg72
(dp4531
g14
S'name'
p4532
sg16
I0
sg17
g65
ssg89
(dp4533
g14
S'protein'
p4534
sg16
I1
sg17
g766
ssg92
(dp4535
g14
S'small-molecule'
p4536
sg16
I0
sg17
g766
ssg86
(dp4537
g14
S'respond-01'
p4538
sg16
I0
sg17
g97
ssg700
(dp4539
g14
S'ubiquitinate-01'
p4540
sg16
I1
sg17
g97
ssg97
(dp4541
g14
S'thing'
p4542
sg16
I0
sg17
Nssg100
(dp4543
g14
S'we'
p4544
sg16
I0
sg17
g81
ssg4503
(dp4545
g14
S'name'
p4546
sg16
I0
sg17
g92
ssg4451
(dp4547
g14
S'name'
p4548
sg16
I0
sg17
g89
ssg4515
(dp4549
g14
S'name'
p4550
sg16
I1
sg17
g4488
ssg4497
(dp4551
g14
S'name'
p4552
sg16
I0
sg17
g4476
ssg4447
(dp4553
g14
S'name'
p4554
sg16
I0
sg17
g4472
ssg4455
(dp4555
g14
S'name'
p4556
sg16
I0
sg17
g4465
sssg109
(dp4557
sg111
(dp4558
g4444
(dp4559
sg4448
(dp4560
sg4452
(dp4561
sg4456
(dp4562
sg4460
(dp4563
sg4459
(dp4564
g4456
(dp4565
I0
(dp4566
g116
S'value'
p4567
ssssg4466
(dp4568
sg4469
(dp4569
g4465
(dp4570
I0
(dp4571
g116
S'ARG2'
p4572
ssssg4472
(dp4573
g4447
(dp4574
I0
(dp4575
g116
S'name'
p4576
ssssg4476
(dp4577
g4497
(dp4578
I0
(dp4579
g116
S'name'
p4580
ssssg4480
(dp4581
g32
(dp4582
I0
(dp4583
g116
S'ARG1'
p4584
ssssg4475
(dp4585
g4472
(dp4586
I0
(dp4587
g116
S'ARG2'
p4588
ssssg4485
(dp4589
sg4489
(dp4590
sg4488
(dp4591
g4485
(dp4592
I0
(dp4593
g116
S'mod'
p4594
sssg4515
(dp4595
I0
(dp4596
g116
S'name'
p4597
ssssg4494
(dp4598
sg4479
(dp4599
g4476
(dp4600
I0
(dp4601
g116
S'ARG0'
p4602
sssg301
(dp4603
I0
(dp4604
g116
S'mod'
p4605
sssg4488
(dp4606
I0
(dp4607
g116
S'ARG1'
p4608
ssssg4500
(dp4609
sg3
(dp4610
g4516
(dp4611
I0
(dp4612
g116
S'op1'
p4613
ssssg4465
(dp4614
g4480
(dp4615
I0
(dp4616
g116
S'ARG2-of'
p4617
sssg4459
(dp4618
I0
(dp4619
g116
S'ARG2-of'
p4620
sssg4455
(dp4621
I0
(dp4622
g116
S'name'
p4623
ssssg18
(dp4624
g4479
(dp4625
I0
(dp4626
g116
S'ARG1'
p4627
ssssg65
(dp4628
g72
(dp4629
I0
(dp4630
g116
S'name'
p4631
ssssg4512
(dp4632
sg4516
(dp4633
g766
(dp4634
I0
(dp4635
g116
S'mod'
p4636
ssssg32
(dp4637
g4489
(dp4638
I0
(dp4639
g116
S'mod'
p4640
ssssg301
(dp4641
sg766
(dp4642
g89
(dp4643
I0
(dp4644
g116
S'ARG2'
p4645
sssg92
(dp4646
I0
(dp4647
g116
S'ARG1'
p4648
ssssg81
(dp4649
g3
(dp4650
I0
(dp4651
g116
S'ARG1'
p4652
sssg100
(dp4653
I0
(dp4654
g116
S'ARG0'
p4655
ssssg665
(dp4656
sg68
(dp4657
sg72
(dp4658
g4460
(dp4659
I0
(dp4660
g116
S'op1'
p4661
ssssg89
(dp4662
g4451
(dp4663
I0
(dp4664
g116
S'name'
p4665
sssg4466
(dp4666
I0
(dp4667
g116
S'ARG0-of'
p4668
ssssg92
(dp4669
g4503
(dp4670
I0
(dp4671
g116
S'name'
p4672
ssssg86
(dp4673
sg700
(dp4674
g65
(dp4675
I0
(dp4676
g116
S'ARG1'
p4677
ssssg97
(dp4678
g18
(dp4679
I0
(dp4680
g116
S'ARG0-of'
p4681
sssg4475
(dp4682
I0
(dp4683
g116
S'ARG1-of'
p4684
sssg81
(dp4685
I0
(dp4686
g116
S'manner-of'
p4687
sssg665
(dp4688
I0
(dp4689
g116
S'ARG1-of'
p4690
sssg68
(dp4691
I0
(dp4692
g116
S'ARG1-of'
p4693
sssg86
(dp4694
I0
(dp4695
g116
S'ARG2-of'
p4696
sssg700
(dp4697
I0
(dp4698
g116
S'ARG2-of'
p4699
sssg4469
(dp4700
I0
(dp4701
g116
S'ARG1-of'
p4702
ssssg100
(dp4703
sg4503
(dp4704
g4500
(dp4705
I0
(dp4706
g116
S'op1'
p4707
ssssg4451
(dp4708
g4448
(dp4709
I0
(dp4710
g116
S'op1'
p4711
ssssg4515
(dp4712
g4512
(dp4713
I0
(dp4714
g116
S'op1'
p4715
ssssg4497
(dp4716
g4494
(dp4717
I0
(dp4718
g116
S'op1'
p4719
ssssg4447
(dp4720
g4444
(dp4721
I0
(dp4722
g116
S'op1'
p4723
ssssg4455
(dp4724
g4452
(dp4725
I0
(dp4726
g116
S'op1'
p4727
sssssg239
g4558
sg240
(dp4728
g4444
(dp4729
g4447
g4721
ssg4448
(dp4730
g4451
g4709
ssg4452
(dp4731
g4455
g4725
ssg4456
(dp4732
g4459
g4565
ssg4460
(dp4733
g72
g4659
ssg4459
(dp4734
g4465
g4618
ssg4466
(dp4735
g89
g4666
ssg4469
(dp4736
g97
g4700
ssg4472
(dp4737
g4475
g4586
ssg4476
(dp4738
g4479
g4600
ssg4480
(dp4739
g4465
g4615
ssg4475
(dp4740
g97
g4682
ssg4485
(dp4741
g4488
g4592
ssg4489
(dp4742
g32
g4638
ssg4488
(dp4743
g4479
g4606
ssg4494
(dp4744
g4497
g4717
ssg4479
(dp4745
g18
g4625
ssg4500
(dp4746
g4503
g4705
ssg3
(dp4747
g81
g4650
ssg4465
(dp4748
g4469
g4570
ssg18
(dp4749
g97
g4679
ssg65
(dp4750
g700
g4675
ssg4512
(dp4751
g4515
g4713
ssg4516
(dp4752
g3
g4611
ssg32
(dp4753
g4480
g4582
ssg301
(dp4754
g4479
g4603
ssg766
(dp4755
g4516
g4634
ssg81
(dp4756
g97
g4685
ssg665
(dp4757
g97
g4688
ssg68
(dp4758
g97
g4691
ssg72
(dp4759
g65
g4629
ssg89
(dp4760
g766
g4643
ssg92
(dp4761
g766
g4646
ssg86
(dp4762
g97
g4694
ssg700
(dp4763
g97
g4697
ssg97
(dp4764
sg100
(dp4765
g81
g4653
ssg4503
(dp4766
g92
g4670
ssg4451
(dp4767
g89
g4663
ssg4515
(dp4768
g4488
g4595
ssg4497
(dp4769
g4476
g4578
ssg4447
(dp4770
g4472
g4574
ssg4455
(dp4771
g4465
g4621
sssg274
g4558
sbaS'We measured the rate of GAP @-@ mediated GTP hydrolysis and observed that the response of Ras ligated to Ubiquitin @-@ C77 was identical to Ras ligated to Ubiquitin @-@ G76C ( Fig . 5b ) .'
p4772
asS'bio.bmtr_0004.13'
p4773
(lp4774
g3
ag4
(g5
g6
Ntp4775
Rp4776
(dp4777
g10
(dp4778
g3
(dp4779
g14
S'amr-glue'
p4780
sg16
I0
sg17
Nssg18
(dp4781
g14
S'cell-line'
p4782
sg16
I2
sg17
g3
ssS'n3'
p4783
(dp4784
g14
S'name'
p4785
sg16
I0
sg17
g89
ssg65
(dp4786
g14
S'enzyme'
p4787
sg16
I1
sg17
g3
ssS'n:0:"Ras"'
p4788
(dp4789
g14
S'"Ras"'
p4790
sg16
I0
sg17
g72
ssg32
(dp4791
g14
S'fraction'
p4792
sg16
I1
sg17
S'e2'
p4793
ssS'n3:0:"GAP"'
p4794
(dp4795
g14
S'"GAP"'
p4796
sg16
I0
sg17
g4783
ssS'n4:0:"Ras"'
p4797
(dp4798
g14
S'"Ras"'
p4799
sg16
I0
sg17
S'n4'
p4800
ssS'a3'
p4801
(dp4802
g14
S'and'
p4803
sg16
I6
sg17
g3
ssg72
(dp4804
g14
S'name'
p4805
sg16
I0
sg17
g65
ssS'n2:0:"HEK293T"'
p4806
(dp4807
g14
S'"HEK293T"'
p4808
sg16
I0
sg17
S'n2'
p4809
ssg89
(dp4810
g14
S'protein'
p4811
sg16
I1
sg17
g86
ssg92
(dp4812
g14
S'sensitivity'
p4813
sg16
I5
sg17
g3
ssS'a2'
p4814
(dp4815
g14
S'and'
p4816
sg16
I3
sg17
g3
ssg700
(dp4817
g14
S'unmodified'
p4818
sg16
I7
sg17
g3
ssg100
(dp4819
g14
S'we'
p4820
sg16
I0
sg17
g3
ssS'c2'
p4821
(dp4822
g14
S'compare-01'
p4823
sg16
I4
sg17
g3
ssg4809
(dp4824
g14
S'name'
p4825
sg16
I0
sg17
g18
ssg86
(dp4826
g14
S'regulate-01'
p4827
sg16
I8
sg17
g3
ssg4800
(dp4828
g14
S'name'
p4829
sg16
I0
sg17
g4793
ssg4793
(dp4830
g14
S'enzyme'
p4831
sg16
I0
sg17
g86
sssg109
(dp4832
sg111
(dp4833
g3
(dp4834
g18
(dp4835
I0
(dp4836
g116
S'glue3'
p4837
sssg65
(dp4838
I0
(dp4839
g116
S'glue2'
p4840
sssg4801
(dp4841
I0
(dp4842
g116
S'glue7'
p4843
sssg92
(dp4844
I0
(dp4845
g116
S'glue6'
p4846
sssg4814
(dp4847
I0
(dp4848
g116
S'glue4'
p4849
sssg700
(dp4850
I0
(dp4851
g116
S'glue8'
p4852
sssg100
(dp4853
I0
(dp4854
g116
S'glue1'
p4855
sssg4821
(dp4856
I0
(dp4857
g116
S'glue5'
p4858
sssg86
(dp4859
I0
(dp4860
g116
S'glue9'
p4861
ssssg18
(dp4862
g4809
(dp4863
I0
(dp4864
g116
S'name'
p4865
ssssg4783
(dp4866
g4794
(dp4867
I0
(dp4868
g116
S'op1'
p4869
ssssg65
(dp4870
g72
(dp4871
I0
(dp4872
g116
S'name'
p4873
ssssg4788
(dp4874
sg32
(dp4875
sg4794
(dp4876
sg4797
(dp4877
sg4801
(dp4878
sg72
(dp4879
g4788
(dp4880
I0
(dp4881
g116
S'op1'
p4882
ssssg4806
(dp4883
sg89
(dp4884
g4783
(dp4885
I0
(dp4886
g116
S'name'
p4887
ssssg92
(dp4888
sg4814
(dp4889
sg700
(dp4890
sg100
(dp4891
sg4821
(dp4892
sg4809
(dp4893
g4806
(dp4894
I0
(dp4895
g116
S'op1'
p4896
ssssg86
(dp4897
g89
(dp4898
I0
(dp4899
g116
S'ARG2'
p4900
sssg4793
(dp4901
I0
(dp4902
g116
S'ARG1'
p4903
ssssg4800
(dp4904
g4797
(dp4905
I0
(dp4906
g116
S'op1'
p4907
ssssg4793
(dp4908
g4800
(dp4909
I0
(dp4910
g116
S'name'
p4911
sssg32
(dp4912
I0
(dp4913
g116
S'mod'
p4914
sssssg239
g4833
sg240
(dp4915
g3
(dp4916
sg18
(dp4917
g3
g4835
ssg4783
(dp4918
g89
g4885
ssg65
(dp4919
g3
g4838
ssg4788
(dp4920
g72
g4880
ssg32
(dp4921
g4793
g4912
ssg4794
(dp4922
g4783
g4867
ssg4797
(dp4923
g4800
g4905
ssg4801
(dp4924
g3
g4841
ssg72
(dp4925
g65
g4871
ssg4806
(dp4926
g4809
g4894
ssg89
(dp4927
g86
g4898
ssg92
(dp4928
g3
g4844
ssg4814
(dp4929
g3
g4847
ssg700
(dp4930
g3
g4850
ssg100
(dp4931
g3
g4853
ssg4821
(dp4932
g3
g4856
ssg4809
(dp4933
g18
g4863
ssg86
(dp4934
g3
g4859
ssg4800
(dp4935
g4793
g4909
ssg4793
(dp4936
g86
g4901
sssg274
g4833
sbaS'We immunoprecipitated Ras from HEK293T cells and compared the sensitivity of the monoubiquitinated and unmodified fractions of Ras to regulation by GAP .'
p4937
asS'bio.bmtr_0004.12'
p4938
(lp4939
g3
ag4
(g5
g6
Ntp4940
Rp4941
(dp4942
g10
(dp4943
S'h2'
p4944
(dp4945
g14
S'have-org-role-91'
p4946
sg16
I0
sg17
g100
ssS's3'
p4947
(dp4948
g14
S'system'
p4949
sg16
I2
sg17
g3
ssS's2'
p4950
(dp4951
g14
S'system'
p4952
sg16
I0
sg17
g4944
ssg92
(dp4953
g14
S'sensitivity'
p4954
sg16
I0
sg17
g700
ssS'm3'
p4955
(dp4956
g14
S'mechanism'
p4957
sg16
I1
sg17
g4944
ssS'm2'
p4958
(dp4959
g14
S'measure-01'
p4960
sg16
I1
sg17
g92
ssS'n:0:"mUbRas"'
p4961
(dp4962
g14
S'"mUbRas"'
p4963
sg16
I0
sg17
g72
ssS'e2'
p4964
(dp4965
g14
S'enzyme'
p4966
sg16
I0
sg17
g86
ssg3
(dp4967
g14
S'amr-glue'
p4968
sg16
I0
sg17
Nssg18
(dp4969
g14
S'cell'
p4970
sg16
I2
sg17
g65
ssg65
(dp4971
g14
S'enzyme'
p4972
sg16
I0
sg17
g92
ssg757
(dp4973
g14
S'dissect-01'
p4974
sg16
I1
sg17
g4955
ssg301
(dp4975
g14
S'in-vitro'
p4976
sg16
I2
sg17
g92
ssg766
(dp4977
g14
S'hydrolyze-01'
p4978
sg16
I1
sg17
g65
ssg81
(dp4979
g14
S'mediate-01'
p4980
sg16
I0
sg17
g766
ssg72
(dp4981
g14
S'name'
p4982
sg16
I0
sg17
g65
ssg89
(dp4983
g14
S'protein'
p4984
sg16
I0
sg17
g81
ssS'n2:0:"GAP"'
p4985
(dp4986
g14
S'"GAP"'
p4987
sg16
I0
sg17
S'n2'
p4988
ssg86
(dp4989
g14
S'regulate-01'
p4990
sg16
I0
sg17
g4955
ssg700
(dp4991
g14
S'use-01'
p4992
sg16
I1
sg17
g3
ssg100
(dp4993
g14
S'we'
p4994
sg16
I0
sg17
g4958
ssg791
(dp4995
g14
S'validate-01'
p4996
sg16
I0
sg17
g3
ssg4988
(dp4997
g14
S'name'
p4998
sg16
I0
sg17
g89
ssS'n3'
p4999
(dp5000
g14
S'name'
p5001
sg16
I0
sg17
g4964
ssS'n3:0:"Ras"'
p5002
(dp5003
g14
S'"Ras"'
p5004
sg16
I0
sg17
g4999
sssg109
(dp5005
sg111
(dp5006
g4944
(dp5007
g4950
(dp5008
I0
(dp5009
g116
S'ARG1'
p5010
sssg4955
(dp5011
I0
(dp5012
g116
S'ARG3'
p5013
ssssg4947
(dp5014
sg4950
(dp5015
sg92
(dp5016
g301
(dp5017
I0
(dp5018
g116
S'mod'
p5019
sssg65
(dp5020
I0
(dp5021
g116
S'poss'
p5022
sssg4958
(dp5023
I0
(dp5024
g116
S'manner-of'
p5025
ssssg4955
(dp5026
g86
(dp5027
I0
(dp5028
g116
S'ARG0-of'
p5029
sssg757
(dp5030
I0
(dp5031
g116
S'ARG1-of'
p5032
ssssg4958
(dp5033
g100
(dp5034
I0
(dp5035
g116
S'ARG0'
p5036
ssssg4961
(dp5037
sg4964
(dp5038
g4999
(dp5039
I0
(dp5040
g116
S'name'
p5041
ssssg3
(dp5042
g4947
(dp5043
I0
(dp5044
g116
S'glue3'
p5045
sssg700
(dp5046
I0
(dp5047
g116
S'glue2'
p5048
sssg791
(dp5049
I0
(dp5050
g116
S'glue1'
p5051
ssssg18
(dp5052
sg65
(dp5053
g766
(dp5054
I0
(dp5055
g116
S'ARG2-of'
p5056
sssg18
(dp5057
I0
(dp5058
g116
S'location'
p5059
sssg72
(dp5060
I0
(dp5061
g116
S'name'
p5062
ssssg757
(dp5063
sg301
(dp5064
sg766
(dp5065
g81
(dp5066
I0
(dp5067
g116
S'ARG1-of'
p5068
ssssg81
(dp5069
g89
(dp5070
I0
(dp5071
g116
S'ARG0'
p5072
ssssg72
(dp5073
g4961
(dp5074
I0
(dp5075
g116
S'op1'
p5076
ssssg89
(dp5077
g4988
(dp5078
I0
(dp5079
g116
S'name'
p5080
ssssg4985
(dp5081
sg86
(dp5082
g4964
(dp5083
I0
(dp5084
g116
S'ARG1'
p5085
ssssg700
(dp5086
g92
(dp5087
I0
(dp5088
g116
S'ARG1'
p5089
ssssg100
(dp5090
g4944
(dp5091
I0
(dp5092
g116
S'ARG0-of'
p5093
ssssg791
(dp5094
sg4988
(dp5095
g4985
(dp5096
I0
(dp5097
g116
S'op1'
p5098
ssssg4999
(dp5099
g5002
(dp5100
I0
(dp5101
g116
S'op1'
p5102
ssssg5002
(dp5103
ssg239
g5006
sg240
(dp5104
g4944
(dp5105
g100
g5091
ssg4947
(dp5106
g3
g5043
ssg4950
(dp5107
g4944
g5008
ssg92
(dp5108
g700
g5087
ssg4955
(dp5109
g4944
g5011
ssg4958
(dp5110
g92
g5023
ssg4961
(dp5111
g72
g5074
ssg4964
(dp5112
g86
g5083
ssg3
(dp5113
sg18
(dp5114
g65
g5057
ssg65
(dp5115
g92
g5020
ssg757
(dp5116
g4955
g5030
ssg301
(dp5117
g92
g5017
ssg766
(dp5118
g65
g5054
ssg81
(dp5119
g766
g5066
ssg72
(dp5120
g65
g5060
ssg89
(dp5121
g81
g5070
ssg4985
(dp5122
g4988
g5096
ssg86
(dp5123
g4955
g5027
ssg700
(dp5124
g3
g5046
ssg100
(dp5125
g4958
g5034
ssg791
(dp5126
g3
g5049
ssg4988
(dp5127
g89
g5078
ssg4999
(dp5128
g4964
g5039
ssg5002
(dp5129
g4999
g5100
sssg274
g5006
sbaS'To validate the use of an in vitro system to dissect the mechanism of Ras regulation , we measured the sensitivity of mUbRas to GAP @-@ mediated hydrolysis in a cellular reconstitution system .'
p5130
asS'bio.bmtr_0005.19'
p5131
(lp5132
g3
ag4
(g5
g6
Ntp5133
Rp5134
(dp5135
g10
(dp5136
S'n4:0:"ASPP2"'
p5137
(dp5138
g14
S'"ASPP2"'
p5139
sg16
I0
sg17
S'n4'
p5140
ssS's2'
p5141
(dp5142
g14
S'signal-01'
p5143
sg16
I1
sg17
g3
ssS'n2:0:"RAS"'
p5144
(dp5145
g14
S'"RAS"'
p5146
sg16
I0
sg17
S'n2'
p5147
ssS'p2'
p5148
(dp5149
g14
S'protein'
p5150
sg16
I0
sg17
g89
ssS'n3:0:"N-terminus"'
p5151
(dp5152
g14
S'"N-terminus"'
p5153
sg16
I0
sg17
S'n3'
p5154
ssS'a2'
p5155
(dp5156
g14
S'and'
p5157
sg16
I0
sg17
g92
ssS'n:0:"ASPP2"'
p5158
(dp5159
g14
S'"ASPP2"'
p5160
sg16
I0
sg17
g72
ssg3
(dp5161
g14
S'amr-glue'
p5162
sg16
I0
sg17
NssS'p3'
p5163
(dp5164
g14
S'protein-segment'
p5165
sg16
I0
sg17
g791
ssg308
(dp5166
g14
S'bind-01'
p5167
sg16
I1
sg17
g5141
ssg65
(dp5168
g14
S'enzyme'
p5169
sg16
I0
sg17
g5141
ssg757
(dp5170
g14
S'direct'
p5171
sg16
I2
sg17
g5141
ssS'p4'
p5172
(dp5173
g14
S'protein'
p5174
sg16
I1
sg17
g5163
ssg68
(dp5175
g14
S'other'
p5176
sg16
I1
sg17
g5155
ssg72
(dp5177
g14
S'name'
p5178
sg16
I0
sg17
g5148
ssg89
(dp5179
g14
S'possible'
p5180
sg16
I1
sg17
g92
ssg92
(dp5181
g14
S'show-01'
p5182
sg16
I0
sg17
g3
ssg86
(dp5183
g14
S'recent'
p5184
sg16
I2
sg17
g92
ssg100
(dp5185
g14
S'we'
p5186
sg16
I0
sg17
g5155
ssg791
(dp5187
g14
S'via'
p5188
sg16
I3
sg17
g5141
ssg5147
(dp5189
g14
S'name'
p5190
sg16
I0
sg17
g65
ssg5154
(dp5191
g14
S'name'
p5192
sg16
I0
sg17
g5163
ssg5140
(dp5193
g14
S'name'
p5194
sg16
I0
sg17
g5172
sssg109
(dp5195
sg111
(dp5196
g5137
(dp5197
sg5141
(dp5198
g308
(dp5199
I0
(dp5200
g116
S'ARG1'
p5201
sssg65
(dp5202
I0
(dp5203
g116
S'ARG0'
p5204
sssg757
(dp5205
I0
(dp5206
g116
S'mod'
p5207
sssg791
(dp5208
I0
(dp5209
g116
S'location'
p5210
ssssg5144
(dp5211
sg5148
(dp5212
g72
(dp5213
I0
(dp5214
g116
S'name'
p5215
ssssg5151
(dp5216
sg5155
(dp5217
g68
(dp5218
I0
(dp5219
g116
S'op2'
p5220
sssg100
(dp5221
I0
(dp5222
g116
S'op1'
p5223
ssssg5158
(dp5224
sg3
(dp5225
g5141
(dp5226
I0
(dp5227
g116
S'glue2'
p5228
sssg92
(dp5229
I0
(dp5230
g116
S'glue1'
p5231
ssssg5163
(dp5232
g5154
(dp5233
I0
(dp5234
g116
S'name'
p5235
sssg5172
(dp5236
I0
(dp5237
g116
S'part-of'
p5238
ssssg308
(dp5239
sg65
(dp5240
g5147
(dp5241
I0
(dp5242
g116
S'name'
p5243
ssssg757
(dp5244
sg5172
(dp5245
g5140
(dp5246
I0
(dp5247
g116
S'name'
p5248
ssssg68
(dp5249
sg72
(dp5250
g5158
(dp5251
I0
(dp5252
g116
S'op1'
p5253
ssssg89
(dp5254
g5148
(dp5255
I0
(dp5256
g116
S'mod'
p5257
ssssg92
(dp5258
g89
(dp5259
I0
(dp5260
g116
S'ARG1'
p5261
sssg86
(dp5262
I0
(dp5263
g116
S'time'
p5264
sssg5155
(dp5265
I0
(dp5266
g116
S'ARG0'
p5267
ssssg86
(dp5268
sg100
(dp5269
sg791
(dp5270
g5163
(dp5271
I0
(dp5272
g116
S'op1'
p5273
ssssg5147
(dp5274
g5144
(dp5275
I0
(dp5276
g116
S'op1'
p5277
ssssg5154
(dp5278
g5151
(dp5279
I0
(dp5280
g116
S'op1'
p5281
ssssg5140
(dp5282
g5137
(dp5283
I0
(dp5284
g116
S'op1'
p5285
sssssg239
g5196
sg240
(dp5286
g5137
(dp5287
g5140
g5283
ssg5141
(dp5288
g3
g5226
ssg5144
(dp5289
g5147
g5275
ssg5148
(dp5290
g89
g5255
ssg5151
(dp5291
g5154
g5279
ssg5155
(dp5292
g92
g5265
ssg5158
(dp5293
g72
g5251
ssg3
(dp5294
sg5163
(dp5295
g791
g5271
ssg308
(dp5296
g5141
g5199
ssg65
(dp5297
g5141
g5202
ssg757
(dp5298
g5141
g5205
ssg5172
(dp5299
g5163
g5236
ssg68
(dp5300
g5155
g5218
ssg72
(dp5301
g5148
g5213
ssg89
(dp5302
g92
g5259
ssg92
(dp5303
g3
g5229
ssg86
(dp5304
g92
g5262
ssg100
(dp5305
g5155
g5221
ssg791
(dp5306
g5141
g5208
ssg5147
(dp5307
g65
g5241
ssg5154
(dp5308
g5163
g5233
ssg5140
(dp5309
g5172
g5246
sssg274
g5196
sbaS'We and others have recently shown that ASPP2 can potentiate RAS signaling by binding directly via the ASPP2 N @-@ terminus [2,6].'
p5310
asS'bio.bmtr_0004.19'
p5311
(lp5312
g92
ag4
(g5
g6
Ntp5313
Rp5314
(dp5315
g10
(dp5316
g3
(dp5317
g14
S'advance-01'
p5318
sg16
I5
sg17
S's2'
p5319
ssg18
(dp5320
g14
S'capable-41'
p5321
sg16
I4
sg17
g5319
ssg308
(dp5322
g14
S'biophysics'
p5323
sg16
I0
sg17
S'h2'
p5324
ssg65
(dp5325
g14
S'enzyme'
p5326
sg16
I0
sg17
S'g'
p5327
ssg757
(dp5328
g14
S'detail'
p5329
sg16
I0
sg17
g766
ssg5327
(dp5330
g14
S'generate-01'
p5331
sg16
I1
sg17
g766
ssg32
(dp5332
g14
S'form'
p5333
sg16
I0
sg17
g301
ssg301
(dp5334
g14
S'include-91'
p5335
sg16
I0
sg17
g5319
ssg5319
(dp5336
g14
S'site'
p5337
sg16
I0
sg17
g92
ssS'm2'
p5338
(dp5339
g14
S'major'
p5340
sg16
I1
sg17
g5324
ssg81
(dp5341
g14
S'modify-01'
p5342
sg16
I1
sg17
g65
ssg5324
(dp5343
g14
S'have-org-role-91'
p5344
sg16
I6
sg17
g5319
ssS's4'
p5345
(dp5346
g14
S'suitable-41'
p5347
sg16
I0
sg17
g757
ssS's3'
p5348
(dp5349
g14
S'single'
p5350
sg16
I1
sg17
g5319
ssg92
(dp5351
g14
S'study-01'
p5352
sg16
I0
sg17
Nssg100
(dp5353
g14
S'we'
p5354
sg16
I0
sg17
g18
ssg766
(dp5355
g14
S'have-org-role-91'
p5356
sg16
I2
sg17
g5319
ssS'n:0:"mUbRas"'
p5357
(dp5358
g14
S'"mUbRas"'
p5359
sg16
I0
sg17
g72
ssg72
(dp5360
g14
S'name'
p5361
sg16
I0
sg17
g65
ssS'e2'
p5362
(dp5363
g14
S'easy'
p5364
sg16
I3
sg17
g5319
sssg109
(dp5365
sg111
(dp5366
g3
(dp5367
sg18
(dp5368
g100
(dp5369
I0
(dp5370
g116
S'ARG1'
p5371
ssssg308
(dp5372
sg65
(dp5373
g81
(dp5374
I0
(dp5375
g116
S'ARG2-of'
p5376
sssg72
(dp5377
I0
(dp5378
g116
S'name'
p5379
ssssg757
(dp5380
g5345
(dp5381
I0
(dp5382
g116
S'ARG1-of'
p5383
ssssg5327
(dp5384
g65
(dp5385
I0
(dp5386
g116
S'ARG1'
p5387
ssssg32
(dp5388
sg301
(dp5389
g32
(dp5390
I0
(dp5391
g116
S'ARG1'
p5392
ssssg5319
(dp5393
g3
(dp5394
I0
(dp5395
g116
S'ARG1-of'
p5396
sssg18
(dp5397
I0
(dp5398
g116
S'mod'
p5399
sssg301
(dp5400
I0
(dp5401
g116
S'ARG2-of'
p5402
sssg766
(dp5403
I0
(dp5404
g116
S'ARG0-of'
p5405
sssg5324
(dp5406
I0
(dp5407
g116
S'ARG0-of'
p5408
sssg5348
(dp5409
I0
(dp5410
g116
S'mod'
p5411
sssg5362
(dp5412
I0
(dp5413
g116
S'mod'
p5414
ssssg5338
(dp5415
sg81
(dp5416
sg5324
(dp5417
g308
(dp5418
I0
(dp5419
g116
S'ARG1'
p5420
sssg5338
(dp5421
I0
(dp5422
g116
S'ARG2'
p5423
ssssg5345
(dp5424
sg5348
(dp5425
sg92
(dp5426
g5319
(dp5427
I0
(dp5428
g116
S'ARG0'
p5429
ssssg100
(dp5430
sg766
(dp5431
g757
(dp5432
I0
(dp5433
g116
S'ARG1'
p5434
sssg5327
(dp5435
I0
(dp5436
g116
S'ARG3'
p5437
ssssg5357
(dp5438
sg72
(dp5439
g5357
(dp5440
I0
(dp5441
g116
S'op1'
p5442
ssssg5362
(dp5443
ssg239
g5366
sg240
(dp5444
g3
(dp5445
g5319
g5394
ssg18
(dp5446
g5319
g5397
ssg308
(dp5447
g5324
g5418
ssg65
(dp5448
g5327
g5385
ssg757
(dp5449
g766
g5432
ssg5327
(dp5450
g766
g5435
ssg32
(dp5451
g301
g5390
ssg301
(dp5452
g5319
g5400
ssg5319
(dp5453
g92
g5427
ssg5338
(dp5454
g5324
g5421
ssg81
(dp5455
g65
g5374
ssg5324
(dp5456
g5319
g5406
ssg5345
(dp5457
g757
g5381
ssg5348
(dp5458
g5319
g5409
ssg92
(dp5459
sg100
(dp5460
g18
g5369
ssg766
(dp5461
g5319
g5403
ssg5357
(dp5462
g72
g5440
ssg72
(dp5463
g65
g5377
ssg5362
(dp5464
g5319
g5412
sssg274
g5366
sbaS'A major advance was our ability to easily generate mUbRas , modified at a single site , in a form suitable for detailed biophysical studies .'
p5465
asS'bio.bmtr_0004.18'
p5466
(lp5467
g3
ag4
(g5
g6
Ntp5468
Rp5469
(dp5470
g10
(dp5471
g3
(dp5472
g14
S'amr-glue'
p5473
sg16
I0
sg17
Nssg65
(dp5474
g14
S'enzyme'
p5475
sg16
I1
sg17
S'h2'
p5476
ssg757
(dp5477
g14
S'decrease-01'
p5478
sg16
I2
sg17
g3
ssg5476
(dp5479
g14
S'hydrolyze-01'
p5480
sg16
I0
sg17
g757
ssg766
(dp5481
g14
S'here'
p5482
sg16
I0
sg17
g3
ssS'n2:0:"Ras"'
p5483
(dp5484
g14
S'"Ras"'
p5485
sg16
I0
sg17
S'n2'
p5486
ssg81
(dp5487
g14
S'mediate-01'
p5488
sg16
I2
sg17
g5476
ssg72
(dp5489
g14
S'name'
p5490
sg16
I0
sg17
g89
ssg89
(dp5491
g14
S'protein'
p5492
sg16
I0
sg17
g81
ssg92
(dp5493
g14
S'show-01'
p5494
sg16
I1
sg17
g3
ssS'n:0:"GAP"'
p5495
(dp5496
g14
S'"GAP"'
p5497
sg16
I0
sg17
g72
ssg100
(dp5498
g14
S'we'
p5499
sg16
I0
sg17
g92
ssS's2'
p5500
(dp5501
g14
S'sensitivity'
p5502
sg16
I0
sg17
g5476
ssg5486
(dp5503
g14
S'name'
p5504
sg16
I0
sg17
g65
sssg109
(dp5505
sg111
(dp5506
g3
(dp5507
g766
(dp5508
I0
(dp5509
g116
S'glue1'
p5510
sssg92
(dp5511
I0
(dp5512
g116
S'glue2'
p5513
sssg757
(dp5514
I0
(dp5515
g116
S'glue3'
p5516
ssssg65
(dp5517
g5486
(dp5518
I0
(dp5519
g116
S'name'
p5520
ssssg757
(dp5521
g5476
(dp5522
I0
(dp5523
g116
S'ARG1'
p5524
ssssg5476
(dp5525
g5500
(dp5526
I0
(dp5527
g116
S'ARG0'
p5528
sssg65
(dp5529
I0
(dp5530
g116
S'ARG2'
p5531
sssg81
(dp5532
I0
(dp5533
g116
S'ARG1-of'
p5534
ssssg766
(dp5535
sg5483
(dp5536
sg81
(dp5537
g89
(dp5538
I0
(dp5539
g116
S'ARG0'
p5540
ssssg72
(dp5541
g5495
(dp5542
I0
(dp5543
g116
S'op1'
p5544
ssssg89
(dp5545
g72
(dp5546
I0
(dp5547
g116
S'name'
p5548
ssssg92
(dp5549
g100
(dp5550
I0
(dp5551
g116
S'ARG0'
p5552
ssssg5495
(dp5553
sg100
(dp5554
sg5500
(dp5555
sg5486
(dp5556
g5483
(dp5557
I0
(dp5558
g116
S'op1'
p5559
sssssg239
g5506
sg240
(dp5560
g3
(dp5561
sg65
(dp5562
g5476
g5529
ssg757
(dp5563
g3
g5514
ssg5476
(dp5564
g757
g5522
ssg766
(dp5565
g3
g5508
ssg5483
(dp5566
g5486
g5557
ssg81
(dp5567
g5476
g5532
ssg72
(dp5568
g89
g5546
ssg89
(dp5569
g81
g5538
ssg92
(dp5570
g3
g5511
ssg5495
(dp5571
g72
g5542
ssg100
(dp5572
g92
g5550
ssg5500
(dp5573
g5476
g5526
ssg5486
(dp5574
g65
g5518
sssg274
g5506
sbaS'Here we show that monoubiquitination decreases the sensitivity of Ras to GAP @-@ mediated hydrolysis .'
p5575
asS'bio.bmtr_0005.1'
p5576
(lp5577
g89
ag4
(g5
g6
Ntp5578
Rp5579
(dp5580
g10
(dp5581
S'p2'
p5582
(dp5583
g14
S'protein'
p5584
sg16
I1
sg17
g89
ssS'p3'
p5585
(dp5586
g14
S'pathway'
p5587
sg16
I0
sg17
g89
ssS'f2'
p5588
(dp5589
g14
S'function-01'
p5590
sg16
I0
sg17
g3
ssS'n:0:"ASPP2"'
p5591
(dp5592
g14
S'"ASPP2"'
p5593
sg16
I0
sg17
g72
ssg32
(dp5594
g14
S'favor-01'
p5595
sg16
I2
sg17
g89
ssg301
(dp5596
g14
S'it'
p5597
sg16
I0
sg17
g32
ssg18
(dp5598
g14
S'critical'
p5599
sg16
I3
sg17
g32
ssS'n2:0:"RAS/MAPK"'
p5600
(dp5601
g14
S'"RAS/MAPK"'
p5602
sg16
I0
sg17
S'n2'
p5603
ssg89
(dp5604
g14
S'phosphorylate-01'
p5605
sg16
I0
sg17
NssS'f3'
p5606
(dp5607
g14
S'full'
p5608
sg16
I2
sg17
g32
ssg3
(dp5609
g14
S'apoptosis'
p5610
sg16
I1
sg17
g32
ssg5603
(dp5611
g14
S'name'
p5612
sg16
I0
sg17
g5585
ssg72
(dp5613
g14
S'name'
p5614
sg16
I0
sg17
g5582
sssg109
(dp5615
sg111
(dp5616
g5582
(dp5617
g72
(dp5618
I0
(dp5619
g116
S'name'
p5620
ssssg5585
(dp5621
g5603
(dp5622
I0
(dp5623
g116
S'name'
p5624
ssssg5588
(dp5625
sg5591
(dp5626
sg32
(dp5627
g301
(dp5628
I0
(dp5629
g116
S'ARG0'
p5630
sssg3
(dp5631
I0
(dp5632
g116
S'ARG1'
p5633
sssg18
(dp5634
I0
(dp5635
g116
S'manner'
p5636
sssg5606
(dp5637
I0
(dp5638
g116
S'degree'
p5639
ssssg301
(dp5640
sg18
(dp5641
sg5600
(dp5642
sg89
(dp5643
g5582
(dp5644
I0
(dp5645
g116
S'ARG1'
p5646
sssg5585
(dp5647
I0
(dp5648
g116
S'ARG0'
p5649
sssg32
(dp5650
I0
(dp5651
g116
S'ARG2'
p5652
ssssg5606
(dp5653
sg3
(dp5654
g5588
(dp5655
I0
(dp5656
g116
S'ARG1'
p5657
ssssg5603
(dp5658
g5600
(dp5659
I0
(dp5660
g116
S'op1'
p5661
ssssg72
(dp5662
g5591
(dp5663
I0
(dp5664
g116
S'op1'
p5665
sssssg239
g5616
sg240
(dp5666
g5582
(dp5667
g89
g5644
ssg5585
(dp5668
g89
g5647
ssg5588
(dp5669
g3
g5655
ssg5591
(dp5670
g72
g5663
ssg32
(dp5671
g89
g5650
ssg301
(dp5672
g32
g5628
ssg18
(dp5673
g32
g5634
ssg5600
(dp5674
g5603
g5659
ssg89
(dp5675
sg5606
(dp5676
g32
g5637
ssg3
(dp5677
g32
g5631
ssg5603
(dp5678
g5585
g5622
ssg72
(dp5679
g5582
g5618
sssg274
g5616
sbaS'Phosphorylation of ASPP2 by RAS @/@ MAPK Pathway Is Critical for Its Full Pro @-@ Apoptotic Function ( PMC3847091 )'
p5680
asS'bio.bmtr_0004.9'
p5681
(lp5682
g3
ag4
(g5
g6
Ntp5683
Rp5684
(dp5685
g10
(dp5686
S'b3'
p5687
(dp5688
g14
S'bond'
p5689
sg16
I1
sg17
g301
ssS'b2'
p5690
(dp5691
g14
S'bond'
p5692
sg16
I2
sg17
S'a3'
p5693
ssS'a7:0:77'
p5694
(dp5695
g14
S'77'
p5696
sg16
I0
sg17
S'a7'
p5697
ssS'd2'
p5698
(dp5699
g14
S'do-04'
p5700
sg16
I3
sg17
g5693
ssS'p4'
p5701
(dp5702
g14
S'protein'
p5703
sg16
I0
sg17
g97
ssS'b2:0:5'
p5704
(dp5705
g14
g2990
sg16
I0
sg17
g5690
ssg86
(dp5706
g14
S'respective'
p5707
sg16
I1
sg17
g5690
ssS'n2:0:"cysteine"'
p5708
(dp5709
g14
S'"cysteine"'
p5710
sg16
I0
sg17
S'n2'
p5711
ssS'n5:0:"cysteine"'
p5712
(dp5713
g14
S'"cysteine"'
p5714
sg16
I0
sg17
S'n5'
p5715
ssS'p2'
p5716
(dp5717
g14
S'place-01'
p5718
sg16
I2
sg17
g3
ssS'p3'
p5719
(dp5720
g14
S'protein'
p5721
sg16
I6
sg17
g3
ssS'n4:0:"ubiquitin"'
p5722
(dp5723
g14
S'"ubiquitin"'
p5724
sg16
I0
sg17
S'n4'
p5725
ssg5693
(dp5726
g14
S'and'
p5727
sg16
I1
sg17
g3
ssS'a2'
p5728
(dp5729
g14
S'and'
p5730
sg16
I0
sg17
g757
ssS'a5'
p5731
(dp5732
g14
S'additional'
p5733
sg16
I3
sg17
g3
ssS'a4'
p5734
(dp5735
g14
S'alter-01'
p5736
sg16
I0
sg17
S'r2'
p5737
ssg5697
(dp5738
g14
S'amino-acid'
p5739
sg16
I7
sg17
g3
ssS'a6'
p5740
(dp5741
g14
S'amino-acid'
p5742
sg16
I4
sg17
g3
ssS'c3'
p5743
(dp5744
g14
S'create-01'
p5745
sg16
I8
sg17
g3
ssS'c2'
p5746
(dp5747
g14
g18
sg16
I5
sg17
g3
ssS'i:0:1'
p5748
(dp5749
g14
g4269
sg16
I0
sg17
g301
ssg3
(dp5750
g14
S'amr-glue'
p5751
sg16
I0
sg17
NssS'a3:0:7'
p5752
(dp5753
g14
S'7'
p5754
sg16
I0
sg17
g5693
ssg18
(dp5755
g14
S'chemical'
p5756
sg16
I0
sg17
g700
ssg308
(dp5757
g14
S'bond-01'
p5758
sg16
I1
sg17
g5693
ssg65
(dp5759
g14
S'enzyme'
p5760
sg16
I0
sg17
g5728
ssg757
(dp5761
g14
S'differ-02'
p5762
sg16
I0
sg17
g791
ssg5737
(dp5763
g14
S'responsiveness'
p5764
sg16
I0
sg17
g5698
ssS'n3:0:"ubiquitin"'
p5765
(dp5766
g14
S'"ubiquitin"'
p5767
sg16
I0
sg17
S'n3'
p5768
ssg301
(dp5769
g14
S'isomerize-00'
p5770
sg16
I9
sg17
g3
ssg5725
(dp5771
g14
S'name'
p5772
sg16
I0
sg17
g5701
ssg81
(dp5773
g14
S'more'
p5774
sg16
I0
sg17
g665
ssg665
(dp5775
g14
S'long'
p5776
sg16
I10
sg17
g3
ssg72
(dp5777
g14
S'name'
p5778
sg16
I0
sg17
g89
ssg89
(dp5779
g14
S'protein'
p5780
sg16
I1
sg17
g5734
ssS'n:0:"GAP"'
p5781
(dp5782
g14
S'"GAP"'
p5783
sg16
I0
sg17
g72
ssg700
(dp5784
g14
S'ubiquitinate-01'
p5785
sg16
I1
sg17
g5728
ssg97
(dp5786
g14
S'terminus'
p5787
sg16
I1
sg17
g5719
ssg100
(dp5788
g14
S'we'
p5789
sg16
I0
sg17
g5716
ssg791
(dp5790
g14
S'verify-01'
p5791
sg16
I0
sg17
g3
ssg5711
(dp5792
g14
S'name'
p5793
sg16
I0
sg17
g5740
ssg5768
(dp5794
g14
S'name'
p5795
sg16
I0
sg17
g5719
ssS'a4:0:-'
p5796
(dp5797
g14
g678
sg16
I0
sg17
g5734
ssg5715
(dp5798
g14
S'name'
p5799
sg16
I1
sg17
g5697
ssS'n6'
p5800
(dp5801
g14
S'native'
p5802
sg16
I11
sg17
g3
sssg109
(dp5803
sg111
(dp5804
g5687
(dp5805
sg5690
(dp5806
g86
(dp5807
I0
(dp5808
g116
S'mod'
p5809
sssg5704
(dp5810
I0
(dp5811
g116
S'quant'
p5812
ssssg5694
(dp5813
sg5698
(dp5814
g5737
(dp5815
I0
(dp5816
g116
S'ARG1'
p5817
ssssg5701
(dp5818
g5725
(dp5819
I0
(dp5820
g116
S'name'
p5821
ssssg5704
(dp5822
sg86
(dp5823
sg5708
(dp5824
sg5712
(dp5825
sg5716
(dp5826
g100
(dp5827
I0
(dp5828
g116
S'ARG0'
p5829
ssssg5719
(dp5830
g5768
(dp5831
I0
(dp5832
g116
S'name'
p5833
sssg97
(dp5834
I0
(dp5835
g116
S'mod'
p5836
ssssg5722
(dp5837
sg5693
(dp5838
g5752
(dp5839
I0
(dp5840
g116
S'quant'
p5841
sssg308
(dp5842
I0
(dp5843
g116
S'op1'
p5844
sssg5698
(dp5845
I0
(dp5846
g116
S'op4'
p5847
sssg5690
(dp5848
I0
(dp5849
g116
S'op2'
p5850
ssssg5728
(dp5851
g700
(dp5852
I0
(dp5853
g116
S'op2'
p5854
sssg65
(dp5855
I0
(dp5856
g116
S'op1'
p5857
ssssg5731
(dp5858
sg5734
(dp5859
g89
(dp5860
I0
(dp5861
g116
S'ARG1'
p5862
sssg5796
(dp5863
I0
(dp5864
g116
S'polarity'
p5865
ssssg5697
(dp5866
g5694
(dp5867
I0
(dp5868
g116
S'mod'
p5869
sssg5715
(dp5870
I0
(dp5871
g116
S'name'
p5872
ssssg5740
(dp5873
g5711
(dp5874
I0
(dp5875
g116
S'name'
p5876
ssssg5743
(dp5877
sg5746
(dp5878
sg5748
(dp5879
sg3
(dp5880
g5716
(dp5881
I0
(dp5882
g116
S'glue3'
p5883
sssg5719
(dp5884
I0
(dp5885
g116
S'glue7'
p5886
sssg301
(dp5887
I0
(dp5888
g116
S'glue10'
p5889
sssg791
(dp5890
I0
(dp5891
g116
S'glue1'
p5892
sssg665
(dp5893
I0
(dp5894
g116
S'glue11'
p5895
sssg5693
(dp5896
I0
(dp5897
g116
S'glue2'
p5898
sssg5731
(dp5899
I0
(dp5900
g116
S'glue4'
p5901
sssg5697
(dp5902
I0
(dp5903
g116
S'glue8'
p5904
sssg5740
(dp5905
I0
(dp5906
g116
S'glue5'
p5907
sssg5743
(dp5908
I0
(dp5909
g116
S'glue9'
p5910
sssg5746
(dp5911
I0
(dp5912
g116
S'glue6'
p5913
sssg5800
(dp5914
I0
(dp5915
g116
S'glue12'
p5916
ssssg5752
(dp5917
sg18
(dp5918
sg308
(dp5919
sg65
(dp5920
sg757
(dp5921
g5728
(dp5922
I0
(dp5923
g116
S'ARG1'
p5924
ssssg5737
(dp5925
g5734
(dp5926
I0
(dp5927
g116
S'mod'
p5928
ssssg5765
(dp5929
sg301
(dp5930
g5748
(dp5931
I0
(dp5932
g116
S'quant'
p5933
sssg5687
(dp5934
I0
(dp5935
g116
S'ARG1'
p5936
ssssg5725
(dp5937
g5722
(dp5938
I0
(dp5939
g116
S'op1'
p5940
ssssg81
(dp5941
sg665
(dp5942
g81
(dp5943
I0
(dp5944
g116
S'degree'
p5945
ssssg72
(dp5946
g5781
(dp5947
I0
(dp5948
g116
S'op1'
p5949
ssssg89
(dp5950
g72
(dp5951
I0
(dp5952
g116
S'name'
p5953
ssssg5781
(dp5954
sg700
(dp5955
g18
(dp5956
I0
(dp5957
g116
S'ARG1'
p5958
ssssg97
(dp5959
g5701
(dp5960
I0
(dp5961
g116
S'mod'
p5962
ssssg100
(dp5963
sg791
(dp5964
g757
(dp5965
I0
(dp5966
g116
S'ARG1'
p5967
ssssg5711
(dp5968
g5708
(dp5969
I0
(dp5970
g116
S'op1'
p5971
ssssg5768
(dp5972
g5765
(dp5973
I0
(dp5974
g116
S'op1'
p5975
ssssg5796
(dp5976
sg5715
(dp5977
g5712
(dp5978
I0
(dp5979
g116
S'op1'
p5980
ssssg5800
(dp5981
ssg239
g5804
sg240
(dp5982
g5687
(dp5983
g301
g5934
ssg5690
(dp5984
g5693
g5848
ssg5694
(dp5985
g5697
g5867
ssg5698
(dp5986
g5693
g5845
ssg5701
(dp5987
g97
g5960
ssg5704
(dp5988
g5690
g5810
ssg86
(dp5989
g5690
g5807
ssg5708
(dp5990
g5711
g5969
ssg5712
(dp5991
g5715
g5978
ssg5716
(dp5992
g3
g5881
ssg5719
(dp5993
g3
g5884
ssg5722
(dp5994
g5725
g5938
ssg5693
(dp5995
g3
g5896
ssg5728
(dp5996
g757
g5922
ssg5731
(dp5997
g3
g5899
ssg5734
(dp5998
g5737
g5926
ssg5697
(dp5999
g3
g5902
ssg5740
(dp6000
g3
g5905
ssg5743
(dp6001
g3
g5908
ssg5746
(dp6002
g3
g5911
ssg5748
(dp6003
g301
g5931
ssg3
(dp6004
sg5752
(dp6005
g5693
g5839
ssg18
(dp6006
g700
g5956
ssg308
(dp6007
g5693
g5842
ssg65
(dp6008
g5728
g5855
ssg757
(dp6009
g791
g5965
ssg5737
(dp6010
g5698
g5815
ssg5765
(dp6011
g5768
g5973
ssg301
(dp6012
g3
g5887
ssg5725
(dp6013
g5701
g5819
ssg81
(dp6014
g665
g5943
ssg665
(dp6015
g3
g5893
ssg72
(dp6016
g89
g5951
ssg89
(dp6017
g5734
g5860
ssg5781
(dp6018
g72
g5947
ssg700
(dp6019
g5728
g5852
ssg97
(dp6020
g5719
g5834
ssg100
(dp6021
g5716
g5827
ssg791
(dp6022
g3
g5890
ssg5711
(dp6023
g5740
g5874
ssg5768
(dp6024
g5719
g5831
ssg5796
(dp6025
g5734
g5863
ssg5715
(dp6026
g5697
g5870
ssg5800
(dp6027
g3
g5914
sssg274
g5804
sbaS'To verify that the differences between the enzymatic and chemical ubiquitination linkers ( seven bonds and five bonds , respectively ) do not alter GAP @-@ responsiveness , we placed an additional cysteine at the c @-@ terminus of Ubiquitin ( Ubiquitin @-@ C77 ) , thereby creating a linker one bond longer than the native linker .'
p6028
asS'bio.bmtr_0004.8'
p6029
(lp6030
g3
ag4
(g5
g6
Ntp6031
Rp6032
(dp6033
g10
(dp6034
g3
(dp6035
g14
S'amr-glue'
p6036
sg16
I0
sg17
Nssg65
(dp6037
g14
S'enzyme'
p6038
sg16
I1
sg17
g68
ssS'r2'
p6039
(dp6040
g14
S'result-01'
p6041
sg16
I0
sg17
g97
ssg32
(dp6042
g14
S'figure'
p6043
sg16
I0
sg17
g301
ssg301
(dp6044
g14
S'indicate-01'
p6045
sg16
I2
sg17
g3
ssS's2'
p6046
(dp6047
g14
S'specific'
p6048
sg16
I4
sg17
g3
ssS'n:0:"K-Ras"'
p6049
(dp6050
g14
S'"K-Ras"'
p6051
sg16
I0
sg17
g72
ssS'n2:0:"Ras"'
p6052
(dp6053
g14
S'"Ras"'
p6054
sg16
I0
sg17
S'n2'
p6055
ssg68
(dp6056
g14
S'obtain-01'
p6057
sg16
I0
sg17
g3
ssg72
(dp6058
g14
S'name'
p6059
sg16
I0
sg17
g65
ssg92
(dp6060
g14
S'supplementary'
p6061
sg16
I1
sg17
g3
ssg86
(dp6062
g14
S'resemble-01'
p6063
sg16
I1
sg17
g65
ssg700
(dp6064
g14
S'use-01'
p6065
sg16
I1
sg17
g97
ssg97
(dp6066
g14
S'thing'
p6067
sg16
I0
sg17
g86
ssg100
(dp6068
g14
S'we'
p6069
sg16
I0
sg17
g68
ssg6055
(dp6070
g14
S'name'
p6071
sg16
I0
sg17
S'e2'
p6072
ssg6072
(dp6073
g14
S'enzyme'
p6074
sg16
I3
sg17
g3
ssS'a2'
p6075
(dp6076
g14
S'affect-01'
p6077
sg16
I1
sg17
g301
ssS'f:0:6'
p6078
(dp6079
g14
S'6'
p6080
sg16
I0
sg17
g32
sssg109
(dp6081
sg111
(dp6082
g3
(dp6083
g301
(dp6084
I0
(dp6085
g116
S'glue3'
p6086
sssg6046
(dp6087
I0
(dp6088
g116
S'glue5'
p6089
sssg92
(dp6090
I0
(dp6091
g116
S'glue2'
p6092
sssg68
(dp6093
I0
(dp6094
g116
S'glue1'
p6095
sssg6072
(dp6096
I0
(dp6097
g116
S'glue4'
p6098
ssssg65
(dp6099
g86
(dp6100
I0
(dp6101
g116
S'ARG1-of'
p6102
sssg72
(dp6103
I0
(dp6104
g116
S'name'
p6105
ssssg6039
(dp6106
sg32
(dp6107
g6078
(dp6108
I0
(dp6109
g116
S'mod'
p6110
ssssg301
(dp6111
g6075
(dp6112
I0
(dp6113
g116
S'ARG1'
p6114
sssg32
(dp6115
I0
(dp6116
g116
S'ARG0'
p6117
ssssg6046
(dp6118
sg6049
(dp6119
sg6052
(dp6120
sg68
(dp6121
g65
(dp6122
I0
(dp6123
g116
S'ARG1'
p6124
sssg100
(dp6125
I0
(dp6126
g116
S'ARG0'
p6127
ssssg72
(dp6128
g6049
(dp6129
I0
(dp6130
g116
S'op1'
p6131
ssssg92
(dp6132
sg86
(dp6133
g97
(dp6134
I0
(dp6135
g116
S'ARG2'
p6136
ssssg700
(dp6137
sg97
(dp6138
g700
(dp6139
I0
(dp6140
g116
S'ARG1-of'
p6141
sssg6039
(dp6142
I0
(dp6143
g116
S'ARG2-of'
p6144
ssssg100
(dp6145
sg6055
(dp6146
g6052
(dp6147
I0
(dp6148
g116
S'op1'
p6149
ssssg6072
(dp6150
g6055
(dp6151
I0
(dp6152
g116
S'name'
p6153
ssssg6075
(dp6154
sg6078
(dp6155
ssg239
g6082
sg240
(dp6156
g3
(dp6157
sg65
(dp6158
g68
g6122
ssg6039
(dp6159
g97
g6142
ssg32
(dp6160
g301
g6115
ssg301
(dp6161
g3
g6084
ssg6046
(dp6162
g3
g6087
ssg6049
(dp6163
g72
g6129
ssg6052
(dp6164
g6055
g6147
ssg68
(dp6165
g3
g6093
ssg72
(dp6166
g65
g6103
ssg92
(dp6167
g3
g6090
ssg86
(dp6168
g65
g6100
ssg700
(dp6169
g97
g6139
ssg97
(dp6170
g86
g6134
ssg100
(dp6171
g68
g6125
ssg6055
(dp6172
g6072
g6151
ssg6072
(dp6173
g3
g6096
ssg6075
(dp6174
g301
g6112
ssg6078
(dp6175
g32
g6108
sssg274
g6082
sbaS'We obtained similar results using K @-@ Ras ( Supplementary Figure 6 ) , indicating that the effects of monoubiquitination on Ras are not isoform @-@ specific .'
p6176
asS'bio.bmtr_0005.8'
p6177
(lp6178
g3
ag4
(g5
g6
Ntp6179
Rp6180
(dp6181
g10
(dp6182
S'n:0:"ASPP1"'
p6183
(dp6184
g14
S'"ASPP1"'
p6185
sg16
I0
sg17
g72
ssS'f:0:"1A"'
p6186
(dp6187
g14
S'"1A"'
p6188
sg16
I0
sg17
g32
ssS'r4:0:827'
p6189
(dp6190
g14
S'827'
p6191
sg16
I0
sg17
S'r4'
p6192
ssS'p2'
p6193
(dp6194
g14
S'protein'
p6195
sg16
I0
sg17
g89
ssS'n2:0:"ASPP2"'
p6196
(dp6197
g14
S'"ASPP2"'
p6198
sg16
I0
sg17
S'n2'
p6199
ssS'r:0:671'
p6200
(dp6201
g14
S'671'
p6202
sg16
I0
sg17
g86
ssS'r3:0:698'
p6203
(dp6204
g14
S'698'
p6205
sg16
I0
sg17
S'r3'
p6206
ssS'a3'
p6207
(dp6208
g14
S'and'
p6209
sg16
I0
sg17
g92
ssS'a2'
p6210
(dp6211
g14
S'and'
p6212
sg16
I0
sg17
g308
ssg6192
(dp6213
g14
S'residue'
p6214
sg16
I1
sg17
g6207
ssg3
(dp6215
g14
S'and'
p6216
sg16
I0
sg17
NssS'p3'
p6217
(dp6218
g14
S'protein'
p6219
sg16
I2
sg17
g92
ssg308
(dp6220
g14
S'be-located-at-91'
p6221
sg16
I0
sg17
g3
ssS'r2'
p6222
(dp6223
g14
S'residue'
p6224
sg16
I1
sg17
g6210
ssg6206
(dp6225
g14
S'residue'
p6226
sg16
I0
sg17
g6207
ssg301
(dp6227
g14
S'include-91'
p6228
sg16
I1
sg17
g92
ssg32
(dp6229
g14
S'figure'
p6230
sg16
I0
sg17
g301
ssg72
(dp6231
g14
S'name'
p6232
sg16
I0
sg17
g6193
ssg89
(dp6233
g14
S'protein-segment'
p6234
sg16
I1
sg17
g308
ssg92
(dp6235
g14
S'site'
p6236
sg16
I1
sg17
g3
ssg86
(dp6237
g14
S'residue'
p6238
sg16
I0
sg17
g6210
ssS'r2:0:746'
p6239
(dp6240
g14
S'746'
p6241
sg16
I0
sg17
g6222
ssg6199
(dp6242
g14
S'name'
p6243
sg16
I0
sg17
g6217
sssg109
(dp6244
sg111
(dp6245
g6183
(dp6246
sg6186
(dp6247
sg6189
(dp6248
sg6193
(dp6249
g72
(dp6250
I0
(dp6251
g116
S'name'
p6252
ssssg6196
(dp6253
sg6200
(dp6254
sg6203
(dp6255
sg6207
(dp6256
g6192
(dp6257
I0
(dp6258
g116
S'op2'
p6259
sssg6206
(dp6260
I0
(dp6261
g116
S'op1'
p6262
ssssg6210
(dp6263
g86
(dp6264
I0
(dp6265
g116
S'op1'
p6266
sssg6222
(dp6267
I0
(dp6268
g116
S'op2'
p6269
ssssg6192
(dp6270
g6189
(dp6271
I0
(dp6272
g116
S'mod'
p6273
ssssg3
(dp6274
g92
(dp6275
I0
(dp6276
g116
S'op2'
p6277
sssg308
(dp6278
I0
(dp6279
g116
S'op1'
p6280
ssssg6217
(dp6281
g6199
(dp6282
I0
(dp6283
g116
S'name'
p6284
ssssg308
(dp6285
g89
(dp6286
I0
(dp6287
g116
S'ARG2'
p6288
sssg6210
(dp6289
I0
(dp6290
g116
S'ARG1'
p6291
ssssg6222
(dp6292
g6239
(dp6293
I0
(dp6294
g116
S'mod'
p6295
ssssg6206
(dp6296
g6203
(dp6297
I0
(dp6298
g116
S'mod'
p6299
ssssg301
(dp6300
g32
(dp6301
I0
(dp6302
g116
S'ARG1'
p6303
ssssg32
(dp6304
g6186
(dp6305
I0
(dp6306
g116
S'mod'
p6307
ssssg72
(dp6308
g6183
(dp6309
I0
(dp6310
g116
S'op1'
p6311
ssssg89
(dp6312
g6193
(dp6313
I0
(dp6314
g116
S'part-of'
p6315
ssssg92
(dp6316
g301
(dp6317
I0
(dp6318
g116
S'ARG2-of'
p6319
sssg6217
(dp6320
I0
(dp6321
g116
S'mod'
p6322
sssg6207
(dp6323
I0
(dp6324
g116
S'location-of'
p6325
ssssg86
(dp6326
g6200
(dp6327
I0
(dp6328
g116
S'mod'
p6329
ssssg6239
(dp6330
sg6199
(dp6331
g6196
(dp6332
I0
(dp6333
g116
S'op1'
p6334
sssssg239
g6245
sg240
(dp6335
g6183
(dp6336
g72
g6309
ssg6186
(dp6337
g32
g6305
ssg6189
(dp6338
g6192
g6271
ssg6193
(dp6339
g89
g6313
ssg6196
(dp6340
g6199
g6332
ssg6200
(dp6341
g86
g6327
ssg6203
(dp6342
g6206
g6297
ssg6207
(dp6343
g92
g6323
ssg6210
(dp6344
g308
g6289
ssg6192
(dp6345
g6207
g6257
ssg3
(dp6346
sg6217
(dp6347
g92
g6320
ssg308
(dp6348
g3
g6278
ssg6222
(dp6349
g6210
g6267
ssg6206
(dp6350
g6207
g6260
ssg301
(dp6351
g92
g6317
ssg32
(dp6352
g301
g6301
ssg72
(dp6353
g6193
g6250
ssg89
(dp6354
g308
g6286
ssg92
(dp6355
g3
g6275
ssg86
(dp6356
g6210
g6264
ssg6239
(dp6357
g6222
g6293
ssg6199
(dp6358
g6217
g6282
sssg274
g6245
sbaS'The ASPP1 sites are at residues 671 and 746 , and the ASPP2 sites are at residues 698 and 827 ( Figure 1A ) .'
p6359
asS'bio.bmtr_0005.9'
p6360
(lp6361
g18
ag4
(g5
g6
Ntp6362
Rp6363
(dp6364
g10
(dp6365
S'p2'
p6366
(dp6367
g14
S'protein'
p6368
sg16
I0
sg17
g89
ssg3
(dp6369
g14
S'activate-01'
p6370
sg16
I1
sg17
g65
ssg18
(dp6371
g14
S'cause-01'
p6372
sg16
I0
sg17
Nssg65
(dp6373
g14
S'enzyme'
p6374
sg16
I1
sg17
g89
ssS'p3'
p6375
(dp6376
g14
S'possible'
p6377
sg16
I0
sg17
g86
ssS'n2:0:"RAS"'
p6378
(dp6379
g14
S'"RAS"'
p6380
sg16
I0
sg17
S'n2'
p6381
ssg72
(dp6382
g14
S'name'
p6383
sg16
I0
sg17
g6366
ssg89
(dp6384
g14
S'phosphorylate-01'
p6385
sg16
I0
sg17
g97
ssg86
(dp6386
g14
S'regulate-01'
p6387
sg16
I2
sg17
g89
ssg97
(dp6388
g14
S'test-01'
p6389
sg16
I1
sg17
g18
ssg100
(dp6390
g14
S'we'
p6391
sg16
I0
sg17
g18
ssg6381
(dp6392
g14
S'name'
p6393
sg16
I0
sg17
g65
ssS'n:0:"ASPP2"'
p6394
(dp6395
g14
S'"ASPP2"'
p6396
sg16
I0
sg17
g72
sssg109
(dp6397
sg111
(dp6398
g6366
(dp6399
g72
(dp6400
I0
(dp6401
g116
S'name'
p6402
ssssg3
(dp6403
sg18
(dp6404
g97
(dp6405
I0
(dp6406
g116
S'ARG1'
p6407
sssg100
(dp6408
I0
(dp6409
g116
S'ARG0'
p6410
ssssg65
(dp6411
g3
(dp6412
I0
(dp6413
g116
S'ARG1-of'
p6414
sssg6381
(dp6415
I0
(dp6416
g116
S'name'
p6417
ssssg6375
(dp6418
sg6378
(dp6419
sg72
(dp6420
g6394
(dp6421
I0
(dp6422
g116
S'op1'
p6423
ssssg89
(dp6424
g6366
(dp6425
I0
(dp6426
g116
S'ARG1'
p6427
sssg86
(dp6428
I0
(dp6429
g116
S'ARG0-of'
p6430
sssg65
(dp6431
I0
(dp6432
g116
S'ARG2'
p6433
ssssg86
(dp6434
g6375
(dp6435
I0
(dp6436
g116
S'mod'
p6437
ssssg97
(dp6438
g89
(dp6439
I0
(dp6440
g116
S'ARG1'
p6441
ssssg100
(dp6442
sg6381
(dp6443
g6378
(dp6444
I0
(dp6445
g116
S'op1'
p6446
ssssg6394
(dp6447
ssg239
g6398
sg240
(dp6448
g6366
(dp6449
g89
g6425
ssg3
(dp6450
g65
g6412
ssg18
(dp6451
sg65
(dp6452
g89
g6431
ssg6375
(dp6453
g86
g6435
ssg6378
(dp6454
g6381
g6444
ssg72
(dp6455
g6366
g6400
ssg89
(dp6456
g97
g6439
ssg86
(dp6457
g89
g6428
ssg97
(dp6458
g18
g6405
ssg100
(dp6459
g18
g6408
ssg6381
(dp6460
g65
g6415
ssg6394
(dp6461
g72
g6421
sssg274
g6398
sbaS'We thus tested whether RAS activation may regulate ASPP2 phosphorylation .'
p6462
asS'bio.bmtr_0004.1'
p6463
(lp6464
g3
ag4
(g5
g6
Ntp6465
Rp6466
(dp6467
g10
(dp6468
g3
(dp6469
g14
S'amr-glue'
p6470
sg16
I0
sg17
NssS'n2:1:"Activating"'
p6471
(dp6472
g14
S'"Activating"'
p6473
sg16
I1
sg17
S'n2'
p6474
ssg65
(dp6475
g14
S'enzyme'
p6476
sg16
I1
sg17
S'a2'
p6477
ssS'n:0:"Ras"'
p6478
(dp6479
g14
S'"Ras"'
p6480
sg16
I0
sg17
g72
ssg301
(dp6481
g14
S'impede-01'
p6482
sg16
I1
sg17
g89
ssS's2'
p6483
(dp6484
g14
S'site'
p6485
sg16
I0
sg17
g92
ssS'n2:0:"GTPase"'
p6486
(dp6487
g14
S'"GTPase"'
p6488
sg16
I0
sg17
g6474
ssg72
(dp6489
g14
S'name'
p6490
sg16
I0
sg17
g65
ssg89
(dp6491
g14
S'protein'
p6492
sg16
I0
sg17
g6477
ssg92
(dp6493
g14
S'specific'
p6494
sg16
I0
sg17
g3
ssg6477
(dp6495
g14
S'activate-01'
p6496
sg16
I1
sg17
g3
ssg6474
(dp6497
g14
S'name'
p6498
sg16
I0
sg17
g89
ssS'n2:2:"Protein"'
p6499
(dp6500
g14
S'"Protein"'
p6501
sg16
I2
sg17
g6474
sssg109
(dp6502
sg111
(dp6503
g3
(dp6504
g92
(dp6505
I0
(dp6506
g116
S'glue1'
p6507
sssg6477
(dp6508
I0
(dp6509
g116
S'glue2'
p6510
ssssg6471
(dp6511
sg65
(dp6512
g72
(dp6513
I0
(dp6514
g116
S'name'
p6515
ssssg6478
(dp6516
sg301
(dp6517
sg6483
(dp6518
sg6486
(dp6519
sg72
(dp6520
g6478
(dp6521
I0
(dp6522
g116
S'op1'
p6523
ssssg89
(dp6524
g301
(dp6525
I0
(dp6526
g116
S'ARG1-of'
p6527
sssg6474
(dp6528
I0
(dp6529
g116
S'name'
p6530
ssssg92
(dp6531
g6483
(dp6532
I0
(dp6533
g116
S'mod'
p6534
ssssg6477
(dp6535
g89
(dp6536
I0
(dp6537
g116
S'ARG0'
p6538
sssg65
(dp6539
I0
(dp6540
g116
S'ARG1'
p6541
ssssg6474
(dp6542
g6471
(dp6543
I0
(dp6544
g116
S'op2'
p6545
sssg6499
(dp6546
I0
(dp6547
g116
S'op3'
p6548
sssg6486
(dp6549
I0
(dp6550
g116
S'op1'
p6551
ssssg6499
(dp6552
ssg239
g6503
sg240
(dp6553
g3
(dp6554
sg6471
(dp6555
g6474
g6543
ssg65
(dp6556
g6477
g6539
ssg6478
(dp6557
g72
g6521
ssg301
(dp6558
g89
g6525
ssg6483
(dp6559
g92
g6532
ssg6486
(dp6560
g6474
g6549
ssg72
(dp6561
g65
g6513
ssg89
(dp6562
g6477
g6536
ssg92
(dp6563
g3
g6505
ssg6477
(dp6564
g3
g6508
ssg6474
(dp6565
g89
g6528
ssg6499
(dp6566
g6474
g6546
sssg274
g6503
sbaS'Site @-@ Specific Monoubiquitination Activates Ras by Impeding GTPase Activating Protein ( PMC3537887 )'
p6567
asS'bio.bmtr_0005.5'
p6568
(lp6569
g3
ag4
(g5
g6
Ntp6570
Rp6571
(dp6572
g10
(dp6573
S'q:0:interrogative'
p6574
(dp6575
g14
S'interrogative'
p6576
sg16
I0
sg17
S'q'
p6577
ssS's3'
p6578
(dp6579
g14
S'signal-01'
p6580
sg16
I0
sg17
S'p2'
p6581
ssS's2'
p6582
(dp6583
g14
S'several'
p6584
sg16
I2
sg17
g92
ssg6581
(dp6585
g14
S'pathway'
p6586
sg16
I0
sg17
g86
ssS'n2:0:"ASPP2"'
p6587
(dp6588
g14
S'"ASPP2"'
p6589
sg16
I0
sg17
S'n2'
p6590
ssS'a3'
p6591
(dp6592
g14
S'activate-01'
p6593
sg16
I1
sg17
S'e2'
p6594
ssS'a2'
p6595
(dp6596
g14
S'act-02'
p6597
sg16
I2
sg17
g6577
ssg6594
(dp6598
g14
S'enzyme'
p6599
sg16
I0
sg17
g81
ssg3
(dp6600
g14
S'amr-glue'
p6601
sg16
I0
sg17
Nssg18
(dp6602
g14
S'cascade'
p6603
sg16
I1
sg17
g92
ssg65
(dp6604
g14
S'enzyme'
p6605
sg16
I0
sg17
g92
ssS'n:0:"RAS"'
p6606
(dp6607
g14
S'"RAS"'
p6608
sg16
I0
sg17
g72
ssS'n3:0:"RAS"'
p6609
(dp6610
g14
S'"RAS"'
p6611
sg16
I0
sg17
S'n3'
p6612
ssg81
(dp6613
g14
S'mediate-01'
p6614
sg16
I0
sg17
g6578
ssg72
(dp6615
g14
S'name'
p6616
sg16
I0
sg17
g65
ssg6577
(dp6617
g14
S'query-01'
p6618
sg16
I1
sg17
g3
ssg89
(dp6619
g14
S'protein'
p6620
sg16
I0
sg17
g6595
ssg92
(dp6621
g14
S'signal-01'
p6622
sg16
I0
sg17
g3
ssg86
(dp6623
g14
S'regulate-01'
p6624
sg16
I1
sg17
g89
ssg700
(dp6625
g14
S'upstream'
p6626
sg16
I3
sg17
g92
ssg100
(dp6627
g14
S'we'
p6628
sg16
I1
sg17
g6577
ssg6590
(dp6629
g14
S'name'
p6630
sg16
I0
sg17
g89
ssg6612
(dp6631
g14
S'name'
p6632
sg16
I0
sg17
g6594
sssg109
(dp6633
sg111
(dp6634
g6574
(dp6635
sg6578
(dp6636
g81
(dp6637
I0
(dp6638
g116
S'ARG1-of'
p6639
ssssg6582
(dp6640
sg6581
(dp6641
g6578
(dp6642
I0
(dp6643
g116
S'ARG1-of'
p6644
ssssg6587
(dp6645
sg6591
(dp6646
sg6595
(dp6647
g89
(dp6648
I0
(dp6649
g116
S'ARG0'
p6650
ssssg6594
(dp6651
g6591
(dp6652
I0
(dp6653
g116
S'ARG1-of'
p6654
sssg6612
(dp6655
I0
(dp6656
g116
S'name'
p6657
ssssg3
(dp6658
g6577
(dp6659
I0
(dp6660
g116
S'glue2'
p6661
sssg92
(dp6662
I0
(dp6663
g116
S'glue1'
p6664
ssssg18
(dp6665
sg65
(dp6666
g72
(dp6667
I0
(dp6668
g116
S'name'
p6669
ssssg6606
(dp6670
sg6609
(dp6671
sg81
(dp6672
g6594
(dp6673
I0
(dp6674
g116
S'ARG0'
p6675
ssssg72
(dp6676
g6606
(dp6677
I0
(dp6678
g116
S'op1'
p6679
ssssg6577
(dp6680
g6595
(dp6681
I0
(dp6682
g116
S'ARG1'
p6683
sssg6574
(dp6684
I0
(dp6685
g116
S'mode'
p6686
sssg100
(dp6687
I0
(dp6688
g116
S'ARG0'
p6689
ssssg89
(dp6690
g6590
(dp6691
I0
(dp6692
g116
S'name'
p6693
sssg86
(dp6694
I0
(dp6695
g116
S'ARG1-of'
p6696
ssssg92
(dp6697
g6582
(dp6698
I0
(dp6699
g116
S'quant'
p6700
sssg18
(dp6701
I0
(dp6702
g116
S'ARG1'
p6703
sssg65
(dp6704
I0
(dp6705
g116
S'ARG0'
p6706
sssg700
(dp6707
I0
(dp6708
g116
S'source'
p6709
ssssg86
(dp6710
g6581
(dp6711
I0
(dp6712
g116
S'ARG0'
p6713
ssssg700
(dp6714
sg100
(dp6715
sg6590
(dp6716
g6587
(dp6717
I0
(dp6718
g116
S'op1'
p6719
ssssg6612
(dp6720
g6609
(dp6721
I0
(dp6722
g116
S'op1'
p6723
sssssg239
g6634
sg240
(dp6724
g6574
(dp6725
g6577
g6684
ssg6578
(dp6726
g6581
g6642
ssg6582
(dp6727
g92
g6698
ssg6581
(dp6728
g86
g6711
ssg6587
(dp6729
g6590
g6717
ssg6591
(dp6730
g6594
g6652
ssg6595
(dp6731
g6577
g6681
ssg6594
(dp6732
g81
g6673
ssg3
(dp6733
sg18
(dp6734
g92
g6701
ssg65
(dp6735
g92
g6704
ssg6606
(dp6736
g72
g6677
ssg6609
(dp6737
g6612
g6721
ssg81
(dp6738
g6578
g6637
ssg72
(dp6739
g65
g6667
ssg6577
(dp6740
g3
g6659
ssg89
(dp6741
g6595
g6648
ssg92
(dp6742
g3
g6662
ssg86
(dp6743
g89
g6694
ssg700
(dp6744
g92
g6707
ssg100
(dp6745
g6577
g6687
ssg6590
(dp6746
g89
g6691
ssg6612
(dp6747
g6594
g6655
sssg274
g6634
sbaS'As RAS is upstream of several signalling cascades [13], we queried whether the activity of ASPP2 is regulated by the activation of a RAS @-@ mediated signalling pathway .'
p6748
asS'bio.bmtr_0004.3'
p6749
(lp6750
g700
ag4
(g5
g6
Ntp6751
Rp6752
(dp6753
g10
(dp6754
g3
(dp6755
g14
S'affect-01'
p6756
sg16
I1
sg17
g65
ssS'u:0:1'
p6757
(dp6758
g14
g4269
sg16
I0
sg17
g700
ssg18
(dp6759
g14
S'consider-01'
p6760
sg16
I0
sg17
g3
ssS'n3:0:"GAP"'
p6761
(dp6762
g14
S'"GAP"'
p6763
sg16
I0
sg17
S'n3'
p6764
ssg65
(dp6765
g14
S'enzyme'
p6766
sg16
I1
sg17
g700
ssS'n:0:"Ras"'
p6767
(dp6768
g14
S'"Ras"'
p6769
sg16
I0
sg17
g72
ssg766
(dp6770
g14
S'hydrolyze-01'
p6771
sg16
I2
sg17
g700
ssg81
(dp6772
g14
S'mediate-01'
p6773
sg16
I0
sg17
g766
ssg72
(dp6774
g14
S'name'
p6775
sg16
I0
sg17
g65
ssg89
(dp6776
g14
S'protein'
p6777
sg16
I0
sg17
g81
ssg700
(dp6778
g14
S'ubiquitinate-01'
p6779
sg16
I0
sg17
Nssg100
(dp6780
g14
S'we'
p6781
sg16
I0
sg17
g18
ssS'n2'
p6782
(dp6783
g14
S'next'
p6784
sg16
I1
sg17
g18
ssg6764
(dp6785
g14
S'name'
p6786
sg16
I0
sg17
g89
sssg109
(dp6787
sg111
(dp6788
g3
(dp6789
g18
(dp6790
I0
(dp6791
g116
S'ARG0'
p6792
ssssg6757
(dp6793
sg18
(dp6794
g6782
(dp6795
I0
(dp6796
g116
S'time'
p6797
sssg100
(dp6798
I0
(dp6799
g116
S'ARG0'
p6800
ssssg6761
(dp6801
sg65
(dp6802
g3
(dp6803
I0
(dp6804
g116
S'ARG1-of'
p6805
sssg72
(dp6806
I0
(dp6807
g116
S'name'
p6808
ssssg6767
(dp6809
sg766
(dp6810
g81
(dp6811
I0
(dp6812
g116
S'ARG1-of'
p6813
ssssg81
(dp6814
g89
(dp6815
I0
(dp6816
g116
S'ARG0'
p6817
ssssg72
(dp6818
g6767
(dp6819
I0
(dp6820
g116
S'op1'
p6821
ssssg89
(dp6822
g6764
(dp6823
I0
(dp6824
g116
S'name'
p6825
ssssg700
(dp6826
g6757
(dp6827
I0
(dp6828
g116
S'quant'
p6829
sssg65
(dp6830
I0
(dp6831
g116
S'ARG1'
p6832
sssg766
(dp6833
I0
(dp6834
g116
S'ARG1-of'
p6835
ssssg100
(dp6836
sg6782
(dp6837
sg6764
(dp6838
g6761
(dp6839
I0
(dp6840
g116
S'op1'
p6841
sssssg239
g6788
sg240
(dp6842
g3
(dp6843
g65
g6803
ssg6757
(dp6844
g700
g6827
ssg18
(dp6845
g3
g6790
ssg6761
(dp6846
g6764
g6839
ssg65
(dp6847
g700
g6830
ssg6767
(dp6848
g72
g6819
ssg766
(dp6849
g700
g6833
ssg81
(dp6850
g766
g6811
ssg72
(dp6851
g65
g6806
ssg89
(dp6852
g81
g6815
ssg700
(dp6853
sg100
(dp6854
g18
g6798
ssg6782
(dp6855
g18
g6795
ssg6764
(dp6856
g89
g6823
sssg274
g6788
sbaS'We next considered the effect of Ras monoubiquitination on GAP @-@ mediated hydrolysis .'
p6857
asS'bio.bmtr_0004.2'
p6858
(lp6859
g89
ag4
(g5
g6
Ntp6860
Rp6861
(dp6862
g10
(dp6863
S'p:0:"1-1"'
p6864
(dp6865
g14
S'"1-1"'
p6866
sg16
I0
sg17
g89
ssg89
(dp6867
g14
S'passage'
p6868
sg16
I0
sg17
Nssg86
(dp6869
g14
S'result-01'
p6870
sg16
I1
sg17
g89
sssg109
(dp6871
sg111
(dp6872
g6864
(dp6873
sg89
(dp6874
g6864
(dp6875
I0
(dp6876
g116
S'mod'
p6877
sssg86
(dp6878
I0
(dp6879
g116
S'ARG0-of'
p6880
ssssg86
(dp6881
ssg239
g6872
sg240
(dp6882
g6864
(dp6883
g89
g6875
ssg89
(dp6884
sg86
(dp6885
g89
g6878
sssg274
g6872
sbaS'Passage 1 @-@ 1 ( Results )'
p6886
asS'bio.bmtr_0004.5'
p6887
(lp6888
g3
ag4
(g5
g6
Ntp6889
Rp6890
(dp6891
g10
(dp6892
S'h2'
p6893
(dp6894
g14
S'hydrolyze-01'
p6895
sg16
I0
sg17
S'r2'
p6896
ssS'h3'
p6897
(dp6898
g14
S'have-quant-91'
p6899
sg16
I1
sg17
g301
ssS'h4'
p6900
(dp6901
g14
S'hydrolyze-01'
p6902
sg16
I0
sg17
S'r3'
p6903
ssS'h5'
p6904
(dp6905
g14
S'have-rel-role-91'
p6906
sg16
I2
sg17
g6903
ssS'n4:0:"Ras"'
p6907
(dp6908
g14
S'"Ras"'
p6909
sg16
I0
sg17
S'n4'
p6910
ssS'n5:0:"GTP"'
p6911
(dp6912
g14
S'"GTP"'
p6913
sg16
I0
sg17
S'n5'
p6914
ssS's2'
p6915
(dp6916
g14
S'small-molecule'
p6917
sg16
I0
sg17
g6900
ssS'n2:0:"Ras"'
p6918
(dp6919
g14
S'"Ras"'
p6920
sg16
I0
sg17
S'n2'
p6921
ssS'o:0:500'
p6922
(dp6923
g14
S'500'
p6924
sg16
I0
sg17
g68
ssg86
(dp6925
g14
S'ratio-of'
p6926
sg16
I2
sg17
g3
ssS'h3:0:6.9'
p6927
(dp6928
g14
S'6.9'
p6929
sg16
I0
sg17
g6897
ssS'o2'
p6930
(dp6931
g14
S'order-01'
p6932
sg16
I2
sg17
g68
ssS'r4'
p6933
(dp6934
g14
S'relative'
p6935
sg16
I0
sg17
g6904
ssS'i2'
p6936
(dp6937
g14
S'intrinsic'
p6938
sg16
I1
sg17
g6903
ssS'e2'
p6939
(dp6940
g14
S'enzyme'
p6941
sg16
I5
sg17
g3
ssg3
(dp6942
g14
S'amr-glue'
p6943
sg16
I0
sg17
Nssg18
(dp6944
g14
S'cause-01'
p6945
sg16
I0
sg17
g3
ssg65
(dp6946
g14
S'enzyme'
p6947
sg16
I1
sg17
g3
ssg6896
(dp6948
g14
S'rate'
p6949
sg16
I0
sg17
g301
ssg6903
(dp6950
g14
S'rate'
p6951
sg16
I6
sg17
g3
ssg301
(dp6952
g14
S'increase-01'
p6953
sg16
I0
sg17
g6930
ssg68
(dp6954
g14
S'observe-01'
p6955
sg16
I3
sg17
g3
ssg72
(dp6956
g14
S'name'
p6957
sg16
I0
sg17
g89
ssg89
(dp6958
g14
S'protein'
p6959
sg16
I0
sg17
g18
ssg92
(dp6960
g14
S'small-molecule'
p6961
sg16
I0
sg17
g6893
ssS'n:0:"GAP"'
p6962
(dp6963
g14
S'"GAP"'
p6964
sg16
I0
sg17
g72
ssg700
(dp6965
g14
S'unmodified'
p6966
sg16
I4
sg17
g3
ssg100
(dp6967
g14
S'we'
p6968
sg16
I1
sg17
g68
ssg6921
(dp6969
g14
S'name'
p6970
sg16
I0
sg17
g65
ssS'n3'
p6971
(dp6972
g14
S'name'
p6973
sg16
I0
sg17
g92
ssg6910
(dp6974
g14
S'name'
p6975
sg16
I0
sg17
g6939
ssg6914
(dp6976
g14
S'name'
p6977
sg16
I0
sg17
g6915
ssS'n3:0:"GTP"'
p6978
(dp6979
g14
S'"GTP"'
p6980
sg16
I0
sg17
g6971
sssg109
(dp6981
sg111
(dp6982
g6893
(dp6983
g92
(dp6984
I0
(dp6985
g116
S'ARG1'
p6986
ssssg6897
(dp6987
g6927
(dp6988
I0
(dp6989
g116
S'ARG2'
p6990
ssssg6900
(dp6991
g6915
(dp6992
I0
(dp6993
g116
S'ARG1'
p6994
ssssg6904
(dp6995
g6933
(dp6996
I0
(dp6997
g116
S'ARG2'
p6998
ssssg6907
(dp6999
sg6911
(dp7000
sg6915
(dp7001
g6914
(dp7002
I0
(dp7003
g116
S'name'
p7004
ssssg6918
(dp7005
sg6922
(dp7006
sg86
(dp7007
sg6927
(dp7008
sg6930
(dp7009
g301
(dp7010
I0
(dp7011
g116
S'ARG1'
p7012
ssssg6933
(dp7013
sg6936
(dp7014
sg6939
(dp7015
g6910
(dp7016
I0
(dp7017
g116
S'name'
p7018
ssssg3
(dp7019
g18
(dp7020
I0
(dp7021
g116
S'glue1'
p7022
sssg65
(dp7023
I0
(dp7024
g116
S'glue2'
p7025
sssg6903
(dp7026
I0
(dp7027
g116
S'glue7'
p7028
sssg68
(dp7029
I0
(dp7030
g116
S'glue4'
p7031
sssg86
(dp7032
I0
(dp7033
g116
S'glue3'
p7034
sssg700
(dp7035
I0
(dp7036
g116
S'glue5'
p7037
sssg6939
(dp7038
I0
(dp7039
g116
S'glue6'
p7040
ssssg18
(dp7041
g89
(dp7042
I0
(dp7043
g116
S'ARG1'
p7044
ssssg65
(dp7045
g6921
(dp7046
I0
(dp7047
g116
S'name'
p7048
ssssg6896
(dp7049
g6893
(dp7050
I0
(dp7051
g116
S'mod'
p7052
ssssg6903
(dp7053
g6936
(dp7054
I0
(dp7055
g116
S'mod'
p7056
sssg6900
(dp7057
I0
(dp7058
g116
S'mod'
p7059
sssg6904
(dp7060
I0
(dp7061
g116
S'ARG0-of'
p7062
ssssg301
(dp7063
g6897
(dp7064
I0
(dp7065
g116
S'ARG2'
p7066
sssg6896
(dp7067
I0
(dp7068
g116
S'ARG1'
p7069
ssssg68
(dp7070
g6922
(dp7071
I0
(dp7072
g116
S'quant'
p7073
sssg100
(dp7074
I0
(dp7075
g116
S'ARG0'
p7076
sssg6930
(dp7077
I0
(dp7078
g116
S'ARG1'
p7079
ssssg72
(dp7080
g6962
(dp7081
I0
(dp7082
g116
S'op1'
p7083
ssssg89
(dp7084
g72
(dp7085
I0
(dp7086
g116
S'name'
p7087
ssssg92
(dp7088
g6971
(dp7089
I0
(dp7090
g116
S'name'
p7091
ssssg6962
(dp7092
sg700
(dp7093
sg100
(dp7094
sg6921
(dp7095
g6918
(dp7096
I0
(dp7097
g116
S'op1'
p7098
ssssg6971
(dp7099
g6978
(dp7100
I0
(dp7101
g116
S'op1'
p7102
ssssg6910
(dp7103
g6907
(dp7104
I0
(dp7105
g116
S'op1'
p7106
ssssg6914
(dp7107
g6911
(dp7108
I0
(dp7109
g116
S'op1'
p7110
ssssg6978
(dp7111
ssg239
g6982
sg240
(dp7112
g6893
(dp7113
g6896
g7050
ssg6897
(dp7114
g301
g7064
ssg6900
(dp7115
g6903
g7057
ssg6904
(dp7116
g6903
g7060
ssg6907
(dp7117
g6910
g7104
ssg6911
(dp7118
g6914
g7108
ssg6915
(dp7119
g6900
g6992
ssg6918
(dp7120
g6921
g7096
ssg6922
(dp7121
g68
g7071
ssg86
(dp7122
g3
g7032
ssg6927
(dp7123
g6897
g6988
ssg6930
(dp7124
g68
g7077
ssg6933
(dp7125
g6904
g6996
ssg6936
(dp7126
g6903
g7054
ssg6939
(dp7127
g3
g7038
ssg3
(dp7128
sg18
(dp7129
g3
g7020
ssg65
(dp7130
g3
g7023
ssg6896
(dp7131
g301
g7067
ssg6903
(dp7132
g3
g7026
ssg301
(dp7133
g6930
g7010
ssg68
(dp7134
g3
g7029
ssg72
(dp7135
g89
g7085
ssg89
(dp7136
g18
g7042
ssg92
(dp7137
g6893
g6984
ssg6962
(dp7138
g72
g7081
ssg700
(dp7139
g3
g7035
ssg100
(dp7140
g68
g7074
ssg6921
(dp7141
g65
g7046
ssg6971
(dp7142
g92
g7089
ssg6910
(dp7143
g6939
g7016
ssg6914
(dp7144
g6915
g7002
ssg6978
(dp7145
g6971
g7100
sssg274
g6982
sbaS'At a GAP @-@ to @-@ Ras ratio of 1 @:@ 500 , we observed an order of magnitude increase in the rate of GTP hydrolysis for unmodified Ras relative to the intrinsic rate of GTP hydrolysis .'
p7146
asS'bio.bmtr_0004.4'
p7147
(lp7148
g3
ag4
(g5
g6
Ntp7149
Rp7150
(dp7151
g10
(dp7152
S'n3:0:"GAP"'
p7153
(dp7154
g14
S'"GAP"'
p7155
sg16
I0
sg17
S'n3'
p7156
ssS'n4:0:"NF1"'
p7157
(dp7158
g14
S'"NF1"'
p7159
sg16
I0
sg17
S'n4'
p7160
ssS'c2'
p7161
(dp7162
g14
S'compare-01'
p7163
sg16
I2
sg17
g86
ssS'n2:0:"mUbRas"'
p7164
(dp7165
g14
S'"mUbRas"'
p7166
sg16
I0
sg17
S'n2'
p7167
ssS'n7:0:"GAP"'
p7168
(dp7169
g14
S'"GAP"'
p7170
sg16
I0
sg17
S'n7'
p7171
ssS'n:0:"Ras"'
p7172
(dp7173
g14
S'"Ras"'
p7174
sg16
I0
sg17
g72
ssS'n5:0:"NF1"'
p7175
(dp7176
g14
S'"NF1"'
p7177
sg16
I0
sg17
S'n5'
p7178
ssS'p2'
p7179
(dp7180
g14
S'protein'
p7181
sg16
I0
sg17
g757
ssS'n6:0:"GTP"'
p7182
(dp7183
g14
S'"GTP"'
p7184
sg16
I0
sg17
S'n6'
p7185
ssg100
(dp7186
g14
S'we'
p7187
sg16
I0
sg17
g7161
ssS'a3'
p7188
(dp7189
g14
S'and'
p7190
sg16
I2
sg17
g3
ssS'a2'
p7191
(dp7192
g14
S'and'
p7193
sg16
I0
sg17
g89
ssg65
(dp7194
g14
S'end-01'
p7195
sg16
I1
sg17
g3
ssS'e3'
p7196
(dp7197
g14
S'enzyme'
p7198
sg16
I1
sg17
g7191
ssS'e2'
p7199
(dp7200
g14
S'enzyme'
p7201
sg16
I0
sg17
g7191
ssg3
(dp7202
g14
S'amr-glue'
p7203
sg16
I0
sg17
NssS'p3'
p7204
(dp7205
g14
S'protein'
p7206
sg16
I0
sg17
g301
ssg18
(dp7207
g14
S'catalyze-01'
p7208
sg16
I3
sg17
g766
ssS'r:0:333'
p7209
(dp7210
g14
S'333'
p7211
sg16
I0
sg17
g86
ssg757
(dp7212
g14
S'domain'
p7213
sg16
I0
sg17
g18
ssS'p4'
p7214
(dp7215
g14
S'protein'
p7216
sg16
I1
sg17
g766
ssS'p5'
p7217
(dp7218
g14
S'protein'
p7219
sg16
I3
sg17
g3
ssg301
(dp7220
g14
S'include-91'
p7221
sg16
I2
sg17
g7179
ssg766
(dp7222
g14
S'hydrolyze-01'
p7223
sg16
I1
sg17
g86
ssg72
(dp7224
g14
S'name'
p7225
sg16
I0
sg17
g7199
ssg89
(dp7226
g14
S'presence'
p7227
sg16
I0
sg17
g766
ssg92
(dp7228
g14
S'small-molecule'
p7229
sg16
I2
sg17
g766
ssg86
(dp7230
g14
S'rate'
p7231
sg16
I0
sg17
g65
ssg97
(dp7232
g14
S'this'
p7233
sg16
I0
sg17
g3
ssS'p2:0:2'
p7234
(dp7235
g14
g43
sg16
I0
sg17
g7179
ssg7167
(dp7236
g14
S'name'
p7237
sg16
I0
sg17
g7196
ssg7156
(dp7238
g14
S'name'
p7239
sg16
I1
sg17
g7179
ssg7160
(dp7240
g14
S'name'
p7241
sg16
I0
sg17
g7204
ssg7178
(dp7242
g14
S'name'
p7243
sg16
I0
sg17
g7214
ssg7185
(dp7244
g14
S'name'
p7245
sg16
I0
sg17
g92
ssg7171
(dp7246
g14
S'name'
p7247
sg16
I0
sg17
g7217
sssg109
(dp7248
sg111
(dp7249
g7153
(dp7250
sg7157
(dp7251
sg7161
(dp7252
g100
(dp7253
I0
(dp7254
g116
S'ARG0'
p7255
ssssg7164
(dp7256
sg7168
(dp7257
sg7172
(dp7258
sg7175
(dp7259
sg7179
(dp7260
g301
(dp7261
I0
(dp7262
g116
S'ARG2-of'
p7263
sssg7156
(dp7264
I0
(dp7265
g116
S'name'
p7266
sssg7234
(dp7267
I0
(dp7268
g116
S'quant'
p7269
ssssg7182
(dp7270
sg100
(dp7271
sg7188
(dp7272
sg7191
(dp7273
g7196
(dp7274
I0
(dp7275
g116
S'op2'
p7276
sssg7199
(dp7277
I0
(dp7278
g116
S'op1'
p7279
ssssg65
(dp7280
g86
(dp7281
I0
(dp7282
g116
S'ARG1'
p7283
ssssg7196
(dp7284
g7167
(dp7285
I0
(dp7286
g116
S'name'
p7287
ssssg7199
(dp7288
g72
(dp7289
I0
(dp7290
g116
S'name'
p7291
ssssg3
(dp7292
g7188
(dp7293
I0
(dp7294
g116
S'glue3'
p7295
sssg65
(dp7296
I0
(dp7297
g116
S'glue2'
p7298
sssg97
(dp7299
I0
(dp7300
g116
S'glue1'
p7301
sssg7217
(dp7302
I0
(dp7303
g116
S'glue4'
p7304
ssssg7204
(dp7305
g7160
(dp7306
I0
(dp7307
g116
S'name'
p7308
ssssg18
(dp7309
g757
(dp7310
I0
(dp7311
g116
S'ARG0'
p7312
ssssg7209
(dp7313
sg757
(dp7314
g7179
(dp7315
I0
(dp7316
g116
S'part-of'
p7317
ssssg7214
(dp7318
g7178
(dp7319
I0
(dp7320
g116
S'name'
p7321
ssssg7217
(dp7322
g7171
(dp7323
I0
(dp7324
g116
S'name'
p7325
ssssg301
(dp7326
g7204
(dp7327
I0
(dp7328
g116
S'ARG1'
p7329
ssssg766
(dp7330
g89
(dp7331
I0
(dp7332
g116
S'ARG1'
p7333
sssg92
(dp7334
I0
(dp7335
g116
S'ARG3'
p7336
sssg18
(dp7337
I0
(dp7338
g116
S'ARG1-of'
p7339
sssg7214
(dp7340
I0
(dp7341
g116
S'ARG2'
p7342
ssssg72
(dp7343
g7172
(dp7344
I0
(dp7345
g116
S'op1'
p7346
ssssg89
(dp7347
g7191
(dp7348
I0
(dp7349
g116
S'poss'
p7350
ssssg92
(dp7351
g7185
(dp7352
I0
(dp7353
g116
S'name'
p7354
ssssg86
(dp7355
g766
(dp7356
I0
(dp7357
g116
S'mod'
p7358
sssg7209
(dp7359
I0
(dp7360
g116
S'quant'
p7361
sssg7161
(dp7362
I0
(dp7363
g116
S'mod'
p7364
ssssg97
(dp7365
sg7234
(dp7366
sg7167
(dp7367
g7164
(dp7368
I0
(dp7369
g116
S'op1'
p7370
ssssg7156
(dp7371
g7153
(dp7372
I0
(dp7373
g116
S'op1'
p7374
ssssg7160
(dp7375
g7157
(dp7376
I0
(dp7377
g116
S'op1'
p7378
ssssg7178
(dp7379
g7175
(dp7380
I0
(dp7381
g116
S'op1'
p7382
ssssg7185
(dp7383
g7182
(dp7384
I0
(dp7385
g116
S'op1'
p7386
ssssg7171
(dp7387
g7168
(dp7388
I0
(dp7389
g116
S'op1'
p7390
sssssg239
g7249
sg240
(dp7391
g7153
(dp7392
g7156
g7372
ssg7157
(dp7393
g7160
g7376
ssg7161
(dp7394
g86
g7362
ssg7164
(dp7395
g7167
g7368
ssg7168
(dp7396
g7171
g7388
ssg7172
(dp7397
g72
g7344
ssg7175
(dp7398
g7178
g7380
ssg7179
(dp7399
g757
g7315
ssg7182
(dp7400
g7185
g7384
ssg100
(dp7401
g7161
g7253
ssg7188
(dp7402
g3
g7293
ssg7191
(dp7403
g89
g7348
ssg65
(dp7404
g3
g7296
ssg7196
(dp7405
g7191
g7274
ssg7199
(dp7406
g7191
g7277
ssg3
(dp7407
sg7204
(dp7408
g301
g7327
ssg18
(dp7409
g766
g7337
ssg7209
(dp7410
g86
g7359
ssg757
(dp7411
g18
g7310
ssg7214
(dp7412
g766
g7340
ssg7217
(dp7413
g3
g7302
ssg301
(dp7414
g7179
g7261
ssg766
(dp7415
g86
g7356
ssg72
(dp7416
g7199
g7289
ssg89
(dp7417
g766
g7331
ssg92
(dp7418
g766
g7334
ssg86
(dp7419
g65
g7281
ssg97
(dp7420
g3
g7299
ssg7234
(dp7421
g7179
g7267
ssg7167
(dp7422
g7196
g7285
ssg7156
(dp7423
g7179
g7264
ssg7160
(dp7424
g7204
g7306
ssg7178
(dp7425
g7214
g7319
ssg7185
(dp7426
g92
g7352
ssg7171
(dp7427
g7217
g7323
sssg274
g7249
sbaS'To this end we compared the rate of GTP hydrolysis for Ras and mUbRas in the presence of the catalytic domains of two GAPs , NF1 ( NF1 @-@ 333 ) and p120GAP( GAP @-@ 334 ) .'
p7428
asS'bio.bmtr_0004.7'
p7429
(lp7430
g86
ag4
(g5
g6
Ntp7431
Rp7432
(dp7433
g10
(dp7434
g18
(dp7435
g14
S'cause-01'
p7436
sg16
I1
sg17
g65
ssS'n:0:"GAP"'
p7437
(dp7438
g14
S'"GAP"'
p7439
sg16
I0
sg17
g72
ssg65
(dp7440
g14
S'enzyme'
p7441
sg16
I0
sg17
g86
ssS'n3'
p7442
(dp7443
g14
S'name'
p7444
sg16
I0
sg17
S'e2'
p7445
ssS'r2'
p7446
(dp7447
g14
S'resemble-01'
p7448
sg16
I3
sg17
g86
ssS'm4'
p7449
(dp7450
g14
S'mutate-01'
p7451
sg16
I3
sg17
g7445
ssS'n3:0:"Ras"'
p7452
(dp7453
g14
S'"Ras"'
p7454
sg16
I0
sg17
g7442
ssS's:0:-'
p7455
(dp7456
g14
g678
sg16
I0
sg17
g92
ssg81
(dp7457
g14
S'mediate-01'
p7458
sg16
I1
sg17
g86
ssS'n2:0:"mUbRas"'
p7459
(dp7460
g14
S'"mUbRas"'
p7461
sg16
I0
sg17
S'n2'
p7462
ssS'm2:0:"G12V"'
p7463
(dp7464
g14
S'"G12V"'
p7465
sg16
I0
sg17
S'm2'
p7466
ssg89
(dp7467
g14
S'protein'
p7468
sg16
I0
sg17
g81
ssg92
(dp7469
g14
S'sensitive-41'
p7470
sg16
I2
sg17
g86
ssg86
(dp7471
g14
S'regulate-01'
p7472
sg16
I0
sg17
Nssg7466
(dp7473
g14
S'mutate-01'
p7474
sg16
I2
sg17
g7445
ssS'c3'
p7475
(dp7476
g14
S'cancer'
p7477
sg16
I0
sg17
S'c2'
p7478
ssg7478
(dp7479
g14
S'cause-01'
p7480
sg16
I1
sg17
g7445
ssg7462
(dp7481
g14
S'name'
p7482
sg16
I0
sg17
g65
ssg72
(dp7483
g14
S'name'
p7484
sg16
I0
sg17
g89
ssg7445
(dp7485
g14
S'enzyme'
p7486
sg16
I0
sg17
g7446
sssg109
(dp7487
sg111
(dp7488
g18
(dp7489
sg7437
(dp7490
sg65
(dp7491
g7462
(dp7492
I0
(dp7493
g116
S'name'
p7494
sssg18
(dp7495
I0
(dp7496
g116
S'ARG0-of'
p7497
ssssg7442
(dp7498
g7452
(dp7499
I0
(dp7500
g116
S'op1'
p7501
ssssg7446
(dp7502
g7445
(dp7503
I0
(dp7504
g116
S'ARG2'
p7505
ssssg7449
(dp7506
sg7452
(dp7507
sg7455
(dp7508
sg81
(dp7509
g89
(dp7510
I0
(dp7511
g116
S'ARG0'
p7512
ssssg7459
(dp7513
sg7463
(dp7514
sg89
(dp7515
g72
(dp7516
I0
(dp7517
g116
S'name'
p7518
ssssg92
(dp7519
g7455
(dp7520
I0
(dp7521
g116
S'polarity'
p7522
ssssg86
(dp7523
g81
(dp7524
I0
(dp7525
g116
S'ARG1-of'
p7526
sssg92
(dp7527
I0
(dp7528
g116
S'manner'
p7529
sssg65
(dp7530
I0
(dp7531
g116
S'ARG1'
p7532
sssg7446
(dp7533
I0
(dp7534
g116
S'ARG1-of'
p7535
ssssg7466
(dp7536
g7463
(dp7537
I0
(dp7538
g116
S'value'
p7539
ssssg7475
(dp7540
sg7478
(dp7541
g7475
(dp7542
I0
(dp7543
g116
S'ARG1'
p7544
ssssg7462
(dp7545
g7459
(dp7546
I0
(dp7547
g116
S'op1'
p7548
ssssg72
(dp7549
g7437
(dp7550
I0
(dp7551
g116
S'op1'
p7552
ssssg7445
(dp7553
g7478
(dp7554
I0
(dp7555
g116
S'ARG0-of'
p7556
sssg7442
(dp7557
I0
(dp7558
g116
S'name'
p7559
sssg7449
(dp7560
I0
(dp7561
g116
S'ARG2-of'
p7562
sssg7466
(dp7563
I0
(dp7564
g116
S'ARG2-of'
p7565
sssssg239
g7488
sg240
(dp7566
g18
(dp7567
g65
g7495
ssg7437
(dp7568
g72
g7550
ssg65
(dp7569
g86
g7530
ssg7442
(dp7570
g7445
g7557
ssg7446
(dp7571
g86
g7533
ssg7449
(dp7572
g7445
g7560
ssg7452
(dp7573
g7442
g7499
ssg7455
(dp7574
g92
g7520
ssg81
(dp7575
g86
g7524
ssg7459
(dp7576
g7462
g7546
ssg7463
(dp7577
g7466
g7537
ssg89
(dp7578
g81
g7510
ssg92
(dp7579
g86
g7527
ssg86
(dp7580
sg7466
(dp7581
g7445
g7563
ssg7475
(dp7582
g7478
g7542
ssg7478
(dp7583
g7445
g7554
ssg7462
(dp7584
g65
g7492
ssg72
(dp7585
g89
g7516
ssg7445
(dp7586
g7446
g7503
sssg274
g7488
sbaS'Therefore , mUbRas is insensitive to GAP @-@ mediated regulation , similar to an oncogenic Ras @-@ G12V mutation .'
p7587
asS'bio.bmtr_0004.6'
p7588
(lp7589
g3
ag4
(g5
g6
Ntp7590
Rp7591
(dp7592
g10
(dp7593
S'n3:0:"GAP"'
p7594
(dp7595
g14
S'"GAP"'
p7596
sg16
I0
sg17
S'n3'
p7597
ssS'n4:0:"Ras"'
p7598
(dp7599
g14
S'"Ras"'
p7600
sg16
I0
sg17
S'n4'
p7601
ssS'n2:0:"mUbRas"'
p7602
(dp7603
g14
S'"mUbRas"'
p7604
sg16
I0
sg17
S'n2'
p7605
ssg89
(dp7606
g14
S'presence'
p7607
sg16
I2
sg17
g68
ssS's2'
p7608
(dp7609
g14
S'same'
p7610
sg16
I1
sg17
S'p2'
p7611
ssS'n:0:"GTP"'
p7612
(dp7613
g14
S'"GTP"'
p7614
sg16
I0
sg17
g72
ssS'i:0:-'
p7615
(dp7616
g14
g678
sg16
I0
sg17
g301
ssS'i2'
p7617
(dp7618
g14
S'include-91'
p7619
sg16
I0
sg17
S'r2'
p7620
ssS'f:0:"5b"'
p7621
(dp7622
g14
S'"5b"'
p7623
sg16
I0
sg17
g32
ssS'e2'
p7624
(dp7625
g14
S'enzyme'
p7626
sg16
I1
sg17
g3
ssg3
(dp7627
g14
S'amr-glue'
p7628
sg16
I0
sg17
Nssg65
(dp7629
g14
S'enzyme'
p7630
sg16
I1
sg17
g68
ssg7620
(dp7631
g14
S'ratio'
p7632
sg16
I2
sg17
g3
ssg32
(dp7633
g14
S'figure'
p7634
sg16
I0
sg17
g7617
ssg301
(dp7635
g14
S'increase-01'
p7636
sg16
I0
sg17
g68
ssg766
(dp7637
g14
S'hydrolyze-01'
p7638
sg16
I0
sg17
g86
ssg68
(dp7639
g14
S'observe-01'
p7640
sg16
I0
sg17
g3
ssg72
(dp7641
g14
S'name'
p7642
sg16
I0
sg17
g92
ssg7611
(dp7643
g14
S'protein'
p7644
sg16
I0
sg17
g89
ssg92
(dp7645
g14
S'small-molecule'
p7646
sg16
I0
sg17
g766
ssg86
(dp7647
g14
S'rate'
p7648
sg16
I1
sg17
g301
ssg7605
(dp7649
g14
S'name'
p7650
sg16
I0
sg17
g65
ssg7597
(dp7651
g14
S'name'
p7652
sg16
I0
sg17
g7611
ssg7601
(dp7653
g14
S'name'
p7654
sg16
I0
sg17
g7624
sssg109
(dp7655
sg111
(dp7656
g7594
(dp7657
sg7598
(dp7658
sg7602
(dp7659
sg89
(dp7660
g7611
(dp7661
I0
(dp7662
g116
S'poss'
p7663
ssssg7608
(dp7664
sg7612
(dp7665
sg7615
(dp7666
sg7617
(dp7667
g32
(dp7668
I0
(dp7669
g116
S'ARG1'
p7670
ssssg7621
(dp7671
sg7624
(dp7672
g7601
(dp7673
I0
(dp7674
g116
S'name'
p7675
ssssg3
(dp7676
g7620
(dp7677
I0
(dp7678
g116
S'glue3'
p7679
sssg68
(dp7680
I0
(dp7681
g116
S'glue1'
p7682
sssg7624
(dp7683
I0
(dp7684
g116
S'glue2'
p7685
ssssg65
(dp7686
g7605
(dp7687
I0
(dp7688
g116
S'name'
p7689
ssssg7620
(dp7690
g7617
(dp7691
I0
(dp7692
g116
S'ARG2-of'
p7693
ssssg32
(dp7694
g7621
(dp7695
I0
(dp7696
g116
S'mod'
p7697
ssssg301
(dp7698
g7615
(dp7699
I0
(dp7700
g116
S'polarity'
p7701
sssg86
(dp7702
I0
(dp7703
g116
S'ARG1'
p7704
ssssg766
(dp7705
g92
(dp7706
I0
(dp7707
g116
S'ARG1'
p7708
ssssg68
(dp7709
g301
(dp7710
I0
(dp7711
g116
S'ARG1'
p7712
sssg89
(dp7713
I0
(dp7714
g116
S'location'
p7715
sssg65
(dp7716
I0
(dp7717
g116
S'ARG2'
p7718
ssssg72
(dp7719
g7612
(dp7720
I0
(dp7721
g116
S'op1'
p7722
ssssg7611
(dp7723
g7608
(dp7724
I0
(dp7725
g116
S'mod'
p7726
sssg7597
(dp7727
I0
(dp7728
g116
S'name'
p7729
ssssg92
(dp7730
g72
(dp7731
I0
(dp7732
g116
S'name'
p7733
ssssg86
(dp7734
g766
(dp7735
I0
(dp7736
g116
S'mod'
p7737
ssssg7605
(dp7738
g7602
(dp7739
I0
(dp7740
g116
S'op1'
p7741
ssssg7597
(dp7742
g7594
(dp7743
I0
(dp7744
g116
S'op1'
p7745
ssssg7601
(dp7746
g7598
(dp7747
I0
(dp7748
g116
S'op1'
p7749
sssssg239
g7656
sg240
(dp7750
g7594
(dp7751
g7597
g7743
ssg7598
(dp7752
g7601
g7747
ssg7602
(dp7753
g7605
g7739
ssg89
(dp7754
g68
g7713
ssg7608
(dp7755
g7611
g7724
ssg7612
(dp7756
g72
g7720
ssg7615
(dp7757
g301
g7699
ssg7617
(dp7758
g7620
g7691
ssg7621
(dp7759
g32
g7695
ssg7624
(dp7760
g3
g7683
ssg3
(dp7761
sg65
(dp7762
g68
g7716
ssg7620
(dp7763
g3
g7677
ssg32
(dp7764
g7617
g7668
ssg301
(dp7765
g68
g7710
ssg766
(dp7766
g86
g7735
ssg68
(dp7767
g3
g7680
ssg72
(dp7768
g92
g7731
ssg7611
(dp7769
g89
g7661
ssg92
(dp7770
g766
g7706
ssg86
(dp7771
g301
g7702
ssg7605
(dp7772
g65
g7687
ssg7597
(dp7773
g7611
g7727
ssg7601
(dp7774
g7624
g7673
sssg274
g7656
sbaS'No increase in the rate of GTP hydrolysis was observed for mUbRas in the presence of the same GAP @-@ to Ras ratio ( Fig . 5b ) .'
p7775
asS'bio.bmtr_0005.4'
p7776
(lp7777
g3
ag4
(g5
g6
Ntp7778
Rp7779
(dp7780
g10
(dp7781
S'n4:0:"ASPP2"'
p7782
(dp7783
g14
S'"ASPP2"'
p7784
sg16
I0
sg17
S'n4'
p7785
ssS'n3:0:"ASPP1"'
p7786
(dp7787
g14
S'"ASPP1"'
p7788
sg16
I0
sg17
S'n3'
p7789
ssS's2'
p7790
(dp7791
g14
S'signal-01'
p7792
sg16
I0
sg17
S'p3'
p7793
ssS'm3'
p7794
(dp7795
g14
S'mediate-01'
p7796
sg16
I0
sg17
S'e3'
p7797
ssS'm2'
p7798
(dp7799
g14
S'macro-molecular-complex'
p7800
sg16
I1
sg17
g308
ssS'n2:0:"GTP"'
p7801
(dp7802
g14
S'"GTP"'
p7803
sg16
I0
sg17
S'n2'
p7804
ssS'n6:0:"p53"'
p7805
(dp7806
g14
S'"p53"'
p7807
sg16
I0
sg17
S'n6'
p7808
ssS'p2'
p7809
(dp7810
g14
S'protein'
p7811
sg16
I1
sg17
S'a3'
p7812
ssS'n5:0:"RAS"'
p7813
(dp7814
g14
S'"RAS"'
p7815
sg16
I0
sg17
S'n5'
p7816
ssg7812
(dp7817
g14
S'and'
p7818
sg16
I0
sg17
g308
ssS'a2'
p7819
(dp7820
g14
S'and'
p7821
sg16
I1
sg17
g3
ssS'a4'
p7822
(dp7823
g14
S'apoptosis'
p7824
sg16
I1
sg17
g7794
ssg7797
(dp7825
g14
S'enhance-01'
p7826
sg16
I1
sg17
g7790
ssS'e2'
p7827
(dp7828
g14
S'enzyme'
p7829
sg16
I0
sg17
g7790
ssg3
(dp7830
g14
S'amr-glue'
p7831
sg16
I0
sg17
Nssg7793
(dp7832
g14
S'potentiate-00'
p7833
sg16
I1
sg17
g7819
ssg308
(dp7834
g14
S'bind-01'
p7835
sg16
I0
sg17
g7819
ssg65
(dp7836
g14
S'enzyme'
p7837
sg16
I0
sg17
g7798
ssS'n:0:"RAS"'
p7838
(dp7839
g14
S'"RAS"'
p7840
sg16
I0
sg17
g72
ssS'p4'
p7841
(dp7842
g14
S'protein'
p7843
sg16
I0
sg17
g7794
ssg81
(dp7844
g14
S'mechanistic'
p7845
sg16
I0
sg17
g3
ssg72
(dp7846
g14
S'name'
p7847
sg16
I0
sg17
g65
ssg89
(dp7848
g14
S'protein'
p7849
sg16
I0
sg17
g7812
ssg92
(dp7850
g14
S'small-molecule'
p7851
sg16
I1
sg17
g7798
ssg7804
(dp7852
g14
S'name'
p7853
sg16
I0
sg17
g92
ssg7789
(dp7854
g14
S'name'
p7855
sg16
I0
sg17
g89
ssg7785
(dp7856
g14
S'name'
p7857
sg16
I0
sg17
g7809
ssg7816
(dp7858
g14
S'name'
p7859
sg16
I0
sg17
g7827
ssg7808
(dp7860
g14
S'name'
p7861
sg16
I0
sg17
g7841
sssg109
(dp7862
sg111
(dp7863
g7782
(dp7864
sg7786
(dp7865
sg7790
(dp7866
g7797
(dp7867
I0
(dp7868
g116
S'ARG1'
p7869
sssg7827
(dp7870
I0
(dp7871
g116
S'ARG0'
p7872
ssssg7794
(dp7873
g7822
(dp7874
I0
(dp7875
g116
S'ARG1'
p7876
sssg7841
(dp7877
I0
(dp7878
g116
S'ARG0'
p7879
ssssg7798
(dp7880
g92
(dp7881
I0
(dp7882
g116
S'part'
p7883
sssg65
(dp7884
I0
(dp7885
g116
S'part'
p7886
ssssg7801
(dp7887
sg7805
(dp7888
sg7809
(dp7889
g7785
(dp7890
I0
(dp7891
g116
S'name'
p7892
ssssg7813
(dp7893
sg7812
(dp7894
g7809
(dp7895
I0
(dp7896
g116
S'op2'
p7897
sssg89
(dp7898
I0
(dp7899
g116
S'op1'
p7900
ssssg7819
(dp7901
g7793
(dp7902
I0
(dp7903
g116
S'op2'
p7904
sssg308
(dp7905
I0
(dp7906
g116
S'op1'
p7907
ssssg7822
(dp7908
sg7797
(dp7909
g7794
(dp7910
I0
(dp7911
g116
S'ARG1'
p7912
ssssg7827
(dp7913
g7816
(dp7914
I0
(dp7915
g116
S'name'
p7916
ssssg3
(dp7917
g7819
(dp7918
I0
(dp7919
g116
S'glue2'
p7920
sssg81
(dp7921
I0
(dp7922
g116
S'glue1'
p7923
ssssg7793
(dp7924
g7790
(dp7925
I0
(dp7926
g116
S'ARG1'
p7927
ssssg308
(dp7928
g7812
(dp7929
I0
(dp7930
g116
S'ARG1'
p7931
sssg7798
(dp7932
I0
(dp7933
g116
S'ARG2'
p7934
ssssg65
(dp7935
g72
(dp7936
I0
(dp7937
g116
S'name'
p7938
ssssg7838
(dp7939
sg7841
(dp7940
g7808
(dp7941
I0
(dp7942
g116
S'name'
p7943
ssssg81
(dp7944
sg72
(dp7945
g7838
(dp7946
I0
(dp7947
g116
S'op1'
p7948
ssssg89
(dp7949
g7789
(dp7950
I0
(dp7951
g116
S'name'
p7952
ssssg92
(dp7953
g7804
(dp7954
I0
(dp7955
g116
S'name'
p7956
ssssg7804
(dp7957
g7801
(dp7958
I0
(dp7959
g116
S'op1'
p7960
ssssg7789
(dp7961
g7786
(dp7962
I0
(dp7963
g116
S'op1'
p7964
ssssg7785
(dp7965
g7782
(dp7966
I0
(dp7967
g116
S'op1'
p7968
ssssg7816
(dp7969
g7813
(dp7970
I0
(dp7971
g116
S'op1'
p7972
ssssg7808
(dp7973
g7805
(dp7974
I0
(dp7975
g116
S'op1'
p7976
sssssg239
g7863
sg240
(dp7977
g7782
(dp7978
g7785
g7966
ssg7786
(dp7979
g7789
g7962
ssg7790
(dp7980
g7793
g7925
ssg7794
(dp7981
g7797
g7910
ssg7798
(dp7982
g308
g7932
ssg7801
(dp7983
g7804
g7958
ssg7805
(dp7984
g7808
g7974
ssg7809
(dp7985
g7812
g7895
ssg7813
(dp7986
g7816
g7970
ssg7812
(dp7987
g308
g7929
ssg7819
(dp7988
g3
g7918
ssg7822
(dp7989
g7794
g7874
ssg7797
(dp7990
g7790
g7867
ssg7827
(dp7991
g7790
g7870
ssg3
(dp7992
sg7793
(dp7993
g7819
g7902
ssg308
(dp7994
g7819
g7905
ssg65
(dp7995
g7798
g7884
ssg7838
(dp7996
g72
g7946
ssg7841
(dp7997
g7794
g7877
ssg81
(dp7998
g3
g7921
ssg72
(dp7999
g65
g7936
ssg89
(dp8000
g7812
g7898
ssg92
(dp8001
g7798
g7881
ssg7804
(dp8002
g92
g7954
ssg7789
(dp8003
g89
g7950
ssg7785
(dp8004
g7809
g7890
ssg7816
(dp8005
g7827
g7914
ssg7808
(dp8006
g7841
g7941
sssg274
g7863
sbaS'Mechanistically ASPP1 and ASPP2 bind RAS @-@ GTP and potentiates RAS signalling to enhance p53 mediated apoptosis [2].'
p8007
asS'bio.bmtr_0005.6'
p8008
(lp8009
g92
ag4
(g5
g6
Ntp8010
Rp8011
(dp8012
g10
(dp8013
S'p2'
p8014
(dp8015
g14
S'pathway'
p8016
sg16
I1
sg17
g65
ssg65
(dp8017
g14
S'enzyme'
p8018
sg16
I0
sg17
g92
ssg757
(dp8019
g14
S'downstream'
p8020
sg16
I0
sg17
g8014
ssS's2'
p8021
(dp8022
g14
S'study-01'
p8023
sg16
I1
sg17
g8014
ssS'n:0:"Raf-MAPK"'
p8024
(dp8025
g14
S'"Raf-MAPK"'
p8026
sg16
I0
sg17
g72
ssS'n2:0:"RAS"'
p8027
(dp8028
g14
S'"RAS"'
p8029
sg16
I0
sg17
S'n2'
p8030
ssg81
(dp8031
g14
S'most'
p8032
sg16
I0
sg17
g8021
ssg72
(dp8033
g14
S'name'
p8034
sg16
I0
sg17
g89
ssg89
(dp8035
g14
S'pathway'
p8036
sg16
I1
sg17
g92
ssg92
(dp8037
g14
S'signal-01'
p8038
sg16
I0
sg17
NssS'm:0:1'
p8039
(dp8040
g14
g4269
sg16
I0
sg17
g81
ssg8030
(dp8041
g14
S'name'
p8042
sg16
I0
sg17
g65
sssg109
(dp8043
sg111
(dp8044
g8014
(dp8045
g8021
(dp8046
I0
(dp8047
g116
S'ARG1-of'
p8048
sssg757
(dp8049
I0
(dp8050
g116
S'mod'
p8051
ssssg65
(dp8052
g8014
(dp8053
I0
(dp8054
g116
S'quant'
p8055
sssg8030
(dp8056
I0
(dp8057
g116
S'name'
p8058
ssssg757
(dp8059
sg8021
(dp8060
g81
(dp8061
I0
(dp8062
g116
S'mod'
p8063
ssssg8024
(dp8064
sg8027
(dp8065
sg81
(dp8066
g8039
(dp8067
I0
(dp8068
g116
S'quant'
p8069
ssssg72
(dp8070
g8024
(dp8071
I0
(dp8072
g116
S'op1'
p8073
ssssg89
(dp8074
g72
(dp8075
I0
(dp8076
g116
S'name'
p8077
ssssg92
(dp8078
g89
(dp8079
I0
(dp8080
g116
S'ARG1'
p8081
sssg65
(dp8082
I0
(dp8083
g116
S'ARG0'
p8084
ssssg8039
(dp8085
sg8030
(dp8086
g8027
(dp8087
I0
(dp8088
g116
S'op1'
p8089
sssssg239
g8044
sg240
(dp8090
g8014
(dp8091
g65
g8053
ssg65
(dp8092
g92
g8082
ssg757
(dp8093
g8014
g8049
ssg8021
(dp8094
g8014
g8046
ssg8024
(dp8095
g72
g8071
ssg8027
(dp8096
g8030
g8087
ssg81
(dp8097
g8021
g8061
ssg72
(dp8098
g89
g8075
ssg89
(dp8099
g92
g8079
ssg92
(dp8100
sg8039
(dp8101
g81
g8067
ssg8030
(dp8102
g65
g8056
sssg274
g8044
sbaS'One of the most studied downstream pathways of RAS signalling is the Raf @-@ MAPK pathway .'
p8103
as.